ARM GAS  C:\Users\Vento\AppData\Local\Temp\ccbCGaib.s 			page 1


   1              		.cpu cortex-m3
   2              		.eabi_attribute 20, 1
   3              		.eabi_attribute 21, 1
   4              		.eabi_attribute 23, 3
   5              		.eabi_attribute 24, 1
   6              		.eabi_attribute 25, 1
   7              		.eabi_attribute 26, 1
   8              		.eabi_attribute 30, 1
   9              		.eabi_attribute 34, 1
  10              		.eabi_attribute 18, 4
  11              		.file	"common.c"
  12              		.text
  13              	.Ltext0:
  14              		.cfi_sections	.debug_frame
  15              		.section	.text.Log_Init,"ax",%progbits
  16              		.align	1
  17              		.global	Log_Init
  18              		.arch armv7-m
  19              		.syntax unified
  20              		.thumb
  21              		.thumb_func
  22              		.fpu softvfp
  24              	Log_Init:
  25              	.LFB72:
  26              		.file 1 "Core/Src/common.c"
   1:Core/Src/common.c **** /*
   2:Core/Src/common.c ****  * common.c
   3:Core/Src/common.c ****  *
   4:Core/Src/common.c ****  *  Created on: Feb 8, 2023
   5:Core/Src/common.c ****  *      Author: dung
   6:Core/Src/common.c ****  */
   7:Core/Src/common.c **** 
   8:Core/Src/common.c **** #include <stdio.h>
   9:Core/Src/common.c **** #include <stdint.h>
  10:Core/Src/common.c **** #include <string.h>
  11:Core/Src/common.c **** #include <stdlib.h>
  12:Core/Src/common.c **** #include <errno.h>
  13:Core/Src/common.c **** #include <sys/unistd.h>
  14:Core/Src/common.c **** #include <stdarg.h>
  15:Core/Src/common.c **** #include <string.h>
  16:Core/Src/common.c **** #include <math.h>
  17:Core/Src/common.c **** #include <stdbool.h>
  18:Core/Src/common.c **** #include <time.h>
  19:Core/Src/common.c **** 
  20:Core/Src/common.c **** #include "main.h"
  21:Core/Src/common.c **** 
  22:Core/Src/common.c **** #include "common.h"
  23:Core/Src/common.c **** 
  24:Core/Src/common.c **** #define USE_UART
  25:Core/Src/common.c **** #define USE_FREERTOS
  26:Core/Src/common.c **** 
  27:Core/Src/common.c **** 
  28:Core/Src/common.c **** #ifdef USE_FREERTOS
  29:Core/Src/common.c **** #include "FreeRTOS.h"
  30:Core/Src/common.c **** #include "semphr.h"
  31:Core/Src/common.c **** // #include "task.h"
  32:Core/Src/common.c **** // #include "cmsis_os.h"
ARM GAS  C:\Users\Vento\AppData\Local\Temp\ccbCGaib.s 			page 2


  33:Core/Src/common.c **** #include "portmacro.h"
  34:Core/Src/common.c **** 
  35:Core/Src/common.c **** static SemaphoreHandle_t log_semaphore;
  36:Core/Src/common.c **** 
  37:Core/Src/common.c **** void Log_Init(void)
  38:Core/Src/common.c **** {
  27              		.loc 1 38 1 view -0
  28              		.cfi_startproc
  29              		@ args = 0, pretend = 0, frame = 0
  30              		@ frame_needed = 0, uses_anonymous_args = 0
  31 0000 08B5     		push	{r3, lr}
  32              	.LCFI0:
  33              		.cfi_def_cfa_offset 8
  34              		.cfi_offset 3, -8
  35              		.cfi_offset 14, -4
  39:Core/Src/common.c ****     log_semaphore = xSemaphoreCreateBinary();
  36              		.loc 1 39 5 view .LVU1
  37              		.loc 1 39 21 is_stmt 0 view .LVU2
  38 0002 0322     		movs	r2, #3
  39 0004 0021     		movs	r1, #0
  40 0006 0120     		movs	r0, #1
  41 0008 FFF7FEFF 		bl	xQueueGenericCreate
  42              	.LVL0:
  43              		.loc 1 39 19 view .LVU3
  44 000c 034B     		ldr	r3, .L3
  45 000e 1860     		str	r0, [r3]
  40:Core/Src/common.c ****     xSemaphoreGive(log_semaphore);
  46              		.loc 1 40 5 is_stmt 1 view .LVU4
  47 0010 0023     		movs	r3, #0
  48 0012 1A46     		mov	r2, r3
  49 0014 1946     		mov	r1, r3
  50 0016 FFF7FEFF 		bl	xQueueGenericSend
  51              	.LVL1:
  41:Core/Src/common.c **** }
  52              		.loc 1 41 1 is_stmt 0 view .LVU5
  53 001a 08BD     		pop	{r3, pc}
  54              	.L4:
  55              		.align	2
  56              	.L3:
  57 001c 00000000 		.word	.LANCHOR0
  58              		.cfi_endproc
  59              	.LFE72:
  61              		.section	.text.vprint,"ax",%progbits
  62              		.align	1
  63              		.global	vprint
  64              		.syntax unified
  65              		.thumb
  66              		.thumb_func
  67              		.fpu softvfp
  69              	vprint:
  70              	.LVL2:
  71              	.LFB74:
  42:Core/Src/common.c **** 
  43:Core/Src/common.c **** #else
  44:Core/Src/common.c **** void Log_Init(void) {}
  45:Core/Src/common.c **** #endif
  46:Core/Src/common.c **** 
ARM GAS  C:\Users\Vento\AppData\Local\Temp\ccbCGaib.s 			page 3


  47:Core/Src/common.c **** #ifdef USE_USB
  48:Core/Src/common.c **** #include "usbd_cdc_if.h"
  49:Core/Src/common.c **** extern USBD_HandleTypeDef hUsbDeviceFS;
  50:Core/Src/common.c **** #endif
  51:Core/Src/common.c **** 
  52:Core/Src/common.c **** #ifdef USE_UART
  53:Core/Src/common.c **** #include "usart.h"
  54:Core/Src/common.c **** #define UART    (&huart1)
  55:Core/Src/common.c **** #endif
  56:Core/Src/common.c **** 
  57:Core/Src/common.c **** 
  58:Core/Src/common.c **** void LOG(const char *TAG, char *data)
  59:Core/Src/common.c **** {
  60:Core/Src/common.c **** #ifdef USE_UART
  61:Core/Src/common.c **** 	// HAL_UART_Transmit(UART, (uint8_t*)TAG, strlen(TAG), 100);
  62:Core/Src/common.c ****     // HAL_UART_Transmit(UART, (uint8_t*)" - ", 3, 100);
  63:Core/Src/common.c ****     // HAL_UART_Transmit(UART, (uint8_t*)data, strlen(data), 100);
  64:Core/Src/common.c **** 
  65:Core/Src/common.c ****     logPC("%s - %s", TAG, data);
  66:Core/Src/common.c **** #endif
  67:Core/Src/common.c **** 
  68:Core/Src/common.c **** #ifdef USE_USB
  69:Core/Src/common.c **** 
  70:Core/Src/common.c **** 
  71:Core/Src/common.c **** #endif /* USE_USB */
  72:Core/Src/common.c **** }
  73:Core/Src/common.c **** 
  74:Core/Src/common.c **** #if DEBUG == 1
  75:Core/Src/common.c **** 
  76:Core/Src/common.c **** static char string[200];
  77:Core/Src/common.c **** 
  78:Core/Src/common.c **** /**
  79:Core/Src/common.c ****  * @brief 
  80:Core/Src/common.c ****  * 
  81:Core/Src/common.c ****  * @param fmt 
  82:Core/Src/common.c ****  * @param argp 
  83:Core/Src/common.c ****  */
  84:Core/Src/common.c **** void vprint(const char *fmt, va_list argp)
  85:Core/Src/common.c **** {
  72              		.loc 1 85 1 is_stmt 1 view -0
  73              		.cfi_startproc
  74              		@ args = 0, pretend = 0, frame = 0
  75              		@ frame_needed = 0, uses_anonymous_args = 0
  76              		.loc 1 85 1 is_stmt 0 view .LVU7
  77 0000 70B5     		push	{r4, r5, r6, lr}
  78              	.LCFI1:
  79              		.cfi_def_cfa_offset 16
  80              		.cfi_offset 4, -16
  81              		.cfi_offset 5, -12
  82              		.cfi_offset 6, -8
  83              		.cfi_offset 14, -4
  84 0002 0446     		mov	r4, r0
  85 0004 0D46     		mov	r5, r1
  86              	.LVL3:
  86:Core/Src/common.c ****     memset(string, '\0', sizeof(string));
  87              		.loc 1 86 5 is_stmt 1 view .LVU8
  88 0006 0C4E     		ldr	r6, .L9
ARM GAS  C:\Users\Vento\AppData\Local\Temp\ccbCGaib.s 			page 4


  89 0008 C822     		movs	r2, #200
  90 000a 0021     		movs	r1, #0
  91 000c 3046     		mov	r0, r6
  92              	.LVL4:
  93              		.loc 1 86 5 is_stmt 0 view .LVU9
  94 000e FFF7FEFF 		bl	memset
  95              	.LVL5:
  87:Core/Src/common.c ****     if(0 < vsprintf(string, fmt, argp)) // build string
  96              		.loc 1 87 5 is_stmt 1 view .LVU10
  97              		.loc 1 87 12 is_stmt 0 view .LVU11
  98 0012 2A46     		mov	r2, r5
  99 0014 2146     		mov	r1, r4
 100 0016 3046     		mov	r0, r6
 101 0018 FFF7FEFF 		bl	vsprintf
 102              	.LVL6:
 103              		.loc 1 87 7 view .LVU12
 104 001c 0028     		cmp	r0, #0
 105 001e 00DC     		bgt	.L8
 106              	.L5:
  88:Core/Src/common.c ****     {
  89:Core/Src/common.c **** #ifdef USE_UART
  90:Core/Src/common.c ****         HAL_UART_Transmit(UART, (uint8_t*)string, strlen(string), 100);
  91:Core/Src/common.c **** #endif
  92:Core/Src/common.c **** #ifdef USE_USB
  93:Core/Src/common.c ****         CDC_Transmit_FS(string, strlen(string));
  94:Core/Src/common.c **** #endif /* USE_USB */
  95:Core/Src/common.c ****     }
  96:Core/Src/common.c **** }
 107              		.loc 1 96 1 view .LVU13
 108 0020 70BD     		pop	{r4, r5, r6, pc}
 109              	.LVL7:
 110              	.L8:
  90:Core/Src/common.c **** #endif
 111              		.loc 1 90 9 is_stmt 1 view .LVU14
  90:Core/Src/common.c **** #endif
 112              		.loc 1 90 51 is_stmt 0 view .LVU15
 113 0022 3046     		mov	r0, r6
 114 0024 FFF7FEFF 		bl	strlen
 115              	.LVL8:
  90:Core/Src/common.c **** #endif
 116              		.loc 1 90 9 view .LVU16
 117 0028 6423     		movs	r3, #100
 118 002a 82B2     		uxth	r2, r0
 119 002c 3146     		mov	r1, r6
 120 002e 0348     		ldr	r0, .L9+4
 121 0030 FFF7FEFF 		bl	HAL_UART_Transmit
 122              	.LVL9:
 123              		.loc 1 96 1 view .LVU17
 124 0034 F4E7     		b	.L5
 125              	.L10:
 126 0036 00BF     		.align	2
 127              	.L9:
 128 0038 00000000 		.word	.LANCHOR1
 129 003c 00000000 		.word	huart1
 130              		.cfi_endproc
 131              	.LFE74:
 133              		.section	.text.logPC,"ax",%progbits
ARM GAS  C:\Users\Vento\AppData\Local\Temp\ccbCGaib.s 			page 5


 134              		.align	1
 135              		.global	logPC
 136              		.syntax unified
 137              		.thumb
 138              		.thumb_func
 139              		.fpu softvfp
 141              	logPC:
 142              	.LVL10:
 143              	.LFB75:
  97:Core/Src/common.c **** 
  98:Core/Src/common.c **** /**
  99:Core/Src/common.c ****  * @brief custom printf() function
 100:Core/Src/common.c ****  * 
 101:Core/Src/common.c ****  * @param fmt 
 102:Core/Src/common.c ****  * @param ... 
 103:Core/Src/common.c ****  */
 104:Core/Src/common.c **** void logPC(const char *fmt, ...)
 105:Core/Src/common.c **** {
 144              		.loc 1 105 1 is_stmt 1 view -0
 145              		.cfi_startproc
 146              		@ args = 4, pretend = 16, frame = 8
 147              		@ frame_needed = 0, uses_anonymous_args = 1
 148              		.loc 1 105 1 is_stmt 0 view .LVU19
 149 0000 0FB4     		push	{r0, r1, r2, r3}
 150              	.LCFI2:
 151              		.cfi_def_cfa_offset 16
 152              		.cfi_offset 0, -16
 153              		.cfi_offset 1, -12
 154              		.cfi_offset 2, -8
 155              		.cfi_offset 3, -4
 156 0002 70B5     		push	{r4, r5, r6, lr}
 157              	.LCFI3:
 158              		.cfi_def_cfa_offset 32
 159              		.cfi_offset 4, -32
 160              		.cfi_offset 5, -28
 161              		.cfi_offset 6, -24
 162              		.cfi_offset 14, -20
 163 0004 82B0     		sub	sp, sp, #8
 164              	.LCFI4:
 165              		.cfi_def_cfa_offset 40
 166 0006 06AC     		add	r4, sp, #24
 167 0008 54F8046B 		ldr	r6, [r4], #4
 106:Core/Src/common.c **** #ifdef USE_FREERTOS
 107:Core/Src/common.c ****     xSemaphoreTake(log_semaphore, portMAX_DELAY);
 168              		.loc 1 107 5 is_stmt 1 view .LVU20
 169 000c 0A4D     		ldr	r5, .L13
 170 000e 4FF0FF31 		mov	r1, #-1
 171 0012 2868     		ldr	r0, [r5]
 172 0014 FFF7FEFF 		bl	xQueueSemaphoreTake
 173              	.LVL11:
 108:Core/Src/common.c **** #endif
 109:Core/Src/common.c ****     va_list argp;
 174              		.loc 1 109 5 view .LVU21
 110:Core/Src/common.c ****     va_start(argp, fmt);
 175              		.loc 1 110 5 view .LVU22
 176 0018 0194     		str	r4, [sp, #4]
 111:Core/Src/common.c ****     vprint(fmt, argp);
ARM GAS  C:\Users\Vento\AppData\Local\Temp\ccbCGaib.s 			page 6


 177              		.loc 1 111 5 view .LVU23
 178 001a 2146     		mov	r1, r4
 179 001c 3046     		mov	r0, r6
 180 001e FFF7FEFF 		bl	vprint
 181              	.LVL12:
 112:Core/Src/common.c ****     va_end(argp);
 182              		.loc 1 112 5 view .LVU24
 113:Core/Src/common.c **** #ifdef USE_FREERTOS
 114:Core/Src/common.c ****     xSemaphoreGive(log_semaphore);
 183              		.loc 1 114 5 view .LVU25
 184 0022 0023     		movs	r3, #0
 185 0024 1A46     		mov	r2, r3
 186 0026 1946     		mov	r1, r3
 187 0028 2868     		ldr	r0, [r5]
 188 002a FFF7FEFF 		bl	xQueueGenericSend
 189              	.LVL13:
 115:Core/Src/common.c **** #endif
 116:Core/Src/common.c **** }
 190              		.loc 1 116 1 is_stmt 0 view .LVU26
 191 002e 02B0     		add	sp, sp, #8
 192              	.LCFI5:
 193              		.cfi_def_cfa_offset 32
 194              		@ sp needed
 195 0030 BDE87040 		pop	{r4, r5, r6, lr}
 196              	.LCFI6:
 197              		.cfi_restore 14
 198              		.cfi_restore 6
 199              		.cfi_restore 5
 200              		.cfi_restore 4
 201              		.cfi_def_cfa_offset 16
 202 0034 04B0     		add	sp, sp, #16
 203              	.LCFI7:
 204              		.cfi_restore 3
 205              		.cfi_restore 2
 206              		.cfi_restore 1
 207              		.cfi_restore 0
 208              		.cfi_def_cfa_offset 0
 209 0036 7047     		bx	lr
 210              	.L14:
 211              		.align	2
 212              	.L13:
 213 0038 00000000 		.word	.LANCHOR0
 214              		.cfi_endproc
 215              	.LFE75:
 217              		.section	.rodata.LOG.str1.4,"aMS",%progbits,1
 218              		.align	2
 219              	.LC0:
 220 0000 2573202D 		.ascii	"%s - %s\000"
 220      20257300 
 221              		.section	.text.LOG,"ax",%progbits
 222              		.align	1
 223              		.global	LOG
 224              		.syntax unified
 225              		.thumb
 226              		.thumb_func
 227              		.fpu softvfp
 229              	LOG:
ARM GAS  C:\Users\Vento\AppData\Local\Temp\ccbCGaib.s 			page 7


 230              	.LVL14:
 231              	.LFB73:
  59:Core/Src/common.c **** #ifdef USE_UART
 232              		.loc 1 59 1 is_stmt 1 view -0
 233              		.cfi_startproc
 234              		@ args = 0, pretend = 0, frame = 0
 235              		@ frame_needed = 0, uses_anonymous_args = 0
  59:Core/Src/common.c **** #ifdef USE_UART
 236              		.loc 1 59 1 is_stmt 0 view .LVU28
 237 0000 08B5     		push	{r3, lr}
 238              	.LCFI8:
 239              		.cfi_def_cfa_offset 8
 240              		.cfi_offset 3, -8
 241              		.cfi_offset 14, -4
 242 0002 0A46     		mov	r2, r1
  65:Core/Src/common.c **** #endif
 243              		.loc 1 65 5 is_stmt 1 view .LVU29
 244 0004 0146     		mov	r1, r0
 245              	.LVL15:
  65:Core/Src/common.c **** #endif
 246              		.loc 1 65 5 is_stmt 0 view .LVU30
 247 0006 0248     		ldr	r0, .L17
 248              	.LVL16:
  65:Core/Src/common.c **** #endif
 249              		.loc 1 65 5 view .LVU31
 250 0008 FFF7FEFF 		bl	logPC
 251              	.LVL17:
  72:Core/Src/common.c **** 
 252              		.loc 1 72 1 view .LVU32
 253 000c 08BD     		pop	{r3, pc}
 254              	.L18:
 255 000e 00BF     		.align	2
 256              	.L17:
 257 0010 00000000 		.word	.LC0
 258              		.cfi_endproc
 259              	.LFE73:
 261              		.section	.text.reverse,"ax",%progbits
 262              		.align	1
 263              		.global	reverse
 264              		.syntax unified
 265              		.thumb
 266              		.thumb_func
 267              		.fpu softvfp
 269              	reverse:
 270              	.LVL18:
 271              	.LFB76:
 117:Core/Src/common.c **** 
 118:Core/Src/common.c **** #else
 119:Core/Src/common.c **** void logPC(const char *fmt, ...)
 120:Core/Src/common.c **** {
 121:Core/Src/common.c ****     UNUSED(fmt);
 122:Core/Src/common.c **** }
 123:Core/Src/common.c **** #endif
 124:Core/Src/common.c **** 
 125:Core/Src/common.c **** 
 126:Core/Src/common.c **** 
 127:Core/Src/common.c **** 
ARM GAS  C:\Users\Vento\AppData\Local\Temp\ccbCGaib.s 			page 8


 128:Core/Src/common.c **** void reverse(char* str, int len)
 129:Core/Src/common.c **** {
 272              		.loc 1 129 1 is_stmt 1 view -0
 273              		.cfi_startproc
 274              		@ args = 0, pretend = 0, frame = 0
 275              		@ frame_needed = 0, uses_anonymous_args = 0
 276              		@ link register save eliminated.
 130:Core/Src/common.c ****     int i = 0, j = len - 1, temp;
 277              		.loc 1 130 5 view .LVU34
 278              		.loc 1 130 16 is_stmt 0 view .LVU35
 279 0000 0139     		subs	r1, r1, #1
 280              	.LVL19:
 131:Core/Src/common.c ****     while (i < j)
 281              		.loc 1 131 5 is_stmt 1 view .LVU36
 130:Core/Src/common.c ****     int i = 0, j = len - 1, temp;
 282              		.loc 1 130 9 is_stmt 0 view .LVU37
 283 0002 0023     		movs	r3, #0
 284              		.loc 1 131 11 view .LVU38
 285 0004 07E0     		b	.L20
 286              	.LVL20:
 287              	.L21:
 132:Core/Src/common.c ****     {
 133:Core/Src/common.c ****         temp = str[i];
 288              		.loc 1 133 9 is_stmt 1 view .LVU39
 289              		.loc 1 133 19 is_stmt 0 view .LVU40
 290 0006 C25C     		ldrb	r2, [r0, r3]	@ zero_extendqisi2
 291              	.LVL21:
 134:Core/Src/common.c ****         str[i] = str[j];
 292              		.loc 1 134 9 is_stmt 1 view .LVU41
 293              		.loc 1 134 21 is_stmt 0 view .LVU42
 294 0008 10F801C0 		ldrb	ip, [r0, r1]	@ zero_extendqisi2
 295              		.loc 1 134 16 view .LVU43
 296 000c 00F803C0 		strb	ip, [r0, r3]
 135:Core/Src/common.c ****         str[j] = temp;
 297              		.loc 1 135 9 is_stmt 1 view .LVU44
 298              		.loc 1 135 16 is_stmt 0 view .LVU45
 299 0010 4254     		strb	r2, [r0, r1]
 136:Core/Src/common.c ****         i++;
 300              		.loc 1 136 9 is_stmt 1 view .LVU46
 301              		.loc 1 136 10 is_stmt 0 view .LVU47
 302 0012 0133     		adds	r3, r3, #1
 303              	.LVL22:
 137:Core/Src/common.c ****         j--;
 304              		.loc 1 137 9 is_stmt 1 view .LVU48
 305              		.loc 1 137 10 is_stmt 0 view .LVU49
 306 0014 0139     		subs	r1, r1, #1
 307              	.LVL23:
 308              	.L20:
 131:Core/Src/common.c ****     {
 309              		.loc 1 131 11 is_stmt 1 view .LVU50
 310 0016 8B42     		cmp	r3, r1
 311 0018 F5DB     		blt	.L21
 138:Core/Src/common.c ****     }
 139:Core/Src/common.c **** }
 312              		.loc 1 139 1 is_stmt 0 view .LVU51
 313 001a 7047     		bx	lr
 314              		.cfi_endproc
ARM GAS  C:\Users\Vento\AppData\Local\Temp\ccbCGaib.s 			page 9


 315              	.LFE76:
 317              		.section	.text.intToStr,"ax",%progbits
 318              		.align	1
 319              		.global	intToStr
 320              		.syntax unified
 321              		.thumb
 322              		.thumb_func
 323              		.fpu softvfp
 325              	intToStr:
 326              	.LVL24:
 327              	.LFB77:
 140:Core/Src/common.c **** 
 141:Core/Src/common.c **** int intToStr(int x, char str[], int d)
 142:Core/Src/common.c **** {
 328              		.loc 1 142 1 is_stmt 1 view -0
 329              		.cfi_startproc
 330              		@ args = 0, pretend = 0, frame = 0
 331              		@ frame_needed = 0, uses_anonymous_args = 0
 332              		.loc 1 142 1 is_stmt 0 view .LVU53
 333 0000 70B5     		push	{r4, r5, r6, lr}
 334              	.LCFI9:
 335              		.cfi_def_cfa_offset 16
 336              		.cfi_offset 4, -16
 337              		.cfi_offset 5, -12
 338              		.cfi_offset 6, -8
 339              		.cfi_offset 14, -4
 340 0002 0E46     		mov	r6, r1
 143:Core/Src/common.c ****     int i = 0;
 341              		.loc 1 143 5 is_stmt 1 view .LVU54
 342              	.LVL25:
 144:Core/Src/common.c ****     if (x == 0)
 343              		.loc 1 144 5 view .LVU55
 344              		.loc 1 144 8 is_stmt 0 view .LVU56
 345 0004 18B9     		cbnz	r0, .L28
 145:Core/Src/common.c ****     {
 146:Core/Src/common.c ****         str[i++] = '0';
 346              		.loc 1 146 9 is_stmt 1 view .LVU57
 347              	.LVL26:
 348              		.loc 1 146 18 is_stmt 0 view .LVU58
 349 0006 3023     		movs	r3, #48
 350 0008 0B70     		strb	r3, [r1]
 351              		.loc 1 146 14 view .LVU59
 352 000a 0124     		movs	r4, #1
 353 000c 15E0     		b	.L24
 354              	.LVL27:
 355              	.L28:
 356              		.loc 1 146 14 view .LVU60
 357 000e 0546     		mov	r5, r0
 143:Core/Src/common.c ****     if (x == 0)
 358              		.loc 1 143 9 view .LVU61
 359 0010 0024     		movs	r4, #0
 360              	.LVL28:
 361              	.L23:
 147:Core/Src/common.c ****     }
 148:Core/Src/common.c ****     else
 149:Core/Src/common.c ****     {
 150:Core/Src/common.c ****         while (x)
ARM GAS  C:\Users\Vento\AppData\Local\Temp\ccbCGaib.s 			page 10


 362              		.loc 1 150 15 is_stmt 1 view .LVU62
 363 0012 95B1     		cbz	r5, .L24
 151:Core/Src/common.c ****         {
 152:Core/Src/common.c ****             str[i++] = (x % 10) + '0';
 364              		.loc 1 152 13 view .LVU63
 365              		.loc 1 152 27 is_stmt 0 view .LVU64
 366 0014 0E49     		ldr	r1, .L30
 367 0016 81FB0531 		smull	r3, r1, r1, r5
 368 001a EB17     		asrs	r3, r5, #31
 369 001c C3EBA103 		rsb	r3, r3, r1, asr #2
 370 0020 1946     		mov	r1, r3
 371 0022 03EB8303 		add	r3, r3, r3, lsl #2
 372 0026 A5EB4303 		sub	r3, r5, r3, lsl #1
 373              	.LVL29:
 374              		.loc 1 152 33 view .LVU65
 375 002a 3033     		adds	r3, r3, #48
 376              		.loc 1 152 22 view .LVU66
 377 002c 3355     		strb	r3, [r6, r4]
 153:Core/Src/common.c ****             x = x / 10;
 378              		.loc 1 153 13 is_stmt 1 view .LVU67
 379              		.loc 1 153 15 is_stmt 0 view .LVU68
 380 002e 0D46     		mov	r5, r1
 381              	.LVL30:
 152:Core/Src/common.c ****             x = x / 10;
 382              		.loc 1 152 18 view .LVU69
 383 0030 0134     		adds	r4, r4, #1
 384              	.LVL31:
 152:Core/Src/common.c ****             x = x / 10;
 385              		.loc 1 152 18 view .LVU70
 386 0032 EEE7     		b	.L23
 387              	.LVL32:
 388              	.L27:
 154:Core/Src/common.c ****         }
 155:Core/Src/common.c ****     }
 156:Core/Src/common.c ****     
 157:Core/Src/common.c ****     // If number of digits required is more, then
 158:Core/Src/common.c ****     // add space at the beginning
 159:Core/Src/common.c ****     while (i < d)
 160:Core/Src/common.c ****         str[i++] = ' ';
 389              		.loc 1 160 9 is_stmt 1 view .LVU71
 390              		.loc 1 160 18 is_stmt 0 view .LVU72
 391 0034 2023     		movs	r3, #32
 392 0036 3355     		strb	r3, [r6, r4]
 393              		.loc 1 160 14 view .LVU73
 394 0038 0134     		adds	r4, r4, #1
 395              	.LVL33:
 396              	.L24:
 159:Core/Src/common.c ****         str[i++] = ' ';
 397              		.loc 1 159 11 is_stmt 1 view .LVU74
 398 003a 9442     		cmp	r4, r2
 399 003c FADB     		blt	.L27
 161:Core/Src/common.c **** 
 162:Core/Src/common.c ****     reverse(str, i);
 400              		.loc 1 162 5 view .LVU75
 401 003e 2146     		mov	r1, r4
 402 0040 3046     		mov	r0, r6
 403 0042 FFF7FEFF 		bl	reverse
ARM GAS  C:\Users\Vento\AppData\Local\Temp\ccbCGaib.s 			page 11


 404              	.LVL34:
 163:Core/Src/common.c ****     str[i] = '\0';
 405              		.loc 1 163 5 view .LVU76
 406              		.loc 1 163 12 is_stmt 0 view .LVU77
 407 0046 0023     		movs	r3, #0
 408 0048 3355     		strb	r3, [r6, r4]
 164:Core/Src/common.c ****     return i;
 409              		.loc 1 164 5 is_stmt 1 view .LVU78
 165:Core/Src/common.c **** }
 410              		.loc 1 165 1 is_stmt 0 view .LVU79
 411 004a 2046     		mov	r0, r4
 412 004c 70BD     		pop	{r4, r5, r6, pc}
 413              	.LVL35:
 414              	.L31:
 415              		.loc 1 165 1 view .LVU80
 416 004e 00BF     		.align	2
 417              	.L30:
 418 0050 67666666 		.word	1717986919
 419              		.cfi_endproc
 420              	.LFE77:
 422              		.global	__aeabi_f2iz
 423              		.global	__aeabi_i2f
 424              		.global	__aeabi_fsub
 425              		.global	__aeabi_i2d
 426              		.global	__aeabi_f2d
 427              		.global	__aeabi_dmul
 428              		.global	__aeabi_d2f
 429              		.section	.text.ftoa,"ax",%progbits
 430              		.align	1
 431              		.global	ftoa
 432              		.syntax unified
 433              		.thumb
 434              		.thumb_func
 435              		.fpu softvfp
 437              	ftoa:
 438              	.LVL36:
 439              	.LFB78:
 166:Core/Src/common.c **** 
 167:Core/Src/common.c **** void ftoa(float n, char* res, int afterpoint)
 168:Core/Src/common.c **** {
 440              		.loc 1 168 1 is_stmt 1 view -0
 441              		.cfi_startproc
 442              		@ args = 0, pretend = 0, frame = 0
 443              		@ frame_needed = 0, uses_anonymous_args = 0
 444              		.loc 1 168 1 is_stmt 0 view .LVU82
 445 0000 2DE9F843 		push	{r3, r4, r5, r6, r7, r8, r9, lr}
 446              	.LCFI10:
 447              		.cfi_def_cfa_offset 32
 448              		.cfi_offset 3, -32
 449              		.cfi_offset 4, -28
 450              		.cfi_offset 5, -24
 451              		.cfi_offset 6, -20
 452              		.cfi_offset 7, -16
 453              		.cfi_offset 8, -12
 454              		.cfi_offset 9, -8
 455              		.cfi_offset 14, -4
 456 0004 0646     		mov	r6, r0
ARM GAS  C:\Users\Vento\AppData\Local\Temp\ccbCGaib.s 			page 12


 457 0006 0C46     		mov	r4, r1
 458 0008 1746     		mov	r7, r2
 169:Core/Src/common.c ****     // Extract integer part
 170:Core/Src/common.c ****     int ipart = (int)n;
 459              		.loc 1 170 5 is_stmt 1 view .LVU83
 460              		.loc 1 170 9 is_stmt 0 view .LVU84
 461 000a FFF7FEFF 		bl	__aeabi_f2iz
 462              	.LVL37:
 463              		.loc 1 170 9 view .LVU85
 464 000e 0546     		mov	r5, r0
 465              	.LVL38:
 171:Core/Src/common.c ****     // Extract floating part
 172:Core/Src/common.c ****     float fpart = n - (float)ipart;
 466              		.loc 1 172 5 is_stmt 1 view .LVU86
 467              		.loc 1 172 23 is_stmt 0 view .LVU87
 468 0010 FFF7FEFF 		bl	__aeabi_i2f
 469              	.LVL39:
 470              		.loc 1 172 23 view .LVU88
 471 0014 0146     		mov	r1, r0
 472              		.loc 1 172 11 view .LVU89
 473 0016 3046     		mov	r0, r6
 474 0018 FFF7FEFF 		bl	__aeabi_fsub
 475              	.LVL40:
 476 001c 0646     		mov	r6, r0
 477              	.LVL41:
 173:Core/Src/common.c ****     // convert integer part to string
 174:Core/Src/common.c ****     int i = intToStr(ipart, res, 0);
 478              		.loc 1 174 5 is_stmt 1 view .LVU90
 479              		.loc 1 174 13 is_stmt 0 view .LVU91
 480 001e 0022     		movs	r2, #0
 481 0020 2146     		mov	r1, r4
 482 0022 2846     		mov	r0, r5
 483              	.LVL42:
 484              		.loc 1 174 13 view .LVU92
 485 0024 FFF7FEFF 		bl	intToStr
 486              	.LVL43:
 175:Core/Src/common.c ****     // check for display option after point
 176:Core/Src/common.c ****     if (afterpoint != 0)
 487              		.loc 1 176 5 is_stmt 1 view .LVU93
 488              		.loc 1 176 8 is_stmt 0 view .LVU94
 489 0028 0FB9     		cbnz	r7, .L35
 490              	.LVL44:
 491              	.L32:
 177:Core/Src/common.c ****     {
 178:Core/Src/common.c ****         res[i] = '.'; // add dot
 179:Core/Src/common.c ****         fpart = fpart * pow(10, afterpoint);
 180:Core/Src/common.c ****         intToStr((int)fpart, res + i + 1, afterpoint);
 181:Core/Src/common.c ****     }
 182:Core/Src/common.c **** }
 492              		.loc 1 182 1 view .LVU95
 493 002a BDE8F883 		pop	{r3, r4, r5, r6, r7, r8, r9, pc}
 494              	.LVL45:
 495              	.L35:
 496              		.loc 1 182 1 view .LVU96
 497 002e 0546     		mov	r5, r0
 498              	.LVL46:
 178:Core/Src/common.c ****         fpart = fpart * pow(10, afterpoint);
ARM GAS  C:\Users\Vento\AppData\Local\Temp\ccbCGaib.s 			page 13


 499              		.loc 1 178 9 is_stmt 1 view .LVU97
 178:Core/Src/common.c ****         fpart = fpart * pow(10, afterpoint);
 500              		.loc 1 178 16 is_stmt 0 view .LVU98
 501 0030 2E23     		movs	r3, #46
 502 0032 2354     		strb	r3, [r4, r0]
 179:Core/Src/common.c ****         intToStr((int)fpart, res + i + 1, afterpoint);
 503              		.loc 1 179 9 is_stmt 1 view .LVU99
 179:Core/Src/common.c ****         intToStr((int)fpart, res + i + 1, afterpoint);
 504              		.loc 1 179 25 is_stmt 0 view .LVU100
 505 0034 3846     		mov	r0, r7
 506              	.LVL47:
 179:Core/Src/common.c ****         intToStr((int)fpart, res + i + 1, afterpoint);
 507              		.loc 1 179 25 view .LVU101
 508 0036 FFF7FEFF 		bl	__aeabi_i2d
 509              	.LVL48:
 510 003a 0246     		mov	r2, r0
 511 003c 0B46     		mov	r3, r1
 512 003e 0020     		movs	r0, #0
 513 0040 0B49     		ldr	r1, .L36
 514 0042 FFF7FEFF 		bl	pow
 515              	.LVL49:
 516 0046 8046     		mov	r8, r0
 517 0048 8946     		mov	r9, r1
 179:Core/Src/common.c ****         intToStr((int)fpart, res + i + 1, afterpoint);
 518              		.loc 1 179 23 view .LVU102
 519 004a 3046     		mov	r0, r6
 520 004c FFF7FEFF 		bl	__aeabi_f2d
 521              	.LVL50:
 522 0050 4246     		mov	r2, r8
 523 0052 4B46     		mov	r3, r9
 524 0054 FFF7FEFF 		bl	__aeabi_dmul
 525              	.LVL51:
 179:Core/Src/common.c ****         intToStr((int)fpart, res + i + 1, afterpoint);
 526              		.loc 1 179 15 view .LVU103
 527 0058 FFF7FEFF 		bl	__aeabi_d2f
 528              	.LVL52:
 180:Core/Src/common.c ****     }
 529              		.loc 1 180 9 is_stmt 1 view .LVU104
 180:Core/Src/common.c ****     }
 530              		.loc 1 180 38 is_stmt 0 view .LVU105
 531 005c 691C     		adds	r1, r5, #1
 180:Core/Src/common.c ****     }
 532              		.loc 1 180 9 view .LVU106
 533 005e 0C44     		add	r4, r4, r1
 534              	.LVL53:
 180:Core/Src/common.c ****     }
 535              		.loc 1 180 9 view .LVU107
 536 0060 FFF7FEFF 		bl	__aeabi_f2iz
 537              	.LVL54:
 180:Core/Src/common.c ****     }
 538              		.loc 1 180 9 view .LVU108
 539 0064 3A46     		mov	r2, r7
 540 0066 2146     		mov	r1, r4
 541 0068 FFF7FEFF 		bl	intToStr
 542              	.LVL55:
 543              		.loc 1 182 1 view .LVU109
 544 006c DDE7     		b	.L32
ARM GAS  C:\Users\Vento\AppData\Local\Temp\ccbCGaib.s 			page 14


 545              	.L37:
 546 006e 00BF     		.align	2
 547              	.L36:
 548 0070 00002440 		.word	1076101120
 549              		.cfi_endproc
 550              	.LFE78:
 552              		.section	.text.intToStr0,"ax",%progbits
 553              		.align	1
 554              		.global	intToStr0
 555              		.syntax unified
 556              		.thumb
 557              		.thumb_func
 558              		.fpu softvfp
 560              	intToStr0:
 561              	.LVL56:
 562              	.LFB79:
 183:Core/Src/common.c **** 
 184:Core/Src/common.c **** int intToStr0(int x, char str[], int d)
 185:Core/Src/common.c **** {
 563              		.loc 1 185 1 is_stmt 1 view -0
 564              		.cfi_startproc
 565              		@ args = 0, pretend = 0, frame = 0
 566              		@ frame_needed = 0, uses_anonymous_args = 0
 567              		.loc 1 185 1 is_stmt 0 view .LVU111
 568 0000 70B5     		push	{r4, r5, r6, lr}
 569              	.LCFI11:
 570              		.cfi_def_cfa_offset 16
 571              		.cfi_offset 4, -16
 572              		.cfi_offset 5, -12
 573              		.cfi_offset 6, -8
 574              		.cfi_offset 14, -4
 575 0002 0E46     		mov	r6, r1
 186:Core/Src/common.c ****     int i = 0;
 576              		.loc 1 186 5 is_stmt 1 view .LVU112
 577              	.LVL57:
 187:Core/Src/common.c ****     if (x == 0)
 578              		.loc 1 187 5 view .LVU113
 579              		.loc 1 187 8 is_stmt 0 view .LVU114
 580 0004 18B9     		cbnz	r0, .L44
 188:Core/Src/common.c ****     {
 189:Core/Src/common.c ****         str[i++] = '0';
 581              		.loc 1 189 9 is_stmt 1 view .LVU115
 582              	.LVL58:
 583              		.loc 1 189 18 is_stmt 0 view .LVU116
 584 0006 3023     		movs	r3, #48
 585 0008 0B70     		strb	r3, [r1]
 586              		.loc 1 189 14 view .LVU117
 587 000a 0124     		movs	r4, #1
 588 000c 15E0     		b	.L40
 589              	.LVL59:
 590              	.L44:
 591              		.loc 1 189 14 view .LVU118
 592 000e 0546     		mov	r5, r0
 186:Core/Src/common.c ****     if (x == 0)
 593              		.loc 1 186 9 view .LVU119
 594 0010 0024     		movs	r4, #0
 595              	.LVL60:
ARM GAS  C:\Users\Vento\AppData\Local\Temp\ccbCGaib.s 			page 15


 596              	.L39:
 190:Core/Src/common.c ****     }
 191:Core/Src/common.c ****     else
 192:Core/Src/common.c ****     {
 193:Core/Src/common.c ****         while (x)
 597              		.loc 1 193 15 is_stmt 1 view .LVU120
 598 0012 95B1     		cbz	r5, .L40
 194:Core/Src/common.c ****         {
 195:Core/Src/common.c ****             str[i++] = (x % 10) + '0';
 599              		.loc 1 195 13 view .LVU121
 600              		.loc 1 195 27 is_stmt 0 view .LVU122
 601 0014 0E49     		ldr	r1, .L46
 602 0016 81FB0531 		smull	r3, r1, r1, r5
 603 001a EB17     		asrs	r3, r5, #31
 604 001c C3EBA103 		rsb	r3, r3, r1, asr #2
 605 0020 1946     		mov	r1, r3
 606 0022 03EB8303 		add	r3, r3, r3, lsl #2
 607 0026 A5EB4303 		sub	r3, r5, r3, lsl #1
 608              	.LVL61:
 609              		.loc 1 195 33 view .LVU123
 610 002a 3033     		adds	r3, r3, #48
 611              		.loc 1 195 22 view .LVU124
 612 002c 3355     		strb	r3, [r6, r4]
 196:Core/Src/common.c ****             x = x / 10;
 613              		.loc 1 196 13 is_stmt 1 view .LVU125
 614              		.loc 1 196 15 is_stmt 0 view .LVU126
 615 002e 0D46     		mov	r5, r1
 616              	.LVL62:
 195:Core/Src/common.c ****             x = x / 10;
 617              		.loc 1 195 18 view .LVU127
 618 0030 0134     		adds	r4, r4, #1
 619              	.LVL63:
 195:Core/Src/common.c ****             x = x / 10;
 620              		.loc 1 195 18 view .LVU128
 621 0032 EEE7     		b	.L39
 622              	.LVL64:
 623              	.L43:
 197:Core/Src/common.c ****         }
 198:Core/Src/common.c ****     }
 199:Core/Src/common.c ****     
 200:Core/Src/common.c ****     // If number of digits required is more, then
 201:Core/Src/common.c ****     // add 0s at the beginning
 202:Core/Src/common.c ****     while (i < d)
 203:Core/Src/common.c ****         str[i++] = '0';
 624              		.loc 1 203 9 is_stmt 1 view .LVU129
 625              		.loc 1 203 18 is_stmt 0 view .LVU130
 626 0034 3023     		movs	r3, #48
 627 0036 3355     		strb	r3, [r6, r4]
 628              		.loc 1 203 14 view .LVU131
 629 0038 0134     		adds	r4, r4, #1
 630              	.LVL65:
 631              	.L40:
 202:Core/Src/common.c ****         str[i++] = '0';
 632              		.loc 1 202 11 is_stmt 1 view .LVU132
 633 003a 9442     		cmp	r4, r2
 634 003c FADB     		blt	.L43
 204:Core/Src/common.c **** 
ARM GAS  C:\Users\Vento\AppData\Local\Temp\ccbCGaib.s 			page 16


 205:Core/Src/common.c ****     reverse(str, i);
 635              		.loc 1 205 5 view .LVU133
 636 003e 2146     		mov	r1, r4
 637 0040 3046     		mov	r0, r6
 638 0042 FFF7FEFF 		bl	reverse
 639              	.LVL66:
 206:Core/Src/common.c ****     str[i] = '\0';
 640              		.loc 1 206 5 view .LVU134
 641              		.loc 1 206 12 is_stmt 0 view .LVU135
 642 0046 0023     		movs	r3, #0
 643 0048 3355     		strb	r3, [r6, r4]
 207:Core/Src/common.c ****     return i;
 644              		.loc 1 207 5 is_stmt 1 view .LVU136
 208:Core/Src/common.c **** }
 645              		.loc 1 208 1 is_stmt 0 view .LVU137
 646 004a 2046     		mov	r0, r4
 647 004c 70BD     		pop	{r4, r5, r6, pc}
 648              	.LVL67:
 649              	.L47:
 650              		.loc 1 208 1 view .LVU138
 651 004e 00BF     		.align	2
 652              	.L46:
 653 0050 67666666 		.word	1717986919
 654              		.cfi_endproc
 655              	.LFE79:
 657              		.section	.text.ftoa0,"ax",%progbits
 658              		.align	1
 659              		.global	ftoa0
 660              		.syntax unified
 661              		.thumb
 662              		.thumb_func
 663              		.fpu softvfp
 665              	ftoa0:
 666              	.LVL68:
 667              	.LFB80:
 209:Core/Src/common.c **** 
 210:Core/Src/common.c **** void ftoa0(float n, char* res, int afterpoint)
 211:Core/Src/common.c **** {
 668              		.loc 1 211 1 is_stmt 1 view -0
 669              		.cfi_startproc
 670              		@ args = 0, pretend = 0, frame = 0
 671              		@ frame_needed = 0, uses_anonymous_args = 0
 672              		.loc 1 211 1 is_stmt 0 view .LVU140
 673 0000 2DE9F843 		push	{r3, r4, r5, r6, r7, r8, r9, lr}
 674              	.LCFI12:
 675              		.cfi_def_cfa_offset 32
 676              		.cfi_offset 3, -32
 677              		.cfi_offset 4, -28
 678              		.cfi_offset 5, -24
 679              		.cfi_offset 6, -20
 680              		.cfi_offset 7, -16
 681              		.cfi_offset 8, -12
 682              		.cfi_offset 9, -8
 683              		.cfi_offset 14, -4
 684 0004 0646     		mov	r6, r0
 685 0006 0C46     		mov	r4, r1
 686 0008 1746     		mov	r7, r2
ARM GAS  C:\Users\Vento\AppData\Local\Temp\ccbCGaib.s 			page 17


 212:Core/Src/common.c ****     // Extract integer part
 213:Core/Src/common.c ****     int ipart = (int)n;
 687              		.loc 1 213 5 is_stmt 1 view .LVU141
 688              		.loc 1 213 9 is_stmt 0 view .LVU142
 689 000a FFF7FEFF 		bl	__aeabi_f2iz
 690              	.LVL69:
 691              		.loc 1 213 9 view .LVU143
 692 000e 0546     		mov	r5, r0
 693              	.LVL70:
 214:Core/Src/common.c ****     // Extract floating part
 215:Core/Src/common.c ****     float fpart = n - (float)ipart;
 694              		.loc 1 215 5 is_stmt 1 view .LVU144
 695              		.loc 1 215 23 is_stmt 0 view .LVU145
 696 0010 FFF7FEFF 		bl	__aeabi_i2f
 697              	.LVL71:
 698              		.loc 1 215 23 view .LVU146
 699 0014 0146     		mov	r1, r0
 700              		.loc 1 215 11 view .LVU147
 701 0016 3046     		mov	r0, r6
 702 0018 FFF7FEFF 		bl	__aeabi_fsub
 703              	.LVL72:
 704 001c 0646     		mov	r6, r0
 705              	.LVL73:
 216:Core/Src/common.c ****     // convert integer part to string
 217:Core/Src/common.c ****     int i = intToStr0(ipart, res, 0);
 706              		.loc 1 217 5 is_stmt 1 view .LVU148
 707              		.loc 1 217 13 is_stmt 0 view .LVU149
 708 001e 0022     		movs	r2, #0
 709 0020 2146     		mov	r1, r4
 710 0022 2846     		mov	r0, r5
 711              	.LVL74:
 712              		.loc 1 217 13 view .LVU150
 713 0024 FFF7FEFF 		bl	intToStr0
 714              	.LVL75:
 218:Core/Src/common.c ****     // check for display option after point
 219:Core/Src/common.c ****     if (afterpoint != 0)
 715              		.loc 1 219 5 is_stmt 1 view .LVU151
 716              		.loc 1 219 8 is_stmt 0 view .LVU152
 717 0028 0FB9     		cbnz	r7, .L51
 718              	.LVL76:
 719              	.L48:
 220:Core/Src/common.c ****     {
 221:Core/Src/common.c ****         res[i] = '.'; // add dot
 222:Core/Src/common.c ****         fpart = fpart * pow(10, afterpoint);
 223:Core/Src/common.c ****         intToStr((int)fpart, res + i + 1, afterpoint);
 224:Core/Src/common.c ****     }
 225:Core/Src/common.c **** }
 720              		.loc 1 225 1 view .LVU153
 721 002a BDE8F883 		pop	{r3, r4, r5, r6, r7, r8, r9, pc}
 722              	.LVL77:
 723              	.L51:
 724              		.loc 1 225 1 view .LVU154
 725 002e 0546     		mov	r5, r0
 726              	.LVL78:
 221:Core/Src/common.c ****         fpart = fpart * pow(10, afterpoint);
 727              		.loc 1 221 9 is_stmt 1 view .LVU155
 221:Core/Src/common.c ****         fpart = fpart * pow(10, afterpoint);
ARM GAS  C:\Users\Vento\AppData\Local\Temp\ccbCGaib.s 			page 18


 728              		.loc 1 221 16 is_stmt 0 view .LVU156
 729 0030 2E23     		movs	r3, #46
 730 0032 2354     		strb	r3, [r4, r0]
 222:Core/Src/common.c ****         intToStr((int)fpart, res + i + 1, afterpoint);
 731              		.loc 1 222 9 is_stmt 1 view .LVU157
 222:Core/Src/common.c ****         intToStr((int)fpart, res + i + 1, afterpoint);
 732              		.loc 1 222 25 is_stmt 0 view .LVU158
 733 0034 3846     		mov	r0, r7
 734              	.LVL79:
 222:Core/Src/common.c ****         intToStr((int)fpart, res + i + 1, afterpoint);
 735              		.loc 1 222 25 view .LVU159
 736 0036 FFF7FEFF 		bl	__aeabi_i2d
 737              	.LVL80:
 738 003a 0246     		mov	r2, r0
 739 003c 0B46     		mov	r3, r1
 740 003e 0020     		movs	r0, #0
 741 0040 0B49     		ldr	r1, .L52
 742 0042 FFF7FEFF 		bl	pow
 743              	.LVL81:
 744 0046 8046     		mov	r8, r0
 745 0048 8946     		mov	r9, r1
 222:Core/Src/common.c ****         intToStr((int)fpart, res + i + 1, afterpoint);
 746              		.loc 1 222 23 view .LVU160
 747 004a 3046     		mov	r0, r6
 748 004c FFF7FEFF 		bl	__aeabi_f2d
 749              	.LVL82:
 750 0050 4246     		mov	r2, r8
 751 0052 4B46     		mov	r3, r9
 752 0054 FFF7FEFF 		bl	__aeabi_dmul
 753              	.LVL83:
 222:Core/Src/common.c ****         intToStr((int)fpart, res + i + 1, afterpoint);
 754              		.loc 1 222 15 view .LVU161
 755 0058 FFF7FEFF 		bl	__aeabi_d2f
 756              	.LVL84:
 223:Core/Src/common.c ****     }
 757              		.loc 1 223 9 is_stmt 1 view .LVU162
 223:Core/Src/common.c ****     }
 758              		.loc 1 223 38 is_stmt 0 view .LVU163
 759 005c 691C     		adds	r1, r5, #1
 223:Core/Src/common.c ****     }
 760              		.loc 1 223 9 view .LVU164
 761 005e 0C44     		add	r4, r4, r1
 762              	.LVL85:
 223:Core/Src/common.c ****     }
 763              		.loc 1 223 9 view .LVU165
 764 0060 FFF7FEFF 		bl	__aeabi_f2iz
 765              	.LVL86:
 223:Core/Src/common.c ****     }
 766              		.loc 1 223 9 view .LVU166
 767 0064 3A46     		mov	r2, r7
 768 0066 2146     		mov	r1, r4
 769 0068 FFF7FEFF 		bl	intToStr
 770              	.LVL87:
 771              		.loc 1 225 1 view .LVU167
 772 006c DDE7     		b	.L48
 773              	.L53:
 774 006e 00BF     		.align	2
ARM GAS  C:\Users\Vento\AppData\Local\Temp\ccbCGaib.s 			page 19


 775              	.L52:
 776 0070 00002440 		.word	1076101120
 777              		.cfi_endproc
 778              	.LFE80:
 780              		.section	.text.random_number,"ax",%progbits
 781              		.align	1
 782              		.global	random_number
 783              		.syntax unified
 784              		.thumb
 785              		.thumb_func
 786              		.fpu softvfp
 788              	random_number:
 789              	.LVL88:
 790              	.LFB81:
 226:Core/Src/common.c **** 
 227:Core/Src/common.c **** int random_number(int min_num, int max_num)
 228:Core/Src/common.c **** {
 791              		.loc 1 228 1 is_stmt 1 view -0
 792              		.cfi_startproc
 793              		@ args = 0, pretend = 0, frame = 0
 794              		@ frame_needed = 0, uses_anonymous_args = 0
 795              		.loc 1 228 1 is_stmt 0 view .LVU169
 796 0000 38B5     		push	{r3, r4, r5, lr}
 797              	.LCFI13:
 798              		.cfi_def_cfa_offset 16
 799              		.cfi_offset 3, -16
 800              		.cfi_offset 4, -12
 801              		.cfi_offset 5, -8
 802              		.cfi_offset 14, -4
 803 0002 0446     		mov	r4, r0
 229:Core/Src/common.c ****     int result = 0, low_num = 0, hi_num = 0;
 804              		.loc 1 229 5 is_stmt 1 view .LVU170
 805              	.LVL89:
 230:Core/Src/common.c **** 
 231:Core/Src/common.c ****     if (min_num < max_num)
 806              		.loc 1 231 5 view .LVU171
 807              		.loc 1 231 8 is_stmt 0 view .LVU172
 808 0004 8842     		cmp	r0, r1
 809 0006 0DDA     		bge	.L55
 232:Core/Src/common.c ****     {
 233:Core/Src/common.c ****         low_num = min_num;
 810              		.loc 1 233 9 is_stmt 1 view .LVU173
 811              	.LVL90:
 234:Core/Src/common.c ****         hi_num = max_num + 1; // include max_num in output
 812              		.loc 1 234 9 view .LVU174
 813              		.loc 1 234 16 is_stmt 0 view .LVU175
 814 0008 4D1C     		adds	r5, r1, #1
 815              	.LVL91:
 816              	.L56:
 235:Core/Src/common.c ****     } else {
 236:Core/Src/common.c ****         low_num = max_num + 1; // include max_num in output
 237:Core/Src/common.c ****         hi_num = min_num;
 238:Core/Src/common.c ****     }
 239:Core/Src/common.c **** 
 240:Core/Src/common.c ****     srand(HAL_GetTick());
 817              		.loc 1 240 5 is_stmt 1 view .LVU176
 818              		.loc 1 240 11 is_stmt 0 view .LVU177
ARM GAS  C:\Users\Vento\AppData\Local\Temp\ccbCGaib.s 			page 20


 819 000a FFF7FEFF 		bl	HAL_GetTick
 820              	.LVL92:
 821              		.loc 1 240 5 view .LVU178
 822 000e FFF7FEFF 		bl	srand
 823              	.LVL93:
 241:Core/Src/common.c ****     result = (rand() % (hi_num - low_num)) + low_num;
 824              		.loc 1 241 5 is_stmt 1 view .LVU179
 825              		.loc 1 241 15 is_stmt 0 view .LVU180
 826 0012 FFF7FEFF 		bl	rand
 827              	.LVL94:
 828              		.loc 1 241 32 view .LVU181
 829 0016 2B1B     		subs	r3, r5, r4
 830              		.loc 1 241 22 view .LVU182
 831 0018 90FBF3F2 		sdiv	r2, r0, r3
 832 001c 03FB1200 		mls	r0, r3, r2, r0
 833              	.LVL95:
 242:Core/Src/common.c ****     return result;
 834              		.loc 1 242 5 is_stmt 1 view .LVU183
 243:Core/Src/common.c **** }
 835              		.loc 1 243 1 is_stmt 0 view .LVU184
 836 0020 2044     		add	r0, r0, r4
 837              	.LVL96:
 838              		.loc 1 243 1 view .LVU185
 839 0022 38BD     		pop	{r3, r4, r5, pc}
 840              	.LVL97:
 841              	.L55:
 236:Core/Src/common.c ****         hi_num = min_num;
 842              		.loc 1 236 9 is_stmt 1 view .LVU186
 237:Core/Src/common.c ****     }
 843              		.loc 1 237 9 view .LVU187
 237:Core/Src/common.c ****     }
 844              		.loc 1 237 16 is_stmt 0 view .LVU188
 845 0024 0546     		mov	r5, r0
 236:Core/Src/common.c ****         hi_num = min_num;
 846              		.loc 1 236 17 view .LVU189
 847 0026 4C1C     		adds	r4, r1, #1
 848              	.LVL98:
 236:Core/Src/common.c ****         hi_num = min_num;
 849              		.loc 1 236 17 view .LVU190
 850 0028 EFE7     		b	.L56
 851              		.cfi_endproc
 852              	.LFE81:
 854              		.section	.bss.log_semaphore,"aw",%nobits
 855              		.align	2
 856              		.set	.LANCHOR0,. + 0
 859              	log_semaphore:
 860 0000 00000000 		.space	4
 861              		.section	.bss.string,"aw",%nobits
 862              		.align	2
 863              		.set	.LANCHOR1,. + 0
 866              	string:
 867 0000 00000000 		.space	200
 867      00000000 
 867      00000000 
 867      00000000 
 867      00000000 
 868              		.text
ARM GAS  C:\Users\Vento\AppData\Local\Temp\ccbCGaib.s 			page 21


 869              	.Letext0:
 870              		.file 2 "d:\\tools\\gcc-arm-none-eabi-10.3-2021.07\\arm-none-eabi\\include\\machine\\_default_type
 871              		.file 3 "d:\\tools\\gcc-arm-none-eabi-10.3-2021.07\\lib\\gcc\\arm-none-eabi\\10.3.1\\include\\stda
 872              		.file 4 "d:\\tools\\gcc-arm-none-eabi-10.3-2021.07\\arm-none-eabi\\include\\stdio.h"
 873              		.file 5 "d:\\tools\\gcc-arm-none-eabi-10.3-2021.07\\arm-none-eabi\\include\\sys\\_stdint.h"
 874              		.file 6 "Drivers/CMSIS/Device/ST/STM32F1xx/Include/stm32f103xe.h"
 875              		.file 7 "Drivers/STM32F1xx_HAL_Driver/Inc/stm32f1xx_hal_def.h"
 876              		.file 8 "Drivers/STM32F1xx_HAL_Driver/Inc/stm32f1xx_hal_dma.h"
 877              		.file 9 "Drivers/STM32F1xx_HAL_Driver/Inc/stm32f1xx_hal_uart.h"
 878              		.file 10 "Middlewares/Third_Party/FreeRTOS/Source/portable/GCC/ARM_CM3/portmacro.h"
 879              		.file 11 "Middlewares/Third_Party/FreeRTOS/Source/include/queue.h"
 880              		.file 12 "Middlewares/Third_Party/FreeRTOS/Source/include/semphr.h"
 881              		.file 13 "Core/Inc/usart.h"
 882              		.file 14 "Drivers/STM32F1xx_HAL_Driver/Inc/stm32f1xx_hal.h"
 883              		.file 15 "d:\\tools\\gcc-arm-none-eabi-10.3-2021.07\\arm-none-eabi\\include\\stdlib.h"
 884              		.file 16 "d:\\tools\\gcc-arm-none-eabi-10.3-2021.07\\arm-none-eabi\\include\\string.h"
 885              		.file 17 "<built-in>"
 886              		.file 18 "d:\\tools\\gcc-arm-none-eabi-10.3-2021.07\\arm-none-eabi\\include\\math.h"
ARM GAS  C:\Users\Vento\AppData\Local\Temp\ccbCGaib.s 			page 22


DEFINED SYMBOLS
                            *ABS*:00000000 common.c
C:\Users\Vento\AppData\Local\Temp\ccbCGaib.s:16     .text.Log_Init:00000000 $t
C:\Users\Vento\AppData\Local\Temp\ccbCGaib.s:24     .text.Log_Init:00000000 Log_Init
C:\Users\Vento\AppData\Local\Temp\ccbCGaib.s:57     .text.Log_Init:0000001c $d
C:\Users\Vento\AppData\Local\Temp\ccbCGaib.s:62     .text.vprint:00000000 $t
C:\Users\Vento\AppData\Local\Temp\ccbCGaib.s:69     .text.vprint:00000000 vprint
C:\Users\Vento\AppData\Local\Temp\ccbCGaib.s:128    .text.vprint:00000038 $d
C:\Users\Vento\AppData\Local\Temp\ccbCGaib.s:134    .text.logPC:00000000 $t
C:\Users\Vento\AppData\Local\Temp\ccbCGaib.s:141    .text.logPC:00000000 logPC
C:\Users\Vento\AppData\Local\Temp\ccbCGaib.s:213    .text.logPC:00000038 $d
C:\Users\Vento\AppData\Local\Temp\ccbCGaib.s:218    .rodata.LOG.str1.4:00000000 $d
C:\Users\Vento\AppData\Local\Temp\ccbCGaib.s:222    .text.LOG:00000000 $t
C:\Users\Vento\AppData\Local\Temp\ccbCGaib.s:229    .text.LOG:00000000 LOG
C:\Users\Vento\AppData\Local\Temp\ccbCGaib.s:257    .text.LOG:00000010 $d
C:\Users\Vento\AppData\Local\Temp\ccbCGaib.s:262    .text.reverse:00000000 $t
C:\Users\Vento\AppData\Local\Temp\ccbCGaib.s:269    .text.reverse:00000000 reverse
C:\Users\Vento\AppData\Local\Temp\ccbCGaib.s:318    .text.intToStr:00000000 $t
C:\Users\Vento\AppData\Local\Temp\ccbCGaib.s:325    .text.intToStr:00000000 intToStr
C:\Users\Vento\AppData\Local\Temp\ccbCGaib.s:418    .text.intToStr:00000050 $d
C:\Users\Vento\AppData\Local\Temp\ccbCGaib.s:430    .text.ftoa:00000000 $t
C:\Users\Vento\AppData\Local\Temp\ccbCGaib.s:437    .text.ftoa:00000000 ftoa
C:\Users\Vento\AppData\Local\Temp\ccbCGaib.s:548    .text.ftoa:00000070 $d
C:\Users\Vento\AppData\Local\Temp\ccbCGaib.s:553    .text.intToStr0:00000000 $t
C:\Users\Vento\AppData\Local\Temp\ccbCGaib.s:560    .text.intToStr0:00000000 intToStr0
C:\Users\Vento\AppData\Local\Temp\ccbCGaib.s:653    .text.intToStr0:00000050 $d
C:\Users\Vento\AppData\Local\Temp\ccbCGaib.s:658    .text.ftoa0:00000000 $t
C:\Users\Vento\AppData\Local\Temp\ccbCGaib.s:665    .text.ftoa0:00000000 ftoa0
C:\Users\Vento\AppData\Local\Temp\ccbCGaib.s:776    .text.ftoa0:00000070 $d
C:\Users\Vento\AppData\Local\Temp\ccbCGaib.s:781    .text.random_number:00000000 $t
C:\Users\Vento\AppData\Local\Temp\ccbCGaib.s:788    .text.random_number:00000000 random_number
C:\Users\Vento\AppData\Local\Temp\ccbCGaib.s:855    .bss.log_semaphore:00000000 $d
C:\Users\Vento\AppData\Local\Temp\ccbCGaib.s:859    .bss.log_semaphore:00000000 log_semaphore
C:\Users\Vento\AppData\Local\Temp\ccbCGaib.s:862    .bss.string:00000000 $d
C:\Users\Vento\AppData\Local\Temp\ccbCGaib.s:866    .bss.string:00000000 string

UNDEFINED SYMBOLS
xQueueGenericCreate
xQueueGenericSend
memset
vsprintf
strlen
HAL_UART_Transmit
huart1
xQueueSemaphoreTake
__aeabi_f2iz
__aeabi_i2f
__aeabi_fsub
__aeabi_i2d
__aeabi_f2d
__aeabi_dmul
__aeabi_d2f
pow
HAL_GetTick
srand
rand
