ARM GAS  C:\Users\Vento\AppData\Local\Temp\ccuo4SjY.s 			page 1


   1              		.cpu cortex-m3
   2              		.eabi_attribute 20, 1
   3              		.eabi_attribute 21, 1
   4              		.eabi_attribute 23, 3
   5              		.eabi_attribute 24, 1
   6              		.eabi_attribute 25, 1
   7              		.eabi_attribute 26, 1
   8              		.eabi_attribute 30, 1
   9              		.eabi_attribute 34, 1
  10              		.eabi_attribute 18, 4
  11              		.file	"freertos.c"
  12              		.text
  13              	.Ltext0:
  14              		.cfi_sections	.debug_frame
  15              		.section	.rodata.Task0Func.str1.4,"aMS",%progbits,1
  16              		.align	2
  17              	.LC0:
  18 0000 55415254 		.ascii	"UART1 RX - %s\000"
  18      31205258 
  18      202D2025 
  18      7300
  19 000e 0000     		.align	2
  20              	.LC1:
  21 0010 55415254 		.ascii	"UART2 RX - %s\000"
  21      32205258 
  21      202D2025 
  21      7300
  22 001e 0000     		.align	2
  23              	.LC2:
  24 0020 5461736B 		.ascii	"Task count = %lu\012\000"
  24      20636F75 
  24      6E74203D 
  24      20256C75 
  24      0A00
  25 0032 0000     		.align	2
  26              	.LC3:
  27 0034 4E6F2020 		.ascii	"No      Name          S Usage   HW\012\000"
  27      20202020 
  27      4E616D65 
  27      20202020 
  27      20202020 
  28              		.global	__aeabi_ui2f
  29              		.global	__aeabi_fmul
  30              		.global	__aeabi_fdiv
  31              		.align	2
  32              	.LC4:
  33 0058 5461736B 		.ascii	"Task %lu: %-12s %2d %07.4f %4i\012\000"
  33      20256C75 
  33      3A20252D 
  33      31327320 
  33      25326420 
  34              		.global	__aeabi_f2d
  35              		.align	2
  36              	.LC5:
  37 0078 556E6162 		.ascii	"Unable to allocate stack space\000"
  37      6C652074 
  37      6F20616C 
ARM GAS  C:\Users\Vento\AppData\Local\Temp\ccuo4SjY.s 			page 2


  37      6C6F6361 
  37      74652073 
  38              		.section	.text.Task0Func,"ax",%progbits
  39              		.align	1
  40              		.global	Task0Func
  41              		.arch armv7-m
  42              		.syntax unified
  43              		.thumb
  44              		.thumb_func
  45              		.fpu softvfp
  47              	Task0Func:
  48              	.LVL0:
  49              	.LFB75:
  50              		.file 1 "Core/Src/freertos.c"
   1:Core/Src/freertos.c **** /* USER CODE BEGIN Header */
   2:Core/Src/freertos.c **** /**
   3:Core/Src/freertos.c ****  ******************************************************************************
   4:Core/Src/freertos.c ****  * File Name          : freertos.c
   5:Core/Src/freertos.c ****  * Description        : Code for freertos applications
   6:Core/Src/freertos.c ****  ******************************************************************************
   7:Core/Src/freertos.c ****  * @attention
   8:Core/Src/freertos.c ****  *
   9:Core/Src/freertos.c ****  * Copyright (c) 2023 STMicroelectronics.
  10:Core/Src/freertos.c ****  * All rights reserved.
  11:Core/Src/freertos.c ****  *
  12:Core/Src/freertos.c ****  * This software is licensed under terms that can be found in the LICENSE file
  13:Core/Src/freertos.c ****  * in the root directory of this software component.
  14:Core/Src/freertos.c ****  * If no LICENSE file comes with this software, it is provided AS-IS.
  15:Core/Src/freertos.c ****  *
  16:Core/Src/freertos.c ****  ******************************************************************************
  17:Core/Src/freertos.c ****  */
  18:Core/Src/freertos.c **** /* USER CODE END Header */
  19:Core/Src/freertos.c **** 
  20:Core/Src/freertos.c **** /* Includes ------------------------------------------------------------------*/
  21:Core/Src/freertos.c **** #include "FreeRTOS.h"
  22:Core/Src/freertos.c **** #include "task.h"
  23:Core/Src/freertos.c **** #include "main.h"
  24:Core/Src/freertos.c **** #include "cmsis_os.h"
  25:Core/Src/freertos.c **** 
  26:Core/Src/freertos.c **** /* Private includes ----------------------------------------------------------*/
  27:Core/Src/freertos.c **** /* USER CODE BEGIN Includes */
  28:Core/Src/freertos.c **** 
  29:Core/Src/freertos.c **** #include "stdio.h"
  30:Core/Src/freertos.c **** #include "string.h"
  31:Core/Src/freertos.c **** #include "event_groups.h"
  32:Core/Src/freertos.c **** #include "semphr.h"
  33:Core/Src/freertos.c **** 
  34:Core/Src/freertos.c **** #include "usart.h"
  35:Core/Src/freertos.c **** #include "tim.h"
  36:Core/Src/freertos.c **** #include "rtc.h"
  37:Core/Src/freertos.c **** 
  38:Core/Src/freertos.c **** #include "lcd.h"
  39:Core/Src/freertos.c **** #include "pic.h"
  40:Core/Src/freertos.c **** #include "sx1278.h"
  41:Core/Src/freertos.c **** #include "common.h"
  42:Core/Src/freertos.c **** #include "sim.h"
  43:Core/Src/freertos.c **** #include "flash.h"
ARM GAS  C:\Users\Vento\AppData\Local\Temp\ccuo4SjY.s 			page 3


  44:Core/Src/freertos.c **** #include "button.h"
  45:Core/Src/freertos.c **** 
  46:Core/Src/freertos.c **** /* USER CODE END Includes */
  47:Core/Src/freertos.c **** 
  48:Core/Src/freertos.c **** /* Private typedef -----------------------------------------------------------*/
  49:Core/Src/freertos.c **** /* USER CODE BEGIN PTD */
  50:Core/Src/freertos.c **** 
  51:Core/Src/freertos.c **** typedef struct LoRa_Link_Struct
  52:Core/Src/freertos.c **** {
  53:Core/Src/freertos.c ****   uint16_t Node_ID;
  54:Core/Src/freertos.c ****   uint16_t Node_Status; 
  55:Core/Src/freertos.c ****   uint16_t Node_Battery_Voltage;
  56:Core/Src/freertos.c ****   uint16_t Node_Period;
  57:Core/Src/freertos.c **** } Link_Struct_t;
  58:Core/Src/freertos.c **** 
  59:Core/Src/freertos.c **** typedef struct LoRa_Data_Struct
  60:Core/Src/freertos.c **** {
  61:Core/Src/freertos.c ****   Link_Struct_t Link;
  62:Core/Src/freertos.c ****   uint16_t Node_Temperature;
  63:Core/Src/freertos.c ****   uint16_t Node_Humidity;
  64:Core/Src/freertos.c ****   uint16_t Node_Salinity;
  65:Core/Src/freertos.c ****   uint16_t Node_Conductivity;
  66:Core/Src/freertos.c ****   uint16_t Node_pH;
  67:Core/Src/freertos.c ****   uint16_t Node_N;
  68:Core/Src/freertos.c ****   uint16_t Node_P;
  69:Core/Src/freertos.c ****   uint16_t Node_K;
  70:Core/Src/freertos.c **** } Data_Struct_t;
  71:Core/Src/freertos.c **** 
  72:Core/Src/freertos.c **** typedef struct LoRa_Packet_ID_0
  73:Core/Src/freertos.c **** {
  74:Core/Src/freertos.c ****   uint16_t Packet_ID;
  75:Core/Src/freertos.c ****   Link_Struct_t Payload;
  76:Core/Src/freertos.c **** } Link_Packet_t;
  77:Core/Src/freertos.c **** 
  78:Core/Src/freertos.c **** typedef struct LoRa_Packet_ID_1
  79:Core/Src/freertos.c **** {
  80:Core/Src/freertos.c ****   uint16_t Packet_ID;
  81:Core/Src/freertos.c ****   Data_Struct_t Payload;
  82:Core/Src/freertos.c **** } Data_Packet_t;
  83:Core/Src/freertos.c **** 
  84:Core/Src/freertos.c **** typedef struct LoRa_Packet_ID_2
  85:Core/Src/freertos.c **** {
  86:Core/Src/freertos.c ****   uint16_t Packet_ID;
  87:Core/Src/freertos.c ****   uint16_t Target_Node_ID;
  88:Core/Src/freertos.c ****   uint16_t Target_Node_Status; 
  89:Core/Src/freertos.c ****   uint16_t Target_Node_Period;
  90:Core/Src/freertos.c ****   uint16_t Target_Node_Response;
  91:Core/Src/freertos.c **** } ResponsePacket_t;
  92:Core/Src/freertos.c **** 
  93:Core/Src/freertos.c **** typedef enum NodeStatus
  94:Core/Src/freertos.c **** {
  95:Core/Src/freertos.c ****   WAKEUP_MODE = 1U,
  96:Core/Src/freertos.c ****   LINK_MODE = 2U,
  97:Core/Src/freertos.c ****   NORMAL_MODE = 4U,
  98:Core/Src/freertos.c ****   RETRY_MODE = 8U,
  99:Core/Src/freertos.c ****   SHUTDOWN_MODE = 16U
 100:Core/Src/freertos.c **** } NodeStatus_t;
ARM GAS  C:\Users\Vento\AppData\Local\Temp\ccuo4SjY.s 			page 4


 101:Core/Src/freertos.c **** 
 102:Core/Src/freertos.c **** typedef enum Page_Enum
 103:Core/Src/freertos.c **** {
 104:Core/Src/freertos.c ****   MAIN_PAGE = 0U,
 105:Core/Src/freertos.c ****   JOIN_REQUEST_PAGE = 1U,
 106:Core/Src/freertos.c ****   NETWORK_PAGE = 2U,
 107:Core/Src/freertos.c ****   NODE_PAGE = 3U,
 108:Core/Src/freertos.c ****   CONTROL_PAGE = 4U,
 109:Core/Src/freertos.c ****   FAKE_PAGE = 133U
 110:Core/Src/freertos.c **** } Page_t;
 111:Core/Src/freertos.c **** 
 112:Core/Src/freertos.c **** /* USER CODE END PTD */
 113:Core/Src/freertos.c **** 
 114:Core/Src/freertos.c **** /* Private define ------------------------------------------------------------*/
 115:Core/Src/freertos.c **** /* USER CODE BEGIN PD */
 116:Core/Src/freertos.c **** 
 117:Core/Src/freertos.c **** #define PACKET_ID_0   (0xAAAAU)
 118:Core/Src/freertos.c **** #define PACKET_ID_1   (0x5A5AU)
 119:Core/Src/freertos.c **** #define PACKET_ID_2   (0x5555U)
 120:Core/Src/freertos.c **** 
 121:Core/Src/freertos.c **** #define LINK_ACCEPT   (0xAAU)
 122:Core/Src/freertos.c **** #define LINK_REJECT   (0x55U)
 123:Core/Src/freertos.c **** 
 124:Core/Src/freertos.c **** #define LINK_CARRYON  (0x00U)
 125:Core/Src/freertos.c **** #define LINK_DISMISS  (0xFFU)
 126:Core/Src/freertos.c **** 
 127:Core/Src/freertos.c **** #define LINK_ACK      (0xABU)
 128:Core/Src/freertos.c **** #define LINK_NACK     (0xBAU)
 129:Core/Src/freertos.c **** 
 130:Core/Src/freertos.c **** #define DEFAULT_PERIOD_SEC  (300U)
 131:Core/Src/freertos.c **** 
 132:Core/Src/freertos.c **** // DO NOT CHANGE
 133:Core/Src/freertos.c **** #define EVT_LORA      (0x04U)
 134:Core/Src/freertos.c **** #define EVT_TOCUH     (0x02U)
 135:Core/Src/freertos.c **** 
 136:Core/Src/freertos.c **** // DO NOT CHANGE
 137:Core/Src/freertos.c **** #define MAX_NODE      (50U)
 138:Core/Src/freertos.c **** 
 139:Core/Src/freertos.c **** // WARNING: DO NOT CHANGE
 140:Core/Src/freertos.c **** #define USE_WIFI      (true)
 141:Core/Src/freertos.c **** #define USE_4G        (false)
 142:Core/Src/freertos.c **** 
 143:Core/Src/freertos.c **** /* USER CODE END PD */
 144:Core/Src/freertos.c **** 
 145:Core/Src/freertos.c **** /* Private macro -------------------------------------------------------------*/
 146:Core/Src/freertos.c **** /* USER CODE BEGIN PM */
 147:Core/Src/freertos.c **** 
 148:Core/Src/freertos.c **** /* USER CODE END PM */
 149:Core/Src/freertos.c **** 
 150:Core/Src/freertos.c **** /* Private variables ---------------------------------------------------------*/
 151:Core/Src/freertos.c **** /* USER CODE BEGIN Variables */
 152:Core/Src/freertos.c **** 
 153:Core/Src/freertos.c **** static uint8_t rxBufferUART1[100] = {0};
 154:Core/Src/freertos.c **** volatile static uint8_t rxIndexUART1 = 0;
 155:Core/Src/freertos.c **** 
 156:Core/Src/freertos.c **** static uint8_t rxBufferUART2[100] = {0};
 157:Core/Src/freertos.c **** volatile static uint8_t rxIndexUART2 = 0;
ARM GAS  C:\Users\Vento\AppData\Local\Temp\ccuo4SjY.s 			page 5


 158:Core/Src/freertos.c **** 
 159:Core/Src/freertos.c **** volatile bool is_UART1_RX_Done = true;
 160:Core/Src/freertos.c **** volatile bool is_UART2_RX_Done = true;
 161:Core/Src/freertos.c **** volatile bool is_LCD_processing = false;
 162:Core/Src/freertos.c **** volatile bool is_LoRa_processing = false;
 163:Core/Src/freertos.c **** volatile bool is_4G_or_WiFi = USE_WIFI;
 164:Core/Src/freertos.c **** volatile bool is_WiFi_connected = false;
 165:Core/Src/freertos.c **** volatile bool is_MQTT_connected = false;
 166:Core/Src/freertos.c **** volatile bool is_promt_window_on = false;
 167:Core/Src/freertos.c **** volatile bool is_page_change = false;
 168:Core/Src/freertos.c **** 
 169:Core/Src/freertos.c **** 
 170:Core/Src/freertos.c **** static Data_Struct_t Node_Table[MAX_NODE] = {0};
 171:Core/Src/freertos.c **** static uint8_t number_of_Node_inNetwork = 0;
 172:Core/Src/freertos.c **** static uint8_t number_of_Node_inQueue = 0;
 173:Core/Src/freertos.c **** static uint8_t number_of_Response_Packet_inQueue = 0;
 174:Core/Src/freertos.c **** static uint16_t selected_Node_ID = 0;
 175:Core/Src/freertos.c **** 
 176:Core/Src/freertos.c **** static EventGroupHandle_t evt_group;
 177:Core/Src/freertos.c **** static BaseType_t xHigherPriorityTaskWoken = pdFALSE;
 178:Core/Src/freertos.c **** static QueueHandle_t link_queue;
 179:Core/Src/freertos.c **** static QueueHandle_t response_queue;
 180:Core/Src/freertos.c **** 
 181:Core/Src/freertos.c **** volatile uint64_t traceTime = 0;
 182:Core/Src/freertos.c **** 
 183:Core/Src/freertos.c **** static Page_t Current_Page = MAIN_PAGE;
 184:Core/Src/freertos.c **** static uint16_t arrayNodeDisplay[4] = {0};
 185:Core/Src/freertos.c **** static char tempString[50] = {0};
 186:Core/Src/freertos.c **** 
 187:Core/Src/freertos.c **** /* USER CODE END Variables */
 188:Core/Src/freertos.c **** /* Definitions for Task0 */
 189:Core/Src/freertos.c **** osThreadId_t Task0Handle;
 190:Core/Src/freertos.c **** const osThreadAttr_t Task0_attributes = {
 191:Core/Src/freertos.c ****   .name = "Task0",
 192:Core/Src/freertos.c ****   .stack_size = 256 * 4,
 193:Core/Src/freertos.c ****   .priority = (osPriority_t) osPriorityLow,
 194:Core/Src/freertos.c **** };
 195:Core/Src/freertos.c **** /* Definitions for Task1 */
 196:Core/Src/freertos.c **** osThreadId_t Task1Handle;
 197:Core/Src/freertos.c **** const osThreadAttr_t Task1_attributes = {
 198:Core/Src/freertos.c ****   .name = "Task1",
 199:Core/Src/freertos.c ****   .stack_size = 512 * 4,
 200:Core/Src/freertos.c ****   .priority = (osPriority_t) osPriorityNormal,
 201:Core/Src/freertos.c **** };
 202:Core/Src/freertos.c **** /* Definitions for Task2 */
 203:Core/Src/freertos.c **** osThreadId_t Task2Handle;
 204:Core/Src/freertos.c **** const osThreadAttr_t Task2_attributes = {
 205:Core/Src/freertos.c ****   .name = "Task2",
 206:Core/Src/freertos.c ****   .stack_size = 256 * 4,
 207:Core/Src/freertos.c ****   .priority = (osPriority_t) osPriorityAboveNormal,
 208:Core/Src/freertos.c **** };
 209:Core/Src/freertos.c **** /* Definitions for Task3 */
 210:Core/Src/freertos.c **** osThreadId_t Task3Handle;
 211:Core/Src/freertos.c **** const osThreadAttr_t Task3_attributes = {
 212:Core/Src/freertos.c ****   .name = "Task3",
 213:Core/Src/freertos.c ****   .stack_size = 256 * 4,
 214:Core/Src/freertos.c ****   .priority = (osPriority_t) osPriorityBelowNormal,
ARM GAS  C:\Users\Vento\AppData\Local\Temp\ccuo4SjY.s 			page 6


 215:Core/Src/freertos.c **** };
 216:Core/Src/freertos.c **** 
 217:Core/Src/freertos.c **** /* Private function prototypes -----------------------------------------------*/
 218:Core/Src/freertos.c **** /* USER CODE BEGIN FunctionPrototypes */
 219:Core/Src/freertos.c **** 
 220:Core/Src/freertos.c **** bool App_Add_Node_To_Network(Link_Struct_t link);
 221:Core/Src/freertos.c **** bool App_Delete_Node_From_Network(uint16_t Node_ID);
 222:Core/Src/freertos.c **** 
 223:Core/Src/freertos.c **** bool is_Node_ID_inLinkQueue(uint16_t Node_ID, bool remove);
 224:Core/Src/freertos.c **** bool is_Node_ID_inResponseQueue(uint16_t Node_ID, bool remove);
 225:Core/Src/freertos.c **** bool is_Node_ID_inNetwork(uint16_t Node_ID);
 226:Core/Src/freertos.c **** uint8_t get_Index_from_Node_ID(uint16_t Node_ID);
 227:Core/Src/freertos.c **** void* LoRa_Packet_Parser(const uint8_t* data, uint32_t len);
 228:Core/Src/freertos.c **** 
 229:Core/Src/freertos.c **** void LCD_Print_Join_Request_Page(void);
 230:Core/Src/freertos.c **** void LCD_Print_Promt_Window(void);
 231:Core/Src/freertos.c **** void LCD_Join_Request_Page_Handle(const uint16_t x, const uint16_t y);
 232:Core/Src/freertos.c **** 
 233:Core/Src/freertos.c **** void LCD_Print_Main_Page(void);
 234:Core/Src/freertos.c **** void LCD_Main_Page_Handle(const uint16_t x, const uint16_t y);
 235:Core/Src/freertos.c **** 
 236:Core/Src/freertos.c **** void LCD_Print_Network_Page(void);
 237:Core/Src/freertos.c **** void LCD_Network_Page_Handle(const uint16_t x, const uint16_t y);
 238:Core/Src/freertos.c **** 
 239:Core/Src/freertos.c **** void LCD_Print_Node_Page(void);
 240:Core/Src/freertos.c **** void LCD_Node_Page_Handle(const uint16_t x, const uint16_t y);
 241:Core/Src/freertos.c **** 
 242:Core/Src/freertos.c **** void LCD_Print_Fake_Page(void);
 243:Core/Src/freertos.c **** void LCD_Fake_Page_Handle(const uint16_t x, const uint16_t y);
 244:Core/Src/freertos.c **** 
 245:Core/Src/freertos.c **** 
 246:Core/Src/freertos.c **** /* USER CODE END FunctionPrototypes */
 247:Core/Src/freertos.c **** 
 248:Core/Src/freertos.c **** void Task0Func(void *argument);
 249:Core/Src/freertos.c **** void Task1Func(void *argument);
 250:Core/Src/freertos.c **** void Task2Func(void *argument);
 251:Core/Src/freertos.c **** void Task3Func(void *argument);
 252:Core/Src/freertos.c **** 
 253:Core/Src/freertos.c **** void MX_FREERTOS_Init(void); /* (MISRA C 2004 rule 8.1) */
 254:Core/Src/freertos.c **** 
 255:Core/Src/freertos.c **** /* Hook prototypes */
 256:Core/Src/freertos.c **** void configureTimerForRunTimeStats(void);
 257:Core/Src/freertos.c **** unsigned long getRunTimeCounterValue(void);
 258:Core/Src/freertos.c **** 
 259:Core/Src/freertos.c **** /* USER CODE BEGIN 1 */
 260:Core/Src/freertos.c **** /* Functions needed when configGENERATE_RUN_TIME_STATS is on */
 261:Core/Src/freertos.c **** __weak void configureTimerForRunTimeStats(void)
 262:Core/Src/freertos.c **** {
 263:Core/Src/freertos.c ****   HAL_TIM_Base_Start_IT(&htim5);
 264:Core/Src/freertos.c **** }
 265:Core/Src/freertos.c **** 
 266:Core/Src/freertos.c **** __weak unsigned long getRunTimeCounterValue(void)
 267:Core/Src/freertos.c **** {
 268:Core/Src/freertos.c ****   // uint32_t counter_now = __HAL_TIM_GetCounter(&htim5);
 269:Core/Src/freertos.c ****   // HAL_TIM_Base_Stop(&htim5);
 270:Core/Src/freertos.c ****   // __HAL_TIM_SET_COUNTER(&htim5, 0U);
 271:Core/Src/freertos.c ****   // HAL_TIM_Base_Start(&htim5);
ARM GAS  C:\Users\Vento\AppData\Local\Temp\ccuo4SjY.s 			page 7


 272:Core/Src/freertos.c ****   return traceTime;
 273:Core/Src/freertos.c **** }
 274:Core/Src/freertos.c **** /* USER CODE END 1 */
 275:Core/Src/freertos.c **** 
 276:Core/Src/freertos.c **** /**
 277:Core/Src/freertos.c ****   * @brief  FreeRTOS initialization
 278:Core/Src/freertos.c ****   * @param  None
 279:Core/Src/freertos.c ****   * @retval None
 280:Core/Src/freertos.c ****   */
 281:Core/Src/freertos.c **** void MX_FREERTOS_Init(void) {
 282:Core/Src/freertos.c ****   /* USER CODE BEGIN Init */
 283:Core/Src/freertos.c **** 
 284:Core/Src/freertos.c ****   HAL_Delay(1500);
 285:Core/Src/freertos.c ****   Log_Init();
 286:Core/Src/freertos.c ****   /* USER CODE END Init */
 287:Core/Src/freertos.c **** 
 288:Core/Src/freertos.c ****   /* USER CODE BEGIN RTOS_MUTEX */
 289:Core/Src/freertos.c ****   /* add mutexes, ... */
 290:Core/Src/freertos.c ****   /* USER CODE END RTOS_MUTEX */
 291:Core/Src/freertos.c **** 
 292:Core/Src/freertos.c ****   /* USER CODE BEGIN RTOS_SEMAPHORES */
 293:Core/Src/freertos.c ****   // lcd_semaphore = xSemaphoreCreateBinary();
 294:Core/Src/freertos.c ****   /* add semaphores, ... */
 295:Core/Src/freertos.c ****   /* USER CODE END RTOS_SEMAPHORES */
 296:Core/Src/freertos.c **** 
 297:Core/Src/freertos.c ****   /* USER CODE BEGIN RTOS_TIMERS */
 298:Core/Src/freertos.c ****   /* start timers, add new ones, ... */
 299:Core/Src/freertos.c ****   /* USER CODE END RTOS_TIMERS */
 300:Core/Src/freertos.c **** 
 301:Core/Src/freertos.c ****   /* USER CODE BEGIN RTOS_QUEUES */
 302:Core/Src/freertos.c ****   /* add queues, ... */
 303:Core/Src/freertos.c ****   /* USER CODE END RTOS_QUEUES */
 304:Core/Src/freertos.c **** 
 305:Core/Src/freertos.c ****   /* Create the thread(s) */
 306:Core/Src/freertos.c ****   /* creation of Task0 */
 307:Core/Src/freertos.c ****   Task0Handle = osThreadNew(Task0Func, NULL, &Task0_attributes);
 308:Core/Src/freertos.c **** 
 309:Core/Src/freertos.c ****   /* creation of Task1 */
 310:Core/Src/freertos.c ****   Task1Handle = osThreadNew(Task1Func, NULL, &Task1_attributes);
 311:Core/Src/freertos.c **** 
 312:Core/Src/freertos.c ****   /* creation of Task2 */
 313:Core/Src/freertos.c ****   Task2Handle = osThreadNew(Task2Func, NULL, &Task2_attributes);
 314:Core/Src/freertos.c **** 
 315:Core/Src/freertos.c ****   /* creation of Task3 */
 316:Core/Src/freertos.c ****   Task3Handle = osThreadNew(Task3Func, NULL, &Task3_attributes);
 317:Core/Src/freertos.c **** 
 318:Core/Src/freertos.c ****   /* USER CODE BEGIN RTOS_THREADS */
 319:Core/Src/freertos.c **** 
 320:Core/Src/freertos.c ****   /* add threads, ... */
 321:Core/Src/freertos.c ****   /* USER CODE END RTOS_THREADS */
 322:Core/Src/freertos.c **** 
 323:Core/Src/freertos.c ****   /* USER CODE BEGIN RTOS_EVENTS */
 324:Core/Src/freertos.c ****   evt_group = xEventGroupCreate();
 325:Core/Src/freertos.c ****   if (evt_group == NULL) while(1);
 326:Core/Src/freertos.c ****   xEventGroupClearBits(evt_group, 0xFF);
 327:Core/Src/freertos.c **** 
 328:Core/Src/freertos.c ****   link_queue = xQueueCreate(MAX_NODE, sizeof(Link_Struct_t));
ARM GAS  C:\Users\Vento\AppData\Local\Temp\ccuo4SjY.s 			page 8


 329:Core/Src/freertos.c ****   if (link_queue == NULL) while(1);
 330:Core/Src/freertos.c **** 
 331:Core/Src/freertos.c ****   response_queue = xQueueCreate(5U, sizeof(ResponsePacket_t));
 332:Core/Src/freertos.c ****   if (response_queue == NULL) while(1);
 333:Core/Src/freertos.c ****   /* add events, ... */
 334:Core/Src/freertos.c ****   /* USER CODE END RTOS_EVENTS */
 335:Core/Src/freertos.c **** 
 336:Core/Src/freertos.c **** }
 337:Core/Src/freertos.c **** 
 338:Core/Src/freertos.c **** /* USER CODE BEGIN Header_Task0Func */
 339:Core/Src/freertos.c **** /**
 340:Core/Src/freertos.c ****  * @brief  Function implementing the Task0 thread.
 341:Core/Src/freertos.c ****  * 
 342:Core/Src/freertos.c ****  *  This is the task to process UART (including ESP32) and helper functionalities
 343:Core/Src/freertos.c ****  * 
 344:Core/Src/freertos.c ****  * @param  argument: Not used
 345:Core/Src/freertos.c ****  * @retval None
 346:Core/Src/freertos.c ****  */
 347:Core/Src/freertos.c **** /* USER CODE END Header_Task0Func */
 348:Core/Src/freertos.c **** void Task0Func(void *argument)
 349:Core/Src/freertos.c **** {
  51              		.loc 1 349 1 view -0
  52              		.cfi_startproc
  53              		@ args = 0, pretend = 0, frame = 0
  54              		@ frame_needed = 0, uses_anonymous_args = 0
  55              		.loc 1 349 1 is_stmt 0 view .LVU1
  56 0000 2DE9F041 		push	{r4, r5, r6, r7, r8, lr}
  57              	.LCFI0:
  58              		.cfi_def_cfa_offset 24
  59              		.cfi_offset 4, -24
  60              		.cfi_offset 5, -20
  61              		.cfi_offset 6, -16
  62              		.cfi_offset 7, -12
  63              		.cfi_offset 8, -8
  64              		.cfi_offset 14, -4
  65 0004 84B0     		sub	sp, sp, #16
  66              	.LCFI1:
  67              		.cfi_def_cfa_offset 40
 350:Core/Src/freertos.c ****   /* USER CODE BEGIN Task0Func */
 351:Core/Src/freertos.c **** 
 352:Core/Src/freertos.c ****   HAL_GPIO_WritePin(LED0_GPIO_Port, LED0_Pin, GPIO_PIN_RESET);
  68              		.loc 1 352 3 is_stmt 1 view .LVU2
  69 0006 944C     		ldr	r4, .L18
  70 0008 0022     		movs	r2, #0
  71 000a 4FF40051 		mov	r1, #8192
  72 000e 2046     		mov	r0, r4
  73              	.LVL1:
  74              		.loc 1 352 3 is_stmt 0 view .LVU3
  75 0010 FFF7FEFF 		bl	HAL_GPIO_WritePin
  76              	.LVL2:
 353:Core/Src/freertos.c ****   HAL_Delay(200);
  77              		.loc 1 353 3 is_stmt 1 view .LVU4
  78 0014 C820     		movs	r0, #200
  79 0016 FFF7FEFF 		bl	HAL_Delay
  80              	.LVL3:
 354:Core/Src/freertos.c ****   HAL_GPIO_WritePin(LED0_GPIO_Port, LED0_Pin, GPIO_PIN_SET);
  81              		.loc 1 354 3 view .LVU5
ARM GAS  C:\Users\Vento\AppData\Local\Temp\ccuo4SjY.s 			page 9


  82 001a 0122     		movs	r2, #1
  83 001c 4FF40051 		mov	r1, #8192
  84 0020 2046     		mov	r0, r4
  85 0022 FFF7FEFF 		bl	HAL_GPIO_WritePin
  86              	.LVL4:
 355:Core/Src/freertos.c **** 
 356:Core/Src/freertos.c ****   HAL_UART_Receive_IT(&huart1, &rxBufferUART1[rxIndexUART1++], sizeof(uint8_t));
  87              		.loc 1 356 3 view .LVU6
  88              		.loc 1 356 59 is_stmt 0 view .LVU7
  89 0026 8D4A     		ldr	r2, .L18+4
  90 0028 1178     		ldrb	r1, [r2]	@ zero_extendqisi2
  91 002a 4B1C     		adds	r3, r1, #1
  92 002c DBB2     		uxtb	r3, r3
  93 002e 1370     		strb	r3, [r2]
  94              		.loc 1 356 3 view .LVU8
  95 0030 0122     		movs	r2, #1
  96 0032 8B4B     		ldr	r3, .L18+8
  97 0034 1944     		add	r1, r1, r3
  98 0036 8B48     		ldr	r0, .L18+12
  99 0038 FFF7FEFF 		bl	HAL_UART_Receive_IT
 100              	.LVL5:
 357:Core/Src/freertos.c **** 
 358:Core/Src/freertos.c ****   HAL_TIM_Base_Stop_IT(&htim7);
 101              		.loc 1 358 3 is_stmt 1 view .LVU9
 102 003c 8A4C     		ldr	r4, .L18+16
 103 003e 2046     		mov	r0, r4
 104 0040 FFF7FEFF 		bl	HAL_TIM_Base_Stop_IT
 105              	.LVL6:
 359:Core/Src/freertos.c ****   __HAL_TIM_SetCounter(&htim7, 0U);
 106              		.loc 1 359 3 view .LVU10
 107 0044 2368     		ldr	r3, [r4]
 108 0046 0025     		movs	r5, #0
 109 0048 5D62     		str	r5, [r3, #36]
 360:Core/Src/freertos.c ****   __HAL_TIM_CLEAR_IT(&htim7, TIM_IT_BREAK);
 110              		.loc 1 360 3 view .LVU11
 111 004a 6FF08004 		mvn	r4, #128
 112 004e 1C61     		str	r4, [r3, #16]
 361:Core/Src/freertos.c **** 
 362:Core/Src/freertos.c ****   HAL_UART_Receive_IT(&huart2, &rxBufferUART2[rxIndexUART2++], sizeof(uint8_t));
 113              		.loc 1 362 3 view .LVU12
 114              		.loc 1 362 59 is_stmt 0 view .LVU13
 115 0050 864A     		ldr	r2, .L18+20
 116 0052 1178     		ldrb	r1, [r2]	@ zero_extendqisi2
 117 0054 4B1C     		adds	r3, r1, #1
 118 0056 DBB2     		uxtb	r3, r3
 119 0058 1370     		strb	r3, [r2]
 120              		.loc 1 362 3 view .LVU14
 121 005a 0122     		movs	r2, #1
 122 005c 844B     		ldr	r3, .L18+24
 123 005e 1944     		add	r1, r1, r3
 124 0060 8448     		ldr	r0, .L18+28
 125 0062 FFF7FEFF 		bl	HAL_UART_Receive_IT
 126              	.LVL7:
 363:Core/Src/freertos.c **** 
 364:Core/Src/freertos.c ****   HAL_TIM_Base_Stop_IT(&htim6);
 127              		.loc 1 364 3 is_stmt 1 view .LVU15
 128 0066 844E     		ldr	r6, .L18+32
ARM GAS  C:\Users\Vento\AppData\Local\Temp\ccuo4SjY.s 			page 10


 129 0068 3046     		mov	r0, r6
 130 006a FFF7FEFF 		bl	HAL_TIM_Base_Stop_IT
 131              	.LVL8:
 365:Core/Src/freertos.c ****   __HAL_TIM_SetCounter(&htim6, 0U);
 132              		.loc 1 365 3 view .LVU16
 133 006e 3368     		ldr	r3, [r6]
 134 0070 5D62     		str	r5, [r3, #36]
 366:Core/Src/freertos.c ****   __HAL_TIM_CLEAR_IT(&htim6, TIM_IT_BREAK);
 135              		.loc 1 366 3 view .LVU17
 136 0072 1C61     		str	r4, [r3, #16]
 367:Core/Src/freertos.c **** 
 368:Core/Src/freertos.c ****   static TaskStatus_t *pxTaskStatusArray;
 137              		.loc 1 368 3 view .LVU18
 369:Core/Src/freertos.c **** 	volatile static UBaseType_t uxArraySize, x;
 138              		.loc 1 369 2 view .LVU19
 370:Core/Src/freertos.c **** 	static unsigned long ulTotalRunTime;
 139              		.loc 1 370 2 view .LVU20
 371:Core/Src/freertos.c **** 	static float runtime_percent;
 140              		.loc 1 371 2 view .LVU21
 372:Core/Src/freertos.c **** 
 373:Core/Src/freertos.c ****   uint32_t timeKeeper0 = HAL_GetTick();
 141              		.loc 1 373 3 view .LVU22
 142              		.loc 1 373 26 is_stmt 0 view .LVU23
 143 0074 FFF7FEFF 		bl	HAL_GetTick
 144              	.LVL9:
 145 0078 0746     		mov	r7, r0
 146              	.LVL10:
 374:Core/Src/freertos.c ****   uint32_t timeKeeper1 = HAL_GetTick();
 147              		.loc 1 374 3 is_stmt 1 view .LVU24
 148              		.loc 1 374 26 is_stmt 0 view .LVU25
 149 007a FFF7FEFF 		bl	HAL_GetTick
 150              	.LVL11:
 151              		.loc 1 374 26 view .LVU26
 152 007e 0446     		mov	r4, r0
 153              	.LVL12:
 154              		.loc 1 374 26 view .LVU27
 155 0080 69E0     		b	.L12
 156              	.LVL13:
 157              	.L16:
 375:Core/Src/freertos.c ****   /* Infinite loop */
 376:Core/Src/freertos.c ****   for (;;)
 377:Core/Src/freertos.c ****   {
 378:Core/Src/freertos.c ****     if ((is_UART1_RX_Done == true) && (rxIndexUART1 != 1))
 379:Core/Src/freertos.c ****     {
 380:Core/Src/freertos.c ****       logPC("UART1 RX - %s", rxBufferUART1);
 158              		.loc 1 380 7 is_stmt 1 view .LVU28
 159 0082 774D     		ldr	r5, .L18+8
 160 0084 2946     		mov	r1, r5
 161 0086 7D48     		ldr	r0, .L18+36
 162 0088 FFF7FEFF 		bl	logPC
 163              	.LVL14:
 381:Core/Src/freertos.c ****       rxIndexUART1 = 0;
 164              		.loc 1 381 7 view .LVU29
 165              		.loc 1 381 20 is_stmt 0 view .LVU30
 166 008c 734E     		ldr	r6, .L18+4
 167 008e 0021     		movs	r1, #0
 168 0090 3170     		strb	r1, [r6]
ARM GAS  C:\Users\Vento\AppData\Local\Temp\ccuo4SjY.s 			page 11


 382:Core/Src/freertos.c ****       memset(rxBufferUART1, '\0', sizeof(rxBufferUART1));
 169              		.loc 1 382 7 is_stmt 1 view .LVU31
 170 0092 6422     		movs	r2, #100
 171 0094 2846     		mov	r0, r5
 172 0096 FFF7FEFF 		bl	memset
 173              	.LVL15:
 383:Core/Src/freertos.c ****       HAL_UART_Abort_IT(&huart1);
 174              		.loc 1 383 7 view .LVU32
 175 009a DFF8C881 		ldr	r8, .L18+12
 176 009e 4046     		mov	r0, r8
 177 00a0 FFF7FEFF 		bl	HAL_UART_Abort_IT
 178              	.LVL16:
 384:Core/Src/freertos.c ****       HAL_UART_Receive_IT(&huart1, &rxBufferUART1[rxIndexUART1++], sizeof(uint8_t));
 179              		.loc 1 384 7 view .LVU33
 180              		.loc 1 384 63 is_stmt 0 view .LVU34
 181 00a4 3178     		ldrb	r1, [r6]	@ zero_extendqisi2
 182 00a6 4B1C     		adds	r3, r1, #1
 183 00a8 DBB2     		uxtb	r3, r3
 184 00aa 3370     		strb	r3, [r6]
 185              		.loc 1 384 7 view .LVU35
 186 00ac 0122     		movs	r2, #1
 187 00ae 2944     		add	r1, r1, r5
 188 00b0 4046     		mov	r0, r8
 189 00b2 FFF7FEFF 		bl	HAL_UART_Receive_IT
 190              	.LVL17:
 385:Core/Src/freertos.c ****       HAL_GPIO_WritePin(LED0_GPIO_Port, LED0_Pin, GPIO_PIN_SET);
 191              		.loc 1 385 7 is_stmt 1 view .LVU36
 192 00b6 0122     		movs	r2, #1
 193 00b8 4FF40051 		mov	r1, #8192
 194 00bc 6648     		ldr	r0, .L18
 195 00be FFF7FEFF 		bl	HAL_GPIO_WritePin
 196              	.LVL18:
 197 00c2 50E0     		b	.L2
 198              	.L17:
 386:Core/Src/freertos.c ****     }
 387:Core/Src/freertos.c **** 
 388:Core/Src/freertos.c ****     if ((is_UART2_RX_Done == true) && (rxIndexUART2 != 1))
 389:Core/Src/freertos.c ****     {
 390:Core/Src/freertos.c ****       logPC("UART2 RX - %s", rxBufferUART2);
 199              		.loc 1 390 7 view .LVU37
 200 00c4 6A4D     		ldr	r5, .L18+24
 201 00c6 2946     		mov	r1, r5
 202 00c8 6D48     		ldr	r0, .L18+40
 203 00ca FFF7FEFF 		bl	logPC
 204              	.LVL19:
 391:Core/Src/freertos.c ****       SIM_GetResponse((const char*)rxBufferUART2);
 205              		.loc 1 391 7 view .LVU38
 206 00ce 2846     		mov	r0, r5
 207 00d0 FFF7FEFF 		bl	SIM_GetResponse
 208              	.LVL20:
 392:Core/Src/freertos.c ****       rxIndexUART2 = 0;
 209              		.loc 1 392 7 view .LVU39
 210              		.loc 1 392 20 is_stmt 0 view .LVU40
 211 00d4 654E     		ldr	r6, .L18+20
 212 00d6 0021     		movs	r1, #0
 213 00d8 3170     		strb	r1, [r6]
 393:Core/Src/freertos.c ****       memset(rxBufferUART2, '\0', sizeof(rxBufferUART2));
ARM GAS  C:\Users\Vento\AppData\Local\Temp\ccuo4SjY.s 			page 12


 214              		.loc 1 393 7 is_stmt 1 view .LVU41
 215 00da 6422     		movs	r2, #100
 216 00dc 2846     		mov	r0, r5
 217 00de FFF7FEFF 		bl	memset
 218              	.LVL21:
 394:Core/Src/freertos.c ****       HAL_UART_Abort_IT(&huart2);
 219              		.loc 1 394 7 view .LVU42
 220 00e2 DFF89081 		ldr	r8, .L18+28
 221 00e6 4046     		mov	r0, r8
 222 00e8 FFF7FEFF 		bl	HAL_UART_Abort_IT
 223              	.LVL22:
 395:Core/Src/freertos.c ****       HAL_UART_Receive_IT(&huart2, &rxBufferUART2[rxIndexUART2++], sizeof(uint8_t));
 224              		.loc 1 395 7 view .LVU43
 225              		.loc 1 395 63 is_stmt 0 view .LVU44
 226 00ec 3178     		ldrb	r1, [r6]	@ zero_extendqisi2
 227 00ee 4B1C     		adds	r3, r1, #1
 228 00f0 DBB2     		uxtb	r3, r3
 229 00f2 3370     		strb	r3, [r6]
 230              		.loc 1 395 7 view .LVU45
 231 00f4 0122     		movs	r2, #1
 232 00f6 2944     		add	r1, r1, r5
 233 00f8 4046     		mov	r0, r8
 234 00fa FFF7FEFF 		bl	HAL_UART_Receive_IT
 235              	.LVL23:
 396:Core/Src/freertos.c ****       HAL_GPIO_WritePin(LED0_GPIO_Port, LED0_Pin, GPIO_PIN_SET);
 236              		.loc 1 396 7 is_stmt 1 view .LVU46
 237 00fe 0122     		movs	r2, #1
 238 0100 4FF40051 		mov	r1, #8192
 239 0104 5448     		ldr	r0, .L18
 240 0106 FFF7FEFF 		bl	HAL_GPIO_WritePin
 241              	.LVL24:
 242 010a 34E0     		b	.L3
 243              	.L5:
 397:Core/Src/freertos.c ****     }
 398:Core/Src/freertos.c **** 
 399:Core/Src/freertos.c ****     if ((HAL_GetTick() - timeKeeper0) >= 2000)
 400:Core/Src/freertos.c ****     {
 401:Core/Src/freertos.c ****       if (is_LCD_processing == true)  is_LCD_processing = false;
 402:Core/Src/freertos.c ****       if (is_LoRa_processing == true)
 244              		.loc 1 402 7 view .LVU47
 245              		.loc 1 402 30 is_stmt 0 view .LVU48
 246 010c 5D4B     		ldr	r3, .L18+44
 247 010e 1B78     		ldrb	r3, [r3]	@ zero_extendqisi2
 248              		.loc 1 402 10 view .LVU49
 249 0110 002B     		cmp	r3, #0
 250 0112 3ED1     		bne	.L14
 251              	.L6:
 403:Core/Src/freertos.c ****       {
 404:Core/Src/freertos.c ****         sx1278_start_recv_data();
 405:Core/Src/freertos.c ****         xEventGroupClearBits(evt_group, EVT_LORA);
 406:Core/Src/freertos.c ****         is_LoRa_processing = false;
 407:Core/Src/freertos.c ****       }
 408:Core/Src/freertos.c ****       timeKeeper0 = HAL_GetTick();
 252              		.loc 1 408 7 is_stmt 1 view .LVU50
 253              		.loc 1 408 21 is_stmt 0 view .LVU51
 254 0114 FFF7FEFF 		bl	HAL_GetTick
 255              	.LVL25:
ARM GAS  C:\Users\Vento\AppData\Local\Temp\ccuo4SjY.s 			page 13


 256 0118 0746     		mov	r7, r0
 257              	.LVL26:
 258              	.L4:
 409:Core/Src/freertos.c ****     }
 410:Core/Src/freertos.c **** 
 411:Core/Src/freertos.c ****     if ((HAL_GetTick() - timeKeeper1) >= 30000)
 259              		.loc 1 411 5 is_stmt 1 view .LVU52
 260              		.loc 1 411 10 is_stmt 0 view .LVU53
 261 011a FFF7FEFF 		bl	HAL_GetTick
 262              	.LVL27:
 263              		.loc 1 411 24 view .LVU54
 264 011e 031B     		subs	r3, r0, r4
 265              		.loc 1 411 8 view .LVU55
 266 0120 47F22F52 		movw	r2, #29999
 267 0124 9342     		cmp	r3, r2
 268 0126 13D9     		bls	.L7
 412:Core/Src/freertos.c ****     {
 413:Core/Src/freertos.c ****       uxArraySize = uxTaskGetNumberOfTasks();
 269              		.loc 1 413 7 is_stmt 1 view .LVU56
 270              		.loc 1 413 21 is_stmt 0 view .LVU57
 271 0128 FFF7FEFF 		bl	uxTaskGetNumberOfTasks
 272              	.LVL28:
 273              		.loc 1 413 19 view .LVU58
 274 012c 564B     		ldr	r3, .L18+48
 275 012e 1860     		str	r0, [r3]
 414:Core/Src/freertos.c ****       pxTaskStatusArray = pvPortMalloc(uxArraySize * sizeof(TaskStatus_t)); // a little bit scary!
 276              		.loc 1 414 7 is_stmt 1 view .LVU59
 277              		.loc 1 414 27 is_stmt 0 view .LVU60
 278 0130 1868     		ldr	r0, [r3]
 279              		.loc 1 414 52 view .LVU61
 280 0132 00EBC000 		add	r0, r0, r0, lsl #3
 281              		.loc 1 414 27 view .LVU62
 282 0136 8000     		lsls	r0, r0, #2
 283 0138 FFF7FEFF 		bl	pvPortMalloc
 284              	.LVL29:
 285              		.loc 1 414 25 view .LVU63
 286 013c 534B     		ldr	r3, .L18+52
 287 013e 1860     		str	r0, [r3]
 415:Core/Src/freertos.c ****       if (pxTaskStatusArray != NULL)
 288              		.loc 1 415 7 is_stmt 1 view .LVU64
 289              		.loc 1 415 10 is_stmt 0 view .LVU65
 290 0140 0028     		cmp	r0, #0
 291 0142 31D1     		bne	.L15
 416:Core/Src/freertos.c ****       {
 417:Core/Src/freertos.c ****         uxArraySize = uxTaskGetSystemState(pxTaskStatusArray, uxArraySize, &ulTotalRunTime);
 418:Core/Src/freertos.c **** 
 419:Core/Src/freertos.c ****         logPC("Task count = %lu\n", uxArraySize);
 420:Core/Src/freertos.c ****         logPC("No      Name          S Usage   HW\n");
 421:Core/Src/freertos.c **** 
 422:Core/Src/freertos.c ****         for (x = 0; x < uxArraySize; x++)
 423:Core/Src/freertos.c ****         {
 424:Core/Src/freertos.c ****           runtime_percent = (float) ((100 * (float)pxTaskStatusArray[x].ulRunTimeCounter) / (float)
 425:Core/Src/freertos.c ****           logPC("Task %lu: %-12s %2d %07.4f %4i\n", x, pxTaskStatusArray[x].pcTaskName, pxTaskStatu
 426:Core/Src/freertos.c ****         }
 427:Core/Src/freertos.c ****         vPortFree(pxTaskStatusArray);
 428:Core/Src/freertos.c ****       }
 429:Core/Src/freertos.c ****       else  logPC("Unable to allocate stack space");
ARM GAS  C:\Users\Vento\AppData\Local\Temp\ccuo4SjY.s 			page 14


 292              		.loc 1 429 13 is_stmt 1 view .LVU66
 293 0144 5248     		ldr	r0, .L18+56
 294 0146 FFF7FEFF 		bl	logPC
 295              	.LVL30:
 296              	.L11:
 430:Core/Src/freertos.c ****       timeKeeper1 = HAL_GetTick();
 297              		.loc 1 430 7 view .LVU67
 298              		.loc 1 430 21 is_stmt 0 view .LVU68
 299 014a FFF7FEFF 		bl	HAL_GetTick
 300              	.LVL31:
 301 014e 0446     		mov	r4, r0
 302              	.LVL32:
 303              	.L7:
 431:Core/Src/freertos.c ****     }
 432:Core/Src/freertos.c **** 
 433:Core/Src/freertos.c ****     // HAL_Delay(10);
 434:Core/Src/freertos.c ****     osDelay(10);
 304              		.loc 1 434 5 is_stmt 1 view .LVU69
 305 0150 0A20     		movs	r0, #10
 306 0152 FFF7FEFF 		bl	osDelay
 307              	.LVL33:
 376:Core/Src/freertos.c ****   {
 308              		.loc 1 376 9 view .LVU70
 309              	.L12:
 376:Core/Src/freertos.c ****   {
 310              		.loc 1 376 3 view .LVU71
 378:Core/Src/freertos.c ****     {
 311              		.loc 1 378 5 view .LVU72
 378:Core/Src/freertos.c ****     {
 312              		.loc 1 378 27 is_stmt 0 view .LVU73
 313 0156 4F4B     		ldr	r3, .L18+60
 314 0158 1B78     		ldrb	r3, [r3]	@ zero_extendqisi2
 378:Core/Src/freertos.c ****     {
 315              		.loc 1 378 8 view .LVU74
 316 015a 23B1     		cbz	r3, .L2
 378:Core/Src/freertos.c ****     {
 317              		.loc 1 378 53 discriminator 1 view .LVU75
 318 015c 3F4B     		ldr	r3, .L18+4
 319 015e 1B78     		ldrb	r3, [r3]	@ zero_extendqisi2
 320 0160 DBB2     		uxtb	r3, r3
 378:Core/Src/freertos.c ****     {
 321              		.loc 1 378 36 discriminator 1 view .LVU76
 322 0162 012B     		cmp	r3, #1
 323 0164 8DD1     		bne	.L16
 324              	.L2:
 388:Core/Src/freertos.c ****     {
 325              		.loc 1 388 5 is_stmt 1 view .LVU77
 388:Core/Src/freertos.c ****     {
 326              		.loc 1 388 27 is_stmt 0 view .LVU78
 327 0166 4C4B     		ldr	r3, .L18+64
 328 0168 1B78     		ldrb	r3, [r3]	@ zero_extendqisi2
 388:Core/Src/freertos.c ****     {
 329              		.loc 1 388 8 view .LVU79
 330 016a 23B1     		cbz	r3, .L3
 388:Core/Src/freertos.c ****     {
 331              		.loc 1 388 53 discriminator 1 view .LVU80
 332 016c 3F4B     		ldr	r3, .L18+20
ARM GAS  C:\Users\Vento\AppData\Local\Temp\ccuo4SjY.s 			page 15


 333 016e 1B78     		ldrb	r3, [r3]	@ zero_extendqisi2
 334 0170 DBB2     		uxtb	r3, r3
 388:Core/Src/freertos.c ****     {
 335              		.loc 1 388 36 discriminator 1 view .LVU81
 336 0172 012B     		cmp	r3, #1
 337 0174 A6D1     		bne	.L17
 338              	.L3:
 399:Core/Src/freertos.c ****     {
 339              		.loc 1 399 5 is_stmt 1 view .LVU82
 399:Core/Src/freertos.c ****     {
 340              		.loc 1 399 10 is_stmt 0 view .LVU83
 341 0176 FFF7FEFF 		bl	HAL_GetTick
 342              	.LVL34:
 399:Core/Src/freertos.c ****     {
 343              		.loc 1 399 24 view .LVU84
 344 017a C31B     		subs	r3, r0, r7
 399:Core/Src/freertos.c ****     {
 345              		.loc 1 399 8 view .LVU85
 346 017c B3F5FA6F 		cmp	r3, #2000
 347 0180 CBD3     		bcc	.L4
 401:Core/Src/freertos.c ****       if (is_LoRa_processing == true)
 348              		.loc 1 401 7 is_stmt 1 view .LVU86
 401:Core/Src/freertos.c ****       if (is_LoRa_processing == true)
 349              		.loc 1 401 29 is_stmt 0 view .LVU87
 350 0182 464B     		ldr	r3, .L18+68
 351 0184 1B78     		ldrb	r3, [r3]	@ zero_extendqisi2
 401:Core/Src/freertos.c ****       if (is_LoRa_processing == true)
 352              		.loc 1 401 10 view .LVU88
 353 0186 002B     		cmp	r3, #0
 354 0188 C0D0     		beq	.L5
 401:Core/Src/freertos.c ****       if (is_LoRa_processing == true)
 355              		.loc 1 401 39 is_stmt 1 discriminator 1 view .LVU89
 401:Core/Src/freertos.c ****       if (is_LoRa_processing == true)
 356              		.loc 1 401 57 is_stmt 0 discriminator 1 view .LVU90
 357 018a 444B     		ldr	r3, .L18+68
 358 018c 0022     		movs	r2, #0
 359 018e 1A70     		strb	r2, [r3]
 360 0190 BCE7     		b	.L5
 361              	.L14:
 404:Core/Src/freertos.c ****         xEventGroupClearBits(evt_group, EVT_LORA);
 362              		.loc 1 404 9 is_stmt 1 view .LVU91
 363 0192 FFF7FEFF 		bl	sx1278_start_recv_data
 364              	.LVL35:
 405:Core/Src/freertos.c ****         is_LoRa_processing = false;
 365              		.loc 1 405 9 view .LVU92
 366 0196 0421     		movs	r1, #4
 367 0198 414B     		ldr	r3, .L18+72
 368 019a 1868     		ldr	r0, [r3]
 369 019c FFF7FEFF 		bl	xEventGroupClearBits
 370              	.LVL36:
 406:Core/Src/freertos.c ****       }
 371              		.loc 1 406 9 view .LVU93
 406:Core/Src/freertos.c ****       }
 372              		.loc 1 406 28 is_stmt 0 view .LVU94
 373 01a0 384B     		ldr	r3, .L18+44
 374 01a2 0022     		movs	r2, #0
 375 01a4 1A70     		strb	r2, [r3]
ARM GAS  C:\Users\Vento\AppData\Local\Temp\ccuo4SjY.s 			page 16


 376 01a6 B5E7     		b	.L6
 377              	.L15:
 417:Core/Src/freertos.c **** 
 378              		.loc 1 417 9 is_stmt 1 view .LVU95
 417:Core/Src/freertos.c **** 
 379              		.loc 1 417 23 is_stmt 0 view .LVU96
 380 01a8 374C     		ldr	r4, .L18+48
 381              	.LVL37:
 417:Core/Src/freertos.c **** 
 382              		.loc 1 417 23 view .LVU97
 383 01aa 2168     		ldr	r1, [r4]
 384 01ac 3D4A     		ldr	r2, .L18+76
 385 01ae FFF7FEFF 		bl	uxTaskGetSystemState
 386              	.LVL38:
 417:Core/Src/freertos.c **** 
 387              		.loc 1 417 21 view .LVU98
 388 01b2 2060     		str	r0, [r4]
 419:Core/Src/freertos.c ****         logPC("No      Name          S Usage   HW\n");
 389              		.loc 1 419 9 is_stmt 1 view .LVU99
 390 01b4 2168     		ldr	r1, [r4]
 391 01b6 3C48     		ldr	r0, .L18+80
 392 01b8 FFF7FEFF 		bl	logPC
 393              	.LVL39:
 420:Core/Src/freertos.c **** 
 394              		.loc 1 420 9 view .LVU100
 395 01bc 3B48     		ldr	r0, .L18+84
 396 01be FFF7FEFF 		bl	logPC
 397              	.LVL40:
 422:Core/Src/freertos.c ****         {
 398              		.loc 1 422 9 view .LVU101
 422:Core/Src/freertos.c ****         {
 399              		.loc 1 422 16 is_stmt 0 view .LVU102
 400 01c2 3B4B     		ldr	r3, .L18+88
 401 01c4 0022     		movs	r2, #0
 402 01c6 1A60     		str	r2, [r3]
 422:Core/Src/freertos.c ****         {
 403              		.loc 1 422 9 view .LVU103
 404 01c8 3AE0     		b	.L9
 405              	.L10:
 424:Core/Src/freertos.c ****           logPC("Task %lu: %-12s %2d %07.4f %4i\n", x, pxTaskStatusArray[x].pcTaskName, pxTaskStatu
 406              		.loc 1 424 11 is_stmt 1 discriminator 3 view .LVU104
 424:Core/Src/freertos.c ****           logPC("Task %lu: %-12s %2d %07.4f %4i\n", x, pxTaskStatusArray[x].pcTaskName, pxTaskStatu
 407              		.loc 1 424 69 is_stmt 0 discriminator 3 view .LVU105
 408 01ca 304B     		ldr	r3, .L18+52
 409 01cc 1D68     		ldr	r5, [r3]
 410 01ce 384C     		ldr	r4, .L18+88
 411 01d0 2368     		ldr	r3, [r4]
 412 01d2 03EBC303 		add	r3, r3, r3, lsl #3
 413 01d6 05EB8303 		add	r3, r5, r3, lsl #2
 424:Core/Src/freertos.c ****           logPC("Task %lu: %-12s %2d %07.4f %4i\n", x, pxTaskStatusArray[x].pcTaskName, pxTaskStatu
 414              		.loc 1 424 45 discriminator 3 view .LVU106
 415 01da 9869     		ldr	r0, [r3, #24]
 416 01dc FFF7FEFF 		bl	__aeabi_ui2f
 417              	.LVL41:
 424:Core/Src/freertos.c ****           logPC("Task %lu: %-12s %2d %07.4f %4i\n", x, pxTaskStatusArray[x].pcTaskName, pxTaskStatu
 418              		.loc 1 424 43 discriminator 3 view .LVU107
 419 01e0 3449     		ldr	r1, .L18+92
ARM GAS  C:\Users\Vento\AppData\Local\Temp\ccuo4SjY.s 			page 17


 420 01e2 FFF7FEFF 		bl	__aeabi_fmul
 421              	.LVL42:
 422 01e6 0646     		mov	r6, r0
 424:Core/Src/freertos.c ****           logPC("Task %lu: %-12s %2d %07.4f %4i\n", x, pxTaskStatusArray[x].pcTaskName, pxTaskStatu
 423              		.loc 1 424 93 discriminator 3 view .LVU108
 424 01e8 2E4B     		ldr	r3, .L18+76
 425 01ea 1868     		ldr	r0, [r3]
 426 01ec FFF7FEFF 		bl	__aeabi_ui2f
 427              	.LVL43:
 428 01f0 0146     		mov	r1, r0
 424:Core/Src/freertos.c ****           logPC("Task %lu: %-12s %2d %07.4f %4i\n", x, pxTaskStatusArray[x].pcTaskName, pxTaskStatu
 429              		.loc 1 424 29 discriminator 3 view .LVU109
 430 01f2 3046     		mov	r0, r6
 431 01f4 FFF7FEFF 		bl	__aeabi_fdiv
 432              	.LVL44:
 424:Core/Src/freertos.c ****           logPC("Task %lu: %-12s %2d %07.4f %4i\n", x, pxTaskStatusArray[x].pcTaskName, pxTaskStatu
 433              		.loc 1 424 27 discriminator 3 view .LVU110
 434 01f8 2F4B     		ldr	r3, .L18+96
 435 01fa 1860     		str	r0, [r3]	@ float
 425:Core/Src/freertos.c ****         }
 436              		.loc 1 425 11 is_stmt 1 discriminator 3 view .LVU111
 437 01fc 2668     		ldr	r6, [r4]
 425:Core/Src/freertos.c ****         }
 438              		.loc 1 425 73 is_stmt 0 discriminator 3 view .LVU112
 439 01fe 2368     		ldr	r3, [r4]
 440 0200 03EBC303 		add	r3, r3, r3, lsl #3
 441 0204 05EB8303 		add	r3, r5, r3, lsl #2
 425:Core/Src/freertos.c ****         }
 442              		.loc 1 425 106 discriminator 3 view .LVU113
 443 0208 2268     		ldr	r2, [r4]
 444 020a 02EBC202 		add	r2, r2, r2, lsl #3
 445 020e 05EB8202 		add	r2, r5, r2, lsl #2
 425:Core/Src/freertos.c ****         }
 446              		.loc 1 425 109 discriminator 3 view .LVU114
 447 0212 92F80C80 		ldrb	r8, [r2, #12]	@ zero_extendqisi2
 425:Core/Src/freertos.c ****         }
 448              		.loc 1 425 159 discriminator 3 view .LVU115
 449 0216 2268     		ldr	r2, [r4]
 450 0218 02EBC202 		add	r2, r2, r2, lsl #3
 451 021c 05EB8205 		add	r5, r5, r2, lsl #2
 425:Core/Src/freertos.c ****         }
 452              		.loc 1 425 162 discriminator 3 view .LVU116
 453 0220 2A8C     		ldrh	r2, [r5, #32]
 425:Core/Src/freertos.c ****         }
 454              		.loc 1 425 11 discriminator 3 view .LVU117
 455 0222 5D68     		ldr	r5, [r3, #4]
 456 0224 0292     		str	r2, [sp, #8]
 457 0226 FFF7FEFF 		bl	__aeabi_f2d
 458              	.LVL45:
 459 022a CDE90001 		strd	r0, [sp]
 460 022e 4346     		mov	r3, r8
 461 0230 2A46     		mov	r2, r5
 462 0232 3146     		mov	r1, r6
 463 0234 2148     		ldr	r0, .L18+100
 464 0236 FFF7FEFF 		bl	logPC
 465              	.LVL46:
 422:Core/Src/freertos.c ****         {
ARM GAS  C:\Users\Vento\AppData\Local\Temp\ccuo4SjY.s 			page 18


 466              		.loc 1 422 38 is_stmt 1 discriminator 3 view .LVU118
 422:Core/Src/freertos.c ****         {
 467              		.loc 1 422 39 is_stmt 0 discriminator 3 view .LVU119
 468 023a 2368     		ldr	r3, [r4]
 469 023c 0133     		adds	r3, r3, #1
 470 023e 2360     		str	r3, [r4]
 471              	.L9:
 422:Core/Src/freertos.c ****         {
 472              		.loc 1 422 21 is_stmt 1 discriminator 1 view .LVU120
 422:Core/Src/freertos.c ****         {
 473              		.loc 1 422 23 is_stmt 0 discriminator 1 view .LVU121
 474 0240 1B4B     		ldr	r3, .L18+88
 475 0242 1A68     		ldr	r2, [r3]
 476 0244 104B     		ldr	r3, .L18+48
 477 0246 1B68     		ldr	r3, [r3]
 422:Core/Src/freertos.c ****         {
 478              		.loc 1 422 9 discriminator 1 view .LVU122
 479 0248 9A42     		cmp	r2, r3
 480 024a BED3     		bcc	.L10
 427:Core/Src/freertos.c ****       }
 481              		.loc 1 427 9 is_stmt 1 view .LVU123
 482 024c 0F4B     		ldr	r3, .L18+52
 483 024e 1868     		ldr	r0, [r3]
 484 0250 FFF7FEFF 		bl	vPortFree
 485              	.LVL47:
 486 0254 79E7     		b	.L11
 487              	.L19:
 488 0256 00BF     		.align	2
 489              	.L18:
 490 0258 00100140 		.word	1073811456
 491 025c 00000000 		.word	.LANCHOR0
 492 0260 00000000 		.word	.LANCHOR1
 493 0264 00000000 		.word	huart1
 494 0268 00000000 		.word	htim7
 495 026c 00000000 		.word	.LANCHOR2
 496 0270 00000000 		.word	.LANCHOR3
 497 0274 00000000 		.word	huart2
 498 0278 00000000 		.word	htim6
 499 027c 00000000 		.word	.LC0
 500 0280 10000000 		.word	.LC1
 501 0284 00000000 		.word	.LANCHOR7
 502 0288 00000000 		.word	.LANCHOR9
 503 028c 00000000 		.word	.LANCHOR10
 504 0290 78000000 		.word	.LC5
 505 0294 00000000 		.word	.LANCHOR4
 506 0298 00000000 		.word	.LANCHOR5
 507 029c 00000000 		.word	.LANCHOR6
 508 02a0 00000000 		.word	.LANCHOR8
 509 02a4 00000000 		.word	.LANCHOR11
 510 02a8 20000000 		.word	.LC2
 511 02ac 34000000 		.word	.LC3
 512 02b0 00000000 		.word	.LANCHOR12
 513 02b4 0000C842 		.word	1120403456
 514 02b8 00000000 		.word	.LANCHOR13
 515 02bc 58000000 		.word	.LC4
 516              		.cfi_endproc
 517              	.LFE75:
ARM GAS  C:\Users\Vento\AppData\Local\Temp\ccuo4SjY.s 			page 19


 519              		.section	.text.Task3Func,"ax",%progbits
 520              		.align	1
 521              		.global	Task3Func
 522              		.syntax unified
 523              		.thumb
 524              		.thumb_func
 525              		.fpu softvfp
 527              	Task3Func:
 528              	.LVL48:
 529              	.LFB78:
 435:Core/Src/freertos.c ****   }
 436:Core/Src/freertos.c ****   /* USER CODE END Task0Func */
 437:Core/Src/freertos.c **** }
 438:Core/Src/freertos.c **** 
 439:Core/Src/freertos.c **** /* USER CODE BEGIN Header_Task1Func */
 440:Core/Src/freertos.c **** /**
 441:Core/Src/freertos.c ****  * @brief Function implementing the Task1 thread.
 442:Core/Src/freertos.c ****  * 
 443:Core/Src/freertos.c ****  *    This is the Task to process LCD display functionalities
 444:Core/Src/freertos.c ****  * 
 445:Core/Src/freertos.c ****  * @param argument: Not used
 446:Core/Src/freertos.c ****  * @retval None
 447:Core/Src/freertos.c ****  */
 448:Core/Src/freertos.c **** /* USER CODE END Header_Task1Func */
 449:Core/Src/freertos.c **** void Task1Func(void *argument)
 450:Core/Src/freertos.c **** {
 451:Core/Src/freertos.c ****   /* USER CODE BEGIN Task1Func */
 452:Core/Src/freertos.c ****   static const char *TAG_LCD = "LCD";
 453:Core/Src/freertos.c ****   volatile static uint16_t coordinateX = 0;
 454:Core/Src/freertos.c ****   volatile static uint16_t coordinateY = 0;
 455:Core/Src/freertos.c ****   static EventBits_t evt_bits_lcd;
 456:Core/Src/freertos.c ****   xEventGroupClearBits(evt_group, EVT_TOCUH);
 457:Core/Src/freertos.c **** 
 458:Core/Src/freertos.c ****   // osDelay(500);
 459:Core/Src/freertos.c **** 
 460:Core/Src/freertos.c ****   ILI9341_Unselect();
 461:Core/Src/freertos.c ****   ILI9341_Init();
 462:Core/Src/freertos.c ****   LOG(TAG_LCD, "Initialize Done...");
 463:Core/Src/freertos.c ****   {
 464:Core/Src/freertos.c ****     uint32_t timeMark = HAL_GetTick();
 465:Core/Src/freertos.c ****     ILI9341_FillScreen(ILI9341_WHITE);
 466:Core/Src/freertos.c ****     timeMark = HAL_GetTick() - timeMark;
 467:Core/Src/freertos.c ****     logPC("%s - Screen Fill time: %d ms\tFPS: %2.1f", TAG_LCD, timeMark, (float)((1000.0)/(float)(t
 468:Core/Src/freertos.c ****   }
 469:Core/Src/freertos.c ****   ILI9341_DrawImage(60, 45, 200, 150, (const uint16_t *)gLogoMain);
 470:Core/Src/freertos.c ****   osDelay(2000);
 471:Core/Src/freertos.c ****   // ILI9341_FillScreen(ILI9341_BLACK);
 472:Core/Src/freertos.c ****   is_page_change = true;
 473:Core/Src/freertos.c ****   LCD_Print_Main_Page();
 474:Core/Src/freertos.c **** 
 475:Core/Src/freertos.c ****   __HAL_TIM_SetCounter(&htim4, 0U);
 476:Core/Src/freertos.c ****   HAL_TIM_Base_Start_IT(&htim4);
 477:Core/Src/freertos.c **** 
 478:Core/Src/freertos.c ****   /* Infinite loop */
 479:Core/Src/freertos.c ****   for (;;)
 480:Core/Src/freertos.c ****   {
 481:Core/Src/freertos.c ****     evt_bits_lcd = xEventGroupWaitBits(evt_group, EVT_TOCUH, pdTRUE, pdFALSE, portMAX_DELAY);
ARM GAS  C:\Users\Vento\AppData\Local\Temp\ccuo4SjY.s 			page 20


 482:Core/Src/freertos.c **** 
 483:Core/Src/freertos.c ****     if(((evt_bits_lcd & EVT_TOCUH) != 0U) && (HAL_GPIO_ReadPin(Touch_EXT_GPIO_Port, Touch_EXT_Pin) 
 484:Core/Src/freertos.c ****     {
 485:Core/Src/freertos.c ****       if (ILI9341_TouchGetCoordinates((uint16_t*)&coordinateX, (uint16_t*)&coordinateY) == true)
 486:Core/Src/freertos.c ****       {
 487:Core/Src/freertos.c ****         logPC("%s - Touched!\tCoordinate X - %d\tCoordinate Y - %d", TAG_LCD, coordinateX, coordina
 488:Core/Src/freertos.c ****         switch (Current_Page)
 489:Core/Src/freertos.c ****         {
 490:Core/Src/freertos.c ****           case MAIN_PAGE: {
 491:Core/Src/freertos.c ****             LCD_Main_Page_Handle(coordinateX, coordinateY);
 492:Core/Src/freertos.c ****             break;
 493:Core/Src/freertos.c ****           }
 494:Core/Src/freertos.c ****           case JOIN_REQUEST_PAGE: {
 495:Core/Src/freertos.c ****             LCD_Join_Request_Page_Handle(coordinateX, coordinateY);
 496:Core/Src/freertos.c ****             break;
 497:Core/Src/freertos.c ****           }
 498:Core/Src/freertos.c ****           case NETWORK_PAGE: {
 499:Core/Src/freertos.c ****             LCD_Network_Page_Handle(coordinateX, coordinateY);
 500:Core/Src/freertos.c ****             break;
 501:Core/Src/freertos.c ****           }
 502:Core/Src/freertos.c ****           case NODE_PAGE: {
 503:Core/Src/freertos.c ****             LCD_Node_Page_Handle(coordinateX, coordinateY);
 504:Core/Src/freertos.c ****             break;
 505:Core/Src/freertos.c ****           }
 506:Core/Src/freertos.c ****           case CONTROL_PAGE: {
 507:Core/Src/freertos.c ****             LCD_Control_Page_Handle(coordinateX, coordinateY);
 508:Core/Src/freertos.c ****             break;
 509:Core/Src/freertos.c ****           }
 510:Core/Src/freertos.c ****           case FAKE_PAGE: {
 511:Core/Src/freertos.c ****             LCD_Fake_Page_Handle(coordinateX, coordinateY);
 512:Core/Src/freertos.c ****             break;
 513:Core/Src/freertos.c ****           }
 514:Core/Src/freertos.c ****           default: break;
 515:Core/Src/freertos.c ****         }
 516:Core/Src/freertos.c ****       }
 517:Core/Src/freertos.c ****     }
 518:Core/Src/freertos.c **** 
 519:Core/Src/freertos.c ****     // Refresh Page
 520:Core/Src/freertos.c ****     switch (Current_Page)
 521:Core/Src/freertos.c ****     {
 522:Core/Src/freertos.c ****       case MAIN_PAGE: {
 523:Core/Src/freertos.c ****         LCD_Print_Main_Page();
 524:Core/Src/freertos.c ****         break;
 525:Core/Src/freertos.c ****       }
 526:Core/Src/freertos.c ****       case JOIN_REQUEST_PAGE: {
 527:Core/Src/freertos.c ****         LCD_Print_Join_Request_Page();
 528:Core/Src/freertos.c ****         break;
 529:Core/Src/freertos.c ****       }
 530:Core/Src/freertos.c ****       case NETWORK_PAGE: {
 531:Core/Src/freertos.c ****         LCD_Print_Network_Page();
 532:Core/Src/freertos.c ****         break;
 533:Core/Src/freertos.c ****       }
 534:Core/Src/freertos.c ****       case NODE_PAGE: {
 535:Core/Src/freertos.c ****         LCD_Print_Node_Page();
 536:Core/Src/freertos.c ****         break;
 537:Core/Src/freertos.c ****       }
 538:Core/Src/freertos.c ****       case CONTROL_PAGE: {
ARM GAS  C:\Users\Vento\AppData\Local\Temp\ccuo4SjY.s 			page 21


 539:Core/Src/freertos.c ****         LCD_Print_Control_Page();
 540:Core/Src/freertos.c ****         break;
 541:Core/Src/freertos.c ****       }
 542:Core/Src/freertos.c ****       case FAKE_PAGE: {
 543:Core/Src/freertos.c ****         LCD_Print_Fake_Page();
 544:Core/Src/freertos.c ****         break;
 545:Core/Src/freertos.c ****       }
 546:Core/Src/freertos.c ****       default: break;
 547:Core/Src/freertos.c ****     }
 548:Core/Src/freertos.c **** 
 549:Core/Src/freertos.c ****     xEventGroupClearBits(evt_group, EVT_TOCUH);
 550:Core/Src/freertos.c ****     is_LCD_processing = false;
 551:Core/Src/freertos.c ****     osDelay(100);
 552:Core/Src/freertos.c ****   }
 553:Core/Src/freertos.c ****   /* USER CODE END Task1Func */
 554:Core/Src/freertos.c **** }
 555:Core/Src/freertos.c **** 
 556:Core/Src/freertos.c **** /* USER CODE BEGIN Header_Task2Func */
 557:Core/Src/freertos.c **** /**
 558:Core/Src/freertos.c ****  * @brief Function implementing the Task2 thread.
 559:Core/Src/freertos.c ****  * 
 560:Core/Src/freertos.c ****  *    This is the Task to handle LoRa transceiver
 561:Core/Src/freertos.c ****  * 
 562:Core/Src/freertos.c ****  * @param argument: Not used
 563:Core/Src/freertos.c ****  * @retval None
 564:Core/Src/freertos.c ****  */
 565:Core/Src/freertos.c **** /* USER CODE END Header_Task2Func */
 566:Core/Src/freertos.c **** void Task2Func(void *argument)
 567:Core/Src/freertos.c **** {
 568:Core/Src/freertos.c ****   /* USER CODE BEGIN Task2Func */
 569:Core/Src/freertos.c ****   osDelay(2000);
 570:Core/Src/freertos.c ****   static uint8_t data[100] = {0};
 571:Core/Src/freertos.c ****   static uint32_t nByteRx = 0;
 572:Core/Src/freertos.c ****   static int rssi = -1;
 573:Core/Src/freertos.c ****   static float snr = -1;
 574:Core/Src/freertos.c ****   static EventBits_t evt_bits;
 575:Core/Src/freertos.c ****   static void * ptr2payload = NULL;
 576:Core/Src/freertos.c **** 
 577:Core/Src/freertos.c ****   sx1278_init();
 578:Core/Src/freertos.c ****   sx1278_start_recv_data();
 579:Core/Src/freertos.c **** 
 580:Core/Src/freertos.c ****   /* Infinite loop */
 581:Core/Src/freertos.c ****   for (;;)
 582:Core/Src/freertos.c ****   {
 583:Core/Src/freertos.c ****     xEventGroupClearBits(evt_group, EVT_LORA);
 584:Core/Src/freertos.c ****     evt_bits = xEventGroupWaitBits(evt_group, EVT_LORA, pdTRUE, pdFALSE, portMAX_DELAY);
 585:Core/Src/freertos.c **** 
 586:Core/Src/freertos.c ****     if(((evt_bits & EVT_LORA) != 0U) && (HAL_GPIO_ReadPin(LoRa_EXT0_GPIO_Port, LoRa_EXT0_Pin) == GP
 587:Core/Src/freertos.c ****     {
 588:Core/Src/freertos.c ****       if (sx1278_recv_data((uint8_t *)data, &nByteRx, &rssi, &snr, true) == SX1278_OK)
 589:Core/Src/freertos.c ****       {
 590:Core/Src/freertos.c ****         logPC("LoRa Received %d byte(s)\trssi: %d\tsnr: %2.1f\n", nByteRx, rssi, snr);
 591:Core/Src/freertos.c ****         logPC("LoRa payload:\t");
 592:Core/Src/freertos.c ****         for (int i = 0; i < nByteRx; i++)
 593:Core/Src/freertos.c ****         {
 594:Core/Src/freertos.c ****           logPC("%02X ", data[i]);
 595:Core/Src/freertos.c ****         }
ARM GAS  C:\Users\Vento\AppData\Local\Temp\ccuo4SjY.s 			page 22


 596:Core/Src/freertos.c ****         ptr2payload = LoRa_Packet_Parser((const uint8_t*)data, nByteRx);
 597:Core/Src/freertos.c ****         // TODO: process payload
 598:Core/Src/freertos.c ****       }
 599:Core/Src/freertos.c ****     }
 600:Core/Src/freertos.c ****     xEventGroupClearBits(evt_group, EVT_LORA);
 601:Core/Src/freertos.c ****     is_LoRa_processing = false;
 602:Core/Src/freertos.c ****     osDelay(1);
 603:Core/Src/freertos.c ****   }
 604:Core/Src/freertos.c ****   /* USER CODE END Task2Func */
 605:Core/Src/freertos.c **** }
 606:Core/Src/freertos.c **** 
 607:Core/Src/freertos.c **** /* USER CODE BEGIN Header_Task3Func */
 608:Core/Src/freertos.c **** /**
 609:Core/Src/freertos.c **** * @brief Function implementing the Task3 thread.
 610:Core/Src/freertos.c **** * 
 611:Core/Src/freertos.c **** *     This is the Task to handle SIM4G functionalities
 612:Core/Src/freertos.c **** * 
 613:Core/Src/freertos.c **** * @param argument: Not used
 614:Core/Src/freertos.c **** * @retval None
 615:Core/Src/freertos.c **** */
 616:Core/Src/freertos.c **** /* USER CODE END Header_Task3Func */
 617:Core/Src/freertos.c **** void Task3Func(void *argument)
 618:Core/Src/freertos.c **** {
 530              		.loc 1 618 1 view -0
 531              		.cfi_startproc
 532              		@ Volatile: function does not return.
 533              		@ args = 0, pretend = 0, frame = 0
 534              		@ frame_needed = 0, uses_anonymous_args = 0
 535              		.loc 1 618 1 is_stmt 0 view .LVU125
 536 0000 08B5     		push	{r3, lr}
 537              	.LCFI2:
 538              		.cfi_def_cfa_offset 8
 539              		.cfi_offset 3, -8
 540              		.cfi_offset 14, -4
 619:Core/Src/freertos.c ****   /* USER CODE BEGIN Task3Func */
 620:Core/Src/freertos.c ****   // if (is_4G_or_WiFi != USE_4G)  osThreadTerminate(Task3Handle);
 621:Core/Src/freertos.c ****   // TODO: implement SIM 4G MQTT here
 622:Core/Src/freertos.c ****   osDelay(CMD_DELAY_SHORT);
 541              		.loc 1 622 3 is_stmt 1 view .LVU126
 542 0002 4FF4FA60 		mov	r0, #2000
 543              	.LVL49:
 544              		.loc 1 622 3 is_stmt 0 view .LVU127
 545 0006 FFF7FEFF 		bl	osDelay
 546              	.LVL50:
 623:Core/Src/freertos.c ****   if (SIM_Init() == true)
 547              		.loc 1 623 3 is_stmt 1 view .LVU128
 548              		.loc 1 623 7 is_stmt 0 view .LVU129
 549 000a FFF7FEFF 		bl	SIM_Init
 550              	.LVL51:
 551              		.loc 1 623 6 view .LVU130
 552 000e 48B9     		cbnz	r0, .L24
 553              	.L21:
 624:Core/Src/freertos.c ****   {
 625:Core/Src/freertos.c ****     SIM_checkSignalStrength();
 626:Core/Src/freertos.c ****     SIM_startGPRS();
 627:Core/Src/freertos.c ****   }
 628:Core/Src/freertos.c ****   SIM_Deinit();
ARM GAS  C:\Users\Vento\AppData\Local\Temp\ccuo4SjY.s 			page 23


 554              		.loc 1 628 3 is_stmt 1 view .LVU131
 555 0010 FFF7FEFF 		bl	SIM_Deinit
 556              	.LVL52:
 629:Core/Src/freertos.c ****   osThreadTerminate(Task3Handle);
 557              		.loc 1 629 3 view .LVU132
 558 0014 064B     		ldr	r3, .L25
 559 0016 1868     		ldr	r0, [r3]
 560 0018 FFF7FEFF 		bl	osThreadTerminate
 561              	.LVL53:
 562              	.L22:
 630:Core/Src/freertos.c **** 
 631:Core/Src/freertos.c ****   /* Infinite loop */
 632:Core/Src/freertos.c ****   for(;;)
 563              		.loc 1 632 3 discriminator 1 view .LVU133
 633:Core/Src/freertos.c ****   {
 634:Core/Src/freertos.c ****     osDelay(1);
 564              		.loc 1 634 5 discriminator 1 view .LVU134
 565 001c 0120     		movs	r0, #1
 566 001e FFF7FEFF 		bl	osDelay
 567              	.LVL54:
 632:Core/Src/freertos.c ****   {
 568              		.loc 1 632 8 discriminator 1 view .LVU135
 569 0022 FBE7     		b	.L22
 570              	.L24:
 625:Core/Src/freertos.c ****     SIM_startGPRS();
 571              		.loc 1 625 5 view .LVU136
 572 0024 FFF7FEFF 		bl	SIM_checkSignalStrength
 573              	.LVL55:
 626:Core/Src/freertos.c ****   }
 574              		.loc 1 626 5 view .LVU137
 575 0028 FFF7FEFF 		bl	SIM_startGPRS
 576              	.LVL56:
 577 002c F0E7     		b	.L21
 578              	.L26:
 579 002e 00BF     		.align	2
 580              	.L25:
 581 0030 00000000 		.word	.LANCHOR14
 582              		.cfi_endproc
 583              	.LFE78:
 585              		.section	.text.configureTimerForRunTimeStats,"ax",%progbits
 586              		.align	1
 587              		.weak	configureTimerForRunTimeStats
 588              		.syntax unified
 589              		.thumb
 590              		.thumb_func
 591              		.fpu softvfp
 593              	configureTimerForRunTimeStats:
 594              	.LFB72:
 262:Core/Src/freertos.c ****   HAL_TIM_Base_Start_IT(&htim5);
 595              		.loc 1 262 1 view -0
 596              		.cfi_startproc
 597              		@ args = 0, pretend = 0, frame = 0
 598              		@ frame_needed = 0, uses_anonymous_args = 0
 599 0000 08B5     		push	{r3, lr}
 600              	.LCFI3:
 601              		.cfi_def_cfa_offset 8
 602              		.cfi_offset 3, -8
ARM GAS  C:\Users\Vento\AppData\Local\Temp\ccuo4SjY.s 			page 24


 603              		.cfi_offset 14, -4
 263:Core/Src/freertos.c **** }
 604              		.loc 1 263 3 view .LVU139
 605 0002 0248     		ldr	r0, .L29
 606 0004 FFF7FEFF 		bl	HAL_TIM_Base_Start_IT
 607              	.LVL57:
 264:Core/Src/freertos.c **** 
 608              		.loc 1 264 1 is_stmt 0 view .LVU140
 609 0008 08BD     		pop	{r3, pc}
 610              	.L30:
 611 000a 00BF     		.align	2
 612              	.L29:
 613 000c 00000000 		.word	htim5
 614              		.cfi_endproc
 615              	.LFE72:
 617              		.section	.text.getRunTimeCounterValue,"ax",%progbits
 618              		.align	1
 619              		.weak	getRunTimeCounterValue
 620              		.syntax unified
 621              		.thumb
 622              		.thumb_func
 623              		.fpu softvfp
 625              	getRunTimeCounterValue:
 626              	.LFB73:
 267:Core/Src/freertos.c ****   // uint32_t counter_now = __HAL_TIM_GetCounter(&htim5);
 627              		.loc 1 267 1 is_stmt 1 view -0
 628              		.cfi_startproc
 629              		@ args = 0, pretend = 0, frame = 0
 630              		@ frame_needed = 0, uses_anonymous_args = 0
 631              		@ link register save eliminated.
 272:Core/Src/freertos.c **** }
 632              		.loc 1 272 3 view .LVU142
 272:Core/Src/freertos.c **** }
 633              		.loc 1 272 10 is_stmt 0 view .LVU143
 634 0000 014B     		ldr	r3, .L32
 635 0002 D3E90001 		ldrd	r0, [r3]
 273:Core/Src/freertos.c **** /* USER CODE END 1 */
 636              		.loc 1 273 1 view .LVU144
 637 0006 7047     		bx	lr
 638              	.L33:
 639              		.align	2
 640              	.L32:
 641 0008 00000000 		.word	.LANCHOR15
 642              		.cfi_endproc
 643              	.LFE73:
 645              		.section	.text.MX_FREERTOS_Init,"ax",%progbits
 646              		.align	1
 647              		.global	MX_FREERTOS_Init
 648              		.syntax unified
 649              		.thumb
 650              		.thumb_func
 651              		.fpu softvfp
 653              	MX_FREERTOS_Init:
 654              	.LFB74:
 281:Core/Src/freertos.c ****   /* USER CODE BEGIN Init */
 655              		.loc 1 281 29 is_stmt 1 view -0
 656              		.cfi_startproc
ARM GAS  C:\Users\Vento\AppData\Local\Temp\ccuo4SjY.s 			page 25


 657              		@ args = 0, pretend = 0, frame = 0
 658              		@ frame_needed = 0, uses_anonymous_args = 0
 659 0000 08B5     		push	{r3, lr}
 660              	.LCFI4:
 661              		.cfi_def_cfa_offset 8
 662              		.cfi_offset 3, -8
 663              		.cfi_offset 14, -4
 284:Core/Src/freertos.c ****   Log_Init();
 664              		.loc 1 284 3 view .LVU146
 665 0002 40F2DC50 		movw	r0, #1500
 666 0006 FFF7FEFF 		bl	HAL_Delay
 667              	.LVL58:
 285:Core/Src/freertos.c ****   /* USER CODE END Init */
 668              		.loc 1 285 3 view .LVU147
 669 000a FFF7FEFF 		bl	Log_Init
 670              	.LVL59:
 307:Core/Src/freertos.c **** 
 671              		.loc 1 307 3 view .LVU148
 307:Core/Src/freertos.c **** 
 672              		.loc 1 307 17 is_stmt 0 view .LVU149
 673 000e 1C4A     		ldr	r2, .L42
 674 0010 0021     		movs	r1, #0
 675 0012 1C48     		ldr	r0, .L42+4
 676 0014 FFF7FEFF 		bl	osThreadNew
 677              	.LVL60:
 307:Core/Src/freertos.c **** 
 678              		.loc 1 307 15 view .LVU150
 679 0018 1B4B     		ldr	r3, .L42+8
 680 001a 1860     		str	r0, [r3]
 310:Core/Src/freertos.c **** 
 681              		.loc 1 310 3 is_stmt 1 view .LVU151
 310:Core/Src/freertos.c **** 
 682              		.loc 1 310 17 is_stmt 0 view .LVU152
 683 001c 1B4A     		ldr	r2, .L42+12
 684 001e 0021     		movs	r1, #0
 685 0020 1B48     		ldr	r0, .L42+16
 686 0022 FFF7FEFF 		bl	osThreadNew
 687              	.LVL61:
 310:Core/Src/freertos.c **** 
 688              		.loc 1 310 15 view .LVU153
 689 0026 1B4B     		ldr	r3, .L42+20
 690 0028 1860     		str	r0, [r3]
 313:Core/Src/freertos.c **** 
 691              		.loc 1 313 3 is_stmt 1 view .LVU154
 313:Core/Src/freertos.c **** 
 692              		.loc 1 313 17 is_stmt 0 view .LVU155
 693 002a 1B4A     		ldr	r2, .L42+24
 694 002c 0021     		movs	r1, #0
 695 002e 1B48     		ldr	r0, .L42+28
 696 0030 FFF7FEFF 		bl	osThreadNew
 697              	.LVL62:
 313:Core/Src/freertos.c **** 
 698              		.loc 1 313 15 view .LVU156
 699 0034 1A4B     		ldr	r3, .L42+32
 700 0036 1860     		str	r0, [r3]
 316:Core/Src/freertos.c **** 
 701              		.loc 1 316 3 is_stmt 1 view .LVU157
ARM GAS  C:\Users\Vento\AppData\Local\Temp\ccuo4SjY.s 			page 26


 316:Core/Src/freertos.c **** 
 702              		.loc 1 316 17 is_stmt 0 view .LVU158
 703 0038 1A4A     		ldr	r2, .L42+36
 704 003a 0021     		movs	r1, #0
 705 003c 1A48     		ldr	r0, .L42+40
 706 003e FFF7FEFF 		bl	osThreadNew
 707              	.LVL63:
 316:Core/Src/freertos.c **** 
 708              		.loc 1 316 15 view .LVU159
 709 0042 1A4B     		ldr	r3, .L42+44
 710 0044 1860     		str	r0, [r3]
 324:Core/Src/freertos.c ****   if (evt_group == NULL) while(1);
 711              		.loc 1 324 3 is_stmt 1 view .LVU160
 324:Core/Src/freertos.c ****   if (evt_group == NULL) while(1);
 712              		.loc 1 324 15 is_stmt 0 view .LVU161
 713 0046 FFF7FEFF 		bl	xEventGroupCreate
 714              	.LVL64:
 324:Core/Src/freertos.c ****   if (evt_group == NULL) while(1);
 715              		.loc 1 324 13 view .LVU162
 716 004a 194B     		ldr	r3, .L42+48
 717 004c 1860     		str	r0, [r3]
 325:Core/Src/freertos.c ****   xEventGroupClearBits(evt_group, 0xFF);
 718              		.loc 1 325 3 is_stmt 1 view .LVU163
 325:Core/Src/freertos.c ****   xEventGroupClearBits(evt_group, 0xFF);
 719              		.loc 1 325 6 is_stmt 0 view .LVU164
 720 004e 98B1     		cbz	r0, .L36
 326:Core/Src/freertos.c **** 
 721              		.loc 1 326 3 is_stmt 1 view .LVU165
 722 0050 FF21     		movs	r1, #255
 723 0052 FFF7FEFF 		bl	xEventGroupClearBits
 724              	.LVL65:
 328:Core/Src/freertos.c ****   if (link_queue == NULL) while(1);
 725              		.loc 1 328 3 view .LVU166
 328:Core/Src/freertos.c ****   if (link_queue == NULL) while(1);
 726              		.loc 1 328 16 is_stmt 0 view .LVU167
 727 0056 0022     		movs	r2, #0
 728 0058 0821     		movs	r1, #8
 729 005a 3220     		movs	r0, #50
 730 005c FFF7FEFF 		bl	xQueueGenericCreate
 731              	.LVL66:
 328:Core/Src/freertos.c ****   if (link_queue == NULL) while(1);
 732              		.loc 1 328 14 view .LVU168
 733 0060 144B     		ldr	r3, .L42+52
 734 0062 1860     		str	r0, [r3]
 329:Core/Src/freertos.c **** 
 735              		.loc 1 329 3 is_stmt 1 view .LVU169
 329:Core/Src/freertos.c **** 
 736              		.loc 1 329 6 is_stmt 0 view .LVU170
 737 0064 48B1     		cbz	r0, .L38
 331:Core/Src/freertos.c ****   if (response_queue == NULL) while(1);
 738              		.loc 1 331 3 is_stmt 1 view .LVU171
 331:Core/Src/freertos.c ****   if (response_queue == NULL) while(1);
 739              		.loc 1 331 20 is_stmt 0 view .LVU172
 740 0066 0022     		movs	r2, #0
 741 0068 0A21     		movs	r1, #10
 742 006a 0520     		movs	r0, #5
 743 006c FFF7FEFF 		bl	xQueueGenericCreate
ARM GAS  C:\Users\Vento\AppData\Local\Temp\ccuo4SjY.s 			page 27


 744              	.LVL67:
 331:Core/Src/freertos.c ****   if (response_queue == NULL) while(1);
 745              		.loc 1 331 18 view .LVU173
 746 0070 114B     		ldr	r3, .L42+56
 747 0072 1860     		str	r0, [r3]
 332:Core/Src/freertos.c ****   /* add events, ... */
 748              		.loc 1 332 3 is_stmt 1 view .LVU174
 332:Core/Src/freertos.c ****   /* add events, ... */
 749              		.loc 1 332 6 is_stmt 0 view .LVU175
 750 0074 10B1     		cbz	r0, .L40
 336:Core/Src/freertos.c **** 
 751              		.loc 1 336 1 view .LVU176
 752 0076 08BD     		pop	{r3, pc}
 753              	.L36:
 325:Core/Src/freertos.c ****   xEventGroupClearBits(evt_group, 0xFF);
 754              		.loc 1 325 26 is_stmt 1 discriminator 1 view .LVU177
 325:Core/Src/freertos.c ****   xEventGroupClearBits(evt_group, 0xFF);
 755              		.loc 1 325 34 discriminator 1 view .LVU178
 325:Core/Src/freertos.c ****   xEventGroupClearBits(evt_group, 0xFF);
 756              		.loc 1 325 31 discriminator 1 view .LVU179
 757 0078 FEE7     		b	.L36
 758              	.L38:
 329:Core/Src/freertos.c **** 
 759              		.loc 1 329 27 discriminator 2 view .LVU180
 329:Core/Src/freertos.c **** 
 760              		.loc 1 329 35 discriminator 2 view .LVU181
 329:Core/Src/freertos.c **** 
 761              		.loc 1 329 32 discriminator 2 view .LVU182
 762 007a FEE7     		b	.L38
 763              	.L40:
 332:Core/Src/freertos.c ****   /* add events, ... */
 764              		.loc 1 332 31 discriminator 3 view .LVU183
 332:Core/Src/freertos.c ****   /* add events, ... */
 765              		.loc 1 332 39 discriminator 3 view .LVU184
 332:Core/Src/freertos.c ****   /* add events, ... */
 766              		.loc 1 332 36 discriminator 3 view .LVU185
 767 007c FEE7     		b	.L40
 768              	.L43:
 769 007e 00BF     		.align	2
 770              	.L42:
 771 0080 00000000 		.word	.LANCHOR16
 772 0084 00000000 		.word	Task0Func
 773 0088 00000000 		.word	.LANCHOR17
 774 008c 00000000 		.word	.LANCHOR18
 775 0090 00000000 		.word	Task1Func
 776 0094 00000000 		.word	.LANCHOR19
 777 0098 00000000 		.word	.LANCHOR20
 778 009c 00000000 		.word	Task2Func
 779 00a0 00000000 		.word	.LANCHOR21
 780 00a4 00000000 		.word	.LANCHOR22
 781 00a8 00000000 		.word	Task3Func
 782 00ac 00000000 		.word	.LANCHOR14
 783 00b0 00000000 		.word	.LANCHOR8
 784 00b4 00000000 		.word	.LANCHOR23
 785 00b8 00000000 		.word	.LANCHOR24
 786              		.cfi_endproc
 787              	.LFE74:
ARM GAS  C:\Users\Vento\AppData\Local\Temp\ccuo4SjY.s 			page 28


 789              		.section	.text.App_Refresh_Tick,"ax",%progbits
 790              		.align	1
 791              		.global	App_Refresh_Tick
 792              		.syntax unified
 793              		.thumb
 794              		.thumb_func
 795              		.fpu softvfp
 797              	App_Refresh_Tick:
 798              	.LFB79:
 635:Core/Src/freertos.c ****   }
 636:Core/Src/freertos.c ****   /* USER CODE END Task3Func */
 637:Core/Src/freertos.c **** }
 638:Core/Src/freertos.c **** 
 639:Core/Src/freertos.c **** /* Private application code --------------------------------------------------*/
 640:Core/Src/freertos.c **** /* USER CODE BEGIN Application */
 641:Core/Src/freertos.c **** 
 642:Core/Src/freertos.c **** void App_Refresh_Tick(void)
 643:Core/Src/freertos.c **** {
 799              		.loc 1 643 1 view -0
 800              		.cfi_startproc
 801              		@ args = 0, pretend = 0, frame = 8
 802              		@ frame_needed = 0, uses_anonymous_args = 0
 803 0000 F0B5     		push	{r4, r5, r6, r7, lr}
 804              	.LCFI5:
 805              		.cfi_def_cfa_offset 20
 806              		.cfi_offset 4, -20
 807              		.cfi_offset 5, -16
 808              		.cfi_offset 6, -12
 809              		.cfi_offset 7, -8
 810              		.cfi_offset 14, -4
 811 0002 83B0     		sub	sp, sp, #12
 812              	.LCFI6:
 813              		.cfi_def_cfa_offset 32
 644:Core/Src/freertos.c ****   HAL_TIM_Base_Stop_IT(&htim4);
 814              		.loc 1 644 3 view .LVU187
 815 0004 164C     		ldr	r4, .L46
 816 0006 2046     		mov	r0, r4
 817 0008 FFF7FEFF 		bl	HAL_TIM_Base_Stop_IT
 818              	.LVL68:
 645:Core/Src/freertos.c ****   __HAL_TIM_SetCounter(&htim4, 0U);
 819              		.loc 1 645 3 view .LVU188
 820 000c 2368     		ldr	r3, [r4]
 821 000e 0025     		movs	r5, #0
 822 0010 5D62     		str	r5, [r3, #36]
 646:Core/Src/freertos.c ****   xEventGroupSetBitsFromISR(evt_group, EVT_TOCUH, &xHigherPriorityTaskWoken);
 823              		.loc 1 646 3 view .LVU189
 824 0012 144A     		ldr	r2, .L46+4
 825 0014 0221     		movs	r1, #2
 826 0016 144B     		ldr	r3, .L46+8
 827 0018 1868     		ldr	r0, [r3]
 828 001a FFF7FEFF 		bl	xEventGroupSetBitsFromISR
 829              	.LVL69:
 647:Core/Src/freertos.c ****   is_LCD_processing = true;
 830              		.loc 1 647 3 view .LVU190
 831              		.loc 1 647 21 is_stmt 0 view .LVU191
 832 001e 0127     		movs	r7, #1
 833 0020 124B     		ldr	r3, .L46+12
ARM GAS  C:\Users\Vento\AppData\Local\Temp\ccuo4SjY.s 			page 29


 834 0022 1F70     		strb	r7, [r3]
 648:Core/Src/freertos.c ****   RTC_DateTypeDef DateToUpdate = {0};
 835              		.loc 1 648 3 is_stmt 1 view .LVU192
 836              		.loc 1 648 19 is_stmt 0 view .LVU193
 837 0024 0195     		str	r5, [sp, #4]
 649:Core/Src/freertos.c ****   HAL_RTC_GetDate(&hrtc, &DateToUpdate, RTC_FORMAT_BIN);
 838              		.loc 1 649 3 is_stmt 1 view .LVU194
 839 0026 124E     		ldr	r6, .L46+16
 840 0028 2A46     		mov	r2, r5
 841 002a 01A9     		add	r1, sp, #4
 842 002c 3046     		mov	r0, r6
 843 002e FFF7FEFF 		bl	HAL_RTC_GetDate
 844              	.LVL70:
 650:Core/Src/freertos.c ****   uint32_t reg = (DateToUpdate.WeekDay << 16U) | (DateToUpdate.Month << 12U) | (DateToUpdate.Date <
 845              		.loc 1 650 3 view .LVU195
 846              		.loc 1 650 31 is_stmt 0 view .LVU196
 847 0032 9DF80420 		ldrb	r2, [sp, #4]	@ zero_extendqisi2
 848              		.loc 1 650 63 view .LVU197
 849 0036 9DF80530 		ldrb	r3, [sp, #5]	@ zero_extendqisi2
 850              		.loc 1 650 70 view .LVU198
 851 003a 1B03     		lsls	r3, r3, #12
 852              		.loc 1 650 48 view .LVU199
 853 003c 43EA0243 		orr	r3, r3, r2, lsl #16
 854              		.loc 1 650 93 view .LVU200
 855 0040 9DF80620 		ldrb	r2, [sp, #6]	@ zero_extendqisi2
 856              		.loc 1 650 78 view .LVU201
 857 0044 43EAC213 		orr	r3, r3, r2, lsl #7
 858              		.loc 1 650 121 view .LVU202
 859 0048 9DF80720 		ldrb	r2, [sp, #7]	@ zero_extendqisi2
 860              	.LVL71:
 651:Core/Src/freertos.c ****   HAL_RTCEx_BKUPWrite(&hrtc, RTC_BKP_DR1, reg);
 861              		.loc 1 651 3 is_stmt 1 view .LVU203
 862 004c 1A43     		orrs	r2, r2, r3
 863              	.LVL72:
 864              		.loc 1 651 3 is_stmt 0 view .LVU204
 865 004e 3946     		mov	r1, r7
 866 0050 3046     		mov	r0, r6
 867 0052 FFF7FEFF 		bl	HAL_RTCEx_BKUPWrite
 868              	.LVL73:
 652:Core/Src/freertos.c ****   HAL_TIM_Base_Start_IT(&htim4);
 869              		.loc 1 652 3 is_stmt 1 view .LVU205
 870 0056 2046     		mov	r0, r4
 871 0058 FFF7FEFF 		bl	HAL_TIM_Base_Start_IT
 872              	.LVL74:
 653:Core/Src/freertos.c **** }
 873              		.loc 1 653 1 is_stmt 0 view .LVU206
 874 005c 03B0     		add	sp, sp, #12
 875              	.LCFI7:
 876              		.cfi_def_cfa_offset 20
 877              		@ sp needed
 878 005e F0BD     		pop	{r4, r5, r6, r7, pc}
 879              	.L47:
 880              		.align	2
 881              	.L46:
 882 0060 00000000 		.word	htim4
 883 0064 00000000 		.word	.LANCHOR25
 884 0068 00000000 		.word	.LANCHOR8
ARM GAS  C:\Users\Vento\AppData\Local\Temp\ccuo4SjY.s 			page 30


 885 006c 00000000 		.word	.LANCHOR6
 886 0070 00000000 		.word	hrtc
 887              		.cfi_endproc
 888              	.LFE79:
 890              		.section	.text.App_Add_Node_To_Network,"ax",%progbits
 891              		.align	1
 892              		.global	App_Add_Node_To_Network
 893              		.syntax unified
 894              		.thumb
 895              		.thumb_func
 896              		.fpu softvfp
 898              	App_Add_Node_To_Network:
 899              	.LFB80:
 654:Core/Src/freertos.c **** 
 655:Core/Src/freertos.c **** bool App_Add_Node_To_Network(Link_Struct_t link)
 656:Core/Src/freertos.c **** {
 900              		.loc 1 656 1 is_stmt 1 view -0
 901              		.cfi_startproc
 902              		@ args = 0, pretend = 0, frame = 8
 903              		@ frame_needed = 0, uses_anonymous_args = 0
 904              		@ link register save eliminated.
 905 0000 82B0     		sub	sp, sp, #8
 906              	.LCFI8:
 907              		.cfi_def_cfa_offset 8
 908 0002 02AB     		add	r3, sp, #8
 909 0004 03E90300 		stmdb	r3, {r0, r1}
 657:Core/Src/freertos.c ****   if (number_of_Node_inNetwork == MAX_NODE) return false;
 910              		.loc 1 657 3 view .LVU208
 911              		.loc 1 657 32 is_stmt 0 view .LVU209
 912 0008 134B     		ldr	r3, .L57
 913 000a 93F800C0 		ldrb	ip, [r3]	@ zero_extendqisi2
 914              		.loc 1 657 6 view .LVU210
 915 000e BCF1320F 		cmp	ip, #50
 916 0012 1ED0     		beq	.L53
 917              	.LBB2:
 658:Core/Src/freertos.c ****   for (int i = 0; i < MAX_NODE; i++)
 918              		.loc 1 658 12 view .LVU211
 919 0014 0023     		movs	r3, #0
 920              	.L50:
 921              	.LVL75:
 922              		.loc 1 658 19 is_stmt 1 discriminator 1 view .LVU212
 923              		.loc 1 658 3 is_stmt 0 discriminator 1 view .LVU213
 924 0016 312B     		cmp	r3, #49
 925 0018 19D8     		bhi	.L55
 659:Core/Src/freertos.c ****   {
 660:Core/Src/freertos.c ****     if (Node_Table[i].Link.Node_ID == 0U)
 926              		.loc 1 660 5 is_stmt 1 view .LVU214
 927              		.loc 1 660 27 is_stmt 0 view .LVU215
 928 001a 03EB4301 		add	r1, r3, r3, lsl #1
 929 001e CA00     		lsls	r2, r1, #3
 930 0020 0E49     		ldr	r1, .L57+4
 931 0022 8A5A     		ldrh	r2, [r1, r2]
 932              		.loc 1 660 8 view .LVU216
 933 0024 0AB1     		cbz	r2, .L56
 658:Core/Src/freertos.c ****   for (int i = 0; i < MAX_NODE; i++)
 934              		.loc 1 658 33 is_stmt 1 discriminator 2 view .LVU217
 658:Core/Src/freertos.c ****   for (int i = 0; i < MAX_NODE; i++)
ARM GAS  C:\Users\Vento\AppData\Local\Temp\ccuo4SjY.s 			page 31


 935              		.loc 1 658 34 is_stmt 0 discriminator 2 view .LVU218
 936 0026 0133     		adds	r3, r3, #1
 937              	.LVL76:
 658:Core/Src/freertos.c ****   for (int i = 0; i < MAX_NODE; i++)
 938              		.loc 1 658 34 discriminator 2 view .LVU219
 939 0028 F5E7     		b	.L50
 940              	.L56:
 661:Core/Src/freertos.c ****     {
 662:Core/Src/freertos.c ****       Node_Table[i].Link = link;
 941              		.loc 1 662 7 is_stmt 1 view .LVU220
 942              		.loc 1 662 26 is_stmt 0 view .LVU221
 943 002a 03EB4303 		add	r3, r3, r3, lsl #1
 944              	.LVL77:
 945              		.loc 1 662 26 view .LVU222
 946 002e DA00     		lsls	r2, r3, #3
 947 0030 0B46     		mov	r3, r1
 948 0032 1344     		add	r3, r3, r2
 949 0034 02AA     		add	r2, sp, #8
 950 0036 12E90300 		ldmdb	r2, {r0, r1}
 951 003a 83E80300 		stm	r3, {r0, r1}
 663:Core/Src/freertos.c ****       number_of_Node_inNetwork++;
 952              		.loc 1 663 7 is_stmt 1 view .LVU223
 953              		.loc 1 663 31 is_stmt 0 view .LVU224
 954 003e 0CF1010C 		add	ip, ip, #1
 955 0042 054B     		ldr	r3, .L57
 956 0044 83F800C0 		strb	ip, [r3]
 664:Core/Src/freertos.c ****       return true;
 957              		.loc 1 664 7 is_stmt 1 view .LVU225
 958              		.loc 1 664 14 is_stmt 0 view .LVU226
 959 0048 0120     		movs	r0, #1
 960              	.L49:
 961              		.loc 1 664 14 view .LVU227
 962              	.LBE2:
 665:Core/Src/freertos.c ****     }
 666:Core/Src/freertos.c ****   }
 667:Core/Src/freertos.c ****   return false;
 668:Core/Src/freertos.c **** }
 963              		.loc 1 668 1 view .LVU228
 964 004a 02B0     		add	sp, sp, #8
 965              	.LCFI9:
 966              		.cfi_remember_state
 967              		.cfi_def_cfa_offset 0
 968              		@ sp needed
 969 004c 7047     		bx	lr
 970              	.LVL78:
 971              	.L55:
 972              	.LCFI10:
 973              		.cfi_restore_state
 667:Core/Src/freertos.c **** }
 974              		.loc 1 667 10 view .LVU229
 975 004e 0020     		movs	r0, #0
 976              	.LBB3:
 977 0050 FBE7     		b	.L49
 978              	.LVL79:
 979              	.L53:
 667:Core/Src/freertos.c **** }
 980              		.loc 1 667 10 view .LVU230
ARM GAS  C:\Users\Vento\AppData\Local\Temp\ccuo4SjY.s 			page 32


 981              	.LBE3:
 657:Core/Src/freertos.c ****   for (int i = 0; i < MAX_NODE; i++)
 982              		.loc 1 657 52 view .LVU231
 983 0052 0020     		movs	r0, #0
 984 0054 F9E7     		b	.L49
 985              	.L58:
 986 0056 00BF     		.align	2
 987              	.L57:
 988 0058 00000000 		.word	.LANCHOR26
 989 005c 00000000 		.word	.LANCHOR27
 990              		.cfi_endproc
 991              	.LFE80:
 993              		.section	.text.App_Delete_Node_From_Network,"ax",%progbits
 994              		.align	1
 995              		.global	App_Delete_Node_From_Network
 996              		.syntax unified
 997              		.thumb
 998              		.thumb_func
 999              		.fpu softvfp
 1001              	App_Delete_Node_From_Network:
 1002              	.LVL80:
 1003              	.LFB81:
 669:Core/Src/freertos.c **** 
 670:Core/Src/freertos.c **** bool App_Delete_Node_From_Network(uint16_t Node_ID)
 671:Core/Src/freertos.c **** {
 1004              		.loc 1 671 1 is_stmt 1 view -0
 1005              		.cfi_startproc
 1006              		@ args = 0, pretend = 0, frame = 8
 1007              		@ frame_needed = 0, uses_anonymous_args = 0
 1008              		@ link register save eliminated.
 1009              		.loc 1 671 1 is_stmt 0 view .LVU233
 1010 0000 82B0     		sub	sp, sp, #8
 1011              	.LCFI11:
 1012              		.cfi_def_cfa_offset 8
 672:Core/Src/freertos.c ****   Link_Struct_t link = {0};
 1013              		.loc 1 672 3 is_stmt 1 view .LVU234
 1014              		.loc 1 672 17 is_stmt 0 view .LVU235
 1015 0002 0023     		movs	r3, #0
 1016 0004 0093     		str	r3, [sp]
 1017 0006 0193     		str	r3, [sp, #4]
 673:Core/Src/freertos.c ****   memset(&link, '\0', sizeof(Link_Struct_t));
 1018              		.loc 1 673 3 is_stmt 1 view .LVU236
 674:Core/Src/freertos.c ****   for (int i = 0; i < MAX_NODE; i++)
 1019              		.loc 1 674 3 view .LVU237
 1020              	.LBB4:
 1021              		.loc 1 674 8 view .LVU238
 1022              	.LVL81:
 1023              	.L60:
 1024              		.loc 1 674 19 discriminator 1 view .LVU239
 1025              		.loc 1 674 3 is_stmt 0 discriminator 1 view .LVU240
 1026 0008 312B     		cmp	r3, #49
 1027 000a 17D8     		bhi	.L65
 675:Core/Src/freertos.c ****   {
 676:Core/Src/freertos.c ****     if (Node_Table[i].Link.Node_ID == Node_ID)
 1028              		.loc 1 676 5 is_stmt 1 view .LVU241
 1029              		.loc 1 676 27 is_stmt 0 view .LVU242
 1030 000c 03EB4302 		add	r2, r3, r3, lsl #1
ARM GAS  C:\Users\Vento\AppData\Local\Temp\ccuo4SjY.s 			page 33


 1031 0010 0B49     		ldr	r1, .L67
 1032 0012 31F83220 		ldrh	r2, [r1, r2, lsl #3]
 1033              		.loc 1 676 8 view .LVU243
 1034 0016 8242     		cmp	r2, r0
 1035 0018 01D0     		beq	.L66
 674:Core/Src/freertos.c ****   for (int i = 0; i < MAX_NODE; i++)
 1036              		.loc 1 674 33 is_stmt 1 discriminator 2 view .LVU244
 674:Core/Src/freertos.c ****   for (int i = 0; i < MAX_NODE; i++)
 1037              		.loc 1 674 34 is_stmt 0 discriminator 2 view .LVU245
 1038 001a 0133     		adds	r3, r3, #1
 1039              	.LVL82:
 674:Core/Src/freertos.c ****   for (int i = 0; i < MAX_NODE; i++)
 1040              		.loc 1 674 34 discriminator 2 view .LVU246
 1041 001c F4E7     		b	.L60
 1042              	.L66:
 677:Core/Src/freertos.c ****     {
 678:Core/Src/freertos.c ****       Node_Table[i].Link = link;
 1043              		.loc 1 678 7 is_stmt 1 view .LVU247
 1044              		.loc 1 678 26 is_stmt 0 view .LVU248
 1045 001e 03EB4303 		add	r3, r3, r3, lsl #1
 1046              	.LVL83:
 1047              		.loc 1 678 26 view .LVU249
 1048 0022 D800     		lsls	r0, r3, #3
 1049              	.LVL84:
 1050              		.loc 1 678 26 view .LVU250
 1051 0024 01EBC303 		add	r3, r1, r3, lsl #3
 1052 0028 0022     		movs	r2, #0
 1053 002a 0A50     		str	r2, [r1, r0]
 1054 002c 5A60     		str	r2, [r3, #4]
 679:Core/Src/freertos.c ****       number_of_Node_inNetwork--;
 1055              		.loc 1 679 7 is_stmt 1 view .LVU251
 1056              		.loc 1 679 31 is_stmt 0 view .LVU252
 1057 002e 054A     		ldr	r2, .L67+4
 1058 0030 1378     		ldrb	r3, [r2]	@ zero_extendqisi2
 1059 0032 013B     		subs	r3, r3, #1
 1060 0034 1370     		strb	r3, [r2]
 680:Core/Src/freertos.c ****       return true;
 1061              		.loc 1 680 7 is_stmt 1 view .LVU253
 1062              		.loc 1 680 14 is_stmt 0 view .LVU254
 1063 0036 0120     		movs	r0, #1
 1064              	.L62:
 1065              		.loc 1 680 14 view .LVU255
 1066              	.LBE4:
 681:Core/Src/freertos.c ****     }
 682:Core/Src/freertos.c ****   }
 683:Core/Src/freertos.c ****   return false;
 684:Core/Src/freertos.c **** }
 1067              		.loc 1 684 1 view .LVU256
 1068 0038 02B0     		add	sp, sp, #8
 1069              	.LCFI12:
 1070              		.cfi_remember_state
 1071              		.cfi_def_cfa_offset 0
 1072              		@ sp needed
 1073 003a 7047     		bx	lr
 1074              	.LVL85:
 1075              	.L65:
 1076              	.LCFI13:
ARM GAS  C:\Users\Vento\AppData\Local\Temp\ccuo4SjY.s 			page 34


 1077              		.cfi_restore_state
 683:Core/Src/freertos.c **** }
 1078              		.loc 1 683 10 view .LVU257
 1079 003c 0020     		movs	r0, #0
 1080              	.LVL86:
 683:Core/Src/freertos.c **** }
 1081              		.loc 1 683 10 view .LVU258
 1082 003e FBE7     		b	.L62
 1083              	.L68:
 1084              		.align	2
 1085              	.L67:
 1086 0040 00000000 		.word	.LANCHOR27
 1087 0044 00000000 		.word	.LANCHOR26
 1088              		.cfi_endproc
 1089              	.LFE81:
 1091              		.section	.text.App_Save_Data,"ax",%progbits
 1092              		.align	1
 1093              		.global	App_Save_Data
 1094              		.syntax unified
 1095              		.thumb
 1096              		.thumb_func
 1097              		.fpu softvfp
 1099              	App_Save_Data:
 1100              	.LFB82:
 685:Core/Src/freertos.c **** 
 686:Core/Src/freertos.c **** bool App_Save_Data(Data_Struct_t data)
 687:Core/Src/freertos.c **** {
 1101              		.loc 1 687 1 is_stmt 1 view -0
 1102              		.cfi_startproc
 1103              		@ args = 24, pretend = 16, frame = 0
 1104              		@ frame_needed = 0, uses_anonymous_args = 0
 1105 0000 84B0     		sub	sp, sp, #16
 1106              	.LCFI14:
 1107              		.cfi_def_cfa_offset 16
 1108 0002 00B5     		push	{lr}
 1109              	.LCFI15:
 1110              		.cfi_def_cfa_offset 20
 1111              		.cfi_offset 14, -20
 1112 0004 0DF1040C 		add	ip, sp, #4
 1113 0008 8CE80F00 		stm	ip, {r0, r1, r2, r3}
 688:Core/Src/freertos.c ****   for (int i = 0; i < MAX_NODE; i++)
 1114              		.loc 1 688 3 view .LVU260
 1115              	.LBB5:
 1116              		.loc 1 688 8 view .LVU261
 1117              	.LVL87:
 1118              		.loc 1 688 12 is_stmt 0 view .LVU262
 1119 000c 0023     		movs	r3, #0
 1120              	.LVL88:
 1121              	.L70:
 1122              		.loc 1 688 19 is_stmt 1 discriminator 1 view .LVU263
 1123              		.loc 1 688 3 is_stmt 0 discriminator 1 view .LVU264
 1124 000e 312B     		cmp	r3, #49
 1125 0010 1FD8     		bhi	.L75
 689:Core/Src/freertos.c ****   {
 690:Core/Src/freertos.c ****     if (Node_Table[i].Link.Node_ID == data.Link.Node_ID)
 1126              		.loc 1 690 5 is_stmt 1 view .LVU265
 1127              		.loc 1 690 27 is_stmt 0 view .LVU266
ARM GAS  C:\Users\Vento\AppData\Local\Temp\ccuo4SjY.s 			page 35


 1128 0012 03EB4301 		add	r1, r3, r3, lsl #1
 1129 0016 CA00     		lsls	r2, r1, #3
 1130 0018 0F49     		ldr	r1, .L77
 1131 001a 895A     		ldrh	r1, [r1, r2]
 1132              		.loc 1 690 48 view .LVU267
 1133 001c BDF80420 		ldrh	r2, [sp, #4]
 1134              		.loc 1 690 8 view .LVU268
 1135 0020 9142     		cmp	r1, r2
 1136 0022 01D0     		beq	.L76
 688:Core/Src/freertos.c ****   for (int i = 0; i < MAX_NODE; i++)
 1137              		.loc 1 688 33 is_stmt 1 discriminator 2 view .LVU269
 688:Core/Src/freertos.c ****   for (int i = 0; i < MAX_NODE; i++)
 1138              		.loc 1 688 34 is_stmt 0 discriminator 2 view .LVU270
 1139 0024 0133     		adds	r3, r3, #1
 1140              	.LVL89:
 688:Core/Src/freertos.c ****   for (int i = 0; i < MAX_NODE; i++)
 1141              		.loc 1 688 34 discriminator 2 view .LVU271
 1142 0026 F2E7     		b	.L70
 1143              	.L76:
 691:Core/Src/freertos.c ****     {
 692:Core/Src/freertos.c ****       Node_Table[i] = data;
 1144              		.loc 1 692 7 is_stmt 1 view .LVU272
 1145              		.loc 1 692 21 is_stmt 0 view .LVU273
 1146 0028 03EB4303 		add	r3, r3, r3, lsl #1
 1147              	.LVL90:
 1148              		.loc 1 692 21 view .LVU274
 1149 002c 4FEAC30C 		lsl	ip, r3, #3
 1150 0030 094B     		ldr	r3, .L77
 1151 0032 9C44     		add	ip, ip, r3
 1152 0034 0DF1040E 		add	lr, sp, #4
 1153 0038 BEE80F00 		ldmia	lr!, {r0, r1, r2, r3}
 1154 003c ACE80F00 		stmia	ip!, {r0, r1, r2, r3}
 1155 0040 9EE80300 		ldm	lr, {r0, r1}
 1156 0044 8CE80300 		stm	ip, {r0, r1}
 693:Core/Src/freertos.c ****       return true;
 1157              		.loc 1 693 7 is_stmt 1 view .LVU275
 1158              		.loc 1 693 14 is_stmt 0 view .LVU276
 1159 0048 0120     		movs	r0, #1
 1160              	.L72:
 1161              		.loc 1 693 14 view .LVU277
 1162              	.LBE5:
 694:Core/Src/freertos.c ****     }
 695:Core/Src/freertos.c ****   }
 696:Core/Src/freertos.c ****   return false;
 697:Core/Src/freertos.c **** }
 1163              		.loc 1 697 1 view .LVU278
 1164 004a 5DF804EB 		ldr	lr, [sp], #4
 1165              	.LCFI16:
 1166              		.cfi_remember_state
 1167              		.cfi_restore 14
 1168              		.cfi_def_cfa_offset 16
 1169 004e 04B0     		add	sp, sp, #16
 1170              	.LCFI17:
 1171              		.cfi_def_cfa_offset 0
 1172 0050 7047     		bx	lr
 1173              	.LVL91:
 1174              	.L75:
ARM GAS  C:\Users\Vento\AppData\Local\Temp\ccuo4SjY.s 			page 36


 1175              	.LCFI18:
 1176              		.cfi_restore_state
 696:Core/Src/freertos.c **** }
 1177              		.loc 1 696 10 view .LVU279
 1178 0052 0020     		movs	r0, #0
 1179 0054 F9E7     		b	.L72
 1180              	.L78:
 1181 0056 00BF     		.align	2
 1182              	.L77:
 1183 0058 00000000 		.word	.LANCHOR27
 1184              		.cfi_endproc
 1185              	.LFE82:
 1187              		.section	.text.is_Node_ID_inLinkQueue,"ax",%progbits
 1188              		.align	1
 1189              		.global	is_Node_ID_inLinkQueue
 1190              		.syntax unified
 1191              		.thumb
 1192              		.thumb_func
 1193              		.fpu softvfp
 1195              	is_Node_ID_inLinkQueue:
 1196              	.LVL92:
 1197              	.LFB83:
 698:Core/Src/freertos.c **** 
 699:Core/Src/freertos.c **** //-------------------------------------------------------------------------------------------------
 700:Core/Src/freertos.c **** 
 701:Core/Src/freertos.c **** bool is_Node_ID_inLinkQueue(uint16_t Node_ID, bool remove)
 702:Core/Src/freertos.c **** {
 1198              		.loc 1 702 1 is_stmt 1 view -0
 1199              		.cfi_startproc
 1200              		@ args = 0, pretend = 0, frame = 8
 1201              		@ frame_needed = 0, uses_anonymous_args = 0
 1202              		.loc 1 702 1 is_stmt 0 view .LVU281
 1203 0000 F0B5     		push	{r4, r5, r6, r7, lr}
 1204              	.LCFI19:
 1205              		.cfi_def_cfa_offset 20
 1206              		.cfi_offset 4, -20
 1207              		.cfi_offset 5, -16
 1208              		.cfi_offset 6, -12
 1209              		.cfi_offset 7, -8
 1210              		.cfi_offset 14, -4
 1211 0002 83B0     		sub	sp, sp, #12
 1212              	.LCFI20:
 1213              		.cfi_def_cfa_offset 32
 1214 0004 0646     		mov	r6, r0
 1215 0006 0F46     		mov	r7, r1
 703:Core/Src/freertos.c ****   number_of_Node_inQueue = MAX_NODE - (uint8_t)uxQueueSpacesAvailable(link_queue);
 1216              		.loc 1 703 3 is_stmt 1 view .LVU282
 1217              		.loc 1 703 48 is_stmt 0 view .LVU283
 1218 0008 174B     		ldr	r3, .L88
 1219 000a 1868     		ldr	r0, [r3]
 1220              	.LVL93:
 1221              		.loc 1 703 48 view .LVU284
 1222 000c FFF7FEFF 		bl	uxQueueSpacesAvailable
 1223              	.LVL94:
 1224              		.loc 1 703 39 view .LVU285
 1225 0010 C0B2     		uxtb	r0, r0
 1226              		.loc 1 703 37 view .LVU286
ARM GAS  C:\Users\Vento\AppData\Local\Temp\ccuo4SjY.s 			page 37


 1227 0012 C0F13200 		rsb	r0, r0, #50
 1228              		.loc 1 703 26 view .LVU287
 1229 0016 154B     		ldr	r3, .L88+4
 1230 0018 1870     		strb	r0, [r3]
 704:Core/Src/freertos.c ****   Link_Struct_t link_stored;
 1231              		.loc 1 704 3 is_stmt 1 view .LVU288
 705:Core/Src/freertos.c ****   for (int i = 0; i < number_of_Node_inQueue; i++)
 1232              		.loc 1 705 3 view .LVU289
 1233              	.LBB6:
 1234              		.loc 1 705 8 view .LVU290
 1235              	.LVL95:
 1236              		.loc 1 705 12 is_stmt 0 view .LVU291
 1237 001a 0024     		movs	r4, #0
 1238              		.loc 1 705 3 view .LVU292
 1239 001c 0FE0     		b	.L80
 1240              	.LVL96:
 1241              	.L87:
 706:Core/Src/freertos.c ****   {
 707:Core/Src/freertos.c ****     xQueueReceive(link_queue, &link_stored, 100);
 708:Core/Src/freertos.c ****     if (link_stored.Node_ID == Node_ID)
 709:Core/Src/freertos.c ****     {
 710:Core/Src/freertos.c ****       if (remove == false)  xQueueSendToFront(link_queue, &link_stored, 100);
 1242              		.loc 1 710 29 is_stmt 1 discriminator 1 view .LVU293
 1243 001e 0123     		movs	r3, #1
 1244 0020 6422     		movs	r2, #100
 1245 0022 6946     		mov	r1, sp
 1246 0024 1048     		ldr	r0, .L88
 1247 0026 0068     		ldr	r0, [r0]
 1248 0028 FFF7FEFF 		bl	xQueueGenericSend
 1249              	.LVL97:
 1250 002c 17E0     		b	.L82
 1251              	.L81:
 711:Core/Src/freertos.c ****       return true;
 712:Core/Src/freertos.c ****     }
 713:Core/Src/freertos.c ****     else xQueueSend(link_queue, &link_stored, 100);
 1252              		.loc 1 713 10 discriminator 2 view .LVU294
 1253 002e 0023     		movs	r3, #0
 1254 0030 6422     		movs	r2, #100
 1255 0032 6946     		mov	r1, sp
 1256 0034 0C4D     		ldr	r5, .L88
 1257 0036 2868     		ldr	r0, [r5]
 1258 0038 FFF7FEFF 		bl	xQueueGenericSend
 1259              	.LVL98:
 705:Core/Src/freertos.c ****   {
 1260              		.loc 1 705 47 discriminator 2 view .LVU295
 705:Core/Src/freertos.c ****   {
 1261              		.loc 1 705 48 is_stmt 0 discriminator 2 view .LVU296
 1262 003c 0134     		adds	r4, r4, #1
 1263              	.LVL99:
 1264              	.L80:
 705:Core/Src/freertos.c ****   {
 1265              		.loc 1 705 19 is_stmt 1 discriminator 1 view .LVU297
 705:Core/Src/freertos.c ****   {
 1266              		.loc 1 705 21 is_stmt 0 discriminator 1 view .LVU298
 1267 003e 0B4B     		ldr	r3, .L88+4
 1268 0040 1B78     		ldrb	r3, [r3]	@ zero_extendqisi2
 705:Core/Src/freertos.c ****   {
ARM GAS  C:\Users\Vento\AppData\Local\Temp\ccuo4SjY.s 			page 38


 1269              		.loc 1 705 3 discriminator 1 view .LVU299
 1270 0042 A342     		cmp	r3, r4
 1271 0044 0DDD     		ble	.L86
 707:Core/Src/freertos.c ****     if (link_stored.Node_ID == Node_ID)
 1272              		.loc 1 707 5 is_stmt 1 view .LVU300
 1273 0046 6422     		movs	r2, #100
 1274 0048 6946     		mov	r1, sp
 1275 004a 074B     		ldr	r3, .L88
 1276 004c 1868     		ldr	r0, [r3]
 1277 004e FFF7FEFF 		bl	xQueueReceive
 1278              	.LVL100:
 708:Core/Src/freertos.c ****     {
 1279              		.loc 1 708 5 view .LVU301
 708:Core/Src/freertos.c ****     {
 1280              		.loc 1 708 20 is_stmt 0 view .LVU302
 1281 0052 BDF80030 		ldrh	r3, [sp]
 708:Core/Src/freertos.c ****     {
 1282              		.loc 1 708 8 view .LVU303
 1283 0056 B342     		cmp	r3, r6
 1284 0058 E9D1     		bne	.L81
 710:Core/Src/freertos.c ****       return true;
 1285              		.loc 1 710 7 is_stmt 1 view .LVU304
 710:Core/Src/freertos.c ****       return true;
 1286              		.loc 1 710 10 is_stmt 0 view .LVU305
 1287 005a 002F     		cmp	r7, #0
 1288 005c DFD0     		beq	.L87
 1289              	.L82:
 711:Core/Src/freertos.c ****     }
 1290              		.loc 1 711 7 is_stmt 1 view .LVU306
 711:Core/Src/freertos.c ****     }
 1291              		.loc 1 711 14 is_stmt 0 view .LVU307
 1292 005e 0120     		movs	r0, #1
 1293 0060 00E0     		b	.L83
 1294              	.L86:
 1295              	.LBE6:
 714:Core/Src/freertos.c ****   }
 715:Core/Src/freertos.c ****   return false;
 1296              		.loc 1 715 10 view .LVU308
 1297 0062 0020     		movs	r0, #0
 1298              	.L83:
 716:Core/Src/freertos.c **** }
 1299              		.loc 1 716 1 view .LVU309
 1300 0064 03B0     		add	sp, sp, #12
 1301              	.LCFI21:
 1302              		.cfi_def_cfa_offset 20
 1303              		@ sp needed
 1304 0066 F0BD     		pop	{r4, r5, r6, r7, pc}
 1305              	.LVL101:
 1306              	.L89:
 1307              		.loc 1 716 1 view .LVU310
 1308              		.align	2
 1309              	.L88:
 1310 0068 00000000 		.word	.LANCHOR23
 1311 006c 00000000 		.word	.LANCHOR28
 1312              		.cfi_endproc
 1313              	.LFE83:
 1315              		.section	.text.is_Node_ID_inResponseQueue,"ax",%progbits
ARM GAS  C:\Users\Vento\AppData\Local\Temp\ccuo4SjY.s 			page 39


 1316              		.align	1
 1317              		.global	is_Node_ID_inResponseQueue
 1318              		.syntax unified
 1319              		.thumb
 1320              		.thumb_func
 1321              		.fpu softvfp
 1323              	is_Node_ID_inResponseQueue:
 1324              	.LVL102:
 1325              	.LFB84:
 717:Core/Src/freertos.c **** 
 718:Core/Src/freertos.c **** bool is_Node_ID_inResponseQueue(uint16_t Node_ID, bool remove)
 719:Core/Src/freertos.c **** {
 1326              		.loc 1 719 1 is_stmt 1 view -0
 1327              		.cfi_startproc
 1328              		@ args = 0, pretend = 0, frame = 16
 1329              		@ frame_needed = 0, uses_anonymous_args = 0
 1330              		.loc 1 719 1 is_stmt 0 view .LVU312
 1331 0000 F0B5     		push	{r4, r5, r6, r7, lr}
 1332              	.LCFI22:
 1333              		.cfi_def_cfa_offset 20
 1334              		.cfi_offset 4, -20
 1335              		.cfi_offset 5, -16
 1336              		.cfi_offset 6, -12
 1337              		.cfi_offset 7, -8
 1338              		.cfi_offset 14, -4
 1339 0002 85B0     		sub	sp, sp, #20
 1340              	.LCFI23:
 1341              		.cfi_def_cfa_offset 40
 1342 0004 0646     		mov	r6, r0
 1343 0006 0F46     		mov	r7, r1
 720:Core/Src/freertos.c ****   number_of_Response_Packet_inQueue = 5U - (uint8_t)uxQueueSpacesAvailable(response_queue);
 1344              		.loc 1 720 3 is_stmt 1 view .LVU313
 1345              		.loc 1 720 53 is_stmt 0 view .LVU314
 1346 0008 174B     		ldr	r3, .L99
 1347 000a 1868     		ldr	r0, [r3]
 1348              	.LVL103:
 1349              		.loc 1 720 53 view .LVU315
 1350 000c FFF7FEFF 		bl	uxQueueSpacesAvailable
 1351              	.LVL104:
 1352              		.loc 1 720 44 view .LVU316
 1353 0010 C0B2     		uxtb	r0, r0
 1354              		.loc 1 720 42 view .LVU317
 1355 0012 C0F10500 		rsb	r0, r0, #5
 1356              		.loc 1 720 37 view .LVU318
 1357 0016 154B     		ldr	r3, .L99+4
 1358 0018 1870     		strb	r0, [r3]
 721:Core/Src/freertos.c ****   ResponsePacket_t resp_stored;
 1359              		.loc 1 721 3 is_stmt 1 view .LVU319
 722:Core/Src/freertos.c ****   for (int i = 0; i < number_of_Response_Packet_inQueue; i++)
 1360              		.loc 1 722 3 view .LVU320
 1361              	.LBB7:
 1362              		.loc 1 722 8 view .LVU321
 1363              	.LVL105:
 1364              		.loc 1 722 12 is_stmt 0 view .LVU322
 1365 001a 0024     		movs	r4, #0
 1366              		.loc 1 722 3 view .LVU323
 1367 001c 0FE0     		b	.L91
ARM GAS  C:\Users\Vento\AppData\Local\Temp\ccuo4SjY.s 			page 40


 1368              	.LVL106:
 1369              	.L98:
 723:Core/Src/freertos.c ****   {
 724:Core/Src/freertos.c ****     xQueueReceive(response_queue, &resp_stored, 100);
 725:Core/Src/freertos.c ****     if (resp_stored.Target_Node_ID == Node_ID)
 726:Core/Src/freertos.c ****     {
 727:Core/Src/freertos.c ****       if (remove == false)  xQueueSendToFront(response_queue, &resp_stored, 100);
 1370              		.loc 1 727 29 is_stmt 1 discriminator 1 view .LVU324
 1371 001e 0123     		movs	r3, #1
 1372 0020 6422     		movs	r2, #100
 1373 0022 01A9     		add	r1, sp, #4
 1374 0024 1048     		ldr	r0, .L99
 1375 0026 0068     		ldr	r0, [r0]
 1376 0028 FFF7FEFF 		bl	xQueueGenericSend
 1377              	.LVL107:
 1378 002c 17E0     		b	.L93
 1379              	.L92:
 728:Core/Src/freertos.c ****       return true;
 729:Core/Src/freertos.c ****     }
 730:Core/Src/freertos.c ****     else xQueueSend(response_queue, &resp_stored, 100);
 1380              		.loc 1 730 10 discriminator 2 view .LVU325
 1381 002e 0023     		movs	r3, #0
 1382 0030 6422     		movs	r2, #100
 1383 0032 01A9     		add	r1, sp, #4
 1384 0034 0C4D     		ldr	r5, .L99
 1385 0036 2868     		ldr	r0, [r5]
 1386 0038 FFF7FEFF 		bl	xQueueGenericSend
 1387              	.LVL108:
 722:Core/Src/freertos.c ****   {
 1388              		.loc 1 722 58 discriminator 2 view .LVU326
 722:Core/Src/freertos.c ****   {
 1389              		.loc 1 722 59 is_stmt 0 discriminator 2 view .LVU327
 1390 003c 0134     		adds	r4, r4, #1
 1391              	.LVL109:
 1392              	.L91:
 722:Core/Src/freertos.c ****   {
 1393              		.loc 1 722 19 is_stmt 1 discriminator 1 view .LVU328
 722:Core/Src/freertos.c ****   {
 1394              		.loc 1 722 21 is_stmt 0 discriminator 1 view .LVU329
 1395 003e 0B4B     		ldr	r3, .L99+4
 1396 0040 1B78     		ldrb	r3, [r3]	@ zero_extendqisi2
 722:Core/Src/freertos.c ****   {
 1397              		.loc 1 722 3 discriminator 1 view .LVU330
 1398 0042 A342     		cmp	r3, r4
 1399 0044 0DDD     		ble	.L97
 724:Core/Src/freertos.c ****     if (resp_stored.Target_Node_ID == Node_ID)
 1400              		.loc 1 724 5 is_stmt 1 view .LVU331
 1401 0046 6422     		movs	r2, #100
 1402 0048 01A9     		add	r1, sp, #4
 1403 004a 074B     		ldr	r3, .L99
 1404 004c 1868     		ldr	r0, [r3]
 1405 004e FFF7FEFF 		bl	xQueueReceive
 1406              	.LVL110:
 725:Core/Src/freertos.c ****     {
 1407              		.loc 1 725 5 view .LVU332
 725:Core/Src/freertos.c ****     {
 1408              		.loc 1 725 20 is_stmt 0 view .LVU333
ARM GAS  C:\Users\Vento\AppData\Local\Temp\ccuo4SjY.s 			page 41


 1409 0052 BDF80630 		ldrh	r3, [sp, #6]
 725:Core/Src/freertos.c ****     {
 1410              		.loc 1 725 8 view .LVU334
 1411 0056 B342     		cmp	r3, r6
 1412 0058 E9D1     		bne	.L92
 727:Core/Src/freertos.c ****       return true;
 1413              		.loc 1 727 7 is_stmt 1 view .LVU335
 727:Core/Src/freertos.c ****       return true;
 1414              		.loc 1 727 10 is_stmt 0 view .LVU336
 1415 005a 002F     		cmp	r7, #0
 1416 005c DFD0     		beq	.L98
 1417              	.L93:
 728:Core/Src/freertos.c ****     }
 1418              		.loc 1 728 7 is_stmt 1 view .LVU337
 728:Core/Src/freertos.c ****     }
 1419              		.loc 1 728 14 is_stmt 0 view .LVU338
 1420 005e 0120     		movs	r0, #1
 1421 0060 00E0     		b	.L94
 1422              	.L97:
 1423              	.LBE7:
 731:Core/Src/freertos.c ****   }
 732:Core/Src/freertos.c ****   return false;
 1424              		.loc 1 732 10 view .LVU339
 1425 0062 0020     		movs	r0, #0
 1426              	.L94:
 733:Core/Src/freertos.c **** }
 1427              		.loc 1 733 1 view .LVU340
 1428 0064 05B0     		add	sp, sp, #20
 1429              	.LCFI24:
 1430              		.cfi_def_cfa_offset 20
 1431              		@ sp needed
 1432 0066 F0BD     		pop	{r4, r5, r6, r7, pc}
 1433              	.LVL111:
 1434              	.L100:
 1435              		.loc 1 733 1 view .LVU341
 1436              		.align	2
 1437              	.L99:
 1438 0068 00000000 		.word	.LANCHOR24
 1439 006c 00000000 		.word	.LANCHOR29
 1440              		.cfi_endproc
 1441              	.LFE84:
 1443              		.section	.text.is_Node_ID_inNetwork,"ax",%progbits
 1444              		.align	1
 1445              		.global	is_Node_ID_inNetwork
 1446              		.syntax unified
 1447              		.thumb
 1448              		.thumb_func
 1449              		.fpu softvfp
 1451              	is_Node_ID_inNetwork:
 1452              	.LVL112:
 1453              	.LFB85:
 734:Core/Src/freertos.c **** 
 735:Core/Src/freertos.c **** bool is_Node_ID_inNetwork(uint16_t Node_ID)
 736:Core/Src/freertos.c **** {
 1454              		.loc 1 736 1 is_stmt 1 view -0
 1455              		.cfi_startproc
 1456              		@ args = 0, pretend = 0, frame = 0
ARM GAS  C:\Users\Vento\AppData\Local\Temp\ccuo4SjY.s 			page 42


 1457              		@ frame_needed = 0, uses_anonymous_args = 0
 1458              		@ link register save eliminated.
 737:Core/Src/freertos.c ****   for (int i = 0; i < MAX_NODE; i++)
 1459              		.loc 1 737 3 view .LVU343
 1460              	.LBB8:
 1461              		.loc 1 737 8 view .LVU344
 1462              		.loc 1 737 12 is_stmt 0 view .LVU345
 1463 0000 0023     		movs	r3, #0
 1464              	.LVL113:
 1465              	.L102:
 1466              		.loc 1 737 19 is_stmt 1 discriminator 1 view .LVU346
 1467              		.loc 1 737 3 is_stmt 0 discriminator 1 view .LVU347
 1468 0002 312B     		cmp	r3, #49
 1469 0004 08D8     		bhi	.L106
 738:Core/Src/freertos.c ****   {
 739:Core/Src/freertos.c ****     if (Node_Table[i].Link.Node_ID == Node_ID)  return true;
 1470              		.loc 1 739 5 is_stmt 1 view .LVU348
 1471              		.loc 1 739 27 is_stmt 0 view .LVU349
 1472 0006 03EB4302 		add	r2, r3, r3, lsl #1
 1473 000a 0549     		ldr	r1, .L107
 1474 000c 31F83220 		ldrh	r2, [r1, r2, lsl #3]
 1475              		.loc 1 739 8 view .LVU350
 1476 0010 8242     		cmp	r2, r0
 1477 0012 03D0     		beq	.L105
 737:Core/Src/freertos.c ****   for (int i = 0; i < MAX_NODE; i++)
 1478              		.loc 1 737 33 is_stmt 1 discriminator 2 view .LVU351
 737:Core/Src/freertos.c ****   for (int i = 0; i < MAX_NODE; i++)
 1479              		.loc 1 737 34 is_stmt 0 discriminator 2 view .LVU352
 1480 0014 0133     		adds	r3, r3, #1
 1481              	.LVL114:
 737:Core/Src/freertos.c ****   for (int i = 0; i < MAX_NODE; i++)
 1482              		.loc 1 737 34 discriminator 2 view .LVU353
 1483 0016 F4E7     		b	.L102
 1484              	.L106:
 737:Core/Src/freertos.c ****   for (int i = 0; i < MAX_NODE; i++)
 1485              		.loc 1 737 34 discriminator 2 view .LVU354
 1486              	.LBE8:
 740:Core/Src/freertos.c ****   }
 741:Core/Src/freertos.c ****   return false;
 1487              		.loc 1 741 10 view .LVU355
 1488 0018 0020     		movs	r0, #0
 1489              	.LVL115:
 1490              	.LBB9:
 1491              		.loc 1 741 10 view .LVU356
 1492 001a 7047     		bx	lr
 1493              	.LVL116:
 1494              	.L105:
 739:Core/Src/freertos.c ****   }
 1495              		.loc 1 739 56 view .LVU357
 1496 001c 0120     		movs	r0, #1
 1497              	.LVL117:
 739:Core/Src/freertos.c ****   }
 1498              		.loc 1 739 56 view .LVU358
 1499              	.LBE9:
 742:Core/Src/freertos.c **** }
 1500              		.loc 1 742 1 view .LVU359
 1501 001e 7047     		bx	lr
ARM GAS  C:\Users\Vento\AppData\Local\Temp\ccuo4SjY.s 			page 43


 1502              	.L108:
 1503              		.align	2
 1504              	.L107:
 1505 0020 00000000 		.word	.LANCHOR27
 1506              		.cfi_endproc
 1507              	.LFE85:
 1509              		.section	.text.get_Index_from_Node_ID,"ax",%progbits
 1510              		.align	1
 1511              		.global	get_Index_from_Node_ID
 1512              		.syntax unified
 1513              		.thumb
 1514              		.thumb_func
 1515              		.fpu softvfp
 1517              	get_Index_from_Node_ID:
 1518              	.LVL118:
 1519              	.LFB86:
 743:Core/Src/freertos.c **** 
 744:Core/Src/freertos.c **** uint8_t get_Index_from_Node_ID(uint16_t Node_ID)
 745:Core/Src/freertos.c **** {
 1520              		.loc 1 745 1 is_stmt 1 view -0
 1521              		.cfi_startproc
 1522              		@ args = 0, pretend = 0, frame = 0
 1523              		@ frame_needed = 0, uses_anonymous_args = 0
 1524              		@ link register save eliminated.
 746:Core/Src/freertos.c ****   if (Node_ID == 0)   return 0xFF;
 1525              		.loc 1 746 3 view .LVU361
 1526              		.loc 1 746 6 is_stmt 0 view .LVU362
 1527 0000 0146     		mov	r1, r0
 1528 0002 78B1     		cbz	r0, .L113
 1529              	.LBB10:
 747:Core/Src/freertos.c ****   for (uint8_t i = 0; i < MAX_NODE; i++)
 1530              		.loc 1 747 16 view .LVU363
 1531 0004 0020     		movs	r0, #0
 1532              	.LVL119:
 1533              		.loc 1 747 16 view .LVU364
 1534 0006 01E0     		b	.L111
 1535              	.LVL120:
 1536              	.L115:
 1537              		.loc 1 747 37 is_stmt 1 discriminator 2 view .LVU365
 1538              		.loc 1 747 38 is_stmt 0 discriminator 2 view .LVU366
 1539 0008 0130     		adds	r0, r0, #1
 1540              	.LVL121:
 1541              		.loc 1 747 38 discriminator 2 view .LVU367
 1542 000a C0B2     		uxtb	r0, r0
 1543              	.LVL122:
 1544              	.L111:
 1545              		.loc 1 747 23 is_stmt 1 discriminator 1 view .LVU368
 1546              		.loc 1 747 3 is_stmt 0 discriminator 1 view .LVU369
 1547 000c 3128     		cmp	r0, #49
 1548 000e 07D8     		bhi	.L114
 748:Core/Src/freertos.c ****   {
 749:Core/Src/freertos.c ****     if (Node_Table[i].Link.Node_ID == Node_ID)  return i;
 1549              		.loc 1 749 5 is_stmt 1 view .LVU370
 1550              		.loc 1 749 27 is_stmt 0 view .LVU371
 1551 0010 00EB4003 		add	r3, r0, r0, lsl #1
 1552 0014 044A     		ldr	r2, .L116
 1553 0016 32F83330 		ldrh	r3, [r2, r3, lsl #3]
ARM GAS  C:\Users\Vento\AppData\Local\Temp\ccuo4SjY.s 			page 44


 1554              		.loc 1 749 8 view .LVU372
 1555 001a 8B42     		cmp	r3, r1
 1556 001c F4D1     		bne	.L115
 1557              	.LVL123:
 1558              	.L110:
 1559              		.loc 1 749 8 view .LVU373
 1560              	.LBE10:
 750:Core/Src/freertos.c ****   }
 751:Core/Src/freertos.c ****   return 0xFF;
 752:Core/Src/freertos.c **** }
 1561              		.loc 1 752 1 view .LVU374
 1562 001e 7047     		bx	lr
 1563              	.LVL124:
 1564              	.L114:
 751:Core/Src/freertos.c **** }
 1565              		.loc 1 751 10 view .LVU375
 1566 0020 FF20     		movs	r0, #255
 1567              	.LVL125:
 1568              	.LBB11:
 751:Core/Src/freertos.c **** }
 1569              		.loc 1 751 10 view .LVU376
 1570 0022 7047     		bx	lr
 1571              	.LVL126:
 1572              	.L113:
 751:Core/Src/freertos.c **** }
 1573              		.loc 1 751 10 view .LVU377
 1574              	.LBE11:
 746:Core/Src/freertos.c ****   for (uint8_t i = 0; i < MAX_NODE; i++)
 1575              		.loc 1 746 30 view .LVU378
 1576 0024 FF20     		movs	r0, #255
 1577              	.LVL127:
 746:Core/Src/freertos.c ****   for (uint8_t i = 0; i < MAX_NODE; i++)
 1578              		.loc 1 746 30 view .LVU379
 1579 0026 FAE7     		b	.L110
 1580              	.L117:
 1581              		.align	2
 1582              	.L116:
 1583 0028 00000000 		.word	.LANCHOR27
 1584              		.cfi_endproc
 1585              	.LFE86:
 1587              		.section	.rodata.listen_before_talk.str1.4,"aMS",%progbits,1
 1588              		.align	2
 1589              	.LC6:
 1590 0000 4C6F5261 		.ascii	"LoRa - CAD Done\011Took: %i ms\011\000"
 1590      202D2043 
 1590      41442044 
 1590      6F6E6509 
 1590      546F6F6B 
 1591 001d 000000   		.align	2
 1592              	.LC7:
 1593 0020 4C6F5261 		.ascii	"LoRa - CAD Detected\011\000"
 1593      202D2043 
 1593      41442044 
 1593      65746563 
 1593      74656409 
 1594 0035 000000   		.align	2
 1595              	.LC8:
ARM GAS  C:\Users\Vento\AppData\Local\Temp\ccuo4SjY.s 			page 45


 1596 0038 4C6F5261 		.ascii	"LoRa - CAD Clear\011\000"
 1596      202D2043 
 1596      41442043 
 1596      6C656172 
 1596      0900
 1597 004a 0000     		.align	2
 1598              	.LC9:
 1599 004c 4C697374 		.ascii	"Listen FAIL...\011\000"
 1599      656E2046 
 1599      41494C2E 
 1599      2E2E0900 
 1600              		.section	.text.listen_before_talk,"ax",%progbits
 1601              		.align	1
 1602              		.global	listen_before_talk
 1603              		.syntax unified
 1604              		.thumb
 1605              		.thumb_func
 1606              		.fpu softvfp
 1608              	listen_before_talk:
 1609              	.LFB87:
 753:Core/Src/freertos.c **** 
 754:Core/Src/freertos.c **** /**
 755:Core/Src/freertos.c ****  * @brief check communicate line for idle slot to talk
 756:Core/Src/freertos.c ****  * 
 757:Core/Src/freertos.c ****  * @return true ok now TALK!
 758:Core/Src/freertos.c ****  * @return false <infinite loop with random delay time>
 759:Core/Src/freertos.c ****  */
 760:Core/Src/freertos.c **** bool listen_before_talk(void)
 761:Core/Src/freertos.c **** {
 1610              		.loc 1 761 1 is_stmt 1 view -0
 1611              		.cfi_startproc
 1612              		@ args = 0, pretend = 0, frame = 0
 1613              		@ frame_needed = 0, uses_anonymous_args = 0
 1614 0000 30B5     		push	{r4, r5, lr}
 1615              	.LCFI25:
 1616              		.cfi_def_cfa_offset 12
 1617              		.cfi_offset 4, -12
 1618              		.cfi_offset 5, -8
 1619              		.cfi_offset 14, -4
 1620 0002 83B0     		sub	sp, sp, #12
 1621              	.LCFI26:
 1622              		.cfi_def_cfa_offset 24
 762:Core/Src/freertos.c ****   EventBits_t evt_bits;
 1623              		.loc 1 762 3 view .LVU381
 763:Core/Src/freertos.c ****   uint8_t irq;
 1624              		.loc 1 763 3 view .LVU382
 764:Core/Src/freertos.c ****   uint32_t timeout = HAL_GetTick();
 1625              		.loc 1 764 3 view .LVU383
 1626              		.loc 1 764 22 is_stmt 0 view .LVU384
 1627 0004 FFF7FEFF 		bl	HAL_GetTick
 1628              	.LVL128:
 1629 0008 0546     		mov	r5, r0
 1630              	.LVL129:
 765:Core/Src/freertos.c ****   is_LoRa_processing = false;
 1631              		.loc 1 765 3 is_stmt 1 view .LVU385
 1632              		.loc 1 765 22 is_stmt 0 view .LVU386
 1633 000a 294B     		ldr	r3, .L126
ARM GAS  C:\Users\Vento\AppData\Local\Temp\ccuo4SjY.s 			page 46


 1634 000c 0022     		movs	r2, #0
 1635 000e 1A70     		strb	r2, [r3]
 766:Core/Src/freertos.c ****   while ((HAL_GetTick() - timeout) <= 4000)
 1636              		.loc 1 766 3 is_stmt 1 view .LVU387
 1637              	.LVL130:
 1638              	.L120:
 1639              		.loc 1 766 9 view .LVU388
 1640              		.loc 1 766 11 is_stmt 0 view .LVU389
 1641 0010 FFF7FEFF 		bl	HAL_GetTick
 1642              	.LVL131:
 1643              		.loc 1 766 25 view .LVU390
 1644 0014 401B     		subs	r0, r0, r5
 1645              		.loc 1 766 9 view .LVU391
 1646 0016 B0F57A6F 		cmp	r0, #4000
 1647 001a 37D8     		bhi	.L125
 767:Core/Src/freertos.c ****   {
 768:Core/Src/freertos.c ****     xEventGroupClearBits(evt_group, EVT_LORA);
 1648              		.loc 1 768 5 is_stmt 1 view .LVU392
 1649 001c 254C     		ldr	r4, .L126+4
 1650 001e 0421     		movs	r1, #4
 1651 0020 2068     		ldr	r0, [r4]
 1652 0022 FFF7FEFF 		bl	xEventGroupClearBits
 1653              	.LVL132:
 769:Core/Src/freertos.c ****     sx1278_cad();
 1654              		.loc 1 769 5 view .LVU393
 1655 0026 FFF7FEFF 		bl	sx1278_cad
 1656              	.LVL133:
 770:Core/Src/freertos.c ****     evt_bits = xEventGroupWaitBits(evt_group, EVT_LORA, pdTRUE, pdFALSE, 1000);
 1657              		.loc 1 770 5 view .LVU394
 1658              		.loc 1 770 16 is_stmt 0 view .LVU395
 1659 002a 4FF47A73 		mov	r3, #1000
 1660 002e 0093     		str	r3, [sp]
 1661 0030 0023     		movs	r3, #0
 1662 0032 0122     		movs	r2, #1
 1663 0034 0421     		movs	r1, #4
 1664 0036 2068     		ldr	r0, [r4]
 1665 0038 FFF7FEFF 		bl	xEventGroupWaitBits
 1666              	.LVL134:
 771:Core/Src/freertos.c ****     if ((evt_bits & EVT_LORA) != 0U)
 1667              		.loc 1 771 5 is_stmt 1 view .LVU396
 1668              		.loc 1 771 8 is_stmt 0 view .LVU397
 1669 003c 10F0040F 		tst	r0, #4
 1670 0040 E6D0     		beq	.L120
 772:Core/Src/freertos.c ****     {
 773:Core/Src/freertos.c ****       logPC("LoRa - CAD Done\tTook: %i ms\t", HAL_GetTick() - timeout);
 1671              		.loc 1 773 7 is_stmt 1 view .LVU398
 1672              		.loc 1 773 47 is_stmt 0 view .LVU399
 1673 0042 FFF7FEFF 		bl	HAL_GetTick
 1674              	.LVL135:
 1675              		.loc 1 773 7 view .LVU400
 1676 0046 411B     		subs	r1, r0, r5
 1677 0048 1B48     		ldr	r0, .L126+8
 1678 004a FFF7FEFF 		bl	logPC
 1679              	.LVL136:
 774:Core/Src/freertos.c ****       irq = sx1278_read_reg(REG_IRQ_FLAGS);
 1680              		.loc 1 774 7 is_stmt 1 view .LVU401
 1681              		.loc 1 774 13 is_stmt 0 view .LVU402
ARM GAS  C:\Users\Vento\AppData\Local\Temp\ccuo4SjY.s 			page 47


 1682 004e 1220     		movs	r0, #18
 1683 0050 FFF7FEFF 		bl	sx1278_read_reg
 1684              	.LVL137:
 1685 0054 0446     		mov	r4, r0
 1686              	.LVL138:
 775:Core/Src/freertos.c ****       sx1278_write_reg(REG_IRQ_FLAGS, irq);
 1687              		.loc 1 775 7 is_stmt 1 view .LVU403
 1688 0056 0146     		mov	r1, r0
 1689 0058 1220     		movs	r0, #18
 1690              	.LVL139:
 1691              		.loc 1 775 7 is_stmt 0 view .LVU404
 1692 005a FFF7FEFF 		bl	sx1278_write_reg
 1693              	.LVL140:
 776:Core/Src/freertos.c ****       if ((irq & 0x01) != 0U)
 1694              		.loc 1 776 7 is_stmt 1 view .LVU405
 1695              		.loc 1 776 10 is_stmt 0 view .LVU406
 1696 005e 14F0010F 		tst	r4, #1
 1697 0062 09D0     		beq	.L121
 777:Core/Src/freertos.c ****       {
 778:Core/Src/freertos.c ****         logPC("LoRa - CAD Detected\t");
 1698              		.loc 1 778 9 is_stmt 1 view .LVU407
 1699 0064 1548     		ldr	r0, .L126+12
 1700 0066 FFF7FEFF 		bl	logPC
 1701              	.LVL141:
 779:Core/Src/freertos.c ****         HAL_Delay(get_random_value(0, 50));
 1702              		.loc 1 779 9 view .LVU408
 1703              		.loc 1 779 19 is_stmt 0 view .LVU409
 1704 006a 3221     		movs	r1, #50
 1705 006c 0020     		movs	r0, #0
 1706 006e FFF7FEFF 		bl	get_random_value
 1707              	.LVL142:
 1708              		.loc 1 779 9 view .LVU410
 1709 0072 FFF7FEFF 		bl	HAL_Delay
 1710              	.LVL143:
 1711 0076 CBE7     		b	.L120
 1712              	.L121:
 780:Core/Src/freertos.c ****       }
 781:Core/Src/freertos.c ****       else 
 782:Core/Src/freertos.c ****       {
 783:Core/Src/freertos.c ****         logPC("LoRa - CAD Clear\t");
 1713              		.loc 1 783 9 is_stmt 1 view .LVU411
 1714 0078 1148     		ldr	r0, .L126+16
 1715 007a FFF7FEFF 		bl	logPC
 1716              	.LVL144:
 784:Core/Src/freertos.c ****         sx1278_set_irq(0x00);
 1717              		.loc 1 784 9 view .LVU412
 1718 007e 0020     		movs	r0, #0
 1719 0080 FFF7FEFF 		bl	sx1278_set_irq
 1720              	.LVL145:
 785:Core/Src/freertos.c ****         sx1278_standby();
 1721              		.loc 1 785 9 view .LVU413
 1722 0084 FFF7FEFF 		bl	sx1278_standby
 1723              	.LVL146:
 786:Core/Src/freertos.c ****         return true;
 1724              		.loc 1 786 9 view .LVU414
 1725              		.loc 1 786 16 is_stmt 0 view .LVU415
 1726 0088 0120     		movs	r0, #1
ARM GAS  C:\Users\Vento\AppData\Local\Temp\ccuo4SjY.s 			page 48


 1727 008a 0FE0     		b	.L122
 1728              	.L125:
 787:Core/Src/freertos.c ****       }
 788:Core/Src/freertos.c ****     }
 789:Core/Src/freertos.c ****   }
 790:Core/Src/freertos.c ****   irq = sx1278_read_reg(REG_IRQ_FLAGS);
 1729              		.loc 1 790 3 is_stmt 1 view .LVU416
 1730              		.loc 1 790 9 is_stmt 0 view .LVU417
 1731 008c 1220     		movs	r0, #18
 1732 008e FFF7FEFF 		bl	sx1278_read_reg
 1733              	.LVL147:
 1734 0092 0146     		mov	r1, r0
 1735              	.LVL148:
 791:Core/Src/freertos.c ****   sx1278_write_reg(REG_IRQ_FLAGS, irq);
 1736              		.loc 1 791 3 is_stmt 1 view .LVU418
 1737 0094 1220     		movs	r0, #18
 1738 0096 FFF7FEFF 		bl	sx1278_write_reg
 1739              	.LVL149:
 792:Core/Src/freertos.c ****   sx1278_set_irq(0x00);
 1740              		.loc 1 792 3 view .LVU419
 1741 009a 0020     		movs	r0, #0
 1742 009c FFF7FEFF 		bl	sx1278_set_irq
 1743              	.LVL150:
 793:Core/Src/freertos.c ****   sx1278_standby();
 1744              		.loc 1 793 3 view .LVU420
 1745 00a0 FFF7FEFF 		bl	sx1278_standby
 1746              	.LVL151:
 794:Core/Src/freertos.c ****   logPC("Listen FAIL...\t");
 1747              		.loc 1 794 3 view .LVU421
 1748 00a4 0748     		ldr	r0, .L126+20
 1749 00a6 FFF7FEFF 		bl	logPC
 1750              	.LVL152:
 795:Core/Src/freertos.c ****   return false;
 1751              		.loc 1 795 3 view .LVU422
 1752              		.loc 1 795 10 is_stmt 0 view .LVU423
 1753 00aa 0020     		movs	r0, #0
 1754              	.L122:
 796:Core/Src/freertos.c **** }
 1755              		.loc 1 796 1 view .LVU424
 1756 00ac 03B0     		add	sp, sp, #12
 1757              	.LCFI27:
 1758              		.cfi_def_cfa_offset 12
 1759              		@ sp needed
 1760 00ae 30BD     		pop	{r4, r5, pc}
 1761              	.LVL153:
 1762              	.L127:
 1763              		.loc 1 796 1 view .LVU425
 1764              		.align	2
 1765              	.L126:
 1766 00b0 00000000 		.word	.LANCHOR7
 1767 00b4 00000000 		.word	.LANCHOR8
 1768 00b8 00000000 		.word	.LC6
 1769 00bc 20000000 		.word	.LC7
 1770 00c0 38000000 		.word	.LC8
 1771 00c4 4C000000 		.word	.LC9
 1772              		.cfi_endproc
 1773              	.LFE87:
ARM GAS  C:\Users\Vento\AppData\Local\Temp\ccuo4SjY.s 			page 49


 1775              		.section	.rodata.LoRa_Packet_Parser.str1.4,"aMS",%progbits,1
 1776              		.align	2
 1777              	.LC10:
 1778 0000 4661696C 		.ascii	"Fail\011\000"
 1778      0900
 1779 0006 0000     		.align	2
 1780              	.LC11:
 1781 0008 53756363 		.ascii	"Success\011\000"
 1781      65737309 
 1781      00
 1782 0011 000000   		.align	2
 1783              	.LC12:
 1784 0014 4C696E6B 		.ascii	"Link Packet\011\000"
 1784      20506163 
 1784      6B657409 
 1784      00
 1785 0021 000000   		.align	2
 1786              	.LC13:
 1787 0024 4E6F6465 		.ascii	"Node already in Network -> Send promote!\011\000"
 1787      20616C72 
 1787      65616479 
 1787      20696E20 
 1787      4E657477 
 1788 004e 0000     		.align	2
 1789              	.LC14:
 1790 0050 536F6D65 		.ascii	"Something went wrong...\000"
 1790      7468696E 
 1790      67207765 
 1790      6E742077 
 1790      726F6E67 
 1791              		.align	2
 1792              	.LC15:
 1793 0068 52657370 		.ascii	"Response Ready...\011\000"
 1793      6F6E7365 
 1793      20526561 
 1793      64792E2E 
 1793      2E0900
 1794 007b 00       		.align	2
 1795              	.LC16:
 1796 007c 53656E64 		.ascii	"Sending packet...\012\000"
 1796      696E6720 
 1796      7061636B 
 1796      65742E2E 
 1796      2E0A00
 1797 008f 00       		.align	2
 1798              	.LC17:
 1799 0090 4E657720 		.ascii	"New Node! Send to Queue...\011\000"
 1799      4E6F6465 
 1799      21205365 
 1799      6E642074 
 1799      6F205175 
 1800              		.align	2
 1801              	.LC18:
 1802 00ac 4F6C6420 		.ascii	"Old Node...\011\000"
 1802      4E6F6465 
 1802      2E2E2E09 
 1802      00
ARM GAS  C:\Users\Vento\AppData\Local\Temp\ccuo4SjY.s 			page 50


 1803 00b9 000000   		.align	2
 1804              	.LC19:
 1805 00bc 4C696E6B 		.ascii	"Link Queue has %d Node(s)\012\000"
 1805      20517565 
 1805      75652068 
 1805      61732025 
 1805      64204E6F 
 1806 00d7 00       		.align	2
 1807              	.LC20:
 1808 00d8 4C696E6B 		.ascii	"Link Queue Full\012\000"
 1808      20517565 
 1808      75652046 
 1808      756C6C0A 
 1808      00
 1809 00e9 000000   		.align	2
 1810              	.LC21:
 1811 00ec 44617461 		.ascii	"Data Packet\011\000"
 1811      20506163 
 1811      6B657409 
 1811      00
 1812 00f9 000000   		.align	2
 1813              	.LC22:
 1814 00fc 4E6F6465 		.ascii	"Node Registered -> Saving data...\011%s\000"
 1814      20526567 
 1814      69737465 
 1814      72656420 
 1814      2D3E2053 
 1815 0121 000000   		.align	2
 1816              	.LC23:
 1817 0124 446F6E65 		.ascii	"Done!\012\000"
 1817      210A00
 1818 012b 00       		.align	2
 1819              	.LC24:
 1820 012c 4E6F6465 		.ascii	"Node Unregister -> Demote Node...\011\000"
 1820      20556E72 
 1820      65676973 
 1820      74657220 
 1820      2D3E2044 
 1821 014f 00       		.align	2
 1822              	.LC25:
 1823 0150 3F3F3F3F 		.ascii	"???? Packet\012\000"
 1823      20506163 
 1823      6B65740A 
 1823      00
 1824              		.section	.text.LoRa_Packet_Parser,"ax",%progbits
 1825              		.align	1
 1826              		.global	LoRa_Packet_Parser
 1827              		.syntax unified
 1828              		.thumb
 1829              		.thumb_func
 1830              		.fpu softvfp
 1832              	LoRa_Packet_Parser:
 1833              	.LVL154:
 1834              	.LFB88:
 797:Core/Src/freertos.c **** 
 798:Core/Src/freertos.c **** void* LoRa_Packet_Parser(const uint8_t* data, uint32_t len)
 799:Core/Src/freertos.c **** {
ARM GAS  C:\Users\Vento\AppData\Local\Temp\ccuo4SjY.s 			page 51


 1835              		.loc 1 799 1 is_stmt 1 view -0
 1836              		.cfi_startproc
 1837              		@ args = 0, pretend = 0, frame = 40
 1838              		@ frame_needed = 0, uses_anonymous_args = 0
 1839              		.loc 1 799 1 is_stmt 0 view .LVU427
 1840 0000 10B5     		push	{r4, lr}
 1841              	.LCFI28:
 1842              		.cfi_def_cfa_offset 8
 1843              		.cfi_offset 4, -8
 1844              		.cfi_offset 14, -4
 1845 0002 8CB0     		sub	sp, sp, #48
 1846              	.LCFI29:
 1847              		.cfi_def_cfa_offset 56
 1848 0004 0446     		mov	r4, r0
 800:Core/Src/freertos.c ****   // void *p = NULL;
 801:Core/Src/freertos.c ****   switch ((uint16_t)((data[0] << 8) & 0xFF00) | (uint16_t)(data[1] & 0x00FF))
 1849              		.loc 1 801 3 is_stmt 1 view .LVU428
 1850              		.loc 1 801 27 is_stmt 0 view .LVU429
 1851 0006 0278     		ldrb	r2, [r0]	@ zero_extendqisi2
 1852              		.loc 1 801 64 view .LVU430
 1853 0008 4378     		ldrb	r3, [r0, #1]	@ zero_extendqisi2
 1854              		.loc 1 801 47 view .LVU431
 1855 000a 43EA0223 		orr	r3, r3, r2, lsl #8
 1856              		.loc 1 801 3 view .LVU432
 1857 000e 45F65A22 		movw	r2, #23130
 1858 0012 9342     		cmp	r3, r2
 1859 0014 00F09780 		beq	.L129
 1860 0018 4AF6AA22 		movw	r2, #43690
 1861 001c 9342     		cmp	r3, r2
 1862 001e 40F00C81 		bne	.L130
 1863              	.LBB12:
 802:Core/Src/freertos.c ****   {
 803:Core/Src/freertos.c ****     case PACKET_ID_0: {
 804:Core/Src/freertos.c ****       if (len != sizeof(Link_Packet_t)) break;
 1864              		.loc 1 804 7 is_stmt 1 view .LVU433
 1865              		.loc 1 804 10 is_stmt 0 view .LVU434
 1866 0022 0A29     		cmp	r1, #10
 1867 0024 40F00C81 		bne	.L141
 805:Core/Src/freertos.c ****       logPC("Link Packet\t");
 1868              		.loc 1 805 7 is_stmt 1 view .LVU435
 1869 0028 8748     		ldr	r0, .L150
 1870              	.LVL155:
 1871              		.loc 1 805 7 is_stmt 0 view .LVU436
 1872 002a FFF7FEFF 		bl	logPC
 1873              	.LVL156:
 806:Core/Src/freertos.c ****       Link_Struct_t link_payload;
 1874              		.loc 1 806 7 is_stmt 1 view .LVU437
 807:Core/Src/freertos.c ****       memcpy((uint8_t *)&link_payload, (uint8_t *)&data[2], sizeof(Link_Struct_t));
 1875              		.loc 1 807 7 view .LVU438
 1876 002e 03AB     		add	r3, sp, #12
 1877 0030 D4F80200 		ldr	r0, [r4, #2]	@ unaligned
 1878 0034 D4F80610 		ldr	r1, [r4, #6]	@ unaligned
 1879 0038 03C3     		stmia	r3!, {r0, r1}
 808:Core/Src/freertos.c ****       if ((is_Node_ID_inNetwork(link_payload.Node_ID) == true) && (is_Node_ID_inResponseQueue(link_
 1880              		.loc 1 808 7 view .LVU439
 1881              		.loc 1 808 12 is_stmt 0 view .LVU440
 1882 003a BDF80C40 		ldrh	r4, [sp, #12]
ARM GAS  C:\Users\Vento\AppData\Local\Temp\ccuo4SjY.s 			page 52


 1883              	.LVL157:
 1884              		.loc 1 808 12 view .LVU441
 1885 003e 2046     		mov	r0, r4
 1886 0040 FFF7FEFF 		bl	is_Node_ID_inNetwork
 1887              	.LVL158:
 1888              		.loc 1 808 10 view .LVU442
 1889 0044 E8B9     		cbnz	r0, .L149
 1890              	.L132:
 809:Core/Src/freertos.c ****       {
 810:Core/Src/freertos.c ****         ResponsePacket_t resp = {PACKET_ID_2, link_payload.Node_ID, NORMAL_MODE, 180U, (uint16_t)((
 811:Core/Src/freertos.c ****         xQueueSendToFront(response_queue, &resp, 100);
 812:Core/Src/freertos.c ****         logPC("Node already in Network -> Send promote!\t");
 813:Core/Src/freertos.c ****       }
 814:Core/Src/freertos.c ****       if (is_Node_ID_inResponseQueue(link_payload.Node_ID, false) == true)
 1891              		.loc 1 814 7 is_stmt 1 view .LVU443
 1892              		.loc 1 814 11 is_stmt 0 view .LVU444
 1893 0046 0021     		movs	r1, #0
 1894 0048 BDF80C00 		ldrh	r0, [sp, #12]
 1895 004c FFF7FEFF 		bl	is_Node_ID_inResponseQueue
 1896              	.LVL159:
 1897              		.loc 1 814 10 view .LVU445
 1898 0050 0028     		cmp	r0, #0
 1899 0052 51D0     		beq	.L133
 1900              	.LBB13:
 815:Core/Src/freertos.c ****       {
 816:Core/Src/freertos.c ****         ResponsePacket_t resp;
 1901              		.loc 1 816 9 is_stmt 1 view .LVU446
 817:Core/Src/freertos.c ****         xQueueReceive(response_queue, &resp, 100);
 1902              		.loc 1 817 9 view .LVU447
 1903 0054 6422     		movs	r2, #100
 1904 0056 06A9     		add	r1, sp, #24
 1905 0058 7C4B     		ldr	r3, .L150+4
 1906 005a 1868     		ldr	r0, [r3]
 1907 005c FFF7FEFF 		bl	xQueueReceive
 1908              	.LVL160:
 818:Core/Src/freertos.c ****         if (resp.Target_Node_ID != link_payload.Node_ID)
 1909              		.loc 1 818 9 view .LVU448
 1910              		.loc 1 818 17 is_stmt 0 view .LVU449
 1911 0060 BDF81A20 		ldrh	r2, [sp, #26]
 1912              		.loc 1 818 48 view .LVU450
 1913 0064 BDF80C30 		ldrh	r3, [sp, #12]
 1914              		.loc 1 818 12 view .LVU451
 1915 0068 9A42     		cmp	r2, r3
 1916 006a 2DD0     		beq	.L134
 819:Core/Src/freertos.c ****         {
 820:Core/Src/freertos.c ****           logPC("Something went wrong...");
 1917              		.loc 1 820 11 is_stmt 1 view .LVU452
 1918 006c 7848     		ldr	r0, .L150+8
 1919 006e FFF7FEFF 		bl	logPC
 1920              	.LVL161:
 821:Core/Src/freertos.c ****           xQueueSendToFront(response_queue, &resp, 100);
 1921              		.loc 1 821 11 view .LVU453
 1922 0072 0123     		movs	r3, #1
 1923 0074 6422     		movs	r2, #100
 1924 0076 06A9     		add	r1, sp, #24
 1925 0078 7448     		ldr	r0, .L150+4
 1926 007a 0068     		ldr	r0, [r0]
ARM GAS  C:\Users\Vento\AppData\Local\Temp\ccuo4SjY.s 			page 53


 1927 007c FFF7FEFF 		bl	xQueueGenericSend
 1928              	.LVL162:
 822:Core/Src/freertos.c ****           break;
 1929              		.loc 1 822 11 view .LVU454
 1930 0080 DEE0     		b	.L141
 1931              	.L149:
 1932              	.LBE13:
 808:Core/Src/freertos.c ****       {
 1933              		.loc 1 808 68 is_stmt 0 discriminator 1 view .LVU455
 1934 0082 0021     		movs	r1, #0
 1935 0084 2046     		mov	r0, r4
 1936 0086 FFF7FEFF 		bl	is_Node_ID_inResponseQueue
 1937              	.LVL163:
 808:Core/Src/freertos.c ****       {
 1938              		.loc 1 808 64 discriminator 1 view .LVU456
 1939 008a 0028     		cmp	r0, #0
 1940 008c DBD1     		bne	.L132
 1941              	.LBB14:
 810:Core/Src/freertos.c ****         xQueueSendToFront(response_queue, &resp, 100);
 1942              		.loc 1 810 9 is_stmt 1 view .LVU457
 810:Core/Src/freertos.c ****         xQueueSendToFront(response_queue, &resp, 100);
 1943              		.loc 1 810 26 is_stmt 0 view .LVU458
 1944 008e 45F25553 		movw	r3, #21845
 1945 0092 ADF81830 		strh	r3, [sp, #24]	@ movhi
 810:Core/Src/freertos.c ****         xQueueSendToFront(response_queue, &resp, 100);
 1946              		.loc 1 810 59 view .LVU459
 1947 0096 BDF80C30 		ldrh	r3, [sp, #12]
 810:Core/Src/freertos.c ****         xQueueSendToFront(response_queue, &resp, 100);
 1948              		.loc 1 810 26 view .LVU460
 1949 009a ADF81A30 		strh	r3, [sp, #26]	@ movhi
 1950 009e 0423     		movs	r3, #4
 1951 00a0 ADF81C30 		strh	r3, [sp, #28]	@ movhi
 1952 00a4 B423     		movs	r3, #180
 1953 00a6 ADF81E30 		strh	r3, [sp, #30]	@ movhi
 1954 00aa 4AF6AB23 		movw	r3, #43691
 1955 00ae ADF82030 		strh	r3, [sp, #32]	@ movhi
 811:Core/Src/freertos.c ****         logPC("Node already in Network -> Send promote!\t");
 1956              		.loc 1 811 9 is_stmt 1 view .LVU461
 1957 00b2 0123     		movs	r3, #1
 1958 00b4 6422     		movs	r2, #100
 1959 00b6 06A9     		add	r1, sp, #24
 1960 00b8 6448     		ldr	r0, .L150+4
 1961 00ba 0068     		ldr	r0, [r0]
 1962 00bc FFF7FEFF 		bl	xQueueGenericSend
 1963              	.LVL164:
 812:Core/Src/freertos.c ****       }
 1964              		.loc 1 812 9 view .LVU462
 1965 00c0 6448     		ldr	r0, .L150+12
 1966 00c2 FFF7FEFF 		bl	logPC
 1967              	.LVL165:
 1968 00c6 BEE7     		b	.L132
 1969              	.L134:
 1970              	.LBE14:
 1971              	.LBB15:
 823:Core/Src/freertos.c ****         }
 824:Core/Src/freertos.c ****         logPC("Response Ready...\t");
 1972              		.loc 1 824 9 view .LVU463
ARM GAS  C:\Users\Vento\AppData\Local\Temp\ccuo4SjY.s 			page 54


 1973 00c8 6348     		ldr	r0, .L150+16
 1974 00ca FFF7FEFF 		bl	logPC
 1975              	.LVL166:
 825:Core/Src/freertos.c ****         if (listen_before_talk() == false)  xQueueSendToFront(response_queue, &resp, 100);
 1976              		.loc 1 825 9 view .LVU464
 1977              		.loc 1 825 13 is_stmt 0 view .LVU465
 1978 00ce FFF7FEFF 		bl	listen_before_talk
 1979              	.LVL167:
 1980              		.loc 1 825 12 view .LVU466
 1981 00d2 48B9     		cbnz	r0, .L136
 1982              		.loc 1 825 45 is_stmt 1 discriminator 1 view .LVU467
 1983 00d4 0123     		movs	r3, #1
 1984 00d6 6422     		movs	r2, #100
 1985 00d8 06A9     		add	r1, sp, #24
 1986 00da 5C48     		ldr	r0, .L150+4
 1987 00dc 0068     		ldr	r0, [r0]
 1988 00de FFF7FEFF 		bl	xQueueGenericSend
 1989              	.LVL168:
 1990              	.L137:
 826:Core/Src/freertos.c ****         else  {logPC("Sending packet...\n"); sx1278_send_data(&resp, sizeof(ResponsePacket_t));}
 827:Core/Src/freertos.c ****         sx1278_start_recv_data();
 1991              		.loc 1 827 9 view .LVU468
 1992 00e2 FFF7FEFF 		bl	sx1278_start_recv_data
 1993              	.LVL169:
 828:Core/Src/freertos.c ****         break;
 1994              		.loc 1 828 9 view .LVU469
 1995 00e6 ABE0     		b	.L141
 1996              	.L136:
 826:Core/Src/freertos.c ****         else  {logPC("Sending packet...\n"); sx1278_send_data(&resp, sizeof(ResponsePacket_t));}
 1997              		.loc 1 826 16 view .LVU470
 1998 00e8 5C48     		ldr	r0, .L150+20
 1999 00ea FFF7FEFF 		bl	logPC
 2000              	.LVL170:
 826:Core/Src/freertos.c ****         else  {logPC("Sending packet...\n"); sx1278_send_data(&resp, sizeof(ResponsePacket_t));}
 2001              		.loc 1 826 46 view .LVU471
 2002 00ee 0A21     		movs	r1, #10
 2003 00f0 06A8     		add	r0, sp, #24
 2004 00f2 FFF7FEFF 		bl	sx1278_send_data
 2005              	.LVL171:
 2006 00f6 F4E7     		b	.L137
 2007              	.L133:
 2008              	.LBE15:
 829:Core/Src/freertos.c ****       }
 830:Core/Src/freertos.c ****       if (is_Node_ID_inLinkQueue(link_payload.Node_ID, true) == false)  logPC("New Node! Send to Qu
 2009              		.loc 1 830 7 view .LVU472
 2010              		.loc 1 830 11 is_stmt 0 view .LVU473
 2011 00f8 0121     		movs	r1, #1
 2012 00fa BDF80C00 		ldrh	r0, [sp, #12]
 2013 00fe FFF7FEFF 		bl	is_Node_ID_inLinkQueue
 2014              	.LVL172:
 2015              		.loc 1 830 10 view .LVU474
 2016 0102 C0B9     		cbnz	r0, .L138
 2017              		.loc 1 830 73 is_stmt 1 discriminator 1 view .LVU475
 2018 0104 5648     		ldr	r0, .L150+24
 2019 0106 FFF7FEFF 		bl	logPC
 2020              	.LVL173:
 2021              	.L139:
ARM GAS  C:\Users\Vento\AppData\Local\Temp\ccuo4SjY.s 			page 55


 831:Core/Src/freertos.c ****       else                                                              logPC("Old Node...\t");
 832:Core/Src/freertos.c ****       xQueueSend(link_queue, &(link_payload), 100);
 2022              		.loc 1 832 7 view .LVU476
 2023 010a 564C     		ldr	r4, .L150+28
 2024 010c 0023     		movs	r3, #0
 2025 010e 6422     		movs	r2, #100
 2026 0110 03A9     		add	r1, sp, #12
 2027 0112 2068     		ldr	r0, [r4]
 2028 0114 FFF7FEFF 		bl	xQueueGenericSend
 2029              	.LVL174:
 833:Core/Src/freertos.c ****       number_of_Node_inQueue = MAX_NODE - (uint8_t)uxQueueSpacesAvailable(link_queue);
 2030              		.loc 1 833 7 view .LVU477
 2031              		.loc 1 833 52 is_stmt 0 view .LVU478
 2032 0118 2068     		ldr	r0, [r4]
 2033 011a FFF7FEFF 		bl	uxQueueSpacesAvailable
 2034              	.LVL175:
 2035              		.loc 1 833 43 view .LVU479
 2036 011e C1B2     		uxtb	r1, r0
 2037              		.loc 1 833 41 view .LVU480
 2038 0120 C1F13201 		rsb	r1, r1, #50
 2039 0124 C9B2     		uxtb	r1, r1
 2040              		.loc 1 833 30 view .LVU481
 2041 0126 504B     		ldr	r3, .L150+32
 2042 0128 1970     		strb	r1, [r3]
 834:Core/Src/freertos.c ****       if (number_of_Node_inQueue != MAX_NODE)   logPC("Link Queue has %d Node(s)\n", number_of_Node
 2043              		.loc 1 834 7 is_stmt 1 view .LVU482
 2044              		.loc 1 834 10 is_stmt 0 view .LVU483
 2045 012a 3229     		cmp	r1, #50
 2046 012c 07D0     		beq	.L140
 2047              		.loc 1 834 49 is_stmt 1 discriminator 1 view .LVU484
 2048 012e 4F48     		ldr	r0, .L150+36
 2049 0130 FFF7FEFF 		bl	logPC
 2050              	.LVL176:
 2051 0134 84E0     		b	.L141
 2052              	.L138:
 831:Core/Src/freertos.c ****       else                                                              logPC("Old Node...\t");
 2053              		.loc 1 831 73 view .LVU485
 2054 0136 4E48     		ldr	r0, .L150+40
 2055 0138 FFF7FEFF 		bl	logPC
 2056              	.LVL177:
 2057 013c E5E7     		b	.L139
 2058              	.L140:
 835:Core/Src/freertos.c ****       else                                      logPC("Link Queue Full\n");
 2059              		.loc 1 835 49 view .LVU486
 2060 013e 4D48     		ldr	r0, .L150+44
 2061 0140 FFF7FEFF 		bl	logPC
 2062              	.LVL178:
 2063 0144 7CE0     		b	.L141
 2064              	.LVL179:
 2065              	.L129:
 2066              		.loc 1 835 49 is_stmt 0 view .LVU487
 2067              	.LBE12:
 2068              	.LBB16:
 836:Core/Src/freertos.c ****       break;
 837:Core/Src/freertos.c ****     }
 838:Core/Src/freertos.c ****     case PACKET_ID_1: {
 839:Core/Src/freertos.c ****       if (len != sizeof(Data_Packet_t)) break;
ARM GAS  C:\Users\Vento\AppData\Local\Temp\ccuo4SjY.s 			page 56


 2069              		.loc 1 839 7 is_stmt 1 view .LVU488
 2070              		.loc 1 839 10 is_stmt 0 view .LVU489
 2071 0146 1A29     		cmp	r1, #26
 2072 0148 7AD1     		bne	.L141
 840:Core/Src/freertos.c ****       logPC("Data Packet\t");
 2073              		.loc 1 840 7 is_stmt 1 view .LVU490
 2074 014a 4B48     		ldr	r0, .L150+48
 2075              	.LVL180:
 2076              		.loc 1 840 7 is_stmt 0 view .LVU491
 2077 014c FFF7FEFF 		bl	logPC
 2078              	.LVL181:
 841:Core/Src/freertos.c ****       Data_Struct_t data_recv;
 2079              		.loc 1 841 7 is_stmt 1 view .LVU492
 842:Core/Src/freertos.c ****       memcpy((uint8_t *)&data_recv, (uint8_t *)&data[2], sizeof(Data_Struct_t));
 2080              		.loc 1 842 7 view .LVU493
 2081 0150 0DF1180C 		add	ip, sp, #24
 2082 0154 D4F80200 		ldr	r0, [r4, #2]	@ unaligned
 2083 0158 D4F80610 		ldr	r1, [r4, #6]	@ unaligned
 2084 015c D4F80A20 		ldr	r2, [r4, #10]	@ unaligned
 2085 0160 D4F80E30 		ldr	r3, [r4, #14]	@ unaligned
 2086 0164 ACE80F00 		stmia	ip!, {r0, r1, r2, r3}
 2087 0168 D4F81200 		ldr	r0, [r4, #18]	@ unaligned
 2088 016c D4F81610 		ldr	r1, [r4, #22]	@ unaligned
 2089 0170 ACE80300 		stmia	ip!, {r0, r1}
 843:Core/Src/freertos.c ****       if (is_Node_ID_inNetwork(data_recv.Link.Node_ID) == true)
 2090              		.loc 1 843 7 view .LVU494
 2091              		.loc 1 843 11 is_stmt 0 view .LVU495
 2092 0174 BDF81800 		ldrh	r0, [sp, #24]
 2093 0178 FFF7FEFF 		bl	is_Node_ID_inNetwork
 2094              	.LVL182:
 2095              		.loc 1 843 10 view .LVU496
 2096 017c 0028     		cmp	r0, #0
 2097 017e 34D0     		beq	.L143
 2098              	.LBB17:
 844:Core/Src/freertos.c ****       {
 845:Core/Src/freertos.c ****         logPC("Node Registered -> Saving data...\t%s", (App_Save_Data(data_recv))? ("Success\t"):("
 2099              		.loc 1 845 9 is_stmt 1 view .LVU497
 2100              		.loc 1 845 57 is_stmt 0 view .LVU498
 2101 0180 0CAB     		add	r3, sp, #48
 2102 0182 13E90300 		ldmdb	r3, {r0, r1}
 2103 0186 8DE80300 		stm	sp, {r0, r1}
 2104 018a 06AB     		add	r3, sp, #24
 2105 018c 0FCB     		ldm	r3, {r0, r1, r2, r3}
 2106 018e FFF7FEFF 		bl	App_Save_Data
 2107              	.LVL183:
 2108              		.loc 1 845 9 view .LVU499
 2109 0192 40B3     		cbz	r0, .L147
 2110 0194 3949     		ldr	r1, .L150+52
 2111              	.L144:
 2112              		.loc 1 845 9 discriminator 4 view .LVU500
 2113 0196 3A48     		ldr	r0, .L150+56
 2114 0198 FFF7FEFF 		bl	logPC
 2115              	.LVL184:
 846:Core/Src/freertos.c ****         ResponsePacket_t resp = {PACKET_ID_2, data_recv.Link.Node_ID, NORMAL_MODE, 180U, (uint16_t)
 2116              		.loc 1 846 9 is_stmt 1 discriminator 4 view .LVU501
 2117              		.loc 1 846 26 is_stmt 0 discriminator 4 view .LVU502
 2118 019c 45F25553 		movw	r3, #21845
ARM GAS  C:\Users\Vento\AppData\Local\Temp\ccuo4SjY.s 			page 57


 2119 01a0 ADF80C30 		strh	r3, [sp, #12]	@ movhi
 2120              		.loc 1 846 61 discriminator 4 view .LVU503
 2121 01a4 BDF81830 		ldrh	r3, [sp, #24]
 2122              		.loc 1 846 26 discriminator 4 view .LVU504
 2123 01a8 ADF80E30 		strh	r3, [sp, #14]	@ movhi
 2124 01ac 0423     		movs	r3, #4
 2125 01ae ADF81030 		strh	r3, [sp, #16]	@ movhi
 2126 01b2 B423     		movs	r3, #180
 2127 01b4 ADF81230 		strh	r3, [sp, #18]	@ movhi
 2128 01b8 AB23     		movs	r3, #171
 2129 01ba ADF81430 		strh	r3, [sp, #20]	@ movhi
 847:Core/Src/freertos.c ****         logPC("Response Ready...\t");
 2130              		.loc 1 847 9 is_stmt 1 discriminator 4 view .LVU505
 2131 01be 2648     		ldr	r0, .L150+16
 2132 01c0 FFF7FEFF 		bl	logPC
 2133              	.LVL185:
 848:Core/Src/freertos.c ****         if (listen_before_talk() == false)  break;
 2134              		.loc 1 848 9 discriminator 4 view .LVU506
 2135              		.loc 1 848 13 is_stmt 0 discriminator 4 view .LVU507
 2136 01c4 FFF7FEFF 		bl	listen_before_talk
 2137              	.LVL186:
 2138              		.loc 1 848 12 discriminator 4 view .LVU508
 2139 01c8 0028     		cmp	r0, #0
 2140 01ca 39D0     		beq	.L141
 849:Core/Src/freertos.c ****         else  {logPC("Sending packet...\n"); sx1278_send_data(&resp, sizeof(ResponsePacket_t));}
 2141              		.loc 1 849 16 is_stmt 1 view .LVU509
 2142 01cc 2348     		ldr	r0, .L150+20
 2143 01ce FFF7FEFF 		bl	logPC
 2144              	.LVL187:
 2145              		.loc 1 849 46 view .LVU510
 2146 01d2 0A21     		movs	r1, #10
 2147 01d4 03A8     		add	r0, sp, #12
 2148 01d6 FFF7FEFF 		bl	sx1278_send_data
 2149              	.LVL188:
 850:Core/Src/freertos.c ****         logPC("Done!\n");
 2150              		.loc 1 850 9 view .LVU511
 2151 01da 2A48     		ldr	r0, .L150+60
 2152 01dc FFF7FEFF 		bl	logPC
 2153              	.LVL189:
 851:Core/Src/freertos.c ****         sx1278_start_recv_data();
 2154              		.loc 1 851 9 view .LVU512
 2155 01e0 FFF7FEFF 		bl	sx1278_start_recv_data
 2156              	.LVL190:
 2157              	.LBE17:
 2158 01e4 2CE0     		b	.L141
 2159              	.L147:
 2160              	.LBB18:
 845:Core/Src/freertos.c ****         ResponsePacket_t resp = {PACKET_ID_2, data_recv.Link.Node_ID, NORMAL_MODE, 180U, (uint16_t)
 2161              		.loc 1 845 9 is_stmt 0 view .LVU513
 2162 01e6 2849     		ldr	r1, .L150+64
 2163 01e8 D5E7     		b	.L144
 2164              	.L143:
 2165              	.LBE18:
 2166              	.LBB19:
 852:Core/Src/freertos.c ****       }
 853:Core/Src/freertos.c ****       else
 854:Core/Src/freertos.c ****       {
ARM GAS  C:\Users\Vento\AppData\Local\Temp\ccuo4SjY.s 			page 58


 855:Core/Src/freertos.c ****         logPC("Node Unregister -> Demote Node...\t");
 2167              		.loc 1 855 9 is_stmt 1 view .LVU514
 2168 01ea 2848     		ldr	r0, .L150+68
 2169 01ec FFF7FEFF 		bl	logPC
 2170              	.LVL191:
 856:Core/Src/freertos.c ****         ResponsePacket_t resp = {PACKET_ID_2, data_recv.Link.Node_ID, NORMAL_MODE, 180U, (uint16_t)
 2171              		.loc 1 856 9 view .LVU515
 2172              		.loc 1 856 26 is_stmt 0 view .LVU516
 2173 01f0 45F25553 		movw	r3, #21845
 2174 01f4 ADF80C30 		strh	r3, [sp, #12]	@ movhi
 2175              		.loc 1 856 61 view .LVU517
 2176 01f8 BDF81830 		ldrh	r3, [sp, #24]
 2177              		.loc 1 856 26 view .LVU518
 2178 01fc ADF80E30 		strh	r3, [sp, #14]	@ movhi
 2179 0200 0423     		movs	r3, #4
 2180 0202 ADF81030 		strh	r3, [sp, #16]	@ movhi
 2181 0206 B423     		movs	r3, #180
 2182 0208 ADF81230 		strh	r3, [sp, #18]	@ movhi
 2183 020c 4FF6AB73 		movw	r3, #65451
 2184 0210 ADF81430 		strh	r3, [sp, #20]	@ movhi
 857:Core/Src/freertos.c ****         logPC("Response Ready...\t");
 2185              		.loc 1 857 9 is_stmt 1 view .LVU519
 2186 0214 1048     		ldr	r0, .L150+16
 2187 0216 FFF7FEFF 		bl	logPC
 2188              	.LVL192:
 858:Core/Src/freertos.c ****         if (listen_before_talk() == false)  break;
 2189              		.loc 1 858 9 view .LVU520
 2190              		.loc 1 858 13 is_stmt 0 view .LVU521
 2191 021a FFF7FEFF 		bl	listen_before_talk
 2192              	.LVL193:
 2193              		.loc 1 858 12 view .LVU522
 2194 021e 78B1     		cbz	r0, .L141
 859:Core/Src/freertos.c ****         else  {logPC("Sending packet...\n"); sx1278_send_data(&resp, sizeof(ResponsePacket_t));}
 2195              		.loc 1 859 16 is_stmt 1 view .LVU523
 2196 0220 0E48     		ldr	r0, .L150+20
 2197 0222 FFF7FEFF 		bl	logPC
 2198              	.LVL194:
 2199              		.loc 1 859 46 view .LVU524
 2200 0226 0A21     		movs	r1, #10
 2201 0228 03A8     		add	r0, sp, #12
 2202 022a FFF7FEFF 		bl	sx1278_send_data
 2203              	.LVL195:
 860:Core/Src/freertos.c ****         logPC("Done!\n");
 2204              		.loc 1 860 9 view .LVU525
 2205 022e 1548     		ldr	r0, .L150+60
 2206 0230 FFF7FEFF 		bl	logPC
 2207              	.LVL196:
 861:Core/Src/freertos.c ****         sx1278_start_recv_data();
 2208              		.loc 1 861 9 view .LVU526
 2209 0234 FFF7FEFF 		bl	sx1278_start_recv_data
 2210              	.LVL197:
 2211 0238 02E0     		b	.L141
 2212              	.LVL198:
 2213              	.L130:
 2214              		.loc 1 861 9 is_stmt 0 view .LVU527
 2215              	.LBE19:
 2216              	.LBE16:
ARM GAS  C:\Users\Vento\AppData\Local\Temp\ccuo4SjY.s 			page 59


 862:Core/Src/freertos.c ****       }
 863:Core/Src/freertos.c ****       break;
 864:Core/Src/freertos.c ****     }
 865:Core/Src/freertos.c ****     default: {
 866:Core/Src/freertos.c ****       logPC("???? Packet\n");
 2217              		.loc 1 866 7 is_stmt 1 view .LVU528
 2218 023a 1548     		ldr	r0, .L150+72
 2219              	.LVL199:
 2220              		.loc 1 866 7 is_stmt 0 view .LVU529
 2221 023c FFF7FEFF 		bl	logPC
 2222              	.LVL200:
 867:Core/Src/freertos.c ****       break;
 2223              		.loc 1 867 7 is_stmt 1 view .LVU530
 2224              	.L141:
 868:Core/Src/freertos.c ****     }
 869:Core/Src/freertos.c ****   }
 870:Core/Src/freertos.c ****   return NULL;
 2225              		.loc 1 870 3 view .LVU531
 871:Core/Src/freertos.c **** }
 2226              		.loc 1 871 1 is_stmt 0 view .LVU532
 2227 0240 0020     		movs	r0, #0
 2228 0242 0CB0     		add	sp, sp, #48
 2229              	.LCFI30:
 2230              		.cfi_def_cfa_offset 8
 2231              		@ sp needed
 2232 0244 10BD     		pop	{r4, pc}
 2233              	.L151:
 2234 0246 00BF     		.align	2
 2235              	.L150:
 2236 0248 14000000 		.word	.LC12
 2237 024c 00000000 		.word	.LANCHOR24
 2238 0250 50000000 		.word	.LC14
 2239 0254 24000000 		.word	.LC13
 2240 0258 68000000 		.word	.LC15
 2241 025c 7C000000 		.word	.LC16
 2242 0260 90000000 		.word	.LC17
 2243 0264 00000000 		.word	.LANCHOR23
 2244 0268 00000000 		.word	.LANCHOR28
 2245 026c BC000000 		.word	.LC19
 2246 0270 AC000000 		.word	.LC18
 2247 0274 D8000000 		.word	.LC20
 2248 0278 EC000000 		.word	.LC21
 2249 027c 08000000 		.word	.LC11
 2250 0280 FC000000 		.word	.LC22
 2251 0284 24010000 		.word	.LC23
 2252 0288 00000000 		.word	.LC10
 2253 028c 2C010000 		.word	.LC24
 2254 0290 50010000 		.word	.LC25
 2255              		.cfi_endproc
 2256              	.LFE88:
 2258              		.section	.rodata.Task2Func.str1.4,"aMS",%progbits,1
 2259              		.align	2
 2260              	.LC26:
 2261 0000 4C6F5261 		.ascii	"LoRa Received %d byte(s)\011rssi: %d\011snr: %2.1f\012"
 2261      20526563 
 2261      65697665 
 2261      64202564 
ARM GAS  C:\Users\Vento\AppData\Local\Temp\ccuo4SjY.s 			page 60


 2261      20627974 
 2262 002d 00       		.ascii	"\000"
 2263 002e 0000     		.align	2
 2264              	.LC27:
 2265 0030 4C6F5261 		.ascii	"LoRa payload:\011\000"
 2265      20706179 
 2265      6C6F6164 
 2265      3A0900
 2266 003f 00       		.align	2
 2267              	.LC28:
 2268 0040 25303258 		.ascii	"%02X \000"
 2268      2000
 2269              		.section	.text.Task2Func,"ax",%progbits
 2270              		.align	1
 2271              		.global	Task2Func
 2272              		.syntax unified
 2273              		.thumb
 2274              		.thumb_func
 2275              		.fpu softvfp
 2277              	Task2Func:
 2278              	.LVL201:
 2279              	.LFB77:
 567:Core/Src/freertos.c ****   /* USER CODE BEGIN Task2Func */
 2280              		.loc 1 567 1 is_stmt 1 view -0
 2281              		.cfi_startproc
 2282              		@ args = 0, pretend = 0, frame = 0
 2283              		@ frame_needed = 0, uses_anonymous_args = 0
 567:Core/Src/freertos.c ****   /* USER CODE BEGIN Task2Func */
 2284              		.loc 1 567 1 is_stmt 0 view .LVU534
 2285 0000 30B5     		push	{r4, r5, lr}
 2286              	.LCFI31:
 2287              		.cfi_def_cfa_offset 12
 2288              		.cfi_offset 4, -12
 2289              		.cfi_offset 5, -8
 2290              		.cfi_offset 14, -4
 2291 0002 83B0     		sub	sp, sp, #12
 2292              	.LCFI32:
 2293              		.cfi_def_cfa_offset 24
 569:Core/Src/freertos.c ****   static uint8_t data[100] = {0};
 2294              		.loc 1 569 3 is_stmt 1 view .LVU535
 2295 0004 4FF4FA60 		mov	r0, #2000
 2296              	.LVL202:
 569:Core/Src/freertos.c ****   static uint8_t data[100] = {0};
 2297              		.loc 1 569 3 is_stmt 0 view .LVU536
 2298 0008 FFF7FEFF 		bl	osDelay
 2299              	.LVL203:
 570:Core/Src/freertos.c ****   static uint32_t nByteRx = 0;
 2300              		.loc 1 570 3 is_stmt 1 view .LVU537
 571:Core/Src/freertos.c ****   static int rssi = -1;
 2301              		.loc 1 571 3 view .LVU538
 572:Core/Src/freertos.c ****   static float snr = -1;
 2302              		.loc 1 572 3 view .LVU539
 573:Core/Src/freertos.c ****   static EventBits_t evt_bits;
 2303              		.loc 1 573 3 view .LVU540
 574:Core/Src/freertos.c ****   static void * ptr2payload = NULL;
 2304              		.loc 1 574 3 view .LVU541
 575:Core/Src/freertos.c **** 
ARM GAS  C:\Users\Vento\AppData\Local\Temp\ccuo4SjY.s 			page 61


 2305              		.loc 1 575 3 view .LVU542
 577:Core/Src/freertos.c ****   sx1278_start_recv_data();
 2306              		.loc 1 577 3 view .LVU543
 2307 000c FFF7FEFF 		bl	sx1278_init
 2308              	.LVL204:
 578:Core/Src/freertos.c **** 
 2309              		.loc 1 578 3 view .LVU544
 2310 0010 FFF7FEFF 		bl	sx1278_start_recv_data
 2311              	.LVL205:
 2312 0014 19E0     		b	.L156
 2313              	.LVL206:
 2314              	.L155:
 2315              	.LBB20:
 594:Core/Src/freertos.c ****         }
 2316              		.loc 1 594 11 discriminator 3 view .LVU545
 2317 0016 284B     		ldr	r3, .L158
 2318 0018 195D     		ldrb	r1, [r3, r4]	@ zero_extendqisi2
 2319 001a 2848     		ldr	r0, .L158+4
 2320 001c FFF7FEFF 		bl	logPC
 2321              	.LVL207:
 592:Core/Src/freertos.c ****         {
 2322              		.loc 1 592 38 discriminator 3 view .LVU546
 592:Core/Src/freertos.c ****         {
 2323              		.loc 1 592 39 is_stmt 0 discriminator 3 view .LVU547
 2324 0020 0134     		adds	r4, r4, #1
 2325              	.LVL208:
 2326              	.L154:
 592:Core/Src/freertos.c ****         {
 2327              		.loc 1 592 25 is_stmt 1 discriminator 1 view .LVU548
 592:Core/Src/freertos.c ****         {
 2328              		.loc 1 592 27 is_stmt 0 discriminator 1 view .LVU549
 2329 0022 274B     		ldr	r3, .L158+8
 2330 0024 1968     		ldr	r1, [r3]
 592:Core/Src/freertos.c ****         {
 2331              		.loc 1 592 9 discriminator 1 view .LVU550
 2332 0026 8C42     		cmp	r4, r1
 2333 0028 F5D3     		bcc	.L155
 2334              	.LBE20:
 596:Core/Src/freertos.c ****         // TODO: process payload
 2335              		.loc 1 596 9 is_stmt 1 view .LVU551
 596:Core/Src/freertos.c ****         // TODO: process payload
 2336              		.loc 1 596 23 is_stmt 0 view .LVU552
 2337 002a 2348     		ldr	r0, .L158
 2338 002c FFF7FEFF 		bl	LoRa_Packet_Parser
 2339              	.LVL209:
 596:Core/Src/freertos.c ****         // TODO: process payload
 2340              		.loc 1 596 21 view .LVU553
 2341 0030 244B     		ldr	r3, .L158+12
 2342 0032 1860     		str	r0, [r3]
 2343              	.LVL210:
 2344              	.L153:
 600:Core/Src/freertos.c ****     is_LoRa_processing = false;
 2345              		.loc 1 600 5 is_stmt 1 view .LVU554
 2346 0034 0421     		movs	r1, #4
 2347 0036 244B     		ldr	r3, .L158+16
 2348 0038 1868     		ldr	r0, [r3]
 2349 003a FFF7FEFF 		bl	xEventGroupClearBits
ARM GAS  C:\Users\Vento\AppData\Local\Temp\ccuo4SjY.s 			page 62


 2350              	.LVL211:
 601:Core/Src/freertos.c ****     osDelay(1);
 2351              		.loc 1 601 5 view .LVU555
 601:Core/Src/freertos.c ****     osDelay(1);
 2352              		.loc 1 601 24 is_stmt 0 view .LVU556
 2353 003e 234B     		ldr	r3, .L158+20
 2354 0040 0022     		movs	r2, #0
 2355 0042 1A70     		strb	r2, [r3]
 602:Core/Src/freertos.c ****   }
 2356              		.loc 1 602 5 is_stmt 1 view .LVU557
 2357 0044 0120     		movs	r0, #1
 2358 0046 FFF7FEFF 		bl	osDelay
 2359              	.LVL212:
 581:Core/Src/freertos.c ****   {
 2360              		.loc 1 581 9 view .LVU558
 2361              	.L156:
 581:Core/Src/freertos.c ****   {
 2362              		.loc 1 581 3 view .LVU559
 583:Core/Src/freertos.c ****     evt_bits = xEventGroupWaitBits(evt_group, EVT_LORA, pdTRUE, pdFALSE, portMAX_DELAY);
 2363              		.loc 1 583 5 view .LVU560
 2364 004a 1F4C     		ldr	r4, .L158+16
 2365 004c 0421     		movs	r1, #4
 2366 004e 2068     		ldr	r0, [r4]
 2367 0050 FFF7FEFF 		bl	xEventGroupClearBits
 2368              	.LVL213:
 584:Core/Src/freertos.c **** 
 2369              		.loc 1 584 5 view .LVU561
 584:Core/Src/freertos.c **** 
 2370              		.loc 1 584 16 is_stmt 0 view .LVU562
 2371 0054 4FF0FF33 		mov	r3, #-1
 2372 0058 0093     		str	r3, [sp]
 2373 005a 0023     		movs	r3, #0
 2374 005c 0122     		movs	r2, #1
 2375 005e 0421     		movs	r1, #4
 2376 0060 2068     		ldr	r0, [r4]
 2377 0062 FFF7FEFF 		bl	xEventGroupWaitBits
 2378              	.LVL214:
 584:Core/Src/freertos.c **** 
 2379              		.loc 1 584 14 view .LVU563
 2380 0066 1A4B     		ldr	r3, .L158+24
 2381 0068 1860     		str	r0, [r3]
 586:Core/Src/freertos.c ****     {
 2382              		.loc 1 586 5 is_stmt 1 view .LVU564
 586:Core/Src/freertos.c ****     {
 2383              		.loc 1 586 7 is_stmt 0 view .LVU565
 2384 006a 10F0040F 		tst	r0, #4
 2385 006e E1D0     		beq	.L153
 586:Core/Src/freertos.c ****     {
 2386              		.loc 1 586 42 discriminator 1 view .LVU566
 2387 0070 2021     		movs	r1, #32
 2388 0072 1848     		ldr	r0, .L158+28
 2389 0074 FFF7FEFF 		bl	HAL_GPIO_ReadPin
 2390              	.LVL215:
 586:Core/Src/freertos.c ****     {
 2391              		.loc 1 586 38 discriminator 1 view .LVU567
 2392 0078 0128     		cmp	r0, #1
 2393 007a DBD1     		bne	.L153
ARM GAS  C:\Users\Vento\AppData\Local\Temp\ccuo4SjY.s 			page 63


 588:Core/Src/freertos.c ****       {
 2394              		.loc 1 588 7 is_stmt 1 view .LVU568
 588:Core/Src/freertos.c ****       {
 2395              		.loc 1 588 11 is_stmt 0 view .LVU569
 2396 007c 0123     		movs	r3, #1
 2397 007e 0093     		str	r3, [sp]
 2398 0080 154B     		ldr	r3, .L158+32
 2399 0082 164A     		ldr	r2, .L158+36
 2400 0084 0E49     		ldr	r1, .L158+8
 2401 0086 0C48     		ldr	r0, .L158
 2402 0088 FFF7FEFF 		bl	sx1278_recv_data
 2403              	.LVL216:
 588:Core/Src/freertos.c ****       {
 2404              		.loc 1 588 10 view .LVU570
 2405 008c 0028     		cmp	r0, #0
 2406 008e D1D1     		bne	.L153
 590:Core/Src/freertos.c ****         logPC("LoRa payload:\t");
 2407              		.loc 1 590 9 is_stmt 1 view .LVU571
 2408 0090 124B     		ldr	r3, .L158+36
 2409 0092 1D68     		ldr	r5, [r3]
 2410 0094 0A4B     		ldr	r3, .L158+8
 2411 0096 1C68     		ldr	r4, [r3]
 2412 0098 0F4B     		ldr	r3, .L158+32
 2413 009a 1868     		ldr	r0, [r3]	@ float
 2414 009c FFF7FEFF 		bl	__aeabi_f2d
 2415              	.LVL217:
 2416 00a0 CDE90001 		strd	r0, [sp]
 2417 00a4 2A46     		mov	r2, r5
 2418 00a6 2146     		mov	r1, r4
 2419 00a8 0D48     		ldr	r0, .L158+40
 2420 00aa FFF7FEFF 		bl	logPC
 2421              	.LVL218:
 591:Core/Src/freertos.c ****         for (int i = 0; i < nByteRx; i++)
 2422              		.loc 1 591 9 view .LVU572
 2423 00ae 0D48     		ldr	r0, .L158+44
 2424 00b0 FFF7FEFF 		bl	logPC
 2425              	.LVL219:
 592:Core/Src/freertos.c ****         {
 2426              		.loc 1 592 9 view .LVU573
 2427              	.LBB21:
 592:Core/Src/freertos.c ****         {
 2428              		.loc 1 592 14 view .LVU574
 592:Core/Src/freertos.c ****         {
 2429              		.loc 1 592 18 is_stmt 0 view .LVU575
 2430 00b4 0024     		movs	r4, #0
 592:Core/Src/freertos.c ****         {
 2431              		.loc 1 592 9 view .LVU576
 2432 00b6 B4E7     		b	.L154
 2433              	.L159:
 2434              		.align	2
 2435              	.L158:
 2436 00b8 00000000 		.word	.LANCHOR34
 2437 00bc 40000000 		.word	.LC28
 2438 00c0 00000000 		.word	.LANCHOR33
 2439 00c4 00000000 		.word	.LANCHOR35
 2440 00c8 00000000 		.word	.LANCHOR8
 2441 00cc 00000000 		.word	.LANCHOR7
ARM GAS  C:\Users\Vento\AppData\Local\Temp\ccuo4SjY.s 			page 64


 2442 00d0 00000000 		.word	.LANCHOR30
 2443 00d4 00100140 		.word	1073811456
 2444 00d8 00000000 		.word	.LANCHOR31
 2445 00dc 00000000 		.word	.LANCHOR32
 2446 00e0 00000000 		.word	.LC26
 2447 00e4 30000000 		.word	.LC27
 2448              	.LBE21:
 2449              		.cfi_endproc
 2450              	.LFE77:
 2452              		.section	.text.HAL_GPIO_EXTI_Callback,"ax",%progbits
 2453              		.align	1
 2454              		.global	HAL_GPIO_EXTI_Callback
 2455              		.syntax unified
 2456              		.thumb
 2457              		.thumb_func
 2458              		.fpu softvfp
 2460              	HAL_GPIO_EXTI_Callback:
 2461              	.LVL220:
 2462              	.LFB89:
 872:Core/Src/freertos.c **** 
 873:Core/Src/freertos.c **** //-------------------------------------------------------------------------------------------------
 874:Core/Src/freertos.c **** 
 875:Core/Src/freertos.c **** void HAL_GPIO_EXTI_Callback(uint16_t GPIO_Pin)
 876:Core/Src/freertos.c **** {
 2463              		.loc 1 876 1 is_stmt 1 view -0
 2464              		.cfi_startproc
 2465              		@ args = 0, pretend = 0, frame = 0
 2466              		@ frame_needed = 0, uses_anonymous_args = 0
 2467              		.loc 1 876 1 is_stmt 0 view .LVU578
 2468 0000 10B5     		push	{r4, lr}
 2469              	.LCFI33:
 2470              		.cfi_def_cfa_offset 8
 2471              		.cfi_offset 4, -8
 2472              		.cfi_offset 14, -4
 2473 0002 0446     		mov	r4, r0
 877:Core/Src/freertos.c ****   if ((GPIO_Pin == LoRa_EXT0_Pin) && (HAL_GPIO_ReadPin(LoRa_EXT0_GPIO_Port, LoRa_EXT0_Pin) == GPIO_
 2474              		.loc 1 877 3 is_stmt 1 view .LVU579
 2475              		.loc 1 877 6 is_stmt 0 view .LVU580
 2476 0004 2028     		cmp	r0, #32
 2477 0006 02D0     		beq	.L164
 2478              	.LVL221:
 2479              	.L161:
 878:Core/Src/freertos.c ****   {
 879:Core/Src/freertos.c ****     xEventGroupSetBitsFromISR(evt_group, EVT_LORA, &xHigherPriorityTaskWoken);
 880:Core/Src/freertos.c ****     is_LoRa_processing = true;
 881:Core/Src/freertos.c ****   }
 882:Core/Src/freertos.c **** 
 883:Core/Src/freertos.c ****   if ((GPIO_Pin == Touch_EXT_Pin) && (HAL_GPIO_ReadPin(Touch_EXT_GPIO_Port, Touch_EXT_Pin) == GPIO_
 2480              		.loc 1 883 3 is_stmt 1 view .LVU581
 2481              		.loc 1 883 6 is_stmt 0 view .LVU582
 2482 0008 402C     		cmp	r4, #64
 2483 000a 14D0     		beq	.L165
 2484              	.L160:
 884:Core/Src/freertos.c ****   {
 885:Core/Src/freertos.c ****     xEventGroupSetBitsFromISR(evt_group, EVT_TOCUH, &xHigherPriorityTaskWoken);
 886:Core/Src/freertos.c ****     is_LCD_processing = true;
 887:Core/Src/freertos.c ****   }
ARM GAS  C:\Users\Vento\AppData\Local\Temp\ccuo4SjY.s 			page 65


 888:Core/Src/freertos.c **** }
 2485              		.loc 1 888 1 view .LVU583
 2486 000c 10BD     		pop	{r4, pc}
 2487              	.LVL222:
 2488              	.L164:
 877:Core/Src/freertos.c ****   {
 2489              		.loc 1 877 39 discriminator 1 view .LVU584
 2490 000e 2021     		movs	r1, #32
 2491 0010 1348     		ldr	r0, .L166
 2492              	.LVL223:
 877:Core/Src/freertos.c ****   {
 2493              		.loc 1 877 39 discriminator 1 view .LVU585
 2494 0012 FFF7FEFF 		bl	HAL_GPIO_ReadPin
 2495              	.LVL224:
 877:Core/Src/freertos.c ****   {
 2496              		.loc 1 877 35 discriminator 1 view .LVU586
 2497 0016 0128     		cmp	r0, #1
 2498 0018 F6D1     		bne	.L161
 877:Core/Src/freertos.c ****   {
 2499              		.loc 1 877 132 discriminator 2 view .LVU587
 2500 001a 124B     		ldr	r3, .L166+4
 2501 001c 1B78     		ldrb	r3, [r3]	@ zero_extendqisi2
 877:Core/Src/freertos.c ****   {
 2502              		.loc 1 877 109 discriminator 2 view .LVU588
 2503 001e 002B     		cmp	r3, #0
 2504 0020 F2D1     		bne	.L161
 879:Core/Src/freertos.c ****     is_LoRa_processing = true;
 2505              		.loc 1 879 5 is_stmt 1 view .LVU589
 2506 0022 114A     		ldr	r2, .L166+8
 2507 0024 0421     		movs	r1, #4
 2508 0026 114B     		ldr	r3, .L166+12
 2509 0028 1868     		ldr	r0, [r3]
 2510 002a FFF7FEFF 		bl	xEventGroupSetBitsFromISR
 2511              	.LVL225:
 880:Core/Src/freertos.c ****   }
 2512              		.loc 1 880 5 view .LVU590
 880:Core/Src/freertos.c ****   }
 2513              		.loc 1 880 24 is_stmt 0 view .LVU591
 2514 002e 0D4B     		ldr	r3, .L166+4
 2515 0030 0122     		movs	r2, #1
 2516 0032 1A70     		strb	r2, [r3]
 2517 0034 E8E7     		b	.L161
 2518              	.L165:
 883:Core/Src/freertos.c ****   {
 2519              		.loc 1 883 39 discriminator 1 view .LVU592
 2520 0036 4021     		movs	r1, #64
 2521 0038 0948     		ldr	r0, .L166
 2522 003a FFF7FEFF 		bl	HAL_GPIO_ReadPin
 2523              	.LVL226:
 883:Core/Src/freertos.c ****   {
 2524              		.loc 1 883 35 discriminator 1 view .LVU593
 2525 003e 0028     		cmp	r0, #0
 2526 0040 E4D1     		bne	.L160
 883:Core/Src/freertos.c ****   {
 2527              		.loc 1 883 133 discriminator 2 view .LVU594
 2528 0042 0B4B     		ldr	r3, .L166+16
 2529 0044 1B78     		ldrb	r3, [r3]	@ zero_extendqisi2
ARM GAS  C:\Users\Vento\AppData\Local\Temp\ccuo4SjY.s 			page 66


 883:Core/Src/freertos.c ****   {
 2530              		.loc 1 883 111 discriminator 2 view .LVU595
 2531 0046 002B     		cmp	r3, #0
 2532 0048 E0D1     		bne	.L160
 885:Core/Src/freertos.c ****     is_LCD_processing = true;
 2533              		.loc 1 885 5 is_stmt 1 view .LVU596
 2534 004a 074A     		ldr	r2, .L166+8
 2535 004c 0221     		movs	r1, #2
 2536 004e 074B     		ldr	r3, .L166+12
 2537 0050 1868     		ldr	r0, [r3]
 2538 0052 FFF7FEFF 		bl	xEventGroupSetBitsFromISR
 2539              	.LVL227:
 886:Core/Src/freertos.c ****   }
 2540              		.loc 1 886 5 view .LVU597
 886:Core/Src/freertos.c ****   }
 2541              		.loc 1 886 23 is_stmt 0 view .LVU598
 2542 0056 064B     		ldr	r3, .L166+16
 2543 0058 0122     		movs	r2, #1
 2544 005a 1A70     		strb	r2, [r3]
 2545              		.loc 1 888 1 view .LVU599
 2546 005c D6E7     		b	.L160
 2547              	.L167:
 2548 005e 00BF     		.align	2
 2549              	.L166:
 2550 0060 00100140 		.word	1073811456
 2551 0064 00000000 		.word	.LANCHOR7
 2552 0068 00000000 		.word	.LANCHOR25
 2553 006c 00000000 		.word	.LANCHOR8
 2554 0070 00000000 		.word	.LANCHOR6
 2555              		.cfi_endproc
 2556              	.LFE89:
 2558              		.section	.text.HAL_UART_RxCpltCallback,"ax",%progbits
 2559              		.align	1
 2560              		.global	HAL_UART_RxCpltCallback
 2561              		.syntax unified
 2562              		.thumb
 2563              		.thumb_func
 2564              		.fpu softvfp
 2566              	HAL_UART_RxCpltCallback:
 2567              	.LVL228:
 2568              	.LFB90:
 889:Core/Src/freertos.c **** 
 890:Core/Src/freertos.c **** void HAL_UART_RxCpltCallback(UART_HandleTypeDef *huart)
 891:Core/Src/freertos.c **** {
 2569              		.loc 1 891 1 is_stmt 1 view -0
 2570              		.cfi_startproc
 2571              		@ args = 0, pretend = 0, frame = 0
 2572              		@ frame_needed = 0, uses_anonymous_args = 0
 2573              		.loc 1 891 1 is_stmt 0 view .LVU601
 2574 0000 10B5     		push	{r4, lr}
 2575              	.LCFI34:
 2576              		.cfi_def_cfa_offset 8
 2577              		.cfi_offset 4, -8
 2578              		.cfi_offset 14, -4
 2579 0002 0446     		mov	r4, r0
 892:Core/Src/freertos.c ****   if (huart->Instance == USART1)
 2580              		.loc 1 892 3 is_stmt 1 view .LVU602
ARM GAS  C:\Users\Vento\AppData\Local\Temp\ccuo4SjY.s 			page 67


 2581              		.loc 1 892 12 is_stmt 0 view .LVU603
 2582 0004 0268     		ldr	r2, [r0]
 2583              		.loc 1 892 6 view .LVU604
 2584 0006 304B     		ldr	r3, .L178
 2585 0008 9A42     		cmp	r2, r3
 2586 000a 04D0     		beq	.L174
 2587              	.LVL229:
 2588              	.L169:
 893:Core/Src/freertos.c ****   {
 894:Core/Src/freertos.c ****     HAL_TIM_Base_Stop_IT(&htim7);
 895:Core/Src/freertos.c ****     if ((is_UART1_RX_Done == true) && (rxIndexUART1 == 1))
 896:Core/Src/freertos.c ****     {
 897:Core/Src/freertos.c ****       HAL_GPIO_WritePin(LED0_GPIO_Port, LED0_Pin, GPIO_PIN_RESET);
 898:Core/Src/freertos.c ****       __HAL_TIM_CLEAR_IT(&htim7, TIM_IT_BREAK);
 899:Core/Src/freertos.c ****       is_UART1_RX_Done = false;
 900:Core/Src/freertos.c ****     }
 901:Core/Src/freertos.c ****     __HAL_TIM_SetCounter(&htim7, 0U);
 902:Core/Src/freertos.c ****     HAL_TIM_Base_Start_IT(&htim7);
 903:Core/Src/freertos.c ****     HAL_UART_Receive_IT(&huart1, &rxBufferUART1[rxIndexUART1++], sizeof(uint8_t));
 904:Core/Src/freertos.c ****   }
 905:Core/Src/freertos.c **** 
 906:Core/Src/freertos.c ****   if (huart->Instance == USART2)
 2589              		.loc 1 906 3 is_stmt 1 view .LVU605
 2590              		.loc 1 906 12 is_stmt 0 view .LVU606
 2591 000c 2268     		ldr	r2, [r4]
 2592              		.loc 1 906 6 view .LVU607
 2593 000e 2F4B     		ldr	r3, .L178+4
 2594 0010 9A42     		cmp	r2, r3
 2595 0012 2CD0     		beq	.L175
 2596              	.L168:
 907:Core/Src/freertos.c ****   {
 908:Core/Src/freertos.c ****     HAL_TIM_Base_Stop_IT(&htim6);
 909:Core/Src/freertos.c ****     if ((is_UART2_RX_Done == true) && (rxIndexUART2 == 1))
 910:Core/Src/freertos.c ****     {
 911:Core/Src/freertos.c ****       HAL_GPIO_WritePin(LED0_GPIO_Port, LED0_Pin, GPIO_PIN_RESET);
 912:Core/Src/freertos.c ****       __HAL_TIM_CLEAR_IT(&htim6, TIM_IT_BREAK);
 913:Core/Src/freertos.c ****       is_UART2_RX_Done = false;
 914:Core/Src/freertos.c ****     }
 915:Core/Src/freertos.c ****     __HAL_TIM_SetCounter(&htim6, 0U);
 916:Core/Src/freertos.c ****     HAL_TIM_Base_Start_IT(&htim6);
 917:Core/Src/freertos.c ****     HAL_UART_Receive_IT(&huart2, &rxBufferUART2[rxIndexUART2++], sizeof(uint8_t));
 918:Core/Src/freertos.c ****   }
 919:Core/Src/freertos.c **** }
 2597              		.loc 1 919 1 view .LVU608
 2598 0014 10BD     		pop	{r4, pc}
 2599              	.LVL230:
 2600              	.L174:
 894:Core/Src/freertos.c ****     if ((is_UART1_RX_Done == true) && (rxIndexUART1 == 1))
 2601              		.loc 1 894 5 is_stmt 1 view .LVU609
 2602 0016 2E48     		ldr	r0, .L178+8
 2603              	.LVL231:
 894:Core/Src/freertos.c ****     if ((is_UART1_RX_Done == true) && (rxIndexUART1 == 1))
 2604              		.loc 1 894 5 is_stmt 0 view .LVU610
 2605 0018 FFF7FEFF 		bl	HAL_TIM_Base_Stop_IT
 2606              	.LVL232:
 895:Core/Src/freertos.c ****     {
 2607              		.loc 1 895 5 is_stmt 1 view .LVU611
ARM GAS  C:\Users\Vento\AppData\Local\Temp\ccuo4SjY.s 			page 68


 895:Core/Src/freertos.c ****     {
 2608              		.loc 1 895 27 is_stmt 0 view .LVU612
 2609 001c 2D4B     		ldr	r3, .L178+12
 2610 001e 1B78     		ldrb	r3, [r3]	@ zero_extendqisi2
 895:Core/Src/freertos.c ****     {
 2611              		.loc 1 895 8 view .LVU613
 2612 0020 23B1     		cbz	r3, .L170
 895:Core/Src/freertos.c ****     {
 2613              		.loc 1 895 53 discriminator 1 view .LVU614
 2614 0022 2D4B     		ldr	r3, .L178+16
 2615 0024 1B78     		ldrb	r3, [r3]	@ zero_extendqisi2
 2616 0026 DBB2     		uxtb	r3, r3
 895:Core/Src/freertos.c ****     {
 2617              		.loc 1 895 36 discriminator 1 view .LVU615
 2618 0028 012B     		cmp	r3, #1
 2619 002a 11D0     		beq	.L176
 2620              	.L170:
 901:Core/Src/freertos.c ****     HAL_TIM_Base_Start_IT(&htim7);
 2621              		.loc 1 901 5 is_stmt 1 view .LVU616
 2622 002c 2848     		ldr	r0, .L178+8
 2623 002e 0368     		ldr	r3, [r0]
 2624 0030 0022     		movs	r2, #0
 2625 0032 5A62     		str	r2, [r3, #36]
 902:Core/Src/freertos.c ****     HAL_UART_Receive_IT(&huart1, &rxBufferUART1[rxIndexUART1++], sizeof(uint8_t));
 2626              		.loc 1 902 5 view .LVU617
 2627 0034 FFF7FEFF 		bl	HAL_TIM_Base_Start_IT
 2628              	.LVL233:
 903:Core/Src/freertos.c ****   }
 2629              		.loc 1 903 5 view .LVU618
 903:Core/Src/freertos.c ****   }
 2630              		.loc 1 903 61 is_stmt 0 view .LVU619
 2631 0038 274A     		ldr	r2, .L178+16
 2632 003a 1178     		ldrb	r1, [r2]	@ zero_extendqisi2
 2633 003c 4B1C     		adds	r3, r1, #1
 2634 003e DBB2     		uxtb	r3, r3
 2635 0040 1370     		strb	r3, [r2]
 903:Core/Src/freertos.c ****   }
 2636              		.loc 1 903 5 view .LVU620
 2637 0042 0122     		movs	r2, #1
 2638 0044 254B     		ldr	r3, .L178+20
 2639 0046 1944     		add	r1, r1, r3
 2640 0048 2548     		ldr	r0, .L178+24
 2641 004a FFF7FEFF 		bl	HAL_UART_Receive_IT
 2642              	.LVL234:
 2643 004e DDE7     		b	.L169
 2644              	.L176:
 897:Core/Src/freertos.c ****       __HAL_TIM_CLEAR_IT(&htim7, TIM_IT_BREAK);
 2645              		.loc 1 897 7 is_stmt 1 view .LVU621
 2646 0050 0022     		movs	r2, #0
 2647 0052 4FF40051 		mov	r1, #8192
 2648 0056 2348     		ldr	r0, .L178+28
 2649 0058 FFF7FEFF 		bl	HAL_GPIO_WritePin
 2650              	.LVL235:
 898:Core/Src/freertos.c ****       is_UART1_RX_Done = false;
 2651              		.loc 1 898 7 view .LVU622
 2652 005c 1C4B     		ldr	r3, .L178+8
 2653 005e 1B68     		ldr	r3, [r3]
ARM GAS  C:\Users\Vento\AppData\Local\Temp\ccuo4SjY.s 			page 69


 2654 0060 6FF08002 		mvn	r2, #128
 2655 0064 1A61     		str	r2, [r3, #16]
 899:Core/Src/freertos.c ****     }
 2656              		.loc 1 899 7 view .LVU623
 899:Core/Src/freertos.c ****     }
 2657              		.loc 1 899 24 is_stmt 0 view .LVU624
 2658 0066 1B4B     		ldr	r3, .L178+12
 2659 0068 0022     		movs	r2, #0
 2660 006a 1A70     		strb	r2, [r3]
 2661 006c DEE7     		b	.L170
 2662              	.L175:
 908:Core/Src/freertos.c ****     if ((is_UART2_RX_Done == true) && (rxIndexUART2 == 1))
 2663              		.loc 1 908 5 is_stmt 1 view .LVU625
 2664 006e 1E48     		ldr	r0, .L178+32
 2665 0070 FFF7FEFF 		bl	HAL_TIM_Base_Stop_IT
 2666              	.LVL236:
 909:Core/Src/freertos.c ****     {
 2667              		.loc 1 909 5 view .LVU626
 909:Core/Src/freertos.c ****     {
 2668              		.loc 1 909 27 is_stmt 0 view .LVU627
 2669 0074 1D4B     		ldr	r3, .L178+36
 2670 0076 1B78     		ldrb	r3, [r3]	@ zero_extendqisi2
 909:Core/Src/freertos.c ****     {
 2671              		.loc 1 909 8 view .LVU628
 2672 0078 23B1     		cbz	r3, .L172
 909:Core/Src/freertos.c ****     {
 2673              		.loc 1 909 53 discriminator 1 view .LVU629
 2674 007a 1D4B     		ldr	r3, .L178+40
 2675 007c 1B78     		ldrb	r3, [r3]	@ zero_extendqisi2
 2676 007e DBB2     		uxtb	r3, r3
 909:Core/Src/freertos.c ****     {
 2677              		.loc 1 909 36 discriminator 1 view .LVU630
 2678 0080 012B     		cmp	r3, #1
 2679 0082 11D0     		beq	.L177
 2680              	.L172:
 915:Core/Src/freertos.c ****     HAL_TIM_Base_Start_IT(&htim6);
 2681              		.loc 1 915 5 is_stmt 1 view .LVU631
 2682 0084 1848     		ldr	r0, .L178+32
 2683 0086 0368     		ldr	r3, [r0]
 2684 0088 0022     		movs	r2, #0
 2685 008a 5A62     		str	r2, [r3, #36]
 916:Core/Src/freertos.c ****     HAL_UART_Receive_IT(&huart2, &rxBufferUART2[rxIndexUART2++], sizeof(uint8_t));
 2686              		.loc 1 916 5 view .LVU632
 2687 008c FFF7FEFF 		bl	HAL_TIM_Base_Start_IT
 2688              	.LVL237:
 917:Core/Src/freertos.c ****   }
 2689              		.loc 1 917 5 view .LVU633
 917:Core/Src/freertos.c ****   }
 2690              		.loc 1 917 61 is_stmt 0 view .LVU634
 2691 0090 174A     		ldr	r2, .L178+40
 2692 0092 1178     		ldrb	r1, [r2]	@ zero_extendqisi2
 2693 0094 4B1C     		adds	r3, r1, #1
 2694 0096 DBB2     		uxtb	r3, r3
 2695 0098 1370     		strb	r3, [r2]
 917:Core/Src/freertos.c ****   }
 2696              		.loc 1 917 5 view .LVU635
 2697 009a 0122     		movs	r2, #1
ARM GAS  C:\Users\Vento\AppData\Local\Temp\ccuo4SjY.s 			page 70


 2698 009c 154B     		ldr	r3, .L178+44
 2699 009e 1944     		add	r1, r1, r3
 2700 00a0 1548     		ldr	r0, .L178+48
 2701 00a2 FFF7FEFF 		bl	HAL_UART_Receive_IT
 2702              	.LVL238:
 2703              		.loc 1 919 1 view .LVU636
 2704 00a6 B5E7     		b	.L168
 2705              	.L177:
 911:Core/Src/freertos.c ****       __HAL_TIM_CLEAR_IT(&htim6, TIM_IT_BREAK);
 2706              		.loc 1 911 7 is_stmt 1 view .LVU637
 2707 00a8 0022     		movs	r2, #0
 2708 00aa 4FF40051 		mov	r1, #8192
 2709 00ae 0D48     		ldr	r0, .L178+28
 2710 00b0 FFF7FEFF 		bl	HAL_GPIO_WritePin
 2711              	.LVL239:
 912:Core/Src/freertos.c ****       is_UART2_RX_Done = false;
 2712              		.loc 1 912 7 view .LVU638
 2713 00b4 0C4B     		ldr	r3, .L178+32
 2714 00b6 1B68     		ldr	r3, [r3]
 2715 00b8 6FF08002 		mvn	r2, #128
 2716 00bc 1A61     		str	r2, [r3, #16]
 913:Core/Src/freertos.c ****     }
 2717              		.loc 1 913 7 view .LVU639
 913:Core/Src/freertos.c ****     }
 2718              		.loc 1 913 24 is_stmt 0 view .LVU640
 2719 00be 0B4B     		ldr	r3, .L178+36
 2720 00c0 0022     		movs	r2, #0
 2721 00c2 1A70     		strb	r2, [r3]
 2722 00c4 DEE7     		b	.L172
 2723              	.L179:
 2724 00c6 00BF     		.align	2
 2725              	.L178:
 2726 00c8 00380140 		.word	1073821696
 2727 00cc 00440040 		.word	1073759232
 2728 00d0 00000000 		.word	htim7
 2729 00d4 00000000 		.word	.LANCHOR4
 2730 00d8 00000000 		.word	.LANCHOR0
 2731 00dc 00000000 		.word	.LANCHOR1
 2732 00e0 00000000 		.word	huart1
 2733 00e4 00100140 		.word	1073811456
 2734 00e8 00000000 		.word	htim6
 2735 00ec 00000000 		.word	.LANCHOR5
 2736 00f0 00000000 		.word	.LANCHOR2
 2737 00f4 00000000 		.word	.LANCHOR3
 2738 00f8 00000000 		.word	huart2
 2739              		.cfi_endproc
 2740              	.LFE90:
 2742              		.section	.rodata.LCD_Print_Promt_Window.str1.4,"aMS",%progbits,1
 2743              		.align	2
 2744              	.LC29:
 2745 0000 414C4C4F 		.ascii	"ALLOW REQUEST?\000"
 2745      57205245 
 2745      51554553 
 2745      543F00
 2746 000f 00       		.align	2
 2747              	.LC30:
 2748 0010 4E6F6465 		.ascii	"Node ID %#04X\000"
ARM GAS  C:\Users\Vento\AppData\Local\Temp\ccuo4SjY.s 			page 71


 2748      20494420 
 2748      25233034 
 2748      5800
 2749 001e 0000     		.align	2
 2750              	.LC31:
 2751 0020 41636365 		.ascii	"Accept\000"
 2751      707400
 2752 0027 00       		.align	2
 2753              	.LC32:
 2754 0028 52656A65 		.ascii	"Reject\000"
 2754      637400
 2755 002f 00       		.align	2
 2756              	.LC33:
 2757 0030 44454C45 		.ascii	"DELETE NODE?\000"
 2757      5445204E 
 2757      4F44453F 
 2757      00
 2758 003d 000000   		.align	2
 2759              	.LC34:
 2760 0040 436F6E66 		.ascii	"Confirm\000"
 2760      69726D00 
 2761              		.section	.text.LCD_Print_Promt_Window,"ax",%progbits
 2762              		.align	1
 2763              		.global	LCD_Print_Promt_Window
 2764              		.syntax unified
 2765              		.thumb
 2766              		.thumb_func
 2767              		.fpu softvfp
 2769              	LCD_Print_Promt_Window:
 2770              	.LFB91:
 920:Core/Src/freertos.c **** 
 921:Core/Src/freertos.c **** //-------------------------------------------------------------------------------------------------
 922:Core/Src/freertos.c **** 
 923:Core/Src/freertos.c **** void LCD_Print_Promt_Window(void)
 924:Core/Src/freertos.c **** {
 2771              		.loc 1 924 1 is_stmt 1 view -0
 2772              		.cfi_startproc
 2773              		@ args = 0, pretend = 0, frame = 0
 2774              		@ frame_needed = 0, uses_anonymous_args = 0
 2775 0000 2DE9F041 		push	{r4, r5, r6, r7, r8, lr}
 2776              	.LCFI35:
 2777              		.cfi_def_cfa_offset 24
 2778              		.cfi_offset 4, -24
 2779              		.cfi_offset 5, -20
 2780              		.cfi_offset 6, -16
 2781              		.cfi_offset 7, -12
 2782              		.cfi_offset 8, -8
 2783              		.cfi_offset 14, -4
 2784 0004 84B0     		sub	sp, sp, #16
 2785              	.LCFI36:
 2786              		.cfi_def_cfa_offset 40
 925:Core/Src/freertos.c ****   if (Current_Page == JOIN_REQUEST_PAGE)
 2787              		.loc 1 925 3 view .LVU642
 2788              		.loc 1 925 20 is_stmt 0 view .LVU643
 2789 0006 564B     		ldr	r3, .L186
 2790 0008 1B78     		ldrb	r3, [r3]	@ zero_extendqisi2
 2791              		.loc 1 925 6 view .LVU644
ARM GAS  C:\Users\Vento\AppData\Local\Temp\ccuo4SjY.s 			page 72


 2792 000a 012B     		cmp	r3, #1
 2793 000c 04D0     		beq	.L184
 926:Core/Src/freertos.c ****   {
 927:Core/Src/freertos.c ****     is_promt_window_on = true;
 928:Core/Src/freertos.c ****     ILI9341_UpdateButton(&Promt_Window);
 929:Core/Src/freertos.c ****     ILI9341_WriteString(Promt_Window.pos_x+12, Promt_Window.pos_y+10, "ALLOW REQUEST?", Font_11x18,
 930:Core/Src/freertos.c ****     sprintf(tempString, "Node ID %#04X", selected_Node_ID);
 931:Core/Src/freertos.c ****     ILI9341_WriteString(Promt_Window.pos_x+12, Promt_Window.pos_y+35, tempString, Font_11x18, ILI93
 932:Core/Src/freertos.c ****     ILI9341_UpdateButton(&Promt_Accept);
 933:Core/Src/freertos.c ****     ILI9341_WriteString(Promt_Accept.pos_x+7, Promt_Accept.pos_y+6, "Accept", Font_11x18, ILI9341_B
 934:Core/Src/freertos.c ****     ILI9341_UpdateButton(&Promt_Reject);
 935:Core/Src/freertos.c ****     ILI9341_WriteString(Promt_Reject.pos_x+7, Promt_Reject.pos_y+6, "Reject", Font_11x18, ILI9341_B
 936:Core/Src/freertos.c ****   }
 937:Core/Src/freertos.c ****   else if (Current_Page == NODE_PAGE)
 2794              		.loc 1 937 8 is_stmt 1 view .LVU645
 2795              		.loc 1 937 11 is_stmt 0 view .LVU646
 2796 000e 032B     		cmp	r3, #3
 2797 0010 5BD0     		beq	.L185
 2798              	.L180:
 938:Core/Src/freertos.c ****   {
 939:Core/Src/freertos.c ****     is_promt_window_on = true;
 940:Core/Src/freertos.c ****     ILI9341_UpdateButton(&Promt_Window);
 941:Core/Src/freertos.c ****     ILI9341_WriteString(Promt_Window.pos_x+22, Promt_Window.pos_y+10, "DELETE NODE?", Font_11x18, I
 942:Core/Src/freertos.c ****     sprintf(tempString, "Node ID %#04X", selected_Node_ID);
 943:Core/Src/freertos.c ****     ILI9341_WriteString(Promt_Window.pos_x+14, Promt_Window.pos_y+35, tempString, Font_11x18, ILI93
 944:Core/Src/freertos.c ****     ILI9341_UpdateButton(&Promt_Confirm);
 945:Core/Src/freertos.c ****     ILI9341_WriteString(Promt_Confirm.pos_x+7, Promt_Confirm.pos_y+6, "Confirm", Font_11x18, ILI934
 946:Core/Src/freertos.c ****   }
 947:Core/Src/freertos.c **** }
 2799              		.loc 1 947 1 view .LVU647
 2800 0012 04B0     		add	sp, sp, #16
 2801              	.LCFI37:
 2802              		.cfi_remember_state
 2803              		.cfi_def_cfa_offset 24
 2804              		@ sp needed
 2805 0014 BDE8F081 		pop	{r4, r5, r6, r7, r8, pc}
 2806              	.L184:
 2807              	.LCFI38:
 2808              		.cfi_restore_state
 927:Core/Src/freertos.c ****     ILI9341_UpdateButton(&Promt_Window);
 2809              		.loc 1 927 5 is_stmt 1 view .LVU648
 927:Core/Src/freertos.c ****     ILI9341_UpdateButton(&Promt_Window);
 2810              		.loc 1 927 24 is_stmt 0 view .LVU649
 2811 0018 524B     		ldr	r3, .L186+4
 2812 001a 0122     		movs	r2, #1
 2813 001c 1A70     		strb	r2, [r3]
 928:Core/Src/freertos.c ****     ILI9341_WriteString(Promt_Window.pos_x+12, Promt_Window.pos_y+10, "ALLOW REQUEST?", Font_11x18,
 2814              		.loc 1 928 5 is_stmt 1 view .LVU650
 2815 001e 524C     		ldr	r4, .L186+8
 2816 0020 2046     		mov	r0, r4
 2817 0022 FFF7FEFF 		bl	ILI9341_UpdateButton
 2818              	.LVL240:
 929:Core/Src/freertos.c ****     sprintf(tempString, "Node ID %#04X", selected_Node_ID);
 2819              		.loc 1 929 5 view .LVU651
 929:Core/Src/freertos.c ****     sprintf(tempString, "Node ID %#04X", selected_Node_ID);
 2820              		.loc 1 929 37 is_stmt 0 view .LVU652
 2821 0026 2588     		ldrh	r5, [r4]
ARM GAS  C:\Users\Vento\AppData\Local\Temp\ccuo4SjY.s 			page 73


 929:Core/Src/freertos.c ****     sprintf(tempString, "Node ID %#04X", selected_Node_ID);
 2822              		.loc 1 929 5 view .LVU653
 2823 0028 0C35     		adds	r5, r5, #12
 2824 002a ADB2     		uxth	r5, r5
 929:Core/Src/freertos.c ****     sprintf(tempString, "Node ID %#04X", selected_Node_ID);
 2825              		.loc 1 929 60 view .LVU654
 2826 002c 6688     		ldrh	r6, [r4, #2]
 929:Core/Src/freertos.c ****     sprintf(tempString, "Node ID %#04X", selected_Node_ID);
 2827              		.loc 1 929 5 view .LVU655
 2828 002e B4F80A80 		ldrh	r8, [r4, #10]
 2829 0032 4E4C     		ldr	r4, .L186+12
 2830 0034 06F10A01 		add	r1, r6, #10
 2831 0038 CDF80880 		str	r8, [sp, #8]
 2832 003c 4FF47843 		mov	r3, #63488
 2833 0040 0193     		str	r3, [sp, #4]
 2834 0042 6368     		ldr	r3, [r4, #4]
 2835 0044 0093     		str	r3, [sp]
 2836 0046 2368     		ldr	r3, [r4]
 2837 0048 494A     		ldr	r2, .L186+16
 2838 004a 89B2     		uxth	r1, r1
 2839 004c 2846     		mov	r0, r5
 2840 004e FFF7FEFF 		bl	ILI9341_WriteString
 2841              	.LVL241:
 930:Core/Src/freertos.c ****     ILI9341_WriteString(Promt_Window.pos_x+12, Promt_Window.pos_y+35, tempString, Font_11x18, ILI93
 2842              		.loc 1 930 5 is_stmt 1 view .LVU656
 2843 0052 484F     		ldr	r7, .L186+20
 2844 0054 484B     		ldr	r3, .L186+24
 2845 0056 1A88     		ldrh	r2, [r3]
 2846 0058 4849     		ldr	r1, .L186+28
 2847 005a 3846     		mov	r0, r7
 2848 005c FFF7FEFF 		bl	sprintf
 2849              	.LVL242:
 931:Core/Src/freertos.c ****     ILI9341_UpdateButton(&Promt_Accept);
 2850              		.loc 1 931 5 view .LVU657
 2851 0060 06F12301 		add	r1, r6, #35
 2852 0064 CDF80880 		str	r8, [sp, #8]
 2853 0068 0026     		movs	r6, #0
 2854 006a 0196     		str	r6, [sp, #4]
 2855 006c 6368     		ldr	r3, [r4, #4]
 2856 006e 0093     		str	r3, [sp]
 2857 0070 2368     		ldr	r3, [r4]
 2858 0072 3A46     		mov	r2, r7
 2859 0074 89B2     		uxth	r1, r1
 2860 0076 2846     		mov	r0, r5
 2861 0078 FFF7FEFF 		bl	ILI9341_WriteString
 2862              	.LVL243:
 932:Core/Src/freertos.c ****     ILI9341_WriteString(Promt_Accept.pos_x+7, Promt_Accept.pos_y+6, "Accept", Font_11x18, ILI9341_B
 2863              		.loc 1 932 5 view .LVU658
 2864 007c 404D     		ldr	r5, .L186+32
 2865 007e 2846     		mov	r0, r5
 2866 0080 FFF7FEFF 		bl	ILI9341_UpdateButton
 2867              	.LVL244:
 933:Core/Src/freertos.c ****     ILI9341_UpdateButton(&Promt_Reject);
 2868              		.loc 1 933 5 view .LVU659
 933:Core/Src/freertos.c ****     ILI9341_UpdateButton(&Promt_Reject);
 2869              		.loc 1 933 37 is_stmt 0 view .LVU660
 2870 0084 2888     		ldrh	r0, [r5]
ARM GAS  C:\Users\Vento\AppData\Local\Temp\ccuo4SjY.s 			page 74


 933:Core/Src/freertos.c ****     ILI9341_UpdateButton(&Promt_Reject);
 2871              		.loc 1 933 59 view .LVU661
 2872 0086 6988     		ldrh	r1, [r5, #2]
 933:Core/Src/freertos.c ****     ILI9341_UpdateButton(&Promt_Reject);
 2873              		.loc 1 933 5 view .LVU662
 2874 0088 0631     		adds	r1, r1, #6
 2875 008a 0730     		adds	r0, r0, #7
 2876 008c 6B89     		ldrh	r3, [r5, #10]
 2877 008e 0293     		str	r3, [sp, #8]
 2878 0090 0196     		str	r6, [sp, #4]
 2879 0092 6368     		ldr	r3, [r4, #4]
 2880 0094 0093     		str	r3, [sp]
 2881 0096 2368     		ldr	r3, [r4]
 2882 0098 3A4A     		ldr	r2, .L186+36
 2883 009a 89B2     		uxth	r1, r1
 2884 009c 80B2     		uxth	r0, r0
 2885 009e FFF7FEFF 		bl	ILI9341_WriteString
 2886              	.LVL245:
 934:Core/Src/freertos.c ****     ILI9341_WriteString(Promt_Reject.pos_x+7, Promt_Reject.pos_y+6, "Reject", Font_11x18, ILI9341_B
 2887              		.loc 1 934 5 is_stmt 1 view .LVU663
 2888 00a2 394D     		ldr	r5, .L186+40
 2889 00a4 2846     		mov	r0, r5
 2890 00a6 FFF7FEFF 		bl	ILI9341_UpdateButton
 2891              	.LVL246:
 935:Core/Src/freertos.c ****   }
 2892              		.loc 1 935 5 view .LVU664
 935:Core/Src/freertos.c ****   }
 2893              		.loc 1 935 37 is_stmt 0 view .LVU665
 2894 00aa 2888     		ldrh	r0, [r5]
 935:Core/Src/freertos.c ****   }
 2895              		.loc 1 935 59 view .LVU666
 2896 00ac 6988     		ldrh	r1, [r5, #2]
 935:Core/Src/freertos.c ****   }
 2897              		.loc 1 935 5 view .LVU667
 2898 00ae 0631     		adds	r1, r1, #6
 2899 00b0 0730     		adds	r0, r0, #7
 2900 00b2 6B89     		ldrh	r3, [r5, #10]
 2901 00b4 0293     		str	r3, [sp, #8]
 2902 00b6 0196     		str	r6, [sp, #4]
 2903 00b8 6368     		ldr	r3, [r4, #4]
 2904 00ba 0093     		str	r3, [sp]
 2905 00bc 2368     		ldr	r3, [r4]
 2906 00be 334A     		ldr	r2, .L186+44
 2907 00c0 89B2     		uxth	r1, r1
 2908 00c2 80B2     		uxth	r0, r0
 2909 00c4 FFF7FEFF 		bl	ILI9341_WriteString
 2910              	.LVL247:
 2911 00c8 A3E7     		b	.L180
 2912              	.L185:
 939:Core/Src/freertos.c ****     ILI9341_UpdateButton(&Promt_Window);
 2913              		.loc 1 939 5 is_stmt 1 view .LVU668
 939:Core/Src/freertos.c ****     ILI9341_UpdateButton(&Promt_Window);
 2914              		.loc 1 939 24 is_stmt 0 view .LVU669
 2915 00ca 264B     		ldr	r3, .L186+4
 2916 00cc 0122     		movs	r2, #1
 2917 00ce 1A70     		strb	r2, [r3]
 940:Core/Src/freertos.c ****     ILI9341_WriteString(Promt_Window.pos_x+22, Promt_Window.pos_y+10, "DELETE NODE?", Font_11x18, I
ARM GAS  C:\Users\Vento\AppData\Local\Temp\ccuo4SjY.s 			page 75


 2918              		.loc 1 940 5 is_stmt 1 view .LVU670
 2919 00d0 254C     		ldr	r4, .L186+8
 2920 00d2 2046     		mov	r0, r4
 2921 00d4 FFF7FEFF 		bl	ILI9341_UpdateButton
 2922              	.LVL248:
 941:Core/Src/freertos.c ****     sprintf(tempString, "Node ID %#04X", selected_Node_ID);
 2923              		.loc 1 941 5 view .LVU671
 941:Core/Src/freertos.c ****     sprintf(tempString, "Node ID %#04X", selected_Node_ID);
 2924              		.loc 1 941 37 is_stmt 0 view .LVU672
 2925 00d8 2588     		ldrh	r5, [r4]
 941:Core/Src/freertos.c ****     sprintf(tempString, "Node ID %#04X", selected_Node_ID);
 2926              		.loc 1 941 60 view .LVU673
 2927 00da 6688     		ldrh	r6, [r4, #2]
 941:Core/Src/freertos.c ****     sprintf(tempString, "Node ID %#04X", selected_Node_ID);
 2928              		.loc 1 941 5 view .LVU674
 2929 00dc B4F80A80 		ldrh	r8, [r4, #10]
 2930 00e0 224C     		ldr	r4, .L186+12
 2931 00e2 06F10A01 		add	r1, r6, #10
 2932 00e6 05F11600 		add	r0, r5, #22
 2933 00ea CDF80880 		str	r8, [sp, #8]
 2934 00ee 4FF47843 		mov	r3, #63488
 2935 00f2 0193     		str	r3, [sp, #4]
 2936 00f4 6368     		ldr	r3, [r4, #4]
 2937 00f6 0093     		str	r3, [sp]
 2938 00f8 2368     		ldr	r3, [r4]
 2939 00fa 254A     		ldr	r2, .L186+48
 2940 00fc 89B2     		uxth	r1, r1
 2941 00fe 80B2     		uxth	r0, r0
 2942 0100 FFF7FEFF 		bl	ILI9341_WriteString
 2943              	.LVL249:
 942:Core/Src/freertos.c ****     ILI9341_WriteString(Promt_Window.pos_x+14, Promt_Window.pos_y+35, tempString, Font_11x18, ILI93
 2944              		.loc 1 942 5 is_stmt 1 view .LVU675
 2945 0104 1B4F     		ldr	r7, .L186+20
 2946 0106 1C4B     		ldr	r3, .L186+24
 2947 0108 1A88     		ldrh	r2, [r3]
 2948 010a 1C49     		ldr	r1, .L186+28
 2949 010c 3846     		mov	r0, r7
 2950 010e FFF7FEFF 		bl	sprintf
 2951              	.LVL250:
 943:Core/Src/freertos.c ****     ILI9341_UpdateButton(&Promt_Confirm);
 2952              		.loc 1 943 5 view .LVU676
 2953 0112 06F12301 		add	r1, r6, #35
 2954 0116 05F10E00 		add	r0, r5, #14
 2955 011a CDF80880 		str	r8, [sp, #8]
 2956 011e 0023     		movs	r3, #0
 2957 0120 0193     		str	r3, [sp, #4]
 2958 0122 6368     		ldr	r3, [r4, #4]
 2959 0124 0093     		str	r3, [sp]
 2960 0126 2368     		ldr	r3, [r4]
 2961 0128 3A46     		mov	r2, r7
 2962 012a 89B2     		uxth	r1, r1
 2963 012c 80B2     		uxth	r0, r0
 2964 012e FFF7FEFF 		bl	ILI9341_WriteString
 2965              	.LVL251:
 944:Core/Src/freertos.c ****     ILI9341_WriteString(Promt_Confirm.pos_x+7, Promt_Confirm.pos_y+6, "Confirm", Font_11x18, ILI934
 2966              		.loc 1 944 5 view .LVU677
 2967 0132 184D     		ldr	r5, .L186+52
ARM GAS  C:\Users\Vento\AppData\Local\Temp\ccuo4SjY.s 			page 76


 2968 0134 2846     		mov	r0, r5
 2969 0136 FFF7FEFF 		bl	ILI9341_UpdateButton
 2970              	.LVL252:
 945:Core/Src/freertos.c ****   }
 2971              		.loc 1 945 5 view .LVU678
 945:Core/Src/freertos.c ****   }
 2972              		.loc 1 945 38 is_stmt 0 view .LVU679
 2973 013a 2888     		ldrh	r0, [r5]
 945:Core/Src/freertos.c ****   }
 2974              		.loc 1 945 61 view .LVU680
 2975 013c 6988     		ldrh	r1, [r5, #2]
 945:Core/Src/freertos.c ****   }
 2976              		.loc 1 945 5 view .LVU681
 2977 013e 0631     		adds	r1, r1, #6
 2978 0140 0730     		adds	r0, r0, #7
 2979 0142 6B89     		ldrh	r3, [r5, #10]
 2980 0144 0293     		str	r3, [sp, #8]
 2981 0146 4FF6FF73 		movw	r3, #65535
 2982 014a 0193     		str	r3, [sp, #4]
 2983 014c 6368     		ldr	r3, [r4, #4]
 2984 014e 0093     		str	r3, [sp]
 2985 0150 2368     		ldr	r3, [r4]
 2986 0152 114A     		ldr	r2, .L186+56
 2987 0154 89B2     		uxth	r1, r1
 2988 0156 80B2     		uxth	r0, r0
 2989 0158 FFF7FEFF 		bl	ILI9341_WriteString
 2990              	.LVL253:
 2991              		.loc 1 947 1 view .LVU682
 2992 015c 59E7     		b	.L180
 2993              	.L187:
 2994 015e 00BF     		.align	2
 2995              	.L186:
 2996 0160 00000000 		.word	.LANCHOR36
 2997 0164 00000000 		.word	.LANCHOR37
 2998 0168 00000000 		.word	Promt_Window
 2999 016c 00000000 		.word	Font_11x18
 3000 0170 00000000 		.word	.LC29
 3001 0174 00000000 		.word	.LANCHOR39
 3002 0178 00000000 		.word	.LANCHOR38
 3003 017c 10000000 		.word	.LC30
 3004 0180 00000000 		.word	Promt_Accept
 3005 0184 20000000 		.word	.LC31
 3006 0188 00000000 		.word	Promt_Reject
 3007 018c 28000000 		.word	.LC32
 3008 0190 30000000 		.word	.LC33
 3009 0194 00000000 		.word	Promt_Confirm
 3010 0198 40000000 		.word	.LC34
 3011              		.cfi_endproc
 3012              	.LFE91:
 3014              		.section	.rodata.LCD_Print_Join_Request_Page.str1.4,"aMS",%progbits,1
 3015              		.align	2
 3016              	.LC35:
 3017 0000 4A6F696E 		.ascii	"Join Request (%i)\000"
 3017      20526571 
 3017      75657374 
 3017      20282569 
 3017      2900
ARM GAS  C:\Users\Vento\AppData\Local\Temp\ccuo4SjY.s 			page 77


 3018 0012 0000     		.align	2
 3019              	.LC36:
 3020 0014 3C00     		.ascii	"<\000"
 3021 0016 0000     		.align	2
 3022              	.LC37:
 3023 0018 4E6F6465 		.ascii	"Node ID: %#04X\000"
 3023      2049443A 
 3023      20252330 
 3023      345800
 3024 0027 00       		.align	2
 3025              	.LC38:
 3026 0028 4E6F6465 		.ascii	"Node Status: %d\000"
 3026      20537461 
 3026      7475733A 
 3026      20256400 
 3027              		.align	2
 3028              	.LC39:
 3029 0038 4E6F6465 		.ascii	"Node Batt: % 4d mV\000"
 3029      20426174 
 3029      743A2025 
 3029      20346420 
 3029      6D5600
 3030 004b 00       		.align	2
 3031              	.LC40:
 3032 004c 4E6F6465 		.ascii	"Node Period: % 4d s\000"
 3032      20506572 
 3032      696F643A 
 3032      20252034 
 3032      64207300 
 3033              		.section	.text.LCD_Print_Join_Request_Page,"ax",%progbits
 3034              		.align	1
 3035              		.global	LCD_Print_Join_Request_Page
 3036              		.syntax unified
 3037              		.thumb
 3038              		.thumb_func
 3039              		.fpu softvfp
 3041              	LCD_Print_Join_Request_Page:
 3042              	.LFB92:
 948:Core/Src/freertos.c **** 
 949:Core/Src/freertos.c **** //-------------------------------------------------------------------------------------------------
 950:Core/Src/freertos.c **** 
 951:Core/Src/freertos.c **** void LCD_Print_Join_Request_Page(void)
 952:Core/Src/freertos.c **** {
 3043              		.loc 1 952 1 is_stmt 1 view -0
 3044              		.cfi_startproc
 3045              		@ args = 0, pretend = 0, frame = 16
 3046              		@ frame_needed = 0, uses_anonymous_args = 0
 3047 0000 2DE9F04F 		push	{r4, r5, r6, r7, r8, r9, r10, fp, lr}
 3048              	.LCFI39:
 3049              		.cfi_def_cfa_offset 36
 3050              		.cfi_offset 4, -36
 3051              		.cfi_offset 5, -32
 3052              		.cfi_offset 6, -28
 3053              		.cfi_offset 7, -24
 3054              		.cfi_offset 8, -20
 3055              		.cfi_offset 9, -16
 3056              		.cfi_offset 10, -12
ARM GAS  C:\Users\Vento\AppData\Local\Temp\ccuo4SjY.s 			page 78


 3057              		.cfi_offset 11, -8
 3058              		.cfi_offset 14, -4
 3059 0004 89B0     		sub	sp, sp, #36
 3060              	.LCFI40:
 3061              		.cfi_def_cfa_offset 72
 953:Core/Src/freertos.c ****   memset(arrayNodeDisplay, '\0', sizeof(arrayNodeDisplay));
 3062              		.loc 1 953 3 view .LVU684
 3063 0006 824B     		ldr	r3, .L205
 3064 0008 0022     		movs	r2, #0
 3065 000a 1A60     		str	r2, [r3]
 3066 000c 5A60     		str	r2, [r3, #4]
 954:Core/Src/freertos.c ****   Link_Struct_t link_stored;
 3067              		.loc 1 954 3 view .LVU685
 955:Core/Src/freertos.c **** 
 956:Core/Src/freertos.c ****   number_of_Node_inQueue = MAX_NODE - (uint8_t)uxQueueSpacesAvailable(link_queue);
 3068              		.loc 1 956 3 view .LVU686
 3069              		.loc 1 956 48 is_stmt 0 view .LVU687
 3070 000e 814B     		ldr	r3, .L205+4
 3071 0010 1868     		ldr	r0, [r3]
 3072 0012 FFF7FEFF 		bl	uxQueueSpacesAvailable
 3073              	.LVL254:
 3074              		.loc 1 956 39 view .LVU688
 3075 0016 C2B2     		uxtb	r2, r0
 3076              		.loc 1 956 37 view .LVU689
 3077 0018 C2F13202 		rsb	r2, r2, #50
 3078 001c D2B2     		uxtb	r2, r2
 3079              		.loc 1 956 26 view .LVU690
 3080 001e 7E4B     		ldr	r3, .L205+8
 3081 0020 1A70     		strb	r2, [r3]
 957:Core/Src/freertos.c ****   sprintf(tempString, "Join Request (%i)", number_of_Node_inQueue);
 3082              		.loc 1 957 3 is_stmt 1 view .LVU691
 3083 0022 7E49     		ldr	r1, .L205+12
 3084 0024 7E48     		ldr	r0, .L205+16
 3085 0026 FFF7FEFF 		bl	sprintf
 3086              	.LVL255:
 958:Core/Src/freertos.c **** 
 959:Core/Src/freertos.c ****   if (is_page_change == true) ILI9341_FillScreen(ILI9341_BLACK);
 3087              		.loc 1 959 3 view .LVU692
 3088              		.loc 1 959 22 is_stmt 0 view .LVU693
 3089 002a 7E4B     		ldr	r3, .L205+20
 3090 002c 1B78     		ldrb	r3, [r3]	@ zero_extendqisi2
 3091              		.loc 1 959 6 view .LVU694
 3092 002e 2BB9     		cbnz	r3, .L198
 3093              	.L189:
 960:Core/Src/freertos.c **** 
 961:Core/Src/freertos.c ****   if (is_promt_window_on == true)   return;
 3094              		.loc 1 961 3 is_stmt 1 view .LVU695
 3095              		.loc 1 961 26 is_stmt 0 view .LVU696
 3096 0030 7D4B     		ldr	r3, .L205+24
 3097 0032 1B78     		ldrb	r3, [r3]	@ zero_extendqisi2
 3098              		.loc 1 961 6 view .LVU697
 3099 0034 33B1     		cbz	r3, .L199
 3100              	.L188:
 962:Core/Src/freertos.c **** 
 963:Core/Src/freertos.c ****   ILI9341_WriteString(80, 21, tempString, Font_11x18, ILI9341_YELLOW, ILI9341_BLACK);
 964:Core/Src/freertos.c **** 
 965:Core/Src/freertos.c ****   if (is_page_change == true) ILI9341_UpdateButton(&Back_Top_Left);
ARM GAS  C:\Users\Vento\AppData\Local\Temp\ccuo4SjY.s 			page 79


 966:Core/Src/freertos.c ****   ILI9341_WriteString(Back_Top_Left.pos_x-10, Back_Top_Left.pos_y-13, "<", Font_16x26, ILI9341_BLAC
 967:Core/Src/freertos.c **** 
 968:Core/Src/freertos.c ****   ILI9341_DrawRectangle(Button1.pos_x, Button1.pos_y, Button1.shape_w, Button1.shape_h, ILI9341_YEL
 969:Core/Src/freertos.c ****   ILI9341_DrawRectangle(Button2.pos_x, Button2.pos_y, Button2.shape_w, Button2.shape_h, ILI9341_YEL
 970:Core/Src/freertos.c ****   ILI9341_DrawRectangle(Button3.pos_x, Button3.pos_y, Button3.shape_w, Button3.shape_h, ILI9341_YEL
 971:Core/Src/freertos.c ****   ILI9341_DrawRectangle(Button4.pos_x, Button4.pos_y, Button4.shape_w, Button4.shape_h, ILI9341_YEL
 972:Core/Src/freertos.c **** 
 973:Core/Src/freertos.c ****   if (number_of_Node_inQueue >= 1)
 974:Core/Src/freertos.c ****   {
 975:Core/Src/freertos.c ****     xQueueReceive(link_queue, &link_stored, 100);
 976:Core/Src/freertos.c ****     arrayNodeDisplay[0] = link_stored.Node_ID;
 977:Core/Src/freertos.c ****     sprintf(tempString, "Node ID: %#04X", link_stored.Node_ID);
 978:Core/Src/freertos.c ****     ILI9341_WriteString(Button1.pos_x+22, Button1.pos_y+10, tempString, Font_7x10, ILI9341_GREEN, I
 979:Core/Src/freertos.c ****     sprintf(tempString, "Node Status: %d", link_stored.Node_Status);
 980:Core/Src/freertos.c ****     ILI9341_WriteString(Button1.pos_x+10, Button1.pos_y+35, tempString, Font_7x10, ILI9341_LIGHTBLU
 981:Core/Src/freertos.c ****     sprintf(tempString, "Node Batt: % 4d mV", link_stored.Node_Battery_Voltage);
 982:Core/Src/freertos.c ****     ILI9341_WriteString(Button1.pos_x+10, Button1.pos_y+55, tempString, Font_7x10, ILI9341_LIGHTBLU
 983:Core/Src/freertos.c ****     sprintf(tempString, "Node Period: % 4d s", link_stored.Node_Period);
 984:Core/Src/freertos.c ****     ILI9341_WriteString(Button1.pos_x+10, Button1.pos_y+75, tempString, Font_7x10, ILI9341_LIGHTBLU
 985:Core/Src/freertos.c ****     xQueueSend(link_queue, &link_stored, 100);
 986:Core/Src/freertos.c ****   }
 987:Core/Src/freertos.c ****   if (number_of_Node_inQueue >= 2)
 988:Core/Src/freertos.c ****   {
 989:Core/Src/freertos.c ****     xQueueReceive(link_queue, &link_stored, 100);
 990:Core/Src/freertos.c ****     arrayNodeDisplay[1] = link_stored.Node_ID;
 991:Core/Src/freertos.c ****     sprintf(tempString, "Node ID: %#04X", link_stored.Node_ID);
 992:Core/Src/freertos.c ****     ILI9341_WriteString(Button2.pos_x+22, Button2.pos_y+10, tempString, Font_7x10, ILI9341_GREEN, I
 993:Core/Src/freertos.c ****     sprintf(tempString, "Node Status: %d", link_stored.Node_Status);
 994:Core/Src/freertos.c ****     ILI9341_WriteString(Button2.pos_x+10, Button2.pos_y+35, tempString, Font_7x10, ILI9341_LIGHTBLU
 995:Core/Src/freertos.c ****     sprintf(tempString, "Node Batt: % 4d mV", link_stored.Node_Battery_Voltage);
 996:Core/Src/freertos.c ****     ILI9341_WriteString(Button2.pos_x+10, Button2.pos_y+55, tempString, Font_7x10, ILI9341_LIGHTBLU
 997:Core/Src/freertos.c ****     sprintf(tempString, "Node Period: % 4d s", link_stored.Node_Period);
 998:Core/Src/freertos.c ****     ILI9341_WriteString(Button2.pos_x+10, Button2.pos_y+75, tempString, Font_7x10, ILI9341_LIGHTBLU
 999:Core/Src/freertos.c ****     xQueueSend(link_queue, &link_stored, 100);
1000:Core/Src/freertos.c ****   }
1001:Core/Src/freertos.c ****   if (number_of_Node_inQueue >= 3)
1002:Core/Src/freertos.c ****   {
1003:Core/Src/freertos.c ****     xQueueReceive(link_queue, &link_stored, 100);
1004:Core/Src/freertos.c ****     arrayNodeDisplay[2] = link_stored.Node_ID;
1005:Core/Src/freertos.c ****     sprintf(tempString, "Node ID: %#04X", link_stored.Node_ID);
1006:Core/Src/freertos.c ****     ILI9341_WriteString(Button3.pos_x+22, Button3.pos_y+10, tempString, Font_7x10, ILI9341_GREEN, I
1007:Core/Src/freertos.c ****     sprintf(tempString, "Node Status: %d", link_stored.Node_Status);
1008:Core/Src/freertos.c ****     ILI9341_WriteString(Button3.pos_x+10, Button3.pos_y+35, tempString, Font_7x10, ILI9341_LIGHTBLU
1009:Core/Src/freertos.c ****     sprintf(tempString, "Node Batt: % 4d mV", link_stored.Node_Battery_Voltage);
1010:Core/Src/freertos.c ****     ILI9341_WriteString(Button3.pos_x+10, Button3.pos_y+55, tempString, Font_7x10, ILI9341_LIGHTBLU
1011:Core/Src/freertos.c ****     sprintf(tempString, "Node Period: % 4d s", link_stored.Node_Period);
1012:Core/Src/freertos.c ****     ILI9341_WriteString(Button3.pos_x+10, Button3.pos_y+75, tempString, Font_7x10, ILI9341_LIGHTBLU
1013:Core/Src/freertos.c ****     xQueueSend(link_queue, &link_stored, 100);
1014:Core/Src/freertos.c ****   }
1015:Core/Src/freertos.c ****   if (number_of_Node_inQueue >= 4)
1016:Core/Src/freertos.c ****   {
1017:Core/Src/freertos.c ****     xQueueReceive(link_queue, &link_stored, 100);
1018:Core/Src/freertos.c ****     arrayNodeDisplay[3] = link_stored.Node_ID;
1019:Core/Src/freertos.c ****     sprintf(tempString, "Node ID: %#04X", link_stored.Node_ID);
1020:Core/Src/freertos.c ****     ILI9341_WriteString(Button4.pos_x+22, Button4.pos_y+10, tempString, Font_7x10, ILI9341_GREEN, I
1021:Core/Src/freertos.c ****     sprintf(tempString, "Node Status: %d", link_stored.Node_Status);
1022:Core/Src/freertos.c ****     ILI9341_WriteString(Button4.pos_x+10, Button4.pos_y+35, tempString, Font_7x10, ILI9341_LIGHTBLU
ARM GAS  C:\Users\Vento\AppData\Local\Temp\ccuo4SjY.s 			page 80


1023:Core/Src/freertos.c ****     sprintf(tempString, "Node Batt: % 4d mV", link_stored.Node_Battery_Voltage);
1024:Core/Src/freertos.c ****     ILI9341_WriteString(Button4.pos_x+10, Button4.pos_y+55, tempString, Font_7x10, ILI9341_LIGHTBLU
1025:Core/Src/freertos.c ****     sprintf(tempString, "Node Period: % 4d s", link_stored.Node_Period);
1026:Core/Src/freertos.c ****     ILI9341_WriteString(Button4.pos_x+10, Button4.pos_y+75, tempString, Font_7x10, ILI9341_LIGHTBLU
1027:Core/Src/freertos.c ****     xQueueSend(link_queue, &link_stored, 100);
1028:Core/Src/freertos.c ****   }
1029:Core/Src/freertos.c **** 
1030:Core/Src/freertos.c ****   is_page_change = false;
1031:Core/Src/freertos.c **** }
 3101              		.loc 1 1031 1 view .LVU698
 3102 0036 09B0     		add	sp, sp, #36
 3103              	.LCFI41:
 3104              		.cfi_remember_state
 3105              		.cfi_def_cfa_offset 36
 3106              		@ sp needed
 3107 0038 BDE8F08F 		pop	{r4, r5, r6, r7, r8, r9, r10, fp, pc}
 3108              	.L198:
 3109              	.LCFI42:
 3110              		.cfi_restore_state
 959:Core/Src/freertos.c **** 
 3111              		.loc 1 959 31 is_stmt 1 discriminator 1 view .LVU699
 3112 003c 0020     		movs	r0, #0
 3113 003e FFF7FEFF 		bl	ILI9341_FillScreen
 3114              	.LVL256:
 3115 0042 F5E7     		b	.L189
 3116              	.L199:
 963:Core/Src/freertos.c **** 
 3117              		.loc 1 963 3 view .LVU700
 3118 0044 794B     		ldr	r3, .L205+28
 3119 0046 0022     		movs	r2, #0
 3120 0048 0292     		str	r2, [sp, #8]
 3121 004a 4FF6E072 		movw	r2, #65504
 3122 004e 0192     		str	r2, [sp, #4]
 3123 0050 5A68     		ldr	r2, [r3, #4]
 3124 0052 0092     		str	r2, [sp]
 3125 0054 1B68     		ldr	r3, [r3]
 3126 0056 724A     		ldr	r2, .L205+16
 3127 0058 1521     		movs	r1, #21
 3128 005a 5020     		movs	r0, #80
 3129 005c FFF7FEFF 		bl	ILI9341_WriteString
 3130              	.LVL257:
 965:Core/Src/freertos.c ****   ILI9341_WriteString(Back_Top_Left.pos_x-10, Back_Top_Left.pos_y-13, "<", Font_16x26, ILI9341_BLAC
 3131              		.loc 1 965 3 view .LVU701
 965:Core/Src/freertos.c ****   ILI9341_WriteString(Back_Top_Left.pos_x-10, Back_Top_Left.pos_y-13, "<", Font_16x26, ILI9341_BLAC
 3132              		.loc 1 965 22 is_stmt 0 view .LVU702
 3133 0060 704B     		ldr	r3, .L205+20
 3134 0062 1B78     		ldrb	r3, [r3]	@ zero_extendqisi2
 965:Core/Src/freertos.c ****   ILI9341_WriteString(Back_Top_Left.pos_x-10, Back_Top_Left.pos_y-13, "<", Font_16x26, ILI9341_BLAC
 3135              		.loc 1 965 6 view .LVU703
 3136 0064 002B     		cmp	r3, #0
 3137 0066 59D1     		bne	.L200
 3138              	.L192:
 966:Core/Src/freertos.c **** 
 3139              		.loc 1 966 3 is_stmt 1 view .LVU704
 966:Core/Src/freertos.c **** 
 3140              		.loc 1 966 36 is_stmt 0 view .LVU705
 3141 0068 714B     		ldr	r3, .L205+32
ARM GAS  C:\Users\Vento\AppData\Local\Temp\ccuo4SjY.s 			page 81


 3142 006a 1888     		ldrh	r0, [r3]
 966:Core/Src/freertos.c **** 
 3143              		.loc 1 966 60 view .LVU706
 3144 006c 5988     		ldrh	r1, [r3, #2]
 966:Core/Src/freertos.c **** 
 3145              		.loc 1 966 3 view .LVU707
 3146 006e 714A     		ldr	r2, .L205+36
 3147 0070 0D39     		subs	r1, r1, #13
 3148 0072 0A38     		subs	r0, r0, #10
 3149 0074 5B89     		ldrh	r3, [r3, #10]
 3150 0076 0293     		str	r3, [sp, #8]
 3151 0078 0023     		movs	r3, #0
 3152 007a 0193     		str	r3, [sp, #4]
 3153 007c 5368     		ldr	r3, [r2, #4]
 3154 007e 0093     		str	r3, [sp]
 3155 0080 1368     		ldr	r3, [r2]
 3156 0082 6D4A     		ldr	r2, .L205+40
 3157 0084 89B2     		uxth	r1, r1
 3158 0086 80B2     		uxth	r0, r0
 3159 0088 FFF7FEFF 		bl	ILI9341_WriteString
 3160              	.LVL258:
 968:Core/Src/freertos.c ****   ILI9341_DrawRectangle(Button2.pos_x, Button2.pos_y, Button2.shape_w, Button2.shape_h, ILI9341_YEL
 3161              		.loc 1 968 3 is_stmt 1 view .LVU708
 3162 008c 6B4A     		ldr	r2, .L205+44
 3163 008e B2F80080 		ldrh	r8, [r2]
 3164 0092 5788     		ldrh	r7, [r2, #2]
 3165 0094 4FF6E079 		movw	r9, #65504
 3166 0098 CDF80090 		str	r9, [sp]
 3167 009c 1389     		ldrh	r3, [r2, #8]
 3168 009e D288     		ldrh	r2, [r2, #6]
 3169 00a0 3946     		mov	r1, r7
 3170 00a2 4046     		mov	r0, r8
 3171 00a4 FFF7FEFF 		bl	ILI9341_DrawRectangle
 3172              	.LVL259:
 969:Core/Src/freertos.c ****   ILI9341_DrawRectangle(Button3.pos_x, Button3.pos_y, Button3.shape_w, Button3.shape_h, ILI9341_YEL
 3173              		.loc 1 969 3 view .LVU709
 3174 00a8 654A     		ldr	r2, .L205+48
 3175 00aa 1488     		ldrh	r4, [r2]
 3176 00ac 5588     		ldrh	r5, [r2, #2]
 3177 00ae CDF80090 		str	r9, [sp]
 3178 00b2 1389     		ldrh	r3, [r2, #8]
 3179 00b4 D288     		ldrh	r2, [r2, #6]
 3180 00b6 2946     		mov	r1, r5
 3181 00b8 2046     		mov	r0, r4
 3182 00ba FFF7FEFF 		bl	ILI9341_DrawRectangle
 3183              	.LVL260:
 970:Core/Src/freertos.c ****   ILI9341_DrawRectangle(Button4.pos_x, Button4.pos_y, Button4.shape_w, Button4.shape_h, ILI9341_YEL
 3184              		.loc 1 970 3 view .LVU710
 3185 00be 614A     		ldr	r2, .L205+52
 3186 00c0 1388     		ldrh	r3, [r2]
 3187 00c2 1846     		mov	r0, r3
 3188 00c4 0493     		str	r3, [sp, #16]
 3189 00c6 5688     		ldrh	r6, [r2, #2]
 3190 00c8 CDF80090 		str	r9, [sp]
 3191 00cc 1389     		ldrh	r3, [r2, #8]
 3192 00ce D288     		ldrh	r2, [r2, #6]
 3193 00d0 3146     		mov	r1, r6
ARM GAS  C:\Users\Vento\AppData\Local\Temp\ccuo4SjY.s 			page 82


 3194 00d2 FFF7FEFF 		bl	ILI9341_DrawRectangle
 3195              	.LVL261:
 971:Core/Src/freertos.c **** 
 3196              		.loc 1 971 3 view .LVU711
 3197 00d6 5C4A     		ldr	r2, .L205+56
 3198 00d8 1388     		ldrh	r3, [r2]
 3199 00da 1846     		mov	r0, r3
 3200 00dc 0593     		str	r3, [sp, #20]
 3201 00de B2F802B0 		ldrh	fp, [r2, #2]
 3202 00e2 CDF80090 		str	r9, [sp]
 3203 00e6 1389     		ldrh	r3, [r2, #8]
 3204 00e8 D288     		ldrh	r2, [r2, #6]
 3205 00ea 5946     		mov	r1, fp
 3206 00ec FFF7FEFF 		bl	ILI9341_DrawRectangle
 3207              	.LVL262:
 973:Core/Src/freertos.c ****   {
 3208              		.loc 1 973 3 view .LVU712
 973:Core/Src/freertos.c ****   {
 3209              		.loc 1 973 30 is_stmt 0 view .LVU713
 3210 00f0 494B     		ldr	r3, .L205+8
 3211 00f2 1B78     		ldrb	r3, [r3]	@ zero_extendqisi2
 973:Core/Src/freertos.c ****   {
 3212              		.loc 1 973 6 view .LVU714
 3213 00f4 B3B9     		cbnz	r3, .L201
 3214              	.L193:
 987:Core/Src/freertos.c ****   {
 3215              		.loc 1 987 3 is_stmt 1 view .LVU715
 987:Core/Src/freertos.c ****   {
 3216              		.loc 1 987 30 is_stmt 0 view .LVU716
 3217 00f6 484B     		ldr	r3, .L205+8
 3218 00f8 1B78     		ldrb	r3, [r3]	@ zero_extendqisi2
 987:Core/Src/freertos.c ****   {
 3219              		.loc 1 987 6 view .LVU717
 3220 00fa 012B     		cmp	r3, #1
 3221 00fc 00F2B080 		bhi	.L202
 3222              	.L194:
1001:Core/Src/freertos.c ****   {
 3223              		.loc 1 1001 3 is_stmt 1 view .LVU718
1001:Core/Src/freertos.c ****   {
 3224              		.loc 1 1001 30 is_stmt 0 view .LVU719
 3225 0100 454B     		ldr	r3, .L205+8
 3226 0102 1B78     		ldrb	r3, [r3]	@ zero_extendqisi2
1001:Core/Src/freertos.c ****   {
 3227              		.loc 1 1001 6 view .LVU720
 3228 0104 022B     		cmp	r3, #2
 3229 0106 00F21F81 		bhi	.L203
 3230              	.L195:
1015:Core/Src/freertos.c ****   {
 3231              		.loc 1 1015 3 is_stmt 1 view .LVU721
1015:Core/Src/freertos.c ****   {
 3232              		.loc 1 1015 30 is_stmt 0 view .LVU722
 3233 010a 434B     		ldr	r3, .L205+8
 3234 010c 1B78     		ldrb	r3, [r3]	@ zero_extendqisi2
1015:Core/Src/freertos.c ****   {
 3235              		.loc 1 1015 6 view .LVU723
 3236 010e 032B     		cmp	r3, #3
 3237 0110 00F28881 		bhi	.L204
ARM GAS  C:\Users\Vento\AppData\Local\Temp\ccuo4SjY.s 			page 83


 3238              	.L196:
1030:Core/Src/freertos.c **** }
 3239              		.loc 1 1030 3 is_stmt 1 view .LVU724
1030:Core/Src/freertos.c **** }
 3240              		.loc 1 1030 18 is_stmt 0 view .LVU725
 3241 0114 434B     		ldr	r3, .L205+20
 3242 0116 0022     		movs	r2, #0
 3243 0118 1A70     		strb	r2, [r3]
 3244 011a 8CE7     		b	.L188
 3245              	.L200:
 965:Core/Src/freertos.c ****   ILI9341_WriteString(Back_Top_Left.pos_x-10, Back_Top_Left.pos_y-13, "<", Font_16x26, ILI9341_BLAC
 3246              		.loc 1 965 31 is_stmt 1 discriminator 1 view .LVU726
 3247 011c 4448     		ldr	r0, .L205+32
 3248 011e FFF7FEFF 		bl	ILI9341_UpdateButton
 3249              	.LVL263:
 3250 0122 A1E7     		b	.L192
 3251              	.L201:
 975:Core/Src/freertos.c ****     arrayNodeDisplay[0] = link_stored.Node_ID;
 3252              		.loc 1 975 5 view .LVU727
 3253 0124 6422     		movs	r2, #100
 3254 0126 06A9     		add	r1, sp, #24
 3255 0128 3A4B     		ldr	r3, .L205+4
 3256 012a 1868     		ldr	r0, [r3]
 3257 012c FFF7FEFF 		bl	xQueueReceive
 3258              	.LVL264:
 976:Core/Src/freertos.c ****     sprintf(tempString, "Node ID: %#04X", link_stored.Node_ID);
 3259              		.loc 1 976 5 view .LVU728
 976:Core/Src/freertos.c ****     sprintf(tempString, "Node ID: %#04X", link_stored.Node_ID);
 3260              		.loc 1 976 38 is_stmt 0 view .LVU729
 3261 0130 BDF81820 		ldrh	r2, [sp, #24]
 976:Core/Src/freertos.c ****     sprintf(tempString, "Node ID: %#04X", link_stored.Node_ID);
 3262              		.loc 1 976 25 view .LVU730
 3263 0134 364B     		ldr	r3, .L205
 3264 0136 1A80     		strh	r2, [r3]	@ movhi
 977:Core/Src/freertos.c ****     ILI9341_WriteString(Button1.pos_x+22, Button1.pos_y+10, tempString, Font_7x10, ILI9341_GREEN, I
 3265              		.loc 1 977 5 is_stmt 1 view .LVU731
 3266 0138 DFF8E490 		ldr	r9, .L205+16
 3267 013c 4349     		ldr	r1, .L205+60
 3268 013e 4846     		mov	r0, r9
 3269 0140 FFF7FEFF 		bl	sprintf
 3270              	.LVL265:
 978:Core/Src/freertos.c ****     sprintf(tempString, "Node Status: %d", link_stored.Node_Status);
 3271              		.loc 1 978 5 view .LVU732
 3272 0144 DFF808A1 		ldr	r10, .L205+64
 3273 0148 07F10A01 		add	r1, r7, #10
 3274 014c 08F11600 		add	r0, r8, #22
 3275 0150 0023     		movs	r3, #0
 3276 0152 0293     		str	r3, [sp, #8]
 3277 0154 4FF4FC63 		mov	r3, #2016
 3278 0158 0193     		str	r3, [sp, #4]
 3279 015a DAF80430 		ldr	r3, [r10, #4]
 3280 015e 0093     		str	r3, [sp]
 3281 0160 DAF80030 		ldr	r3, [r10]
 3282 0164 4A46     		mov	r2, r9
 3283 0166 89B2     		uxth	r1, r1
 3284 0168 80B2     		uxth	r0, r0
 3285 016a FFF7FEFF 		bl	ILI9341_WriteString
ARM GAS  C:\Users\Vento\AppData\Local\Temp\ccuo4SjY.s 			page 84


 3286              	.LVL266:
 979:Core/Src/freertos.c ****     ILI9341_WriteString(Button1.pos_x+10, Button1.pos_y+35, tempString, Font_7x10, ILI9341_LIGHTBLU
 3287              		.loc 1 979 5 view .LVU733
 3288 016e BDF81A20 		ldrh	r2, [sp, #26]
 3289 0172 3849     		ldr	r1, .L205+68
 3290 0174 4846     		mov	r0, r9
 3291 0176 FFF7FEFF 		bl	sprintf
 3292              	.LVL267:
 980:Core/Src/freertos.c ****     sprintf(tempString, "Node Batt: % 4d mV", link_stored.Node_Battery_Voltage);
 3293              		.loc 1 980 5 view .LVU734
 3294 017a 08F10A08 		add	r8, r8, #10
 3295 017e 1FFA88F8 		uxth	r8, r8
 3296 0182 07F12301 		add	r1, r7, #35
 3297 0186 0023     		movs	r3, #0
 3298 0188 0293     		str	r3, [sp, #8]
 3299 018a 47F67C52 		movw	r2, #32124
 3300 018e 0192     		str	r2, [sp, #4]
 3301 0190 DAF80430 		ldr	r3, [r10, #4]
 3302 0194 0093     		str	r3, [sp]
 3303 0196 DAF80030 		ldr	r3, [r10]
 3304 019a 4A46     		mov	r2, r9
 3305 019c 89B2     		uxth	r1, r1
 3306 019e 4046     		mov	r0, r8
 3307 01a0 FFF7FEFF 		bl	ILI9341_WriteString
 3308              	.LVL268:
 981:Core/Src/freertos.c ****     ILI9341_WriteString(Button1.pos_x+10, Button1.pos_y+55, tempString, Font_7x10, ILI9341_LIGHTBLU
 3309              		.loc 1 981 5 view .LVU735
 3310 01a4 BDF81C20 		ldrh	r2, [sp, #28]
 3311 01a8 2B49     		ldr	r1, .L205+72
 3312 01aa 4846     		mov	r0, r9
 3313 01ac FFF7FEFF 		bl	sprintf
 3314              	.LVL269:
 982:Core/Src/freertos.c ****     sprintf(tempString, "Node Period: % 4d s", link_stored.Node_Period);
 3315              		.loc 1 982 5 view .LVU736
 3316 01b0 07F13701 		add	r1, r7, #55
 3317 01b4 0023     		movs	r3, #0
 3318 01b6 0293     		str	r3, [sp, #8]
 3319 01b8 47F67C52 		movw	r2, #32124
 3320 01bc 0192     		str	r2, [sp, #4]
 3321 01be DAF80430 		ldr	r3, [r10, #4]
 3322 01c2 0093     		str	r3, [sp]
 3323 01c4 DAF80030 		ldr	r3, [r10]
 3324 01c8 4A46     		mov	r2, r9
 3325 01ca 89B2     		uxth	r1, r1
 3326 01cc 4046     		mov	r0, r8
 3327 01ce FFF7FEFF 		bl	ILI9341_WriteString
 3328              	.LVL270:
 983:Core/Src/freertos.c ****     ILI9341_WriteString(Button1.pos_x+10, Button1.pos_y+75, tempString, Font_7x10, ILI9341_LIGHTBLU
 3329              		.loc 1 983 5 view .LVU737
 3330 01d2 BDF81E20 		ldrh	r2, [sp, #30]
 3331 01d6 2149     		ldr	r1, .L205+76
 3332 01d8 4846     		mov	r0, r9
 3333 01da FFF7FEFF 		bl	sprintf
 3334              	.LVL271:
 984:Core/Src/freertos.c ****     xQueueSend(link_queue, &link_stored, 100);
 3335              		.loc 1 984 5 view .LVU738
 3336 01de 07F14B01 		add	r1, r7, #75
ARM GAS  C:\Users\Vento\AppData\Local\Temp\ccuo4SjY.s 			page 85


 3337 01e2 0023     		movs	r3, #0
 3338 01e4 0293     		str	r3, [sp, #8]
 3339 01e6 47F67C52 		movw	r2, #32124
 3340 01ea 0192     		str	r2, [sp, #4]
 3341 01ec DAF80430 		ldr	r3, [r10, #4]
 3342 01f0 0093     		str	r3, [sp]
 3343 01f2 DAF80030 		ldr	r3, [r10]
 3344 01f6 4A46     		mov	r2, r9
 3345 01f8 89B2     		uxth	r1, r1
 3346 01fa 4046     		mov	r0, r8
 3347 01fc FFF7FEFF 		bl	ILI9341_WriteString
 3348              	.LVL272:
 985:Core/Src/freertos.c ****   }
 3349              		.loc 1 985 5 view .LVU739
 3350 0200 0023     		movs	r3, #0
 3351 0202 6422     		movs	r2, #100
 3352 0204 06A9     		add	r1, sp, #24
 3353 0206 0348     		ldr	r0, .L205+4
 3354 0208 0068     		ldr	r0, [r0]
 3355 020a FFF7FEFF 		bl	xQueueGenericSend
 3356              	.LVL273:
 3357 020e 72E7     		b	.L193
 3358              	.L206:
 3359              		.align	2
 3360              	.L205:
 3361 0210 00000000 		.word	.LANCHOR40
 3362 0214 00000000 		.word	.LANCHOR23
 3363 0218 00000000 		.word	.LANCHOR28
 3364 021c 00000000 		.word	.LC35
 3365 0220 00000000 		.word	.LANCHOR39
 3366 0224 00000000 		.word	.LANCHOR41
 3367 0228 00000000 		.word	.LANCHOR37
 3368 022c 00000000 		.word	Font_11x18
 3369 0230 00000000 		.word	Back_Top_Left
 3370 0234 00000000 		.word	Font_16x26
 3371 0238 14000000 		.word	.LC36
 3372 023c 00000000 		.word	Button1
 3373 0240 00000000 		.word	Button2
 3374 0244 00000000 		.word	Button3
 3375 0248 00000000 		.word	Button4
 3376 024c 18000000 		.word	.LC37
 3377 0250 00000000 		.word	Font_7x10
 3378 0254 28000000 		.word	.LC38
 3379 0258 38000000 		.word	.LC39
 3380 025c 4C000000 		.word	.LC40
 3381              	.L202:
 989:Core/Src/freertos.c ****     arrayNodeDisplay[1] = link_stored.Node_ID;
 3382              		.loc 1 989 5 view .LVU740
 3383 0260 6422     		movs	r2, #100
 3384 0262 06A9     		add	r1, sp, #24
 3385 0264 A44B     		ldr	r3, .L207
 3386 0266 1868     		ldr	r0, [r3]
 3387 0268 FFF7FEFF 		bl	xQueueReceive
 3388              	.LVL274:
 990:Core/Src/freertos.c ****     sprintf(tempString, "Node ID: %#04X", link_stored.Node_ID);
 3389              		.loc 1 990 5 view .LVU741
 990:Core/Src/freertos.c ****     sprintf(tempString, "Node ID: %#04X", link_stored.Node_ID);
ARM GAS  C:\Users\Vento\AppData\Local\Temp\ccuo4SjY.s 			page 86


 3390              		.loc 1 990 38 is_stmt 0 view .LVU742
 3391 026c BDF81820 		ldrh	r2, [sp, #24]
 990:Core/Src/freertos.c ****     sprintf(tempString, "Node ID: %#04X", link_stored.Node_ID);
 3392              		.loc 1 990 25 view .LVU743
 3393 0270 A24B     		ldr	r3, .L207+4
 3394 0272 5A80     		strh	r2, [r3, #2]	@ movhi
 991:Core/Src/freertos.c ****     ILI9341_WriteString(Button2.pos_x+22, Button2.pos_y+10, tempString, Font_7x10, ILI9341_GREEN, I
 3395              		.loc 1 991 5 is_stmt 1 view .LVU744
 3396 0274 A24F     		ldr	r7, .L207+8
 3397 0276 A349     		ldr	r1, .L207+12
 3398 0278 3846     		mov	r0, r7
 3399 027a FFF7FEFF 		bl	sprintf
 3400              	.LVL275:
 992:Core/Src/freertos.c ****     sprintf(tempString, "Node Status: %d", link_stored.Node_Status);
 3401              		.loc 1 992 5 view .LVU745
 3402 027e DFF88882 		ldr	r8, .L207+16
 3403 0282 05F10A01 		add	r1, r5, #10
 3404 0286 04F11600 		add	r0, r4, #22
 3405 028a 4FF00009 		mov	r9, #0
 3406 028e CDF80890 		str	r9, [sp, #8]
 3407 0292 4FF4FC63 		mov	r3, #2016
 3408 0296 0193     		str	r3, [sp, #4]
 3409 0298 D8F80430 		ldr	r3, [r8, #4]
 3410 029c 0093     		str	r3, [sp]
 3411 029e D8F80030 		ldr	r3, [r8]
 3412 02a2 3A46     		mov	r2, r7
 3413 02a4 89B2     		uxth	r1, r1
 3414 02a6 80B2     		uxth	r0, r0
 3415 02a8 FFF7FEFF 		bl	ILI9341_WriteString
 3416              	.LVL276:
 993:Core/Src/freertos.c ****     ILI9341_WriteString(Button2.pos_x+10, Button2.pos_y+35, tempString, Font_7x10, ILI9341_LIGHTBLU
 3417              		.loc 1 993 5 view .LVU746
 3418 02ac BDF81A20 		ldrh	r2, [sp, #26]
 3419 02b0 9649     		ldr	r1, .L207+20
 3420 02b2 3846     		mov	r0, r7
 3421 02b4 FFF7FEFF 		bl	sprintf
 3422              	.LVL277:
 994:Core/Src/freertos.c ****     sprintf(tempString, "Node Batt: % 4d mV", link_stored.Node_Battery_Voltage);
 3423              		.loc 1 994 5 view .LVU747
 3424 02b8 0A34     		adds	r4, r4, #10
 3425 02ba A4B2     		uxth	r4, r4
 3426 02bc 05F12301 		add	r1, r5, #35
 3427 02c0 CDF80890 		str	r9, [sp, #8]
 3428 02c4 47F67C5A 		movw	r10, #32124
 3429 02c8 CDF804A0 		str	r10, [sp, #4]
 3430 02cc D8F80430 		ldr	r3, [r8, #4]
 3431 02d0 0093     		str	r3, [sp]
 3432 02d2 D8F80030 		ldr	r3, [r8]
 3433 02d6 3A46     		mov	r2, r7
 3434 02d8 89B2     		uxth	r1, r1
 3435 02da 2046     		mov	r0, r4
 3436 02dc FFF7FEFF 		bl	ILI9341_WriteString
 3437              	.LVL278:
 995:Core/Src/freertos.c ****     ILI9341_WriteString(Button2.pos_x+10, Button2.pos_y+55, tempString, Font_7x10, ILI9341_LIGHTBLU
 3438              		.loc 1 995 5 view .LVU748
 3439 02e0 BDF81C20 		ldrh	r2, [sp, #28]
 3440 02e4 8A49     		ldr	r1, .L207+24
ARM GAS  C:\Users\Vento\AppData\Local\Temp\ccuo4SjY.s 			page 87


 3441 02e6 3846     		mov	r0, r7
 3442 02e8 FFF7FEFF 		bl	sprintf
 3443              	.LVL279:
 996:Core/Src/freertos.c ****     sprintf(tempString, "Node Period: % 4d s", link_stored.Node_Period);
 3444              		.loc 1 996 5 view .LVU749
 3445 02ec 05F13701 		add	r1, r5, #55
 3446 02f0 CDF80890 		str	r9, [sp, #8]
 3447 02f4 CDF804A0 		str	r10, [sp, #4]
 3448 02f8 D8F80430 		ldr	r3, [r8, #4]
 3449 02fc 0093     		str	r3, [sp]
 3450 02fe D8F80030 		ldr	r3, [r8]
 3451 0302 3A46     		mov	r2, r7
 3452 0304 89B2     		uxth	r1, r1
 3453 0306 2046     		mov	r0, r4
 3454 0308 FFF7FEFF 		bl	ILI9341_WriteString
 3455              	.LVL280:
 997:Core/Src/freertos.c ****     ILI9341_WriteString(Button2.pos_x+10, Button2.pos_y+75, tempString, Font_7x10, ILI9341_LIGHTBLU
 3456              		.loc 1 997 5 view .LVU750
 3457 030c BDF81E20 		ldrh	r2, [sp, #30]
 3458 0310 8049     		ldr	r1, .L207+28
 3459 0312 3846     		mov	r0, r7
 3460 0314 FFF7FEFF 		bl	sprintf
 3461              	.LVL281:
 998:Core/Src/freertos.c ****     xQueueSend(link_queue, &link_stored, 100);
 3462              		.loc 1 998 5 view .LVU751
 3463 0318 05F14B01 		add	r1, r5, #75
 3464 031c CDF80890 		str	r9, [sp, #8]
 3465 0320 CDF804A0 		str	r10, [sp, #4]
 3466 0324 D8F80430 		ldr	r3, [r8, #4]
 3467 0328 0093     		str	r3, [sp]
 3468 032a D8F80030 		ldr	r3, [r8]
 3469 032e 3A46     		mov	r2, r7
 3470 0330 89B2     		uxth	r1, r1
 3471 0332 2046     		mov	r0, r4
 3472 0334 FFF7FEFF 		bl	ILI9341_WriteString
 3473              	.LVL282:
 999:Core/Src/freertos.c ****   }
 3474              		.loc 1 999 5 view .LVU752
 3475 0338 4B46     		mov	r3, r9
 3476 033a 6422     		movs	r2, #100
 3477 033c 06A9     		add	r1, sp, #24
 3478 033e 6E48     		ldr	r0, .L207
 3479 0340 0068     		ldr	r0, [r0]
 3480 0342 FFF7FEFF 		bl	xQueueGenericSend
 3481              	.LVL283:
 3482 0346 DBE6     		b	.L194
 3483              	.L203:
1003:Core/Src/freertos.c ****     arrayNodeDisplay[2] = link_stored.Node_ID;
 3484              		.loc 1 1003 5 view .LVU753
 3485 0348 DFF8AC91 		ldr	r9, .L207
 3486 034c 6422     		movs	r2, #100
 3487 034e 06A9     		add	r1, sp, #24
 3488 0350 D9F80000 		ldr	r0, [r9]
 3489 0354 FFF7FEFF 		bl	xQueueReceive
 3490              	.LVL284:
1004:Core/Src/freertos.c ****     sprintf(tempString, "Node ID: %#04X", link_stored.Node_ID);
 3491              		.loc 1 1004 5 view .LVU754
ARM GAS  C:\Users\Vento\AppData\Local\Temp\ccuo4SjY.s 			page 88


1004:Core/Src/freertos.c ****     sprintf(tempString, "Node ID: %#04X", link_stored.Node_ID);
 3492              		.loc 1 1004 38 is_stmt 0 view .LVU755
 3493 0358 BDF81820 		ldrh	r2, [sp, #24]
1004:Core/Src/freertos.c ****     sprintf(tempString, "Node ID: %#04X", link_stored.Node_ID);
 3494              		.loc 1 1004 25 view .LVU756
 3495 035c 674B     		ldr	r3, .L207+4
 3496 035e 9A80     		strh	r2, [r3, #4]	@ movhi
1005:Core/Src/freertos.c ****     ILI9341_WriteString(Button3.pos_x+22, Button3.pos_y+10, tempString, Font_7x10, ILI9341_GREEN, I
 3497              		.loc 1 1005 5 is_stmt 1 view .LVU757
 3498 0360 674D     		ldr	r5, .L207+8
 3499 0362 6849     		ldr	r1, .L207+12
 3500 0364 2846     		mov	r0, r5
 3501 0366 FFF7FEFF 		bl	sprintf
 3502              	.LVL285:
1006:Core/Src/freertos.c ****     sprintf(tempString, "Node Status: %d", link_stored.Node_Status);
 3503              		.loc 1 1006 5 view .LVU758
 3504 036a 674F     		ldr	r7, .L207+16
 3505 036c 06F10A01 		add	r1, r6, #10
 3506 0370 049C     		ldr	r4, [sp, #16]
 3507 0372 04F11600 		add	r0, r4, #22
 3508 0376 4FF00008 		mov	r8, #0
 3509 037a CDF80880 		str	r8, [sp, #8]
 3510 037e 4FF4FC63 		mov	r3, #2016
 3511 0382 0193     		str	r3, [sp, #4]
 3512 0384 7B68     		ldr	r3, [r7, #4]
 3513 0386 0093     		str	r3, [sp]
 3514 0388 3B68     		ldr	r3, [r7]
 3515 038a 2A46     		mov	r2, r5
 3516 038c 89B2     		uxth	r1, r1
 3517 038e 80B2     		uxth	r0, r0
 3518 0390 FFF7FEFF 		bl	ILI9341_WriteString
 3519              	.LVL286:
1007:Core/Src/freertos.c ****     ILI9341_WriteString(Button3.pos_x+10, Button3.pos_y+35, tempString, Font_7x10, ILI9341_LIGHTBLU
 3520              		.loc 1 1007 5 view .LVU759
 3521 0394 BDF81A20 		ldrh	r2, [sp, #26]
 3522 0398 5C49     		ldr	r1, .L207+20
 3523 039a 2846     		mov	r0, r5
 3524 039c FFF7FEFF 		bl	sprintf
 3525              	.LVL287:
1008:Core/Src/freertos.c ****     sprintf(tempString, "Node Batt: % 4d mV", link_stored.Node_Battery_Voltage);
 3526              		.loc 1 1008 5 view .LVU760
 3527 03a0 0A34     		adds	r4, r4, #10
 3528 03a2 A4B2     		uxth	r4, r4
 3529 03a4 06F12301 		add	r1, r6, #35
 3530 03a8 CDF80880 		str	r8, [sp, #8]
 3531 03ac 47F67C5A 		movw	r10, #32124
 3532 03b0 CDF804A0 		str	r10, [sp, #4]
 3533 03b4 7B68     		ldr	r3, [r7, #4]
 3534 03b6 0093     		str	r3, [sp]
 3535 03b8 3B68     		ldr	r3, [r7]
 3536 03ba 2A46     		mov	r2, r5
 3537 03bc 89B2     		uxth	r1, r1
 3538 03be 2046     		mov	r0, r4
 3539 03c0 FFF7FEFF 		bl	ILI9341_WriteString
 3540              	.LVL288:
1009:Core/Src/freertos.c ****     ILI9341_WriteString(Button3.pos_x+10, Button3.pos_y+55, tempString, Font_7x10, ILI9341_LIGHTBLU
 3541              		.loc 1 1009 5 view .LVU761
ARM GAS  C:\Users\Vento\AppData\Local\Temp\ccuo4SjY.s 			page 89


 3542 03c4 BDF81C20 		ldrh	r2, [sp, #28]
 3543 03c8 5149     		ldr	r1, .L207+24
 3544 03ca 2846     		mov	r0, r5
 3545 03cc FFF7FEFF 		bl	sprintf
 3546              	.LVL289:
1010:Core/Src/freertos.c ****     sprintf(tempString, "Node Period: % 4d s", link_stored.Node_Period);
 3547              		.loc 1 1010 5 view .LVU762
 3548 03d0 06F13701 		add	r1, r6, #55
 3549 03d4 CDF80880 		str	r8, [sp, #8]
 3550 03d8 CDF804A0 		str	r10, [sp, #4]
 3551 03dc 7B68     		ldr	r3, [r7, #4]
 3552 03de 0093     		str	r3, [sp]
 3553 03e0 3B68     		ldr	r3, [r7]
 3554 03e2 2A46     		mov	r2, r5
 3555 03e4 89B2     		uxth	r1, r1
 3556 03e6 2046     		mov	r0, r4
 3557 03e8 FFF7FEFF 		bl	ILI9341_WriteString
 3558              	.LVL290:
1011:Core/Src/freertos.c ****     ILI9341_WriteString(Button3.pos_x+10, Button3.pos_y+75, tempString, Font_7x10, ILI9341_LIGHTBLU
 3559              		.loc 1 1011 5 view .LVU763
 3560 03ec BDF81E20 		ldrh	r2, [sp, #30]
 3561 03f0 4849     		ldr	r1, .L207+28
 3562 03f2 2846     		mov	r0, r5
 3563 03f4 FFF7FEFF 		bl	sprintf
 3564              	.LVL291:
1012:Core/Src/freertos.c ****     xQueueSend(link_queue, &link_stored, 100);
 3565              		.loc 1 1012 5 view .LVU764
 3566 03f8 06F14B01 		add	r1, r6, #75
 3567 03fc CDF80880 		str	r8, [sp, #8]
 3568 0400 CDF804A0 		str	r10, [sp, #4]
 3569 0404 7B68     		ldr	r3, [r7, #4]
 3570 0406 0093     		str	r3, [sp]
 3571 0408 3B68     		ldr	r3, [r7]
 3572 040a 2A46     		mov	r2, r5
 3573 040c 89B2     		uxth	r1, r1
 3574 040e 2046     		mov	r0, r4
 3575 0410 FFF7FEFF 		bl	ILI9341_WriteString
 3576              	.LVL292:
1013:Core/Src/freertos.c ****   }
 3577              		.loc 1 1013 5 view .LVU765
 3578 0414 4346     		mov	r3, r8
 3579 0416 6422     		movs	r2, #100
 3580 0418 06A9     		add	r1, sp, #24
 3581 041a D9F80000 		ldr	r0, [r9]
 3582 041e FFF7FEFF 		bl	xQueueGenericSend
 3583              	.LVL293:
 3584 0422 72E6     		b	.L195
 3585              	.L204:
1017:Core/Src/freertos.c ****     arrayNodeDisplay[3] = link_stored.Node_ID;
 3586              		.loc 1 1017 5 view .LVU766
 3587 0424 DFF8D080 		ldr	r8, .L207
 3588 0428 6422     		movs	r2, #100
 3589 042a 06A9     		add	r1, sp, #24
 3590 042c D8F80000 		ldr	r0, [r8]
 3591 0430 FFF7FEFF 		bl	xQueueReceive
 3592              	.LVL294:
1018:Core/Src/freertos.c ****     sprintf(tempString, "Node ID: %#04X", link_stored.Node_ID);
ARM GAS  C:\Users\Vento\AppData\Local\Temp\ccuo4SjY.s 			page 90


 3593              		.loc 1 1018 5 view .LVU767
1018:Core/Src/freertos.c ****     sprintf(tempString, "Node ID: %#04X", link_stored.Node_ID);
 3594              		.loc 1 1018 38 is_stmt 0 view .LVU768
 3595 0434 BDF81820 		ldrh	r2, [sp, #24]
1018:Core/Src/freertos.c ****     sprintf(tempString, "Node ID: %#04X", link_stored.Node_ID);
 3596              		.loc 1 1018 25 view .LVU769
 3597 0438 304B     		ldr	r3, .L207+4
 3598 043a DA80     		strh	r2, [r3, #6]	@ movhi
1019:Core/Src/freertos.c ****     ILI9341_WriteString(Button4.pos_x+22, Button4.pos_y+10, tempString, Font_7x10, ILI9341_GREEN, I
 3599              		.loc 1 1019 5 is_stmt 1 view .LVU770
 3600 043c 304D     		ldr	r5, .L207+8
 3601 043e 3149     		ldr	r1, .L207+12
 3602 0440 2846     		mov	r0, r5
 3603 0442 FFF7FEFF 		bl	sprintf
 3604              	.LVL295:
1020:Core/Src/freertos.c ****     sprintf(tempString, "Node Status: %d", link_stored.Node_Status);
 3605              		.loc 1 1020 5 view .LVU771
 3606 0446 304E     		ldr	r6, .L207+16
 3607 0448 0BF10A01 		add	r1, fp, #10
 3608 044c 059C     		ldr	r4, [sp, #20]
 3609 044e 04F11600 		add	r0, r4, #22
 3610 0452 0027     		movs	r7, #0
 3611 0454 0297     		str	r7, [sp, #8]
 3612 0456 4FF4FC63 		mov	r3, #2016
 3613 045a 0193     		str	r3, [sp, #4]
 3614 045c 7368     		ldr	r3, [r6, #4]
 3615 045e 0093     		str	r3, [sp]
 3616 0460 3368     		ldr	r3, [r6]
 3617 0462 2A46     		mov	r2, r5
 3618 0464 89B2     		uxth	r1, r1
 3619 0466 80B2     		uxth	r0, r0
 3620 0468 FFF7FEFF 		bl	ILI9341_WriteString
 3621              	.LVL296:
1021:Core/Src/freertos.c ****     ILI9341_WriteString(Button4.pos_x+10, Button4.pos_y+35, tempString, Font_7x10, ILI9341_LIGHTBLU
 3622              		.loc 1 1021 5 view .LVU772
 3623 046c BDF81A20 		ldrh	r2, [sp, #26]
 3624 0470 2649     		ldr	r1, .L207+20
 3625 0472 2846     		mov	r0, r5
 3626 0474 FFF7FEFF 		bl	sprintf
 3627              	.LVL297:
1022:Core/Src/freertos.c ****     sprintf(tempString, "Node Batt: % 4d mV", link_stored.Node_Battery_Voltage);
 3628              		.loc 1 1022 5 view .LVU773
 3629 0478 0A34     		adds	r4, r4, #10
 3630 047a A4B2     		uxth	r4, r4
 3631 047c 0BF12301 		add	r1, fp, #35
 3632 0480 0297     		str	r7, [sp, #8]
 3633 0482 47F67C59 		movw	r9, #32124
 3634 0486 CDF80490 		str	r9, [sp, #4]
 3635 048a 7368     		ldr	r3, [r6, #4]
 3636 048c 0093     		str	r3, [sp]
 3637 048e 3368     		ldr	r3, [r6]
 3638 0490 2A46     		mov	r2, r5
 3639 0492 89B2     		uxth	r1, r1
 3640 0494 2046     		mov	r0, r4
 3641 0496 FFF7FEFF 		bl	ILI9341_WriteString
 3642              	.LVL298:
1023:Core/Src/freertos.c ****     ILI9341_WriteString(Button4.pos_x+10, Button4.pos_y+55, tempString, Font_7x10, ILI9341_LIGHTBLU
ARM GAS  C:\Users\Vento\AppData\Local\Temp\ccuo4SjY.s 			page 91


 3643              		.loc 1 1023 5 view .LVU774
 3644 049a BDF81C20 		ldrh	r2, [sp, #28]
 3645 049e 1C49     		ldr	r1, .L207+24
 3646 04a0 2846     		mov	r0, r5
 3647 04a2 FFF7FEFF 		bl	sprintf
 3648              	.LVL299:
1024:Core/Src/freertos.c ****     sprintf(tempString, "Node Period: % 4d s", link_stored.Node_Period);
 3649              		.loc 1 1024 5 view .LVU775
 3650 04a6 0BF13701 		add	r1, fp, #55
 3651 04aa 0297     		str	r7, [sp, #8]
 3652 04ac CDF80490 		str	r9, [sp, #4]
 3653 04b0 7368     		ldr	r3, [r6, #4]
 3654 04b2 0093     		str	r3, [sp]
 3655 04b4 3368     		ldr	r3, [r6]
 3656 04b6 2A46     		mov	r2, r5
 3657 04b8 89B2     		uxth	r1, r1
 3658 04ba 2046     		mov	r0, r4
 3659 04bc FFF7FEFF 		bl	ILI9341_WriteString
 3660              	.LVL300:
1025:Core/Src/freertos.c ****     ILI9341_WriteString(Button4.pos_x+10, Button4.pos_y+75, tempString, Font_7x10, ILI9341_LIGHTBLU
 3661              		.loc 1 1025 5 view .LVU776
 3662 04c0 BDF81E20 		ldrh	r2, [sp, #30]
 3663 04c4 1349     		ldr	r1, .L207+28
 3664 04c6 2846     		mov	r0, r5
 3665 04c8 FFF7FEFF 		bl	sprintf
 3666              	.LVL301:
1026:Core/Src/freertos.c ****     xQueueSend(link_queue, &link_stored, 100);
 3667              		.loc 1 1026 5 view .LVU777
 3668 04cc 0BF14B01 		add	r1, fp, #75
 3669 04d0 0297     		str	r7, [sp, #8]
 3670 04d2 CDF80490 		str	r9, [sp, #4]
 3671 04d6 7368     		ldr	r3, [r6, #4]
 3672 04d8 0093     		str	r3, [sp]
 3673 04da 3368     		ldr	r3, [r6]
 3674 04dc 2A46     		mov	r2, r5
 3675 04de 89B2     		uxth	r1, r1
 3676 04e0 2046     		mov	r0, r4
 3677 04e2 FFF7FEFF 		bl	ILI9341_WriteString
 3678              	.LVL302:
1027:Core/Src/freertos.c ****   }
 3679              		.loc 1 1027 5 view .LVU778
 3680 04e6 3B46     		mov	r3, r7
 3681 04e8 6422     		movs	r2, #100
 3682 04ea 06A9     		add	r1, sp, #24
 3683 04ec D8F80000 		ldr	r0, [r8]
 3684 04f0 FFF7FEFF 		bl	xQueueGenericSend
 3685              	.LVL303:
 3686 04f4 0EE6     		b	.L196
 3687              	.L208:
 3688 04f6 00BF     		.align	2
 3689              	.L207:
 3690 04f8 00000000 		.word	.LANCHOR23
 3691 04fc 00000000 		.word	.LANCHOR40
 3692 0500 00000000 		.word	.LANCHOR39
 3693 0504 18000000 		.word	.LC37
 3694 0508 00000000 		.word	Font_7x10
 3695 050c 28000000 		.word	.LC38
ARM GAS  C:\Users\Vento\AppData\Local\Temp\ccuo4SjY.s 			page 92


 3696 0510 38000000 		.word	.LC39
 3697 0514 4C000000 		.word	.LC40
 3698              		.cfi_endproc
 3699              	.LFE92:
 3701              		.section	.rodata.LCD_Join_Request_Page_Handle.str1.4,"aMS",%progbits,1
 3702              		.align	2
 3703              	.LC41:
 3704 0000 52657370 		.ascii	"Response Queue has %d packet(s)\012\000"
 3704      6F6E7365 
 3704      20517565 
 3704      75652068 
 3704      61732025 
 3705 0021 000000   		.align	2
 3706              	.LC42:
 3707 0024 52657370 		.ascii	"Response Queue Full\012\000"
 3707      6F6E7365 
 3707      20517565 
 3707      75652046 
 3707      756C6C0A 
 3708              		.section	.text.LCD_Join_Request_Page_Handle,"ax",%progbits
 3709              		.align	1
 3710              		.global	LCD_Join_Request_Page_Handle
 3711              		.syntax unified
 3712              		.thumb
 3713              		.thumb_func
 3714              		.fpu softvfp
 3716              	LCD_Join_Request_Page_Handle:
 3717              	.LVL304:
 3718              	.LFB93:
1032:Core/Src/freertos.c **** 
1033:Core/Src/freertos.c **** void LCD_Join_Request_Page_Handle(const uint16_t x, const uint16_t y)
1034:Core/Src/freertos.c **** {
 3719              		.loc 1 1034 1 view -0
 3720              		.cfi_startproc
 3721              		@ args = 0, pretend = 0, frame = 24
 3722              		@ frame_needed = 0, uses_anonymous_args = 0
 3723              		.loc 1 1034 1 is_stmt 0 view .LVU780
 3724 0000 30B5     		push	{r4, r5, lr}
 3725              	.LCFI43:
 3726              		.cfi_def_cfa_offset 12
 3727              		.cfi_offset 4, -12
 3728              		.cfi_offset 5, -8
 3729              		.cfi_offset 14, -4
 3730 0002 89B0     		sub	sp, sp, #36
 3731              	.LCFI44:
 3732              		.cfi_def_cfa_offset 48
 3733 0004 0446     		mov	r4, r0
 3734 0006 0D46     		mov	r5, r1
1035:Core/Src/freertos.c ****   if (is_promt_window_on == true)
 3735              		.loc 1 1035 3 is_stmt 1 view .LVU781
 3736              		.loc 1 1035 26 is_stmt 0 view .LVU782
 3737 0008 994B     		ldr	r3, .L233
 3738 000a 1B78     		ldrb	r3, [r3]	@ zero_extendqisi2
 3739              		.loc 1 1035 6 view .LVU783
 3740 000c 8BB9     		cbnz	r3, .L228
1036:Core/Src/freertos.c ****   {
1037:Core/Src/freertos.c ****     if (ILI9341_checkButton(x, y, &Promt_Accept, false) == true)
ARM GAS  C:\Users\Vento\AppData\Local\Temp\ccuo4SjY.s 			page 93


1038:Core/Src/freertos.c ****     {
1039:Core/Src/freertos.c ****       ResponsePacket_t resp_packet;
1040:Core/Src/freertos.c ****       Link_Struct_t link_2_store;
1041:Core/Src/freertos.c ****       is_Node_ID_inResponseQueue(selected_Node_ID, true);
1042:Core/Src/freertos.c ****       is_Node_ID_inLinkQueue(selected_Node_ID, false);
1043:Core/Src/freertos.c ****       xQueueReceive(link_queue, &link_2_store, 100);
1044:Core/Src/freertos.c ****       number_of_Node_inQueue = MAX_NODE - (uint8_t)uxQueueSpacesAvailable(link_queue);
1045:Core/Src/freertos.c ****       if (number_of_Node_inQueue != MAX_NODE)   logPC("Link Queue has %d Node(s)\n", number_of_Node
1046:Core/Src/freertos.c ****       else                                      logPC("Link Queue Full\n");
1047:Core/Src/freertos.c ****       resp_packet.Packet_ID = PACKET_ID_2;
1048:Core/Src/freertos.c ****       resp_packet.Target_Node_ID = selected_Node_ID;
1049:Core/Src/freertos.c ****       resp_packet.Target_Node_Status = 4U;
1050:Core/Src/freertos.c ****       resp_packet.Target_Node_Period = 180U;
1051:Core/Src/freertos.c ****       resp_packet.Target_Node_Response = (uint16_t)(((uint16_t)(LINK_ACCEPT << 8) & 0xFF00) | LINK_
1052:Core/Src/freertos.c ****       xQueueSend(response_queue, &resp_packet, 100);
1053:Core/Src/freertos.c ****       number_of_Response_Packet_inQueue = 5U - (uint8_t)uxQueueSpacesAvailable(response_queue);
1054:Core/Src/freertos.c ****       if (number_of_Response_Packet_inQueue != 5U)    logPC("Response Queue has %d packet(s)\n", nu
1055:Core/Src/freertos.c ****       else                                            logPC("Response Queue Full\n");
1056:Core/Src/freertos.c ****       App_Add_Node_To_Network(link_2_store);
1057:Core/Src/freertos.c ****       ILI9341_FillRectangle(Promt_Window.pos_x, Promt_Window.pos_y, Promt_Window.shape_w, Promt_Win
1058:Core/Src/freertos.c ****       is_page_change = true;
1059:Core/Src/freertos.c ****       LCD_Print_Join_Request_Page();
1060:Core/Src/freertos.c ****       is_promt_window_on = false;
1061:Core/Src/freertos.c ****     } 
1062:Core/Src/freertos.c ****     else if (ILI9341_checkButton(x, y, &Promt_Reject, false) == true)
1063:Core/Src/freertos.c ****     {
1064:Core/Src/freertos.c ****       ResponsePacket_t resp_packet;
1065:Core/Src/freertos.c ****       is_Node_ID_inResponseQueue(selected_Node_ID, true);
1066:Core/Src/freertos.c ****       is_Node_ID_inLinkQueue(selected_Node_ID, true);
1067:Core/Src/freertos.c ****       number_of_Node_inQueue = MAX_NODE - (uint8_t)uxQueueSpacesAvailable(link_queue);
1068:Core/Src/freertos.c ****       if (number_of_Node_inQueue != MAX_NODE)   logPC("Link Queue has %d Node(s)\n", number_of_Node
1069:Core/Src/freertos.c ****       else                                      logPC("Link Queue Full\n");
1070:Core/Src/freertos.c ****       resp_packet.Packet_ID = PACKET_ID_2;
1071:Core/Src/freertos.c ****       resp_packet.Target_Node_ID = selected_Node_ID;
1072:Core/Src/freertos.c ****       resp_packet.Target_Node_Status = 16U;
1073:Core/Src/freertos.c ****       resp_packet.Target_Node_Period = 180U;
1074:Core/Src/freertos.c ****       resp_packet.Target_Node_Response = (uint16_t)(((uint16_t)(LINK_REJECT << 8) & 0xFF00) | LINK_
1075:Core/Src/freertos.c ****       xQueueSend(response_queue, &resp_packet, 100);
1076:Core/Src/freertos.c ****       number_of_Response_Packet_inQueue = 5U - (uint8_t)uxQueueSpacesAvailable(response_queue);
1077:Core/Src/freertos.c ****       if (number_of_Response_Packet_inQueue != 5U)    logPC("Response Queue has %d packet(s)\n", nu
1078:Core/Src/freertos.c ****       else                                            logPC("Response Queue Full\n");
1079:Core/Src/freertos.c ****       ILI9341_FillRectangle(Promt_Window.pos_x, Promt_Window.pos_y, Promt_Window.shape_w,Promt_Wind
1080:Core/Src/freertos.c ****       is_page_change = true;
1081:Core/Src/freertos.c ****       LCD_Print_Join_Request_Page();
1082:Core/Src/freertos.c ****       is_promt_window_on = false;
1083:Core/Src/freertos.c ****     }
1084:Core/Src/freertos.c ****     else if (ILI9341_checkButton(x, y, &Promt_Window, false) == false)
1085:Core/Src/freertos.c ****     {
1086:Core/Src/freertos.c ****       ILI9341_FillRectangle(Promt_Window.pos_x, Promt_Window.pos_y, Promt_Window.shape_w,Promt_Wind
1087:Core/Src/freertos.c ****       LCD_Print_Join_Request_Page();
1088:Core/Src/freertos.c ****       is_promt_window_on = false;
1089:Core/Src/freertos.c ****     }
1090:Core/Src/freertos.c ****     return;
1091:Core/Src/freertos.c ****   }
1092:Core/Src/freertos.c **** 
1093:Core/Src/freertos.c ****   if (ILI9341_checkButton(x, y, &Back_Top_Left, false) == true)
 3741              		.loc 1 1093 3 is_stmt 1 view .LVU784
ARM GAS  C:\Users\Vento\AppData\Local\Temp\ccuo4SjY.s 			page 94


 3742              		.loc 1 1093 7 is_stmt 0 view .LVU785
 3743 000e 0023     		movs	r3, #0
 3744 0010 984A     		ldr	r2, .L233+4
 3745 0012 FFF7FEFF 		bl	ILI9341_checkButton
 3746              	.LVL305:
 3747              		.loc 1 1093 6 view .LVU786
 3748 0016 28B1     		cbz	r0, .L223
1094:Core/Src/freertos.c ****   {
1095:Core/Src/freertos.c ****     Current_Page = MAIN_PAGE;
 3749              		.loc 1 1095 5 is_stmt 1 view .LVU787
 3750              		.loc 1 1095 18 is_stmt 0 view .LVU788
 3751 0018 974B     		ldr	r3, .L233+8
 3752 001a 0022     		movs	r2, #0
 3753 001c 1A70     		strb	r2, [r3]
1096:Core/Src/freertos.c ****     is_page_change = true;
 3754              		.loc 1 1096 5 is_stmt 1 view .LVU789
 3755              		.loc 1 1096 20 is_stmt 0 view .LVU790
 3756 001e 974B     		ldr	r3, .L233+12
 3757 0020 0122     		movs	r2, #1
 3758 0022 1A70     		strb	r2, [r3]
 3759              	.L223:
1097:Core/Src/freertos.c ****   }
1098:Core/Src/freertos.c **** 
1099:Core/Src/freertos.c ****   if (number_of_Node_inQueue == 0)  return;
 3760              		.loc 1 1099 3 is_stmt 1 view .LVU791
 3761              		.loc 1 1099 30 is_stmt 0 view .LVU792
 3762 0024 964B     		ldr	r3, .L233+16
 3763 0026 1B78     		ldrb	r3, [r3]	@ zero_extendqisi2
 3764              		.loc 1 1099 6 view .LVU793
 3765 0028 002B     		cmp	r3, #0
 3766 002a 40F0E180 		bne	.L229
 3767              	.L209:
1100:Core/Src/freertos.c **** 
1101:Core/Src/freertos.c ****   if      ((ILI9341_checkButton(x, y, &Button1, false) == true) && (arrayNodeDisplay[0] != 0U))
1102:Core/Src/freertos.c ****   {
1103:Core/Src/freertos.c ****     selected_Node_ID = arrayNodeDisplay[0];
1104:Core/Src/freertos.c ****     LCD_Print_Promt_Window();
1105:Core/Src/freertos.c ****   }
1106:Core/Src/freertos.c ****   else if ((ILI9341_checkButton(x, y, &Button2, false) == true) && (arrayNodeDisplay[1] != 0U))
1107:Core/Src/freertos.c ****   {
1108:Core/Src/freertos.c ****     selected_Node_ID = arrayNodeDisplay[1];
1109:Core/Src/freertos.c ****     LCD_Print_Promt_Window();
1110:Core/Src/freertos.c ****   }
1111:Core/Src/freertos.c ****   else if ((ILI9341_checkButton(x, y, &Button3, false) == true) && (arrayNodeDisplay[2] != 0U))
1112:Core/Src/freertos.c ****   {
1113:Core/Src/freertos.c ****     selected_Node_ID = arrayNodeDisplay[2];
1114:Core/Src/freertos.c ****     LCD_Print_Promt_Window();
1115:Core/Src/freertos.c ****   }
1116:Core/Src/freertos.c ****   else if ((ILI9341_checkButton(x, y, &Button4, false) == true) && (arrayNodeDisplay[3] != 0U))
1117:Core/Src/freertos.c ****   {
1118:Core/Src/freertos.c ****     selected_Node_ID = arrayNodeDisplay[3];
1119:Core/Src/freertos.c ****     LCD_Print_Promt_Window();
1120:Core/Src/freertos.c ****   }
1121:Core/Src/freertos.c **** }
 3768              		.loc 1 1121 1 view .LVU794
 3769 002e 09B0     		add	sp, sp, #36
 3770              	.LCFI45:
ARM GAS  C:\Users\Vento\AppData\Local\Temp\ccuo4SjY.s 			page 95


 3771              		.cfi_remember_state
 3772              		.cfi_def_cfa_offset 12
 3773              		@ sp needed
