ARM GAS  C:\Users\Vento\AppData\Local\Temp\ccDU9lzs.s 			page 1


   1              		.cpu cortex-m3
   2              		.eabi_attribute 20, 1
   3              		.eabi_attribute 21, 1
   4              		.eabi_attribute 23, 3
   5              		.eabi_attribute 24, 1
   6              		.eabi_attribute 25, 1
   7              		.eabi_attribute 26, 1
   8              		.eabi_attribute 30, 1
   9              		.eabi_attribute 34, 1
  10              		.eabi_attribute 18, 4
  11              		.file	"lcd.c"
  12              		.text
  13              	.Ltext0:
  14              		.cfi_sections	.debug_frame
  15              		.section	.text._swap,"ax",%progbits
  16              		.align	1
  17              		.arch armv7-m
  18              		.syntax unified
  19              		.thumb
  20              		.thumb_func
  21              		.fpu softvfp
  23              	_swap:
  24              	.LVL0:
  25              	.LFB85:
  26              		.file 1 "Core/Src/lcd.c"
   1:Core/Src/lcd.c **** /**
   2:Core/Src/lcd.c ****  * @file lcd.c
   3:Core/Src/lcd.c ****  * @author Vento (zseefvhu12345@gmail.com)
   4:Core/Src/lcd.c ****  * @brief 
   5:Core/Src/lcd.c ****  * @version 1.0
   6:Core/Src/lcd.c ****  * @date 17-07_2023
   7:Core/Src/lcd.c ****  * 
   8:Core/Src/lcd.c ****  * @copyright Copyright (c) 2023
   9:Core/Src/lcd.c ****  * 
  10:Core/Src/lcd.c ****  */
  11:Core/Src/lcd.c **** 
  12:Core/Src/lcd.c **** 
  13:Core/Src/lcd.c **** #include "lcd.h"
  14:Core/Src/lcd.c **** 
  15:Core/Src/lcd.c **** #include "common.h"
  16:Core/Src/lcd.c **** #include "string.h"
  17:Core/Src/lcd.c **** 
  18:Core/Src/lcd.c **** 
  19:Core/Src/lcd.c **** 
  20:Core/Src/lcd.c **** inline void ILI9341_LCD_LED(bool state)
  21:Core/Src/lcd.c **** {
  22:Core/Src/lcd.c ****     if (state == true)
  23:Core/Src/lcd.c ****         HAL_GPIO_WritePin(ILI9341_LED_GPIO_Port, ILI9341_LED_Pin, SET);
  24:Core/Src/lcd.c ****     else
  25:Core/Src/lcd.c ****         HAL_GPIO_WritePin(ILI9341_LED_GPIO_Port, ILI9341_LED_Pin, RESET);
  26:Core/Src/lcd.c **** }
  27:Core/Src/lcd.c **** 
  28:Core/Src/lcd.c **** inline static void ILI9341_Select()
  29:Core/Src/lcd.c **** {
  30:Core/Src/lcd.c ****     HAL_GPIO_WritePin(ILI9341_CS_GPIO_Port, ILI9341_CS_Pin, GPIO_PIN_RESET);
  31:Core/Src/lcd.c **** }
  32:Core/Src/lcd.c **** 
ARM GAS  C:\Users\Vento\AppData\Local\Temp\ccDU9lzs.s 			page 2


  33:Core/Src/lcd.c **** inline void ILI9341_Unselect()
  34:Core/Src/lcd.c **** {
  35:Core/Src/lcd.c ****     HAL_GPIO_WritePin(ILI9341_CS_GPIO_Port, ILI9341_CS_Pin, GPIO_PIN_SET);
  36:Core/Src/lcd.c **** }
  37:Core/Src/lcd.c **** 
  38:Core/Src/lcd.c **** inline static void ILI9341_Reset()
  39:Core/Src/lcd.c **** {
  40:Core/Src/lcd.c ****     HAL_GPIO_WritePin(ILI9341_RES_GPIO_Port, ILI9341_RES_Pin, GPIO_PIN_RESET);
  41:Core/Src/lcd.c ****     HAL_Delay(200);
  42:Core/Src/lcd.c ****     HAL_GPIO_WritePin(ILI9341_RES_GPIO_Port, ILI9341_RES_Pin, GPIO_PIN_SET);
  43:Core/Src/lcd.c ****     HAL_Delay(200);
  44:Core/Src/lcd.c **** }
  45:Core/Src/lcd.c **** 
  46:Core/Src/lcd.c **** inline static void ILI9341_SetData(uint8_t data)
  47:Core/Src/lcd.c **** {
  48:Core/Src/lcd.c ****     uint8_t temp_Bit2nd_Data = data & 0x02;
  49:Core/Src/lcd.c ****     uint8_t temp_Bit3rd_Data = data & 0x04;
  50:Core/Src/lcd.c ****     data &= ~0x06;
  51:Core/Src/lcd.c ****     data |= (uint8_t)((temp_Bit2nd_Data << 1) | (temp_Bit3rd_Data >> 1));
  52:Core/Src/lcd.c **** 
  53:Core/Src/lcd.c ****     uint32_t tempReg =  (uint32_t)DATA_PORT->ODR;
  54:Core/Src/lcd.c ****     tempReg &= 0xFFFFFF00;
  55:Core/Src/lcd.c ****     tempReg |= (uint32_t)data;
  56:Core/Src/lcd.c ****     DATA_PORT->ODR = tempReg;
  57:Core/Src/lcd.c **** 
  58:Core/Src/lcd.c ****     // HAL_GPIO_WritePin(DB8_PORT,  DB8,  (data >> 0x00U) & 0x01U);
  59:Core/Src/lcd.c ****     // HAL_GPIO_WritePin(DB9_PORT,  DB9,  (data >> 0x01U) & 0x01U);
  60:Core/Src/lcd.c ****     // HAL_GPIO_WritePin(DB10_PORT, DB10, (data >> 0x02U) & 0x01U);
  61:Core/Src/lcd.c ****     // HAL_GPIO_WritePin(DB11_PORT, DB11, (data >> 0x03U) & 0x01U);
  62:Core/Src/lcd.c ****     // HAL_GPIO_WritePin(DB12_PORT, DB12, (data >> 0x04U) & 0x01U);
  63:Core/Src/lcd.c ****     // HAL_GPIO_WritePin(DB13_PORT, DB13, (data >> 0x05U) & 0x01U);
  64:Core/Src/lcd.c ****     // HAL_GPIO_WritePin(DB14_PORT, DB14, (data >> 0x06U) & 0x01U);
  65:Core/Src/lcd.c ****     // HAL_GPIO_WritePin(DB15_PORT, DB15, (data >> 0x07U) & 0x01U);
  66:Core/Src/lcd.c **** 
  67:Core/Src/lcd.c ****     HAL_GPIO_WritePin(ILI9341_WR_GPIO_Port, ILI9341_WR_Pin, GPIO_PIN_RESET);
  68:Core/Src/lcd.c ****     HAL_GPIO_WritePin(ILI9341_WR_GPIO_Port, ILI9341_WR_Pin, GPIO_PIN_SET);
  69:Core/Src/lcd.c **** }
  70:Core/Src/lcd.c **** 
  71:Core/Src/lcd.c **** inline static void ILI9341_WriteCommand(uint8_t cmd)
  72:Core/Src/lcd.c **** {
  73:Core/Src/lcd.c ****     // ILI9341_Select();
  74:Core/Src/lcd.c ****     HAL_GPIO_WritePin(ILI9341_DC_GPIO_Port, ILI9341_DC_Pin, GPIO_PIN_RESET);
  75:Core/Src/lcd.c ****     ILI9341_SetData(cmd);
  76:Core/Src/lcd.c ****     // ILI9341_Unselect();
  77:Core/Src/lcd.c **** }
  78:Core/Src/lcd.c **** 
  79:Core/Src/lcd.c **** inline static void ILI9341_Write_Data(uint8_t data)
  80:Core/Src/lcd.c **** {
  81:Core/Src/lcd.c ****     // ILI9341_Select();
  82:Core/Src/lcd.c ****     HAL_GPIO_WritePin(ILI9341_DC_GPIO_Port, ILI9341_DC_Pin, GPIO_PIN_SET);
  83:Core/Src/lcd.c ****     ILI9341_SetData(data);
  84:Core/Src/lcd.c ****     // ILI9341_Unselect();
  85:Core/Src/lcd.c **** }
  86:Core/Src/lcd.c **** 
  87:Core/Src/lcd.c **** static void ILI9341_WriteData(uint8_t* buff, size_t buff_size)
  88:Core/Src/lcd.c **** {
  89:Core/Src/lcd.c ****     // ILI9341_Select();
ARM GAS  C:\Users\Vento\AppData\Local\Temp\ccDU9lzs.s 			page 3


  90:Core/Src/lcd.c ****     HAL_GPIO_WritePin(ILI9341_DC_GPIO_Port, ILI9341_DC_Pin, GPIO_PIN_SET);
  91:Core/Src/lcd.c **** 
  92:Core/Src/lcd.c ****     for (int i = 0; i < buff_size; i++)
  93:Core/Src/lcd.c ****     {
  94:Core/Src/lcd.c ****         ILI9341_SetData(buff[i]);
  95:Core/Src/lcd.c ****     }
  96:Core/Src/lcd.c ****     // ILI9341_Unselect();
  97:Core/Src/lcd.c **** }
  98:Core/Src/lcd.c **** 
  99:Core/Src/lcd.c **** static void ILI9341_SetAddressWindow(uint16_t x0, uint16_t y0, uint16_t x1, uint16_t y1)
 100:Core/Src/lcd.c **** {
 101:Core/Src/lcd.c ****     // column address set
 102:Core/Src/lcd.c ****     ILI9341_WriteCommand(0x2A); // CASET
 103:Core/Src/lcd.c ****     {
 104:Core/Src/lcd.c ****         uint8_t data[] = { (x0 >> 8) & 0xFF, x0 & 0xFF, (x1 >> 8) & 0xFF, x1 & 0xFF };
 105:Core/Src/lcd.c ****         ILI9341_WriteData(data, sizeof(data));
 106:Core/Src/lcd.c ****     }
 107:Core/Src/lcd.c **** 
 108:Core/Src/lcd.c ****     // row address set
 109:Core/Src/lcd.c ****     ILI9341_WriteCommand(0x2B); // RASET
 110:Core/Src/lcd.c ****     {
 111:Core/Src/lcd.c ****         uint8_t data[] = { (y0 >> 8) & 0xFF, y0 & 0xFF, (y1 >> 8) & 0xFF, y1 & 0xFF };
 112:Core/Src/lcd.c ****         ILI9341_WriteData(data, sizeof(data));
 113:Core/Src/lcd.c ****     }
 114:Core/Src/lcd.c **** 
 115:Core/Src/lcd.c ****     // write to RAM
 116:Core/Src/lcd.c ****     ILI9341_WriteCommand(0x2C); // RAMWR
 117:Core/Src/lcd.c **** }
 118:Core/Src/lcd.c **** 
 119:Core/Src/lcd.c **** void ILI9341_Init()
 120:Core/Src/lcd.c **** {
 121:Core/Src/lcd.c ****     ILI9341_LCD_LED(false);
 122:Core/Src/lcd.c ****     HAL_GPIO_WritePin(ILI9341_WR_GPIO_Port, ILI9341_WR_Pin, GPIO_PIN_SET);
 123:Core/Src/lcd.c ****     HAL_GPIO_WritePin(ILI9341_RD_GPIO_Port, ILI9341_RD_Pin, GPIO_PIN_SET);
 124:Core/Src/lcd.c **** 
 125:Core/Src/lcd.c ****     ILI9341_Select();
 126:Core/Src/lcd.c **** 
 127:Core/Src/lcd.c ****     ILI9341_Reset();
 128:Core/Src/lcd.c **** 
 129:Core/Src/lcd.c ****     // SOFTWARE RESET
 130:Core/Src/lcd.c ****     ILI9341_WriteCommand(0x01);
 131:Core/Src/lcd.c ****     HAL_Delay(200);
 132:Core/Src/lcd.c ****     
 133:Core/Src/lcd.c ****     // command list is based on https://github.com/martnak/STM32-ILI9341
 134:Core/Src/lcd.c **** 	
 135:Core/Src/lcd.c ****     //POWER CONTROL A
 136:Core/Src/lcd.c ****     ILI9341_WriteCommand(0xCB);
 137:Core/Src/lcd.c ****     ILI9341_Write_Data(0x39);
 138:Core/Src/lcd.c ****     ILI9341_Write_Data(0x2C);
 139:Core/Src/lcd.c ****     ILI9341_Write_Data(0x00);
 140:Core/Src/lcd.c ****     ILI9341_Write_Data(0x34);
 141:Core/Src/lcd.c ****     ILI9341_Write_Data(0x02);
 142:Core/Src/lcd.c **** 
 143:Core/Src/lcd.c ****     //POWER CONTROL B
 144:Core/Src/lcd.c ****     ILI9341_WriteCommand(0xCF);
 145:Core/Src/lcd.c ****     ILI9341_Write_Data(0x00);
 146:Core/Src/lcd.c ****     ILI9341_Write_Data(0xC1);
ARM GAS  C:\Users\Vento\AppData\Local\Temp\ccDU9lzs.s 			page 4


 147:Core/Src/lcd.c ****     ILI9341_Write_Data(0x30);
 148:Core/Src/lcd.c **** 
 149:Core/Src/lcd.c ****     //DRIVER TIMING CONTROL A
 150:Core/Src/lcd.c ****     ILI9341_WriteCommand(0xE8);
 151:Core/Src/lcd.c ****     ILI9341_Write_Data(0x85);
 152:Core/Src/lcd.c ****     ILI9341_Write_Data(0x00);
 153:Core/Src/lcd.c ****     ILI9341_Write_Data(0x78);
 154:Core/Src/lcd.c **** 
 155:Core/Src/lcd.c ****     //DRIVER TIMING CONTROL B
 156:Core/Src/lcd.c ****     ILI9341_WriteCommand(0xEA);
 157:Core/Src/lcd.c ****     ILI9341_Write_Data(0x00);
 158:Core/Src/lcd.c ****     ILI9341_Write_Data(0x00);
 159:Core/Src/lcd.c **** 
 160:Core/Src/lcd.c ****     //POWER ON SEQUENCE CONTROL
 161:Core/Src/lcd.c ****     ILI9341_WriteCommand(0xED);
 162:Core/Src/lcd.c ****     ILI9341_Write_Data(0x64);
 163:Core/Src/lcd.c ****     ILI9341_Write_Data(0x03);
 164:Core/Src/lcd.c ****     ILI9341_Write_Data(0x12);
 165:Core/Src/lcd.c ****     ILI9341_Write_Data(0x81);
 166:Core/Src/lcd.c **** 
 167:Core/Src/lcd.c ****     //PUMP RATIO CONTROL
 168:Core/Src/lcd.c ****     ILI9341_WriteCommand(0xF7);
 169:Core/Src/lcd.c ****     ILI9341_Write_Data(0x20);
 170:Core/Src/lcd.c **** 
 171:Core/Src/lcd.c ****     //POWER CONTROL,VRH[5:0]
 172:Core/Src/lcd.c ****     ILI9341_WriteCommand(0xC0);
 173:Core/Src/lcd.c ****     ILI9341_Write_Data(0x23);
 174:Core/Src/lcd.c **** 
 175:Core/Src/lcd.c ****     //POWER CONTROL,SAP[2:0];BT[3:0]
 176:Core/Src/lcd.c ****     ILI9341_WriteCommand(0xC1);
 177:Core/Src/lcd.c ****     ILI9341_Write_Data(0x10);
 178:Core/Src/lcd.c **** 
 179:Core/Src/lcd.c ****     //VCM CONTROL
 180:Core/Src/lcd.c ****     ILI9341_WriteCommand(0xC5);
 181:Core/Src/lcd.c ****     ILI9341_Write_Data(0x3E);
 182:Core/Src/lcd.c ****     ILI9341_Write_Data(0x28);
 183:Core/Src/lcd.c **** 
 184:Core/Src/lcd.c ****     //VCM CONTROL 2
 185:Core/Src/lcd.c ****     ILI9341_WriteCommand(0xC7);
 186:Core/Src/lcd.c ****     ILI9341_Write_Data(0x86);
 187:Core/Src/lcd.c **** 
 188:Core/Src/lcd.c ****     //MEMORY ACCESS CONTROL
 189:Core/Src/lcd.c ****     ILI9341_WriteCommand(0x36);
 190:Core/Src/lcd.c ****     ILI9341_Write_Data(0x48);
 191:Core/Src/lcd.c **** 
 192:Core/Src/lcd.c ****     //PIXEL FORMAT
 193:Core/Src/lcd.c ****     ILI9341_WriteCommand(0x3A);
 194:Core/Src/lcd.c ****     ILI9341_Write_Data(0x55);
 195:Core/Src/lcd.c **** 
 196:Core/Src/lcd.c ****     //FRAME RATIO CONTROL, STANDARD RGB COLOR
 197:Core/Src/lcd.c ****     ILI9341_WriteCommand(0xB1);
 198:Core/Src/lcd.c ****     ILI9341_Write_Data(0x00);
 199:Core/Src/lcd.c ****     ILI9341_Write_Data(0x18);
 200:Core/Src/lcd.c **** 
 201:Core/Src/lcd.c ****     //DISPLAY FUNCTION CONTROL
 202:Core/Src/lcd.c ****     ILI9341_WriteCommand(0xB6);
 203:Core/Src/lcd.c ****     ILI9341_Write_Data(0x08);
ARM GAS  C:\Users\Vento\AppData\Local\Temp\ccDU9lzs.s 			page 5


 204:Core/Src/lcd.c ****     ILI9341_Write_Data(0x82);
 205:Core/Src/lcd.c ****     ILI9341_Write_Data(0x27);
 206:Core/Src/lcd.c **** 
 207:Core/Src/lcd.c ****     //3GAMMA FUNCTION DISABLE
 208:Core/Src/lcd.c ****     ILI9341_WriteCommand(0xF2);
 209:Core/Src/lcd.c ****     ILI9341_Write_Data(0x00);
 210:Core/Src/lcd.c **** 
 211:Core/Src/lcd.c ****     //GAMMA CURVE SELECTED
 212:Core/Src/lcd.c ****     ILI9341_WriteCommand(0x26);
 213:Core/Src/lcd.c ****     ILI9341_Write_Data(0x01);
 214:Core/Src/lcd.c **** 
 215:Core/Src/lcd.c ****     //POSITIVE GAMMA CORRECTION
 216:Core/Src/lcd.c ****     ILI9341_WriteCommand(0xE0);
 217:Core/Src/lcd.c ****     ILI9341_Write_Data(0x0F);
 218:Core/Src/lcd.c ****     ILI9341_Write_Data(0x31);
 219:Core/Src/lcd.c ****     ILI9341_Write_Data(0x2B);
 220:Core/Src/lcd.c ****     ILI9341_Write_Data(0x0C);
 221:Core/Src/lcd.c ****     ILI9341_Write_Data(0x0E);
 222:Core/Src/lcd.c ****     ILI9341_Write_Data(0x08);
 223:Core/Src/lcd.c ****     ILI9341_Write_Data(0x4E);
 224:Core/Src/lcd.c ****     ILI9341_Write_Data(0xF1);
 225:Core/Src/lcd.c ****     ILI9341_Write_Data(0x37);
 226:Core/Src/lcd.c ****     ILI9341_Write_Data(0x07);
 227:Core/Src/lcd.c ****     ILI9341_Write_Data(0x10);
 228:Core/Src/lcd.c ****     ILI9341_Write_Data(0x03);
 229:Core/Src/lcd.c ****     ILI9341_Write_Data(0x0E);
 230:Core/Src/lcd.c ****     ILI9341_Write_Data(0x09);
 231:Core/Src/lcd.c ****     ILI9341_Write_Data(0x00);
 232:Core/Src/lcd.c **** 
 233:Core/Src/lcd.c ****     //NEGATIVE GAMMA CORRECTION
 234:Core/Src/lcd.c ****     ILI9341_WriteCommand(0xE1);
 235:Core/Src/lcd.c ****     ILI9341_Write_Data(0x00);
 236:Core/Src/lcd.c ****     ILI9341_Write_Data(0x0E);
 237:Core/Src/lcd.c ****     ILI9341_Write_Data(0x14);
 238:Core/Src/lcd.c ****     ILI9341_Write_Data(0x03);
 239:Core/Src/lcd.c ****     ILI9341_Write_Data(0x11);
 240:Core/Src/lcd.c ****     ILI9341_Write_Data(0x07);
 241:Core/Src/lcd.c ****     ILI9341_Write_Data(0x31);
 242:Core/Src/lcd.c ****     ILI9341_Write_Data(0xC1);
 243:Core/Src/lcd.c ****     ILI9341_Write_Data(0x48);
 244:Core/Src/lcd.c ****     ILI9341_Write_Data(0x08);
 245:Core/Src/lcd.c ****     ILI9341_Write_Data(0x0F);
 246:Core/Src/lcd.c ****     ILI9341_Write_Data(0x0C);
 247:Core/Src/lcd.c ****     ILI9341_Write_Data(0x31);
 248:Core/Src/lcd.c ****     ILI9341_Write_Data(0x36);
 249:Core/Src/lcd.c ****     ILI9341_Write_Data(0x0F);
 250:Core/Src/lcd.c **** 
 251:Core/Src/lcd.c ****     //EXIT SLEEP
 252:Core/Src/lcd.c ****     ILI9341_WriteCommand(0x11);
 253:Core/Src/lcd.c ****     HAL_Delay(120);
 254:Core/Src/lcd.c **** 
 255:Core/Src/lcd.c ****     //TURN ON DISPLAY
 256:Core/Src/lcd.c ****     ILI9341_WriteCommand(0x29);
 257:Core/Src/lcd.c **** 
 258:Core/Src/lcd.c ****     // DIRECTION
 259:Core/Src/lcd.c ****     ILI9341_WriteCommand(0x36);
 260:Core/Src/lcd.c ****     ILI9341_Write_Data(ILI9341_ROTATION);
ARM GAS  C:\Users\Vento\AppData\Local\Temp\ccDU9lzs.s 			page 6


 261:Core/Src/lcd.c **** 
 262:Core/Src/lcd.c ****     ILI9341_Unselect();
 263:Core/Src/lcd.c **** 
 264:Core/Src/lcd.c ****     // ILI9341_FillScreen(ILI9341_WHITE);
 265:Core/Src/lcd.c ****     ILI9341_FillScreen(ILI9341_BLACK);
 266:Core/Src/lcd.c ****     ILI9341_LCD_LED(true);
 267:Core/Src/lcd.c **** }
 268:Core/Src/lcd.c **** 
 269:Core/Src/lcd.c **** void ILI9341_DrawPixel(uint16_t x, uint16_t y, uint16_t color)
 270:Core/Src/lcd.c **** {
 271:Core/Src/lcd.c ****     if((x >= ILI9341_WIDTH) || (y >= ILI9341_HEIGHT))
 272:Core/Src/lcd.c ****         return;
 273:Core/Src/lcd.c **** 
 274:Core/Src/lcd.c ****     ILI9341_Select();
 275:Core/Src/lcd.c **** 
 276:Core/Src/lcd.c ****     ILI9341_SetAddressWindow(x, y, x+1, y+1);
 277:Core/Src/lcd.c ****     uint8_t data[] = { color >> 8, color & 0xFF };
 278:Core/Src/lcd.c ****     ILI9341_WriteData(data, sizeof(data));
 279:Core/Src/lcd.c **** 
 280:Core/Src/lcd.c ****     ILI9341_Unselect();
 281:Core/Src/lcd.c **** }
 282:Core/Src/lcd.c **** 
 283:Core/Src/lcd.c **** void ILI9341_DrawLine(uint16_t x1, uint16_t y1, uint16_t x2, uint16_t y2, uint16_t color)
 284:Core/Src/lcd.c **** {
 285:Core/Src/lcd.c ****     uint16_t t; 
 286:Core/Src/lcd.c **** 	int xerr = 0, yerr = 0, delta_x, delta_y, distance; 
 287:Core/Src/lcd.c **** 	int incx, incy, uRow, uCol;
 288:Core/Src/lcd.c **** 
 289:Core/Src/lcd.c **** 	delta_x = x2 - x1;
 290:Core/Src/lcd.c **** 	delta_y = y2 - y1; 
 291:Core/Src/lcd.c **** 	uRow = x1; 
 292:Core/Src/lcd.c **** 	uCol = y1;
 293:Core/Src/lcd.c **** 
 294:Core/Src/lcd.c **** 	if (delta_x > 0)
 295:Core/Src/lcd.c ****         incx = 1;
 296:Core/Src/lcd.c **** 	else if (delta_x == 0)
 297:Core/Src/lcd.c ****         incx = 0;
 298:Core/Src/lcd.c **** 	else 
 299:Core/Src/lcd.c ****     {
 300:Core/Src/lcd.c ****         incx = -1;
 301:Core/Src/lcd.c ****         delta_x = -delta_x;
 302:Core/Src/lcd.c ****     } 
 303:Core/Src/lcd.c **** 	
 304:Core/Src/lcd.c ****     if (delta_y > 0)
 305:Core/Src/lcd.c ****         incy = 1; 
 306:Core/Src/lcd.c **** 	else if (delta_y==0)
 307:Core/Src/lcd.c ****         incy = 0;
 308:Core/Src/lcd.c **** 	else
 309:Core/Src/lcd.c ****     {
 310:Core/Src/lcd.c ****         incy = -1;
 311:Core/Src/lcd.c ****         delta_y = -delta_y;
 312:Core/Src/lcd.c ****     } 
 313:Core/Src/lcd.c **** 
 314:Core/Src/lcd.c **** 	if (delta_x > delta_y)
 315:Core/Src/lcd.c ****         distance = delta_x;
 316:Core/Src/lcd.c **** 	else 
 317:Core/Src/lcd.c ****         distance = delta_y; 
ARM GAS  C:\Users\Vento\AppData\Local\Temp\ccDU9lzs.s 			page 7


 318:Core/Src/lcd.c ****     
 319:Core/Src/lcd.c **** 	for(t = 0; t <= distance + 1; t++)
 320:Core/Src/lcd.c **** 	{  
 321:Core/Src/lcd.c **** 		ILI9341_DrawPixel(uRow, uCol, color);
 322:Core/Src/lcd.c **** 
 323:Core/Src/lcd.c **** 		xerr += delta_x; 
 324:Core/Src/lcd.c **** 		yerr += delta_y; 
 325:Core/Src/lcd.c **** 
 326:Core/Src/lcd.c **** 		if (xerr > distance) 
 327:Core/Src/lcd.c **** 		{ 
 328:Core/Src/lcd.c **** 			xerr -= distance; 
 329:Core/Src/lcd.c **** 			uRow += incx; 
 330:Core/Src/lcd.c **** 		} 
 331:Core/Src/lcd.c **** 		if (yerr > distance) 
 332:Core/Src/lcd.c **** 		{ 
 333:Core/Src/lcd.c **** 			yerr -= distance; 
 334:Core/Src/lcd.c **** 			uCol += incy; 
 335:Core/Src/lcd.c **** 		} 
 336:Core/Src/lcd.c **** 	}  
 337:Core/Src/lcd.c **** }
 338:Core/Src/lcd.c **** 
 339:Core/Src/lcd.c **** static void ILI9341_WriteChar(uint16_t x, uint16_t y, char ch, FontDef font, uint16_t color, uint16
 340:Core/Src/lcd.c **** {
 341:Core/Src/lcd.c ****     uint32_t i, b, j;
 342:Core/Src/lcd.c **** 
 343:Core/Src/lcd.c ****     ILI9341_SetAddressWindow(x, y, x+font.width-1, y+font.height-1);
 344:Core/Src/lcd.c **** 
 345:Core/Src/lcd.c ****     for(i = 0; i < font.height; i++) {
 346:Core/Src/lcd.c ****         b = font.data[(ch - 32) * font.height + i];
 347:Core/Src/lcd.c ****         for(j = 0; j < font.width; j++) {
 348:Core/Src/lcd.c ****             if((b << j) & 0x8000)  {
 349:Core/Src/lcd.c ****                 uint8_t data[] = { color >> 8, color & 0xFF };
 350:Core/Src/lcd.c ****                 ILI9341_WriteData(data, sizeof(data));
 351:Core/Src/lcd.c ****             } else {
 352:Core/Src/lcd.c ****                 uint8_t data[] = { bgcolor >> 8, bgcolor & 0xFF };
 353:Core/Src/lcd.c ****                 ILI9341_WriteData(data, sizeof(data));
 354:Core/Src/lcd.c ****             }
 355:Core/Src/lcd.c ****         }
 356:Core/Src/lcd.c ****     }
 357:Core/Src/lcd.c **** }
 358:Core/Src/lcd.c **** 
 359:Core/Src/lcd.c **** void ILI9341_WriteString(uint16_t x, uint16_t y, const char* str, FontDef font, uint16_t color, uin
 360:Core/Src/lcd.c **** {
 361:Core/Src/lcd.c ****     ILI9341_Select();
 362:Core/Src/lcd.c **** 
 363:Core/Src/lcd.c ****     while(*str) {
 364:Core/Src/lcd.c ****         if(x + font.width >= ILI9341_WIDTH) {
 365:Core/Src/lcd.c ****             x = 0;
 366:Core/Src/lcd.c ****             y += font.height;
 367:Core/Src/lcd.c ****             if(y + font.height >= ILI9341_HEIGHT) {
 368:Core/Src/lcd.c ****                 break;
 369:Core/Src/lcd.c ****             }
 370:Core/Src/lcd.c **** 
 371:Core/Src/lcd.c ****             if(*str == ' ') {
 372:Core/Src/lcd.c ****                 // skip spaces in the beginning of the new line
 373:Core/Src/lcd.c ****                 str++;
 374:Core/Src/lcd.c ****                 continue;
ARM GAS  C:\Users\Vento\AppData\Local\Temp\ccDU9lzs.s 			page 8


 375:Core/Src/lcd.c ****             }
 376:Core/Src/lcd.c ****         }
 377:Core/Src/lcd.c **** 
 378:Core/Src/lcd.c ****         ILI9341_WriteChar(x, y, *str, font, color, bgcolor);
 379:Core/Src/lcd.c ****         x += font.width;
 380:Core/Src/lcd.c ****         str++;
 381:Core/Src/lcd.c ****     }
 382:Core/Src/lcd.c **** 
 383:Core/Src/lcd.c ****     ILI9341_Unselect();
 384:Core/Src/lcd.c **** }
 385:Core/Src/lcd.c **** 
 386:Core/Src/lcd.c **** void ILI9341_DrawRectangle(uint16_t x, uint16_t y, uint16_t w, uint16_t h, uint16_t color)
 387:Core/Src/lcd.c **** {
 388:Core/Src/lcd.c ****     ILI9341_DrawLine(x, y, x + w, y, color);
 389:Core/Src/lcd.c ****     ILI9341_DrawLine(x + w, y, x + w, y + h, color);
 390:Core/Src/lcd.c ****     ILI9341_DrawLine(x, y, x, y + h, color);
 391:Core/Src/lcd.c ****     ILI9341_DrawLine(x, y + h, x + w, y + h, color);
 392:Core/Src/lcd.c **** }
 393:Core/Src/lcd.c **** 
 394:Core/Src/lcd.c **** void ILI9341_FillRectangle(uint16_t x, uint16_t y, uint16_t w, uint16_t h, uint16_t color)
 395:Core/Src/lcd.c **** {
 396:Core/Src/lcd.c ****     // clipping
 397:Core/Src/lcd.c ****     if((x >= ILI9341_WIDTH) || (y >= ILI9341_HEIGHT)) return;
 398:Core/Src/lcd.c ****     if((x + w - 1) >= ILI9341_WIDTH) w = ILI9341_WIDTH - x;
 399:Core/Src/lcd.c ****     if((y + h - 1) >= ILI9341_HEIGHT) h = ILI9341_HEIGHT - y;
 400:Core/Src/lcd.c **** 
 401:Core/Src/lcd.c ****     ILI9341_Select();
 402:Core/Src/lcd.c ****     ILI9341_SetAddressWindow(x, y, x+w-1, y+h-1);
 403:Core/Src/lcd.c **** 
 404:Core/Src/lcd.c ****     uint8_t data[] = { color >> 8, color & 0xFF };
 405:Core/Src/lcd.c ****     HAL_GPIO_WritePin(ILI9341_DC_GPIO_Port, ILI9341_DC_Pin, GPIO_PIN_SET);
 406:Core/Src/lcd.c ****     for(y = h; y > 0; y--) 
 407:Core/Src/lcd.c ****     {
 408:Core/Src/lcd.c ****         for(x = w; x > 0; x--) 
 409:Core/Src/lcd.c ****         {
 410:Core/Src/lcd.c ****             ILI9341_SetData(data[0]);
 411:Core/Src/lcd.c ****             // HAL_GPIO_WritePin(DB8_PORT,  DB8,  (data[0] >> 0x00U) & 0x01U);
 412:Core/Src/lcd.c ****             // HAL_GPIO_WritePin(DB9_PORT,  DB9,  (data[0] >> 0x01U) & 0x01U);
 413:Core/Src/lcd.c ****             // HAL_GPIO_WritePin(DB10_PORT, DB10, (data[0] >> 0x02U) & 0x01U);
 414:Core/Src/lcd.c ****             // HAL_GPIO_WritePin(DB11_PORT, DB11, (data[0] >> 0x03U) & 0x01U);
 415:Core/Src/lcd.c ****             // HAL_GPIO_WritePin(DB12_PORT, DB12, (data[0] >> 0x04U) & 0x01U);
 416:Core/Src/lcd.c ****             // HAL_GPIO_WritePin(DB13_PORT, DB13, (data[0] >> 0x05U) & 0x01U);
 417:Core/Src/lcd.c ****             // HAL_GPIO_WritePin(DB14_PORT, DB14, (data[0] >> 0x06U) & 0x01U);
 418:Core/Src/lcd.c ****             // HAL_GPIO_WritePin(DB15_PORT, DB15, (data[0] >> 0x07U) & 0x01U);
 419:Core/Src/lcd.c **** 
 420:Core/Src/lcd.c ****             // HAL_GPIO_WritePin(ILI9341_WR_GPIO_Port, ILI9341_WR_Pin, GPIO_PIN_RESET);
 421:Core/Src/lcd.c ****             // HAL_GPIO_WritePin(ILI9341_WR_GPIO_Port, ILI9341_WR_Pin, GPIO_PIN_SET);
 422:Core/Src/lcd.c **** 
 423:Core/Src/lcd.c ****             ILI9341_SetData(data[1]);
 424:Core/Src/lcd.c ****             // HAL_GPIO_WritePin(DB8_PORT,  DB8,  (data[1] >> 0x00U) & 0x01U);
 425:Core/Src/lcd.c ****             // HAL_GPIO_WritePin(DB9_PORT,  DB9,  (data[1] >> 0x01U) & 0x01U);
 426:Core/Src/lcd.c ****             // HAL_GPIO_WritePin(DB10_PORT, DB10, (data[1] >> 0x02U) & 0x01U);
 427:Core/Src/lcd.c ****             // HAL_GPIO_WritePin(DB11_PORT, DB11, (data[1] >> 0x03U) & 0x01U);
 428:Core/Src/lcd.c ****             // HAL_GPIO_WritePin(DB12_PORT, DB12, (data[1] >> 0x04U) & 0x01U);
 429:Core/Src/lcd.c ****             // HAL_GPIO_WritePin(DB13_PORT, DB13, (data[1] >> 0x05U) & 0x01U);
 430:Core/Src/lcd.c ****             // HAL_GPIO_WritePin(DB14_PORT, DB14, (data[1] >> 0x06U) & 0x01U);
 431:Core/Src/lcd.c ****             // HAL_GPIO_WritePin(DB15_PORT, DB15, (data[1] >> 0x07U) & 0x01U);
ARM GAS  C:\Users\Vento\AppData\Local\Temp\ccDU9lzs.s 			page 9


 432:Core/Src/lcd.c **** 
 433:Core/Src/lcd.c ****             // HAL_GPIO_WritePin(ILI9341_WR_GPIO_Port, ILI9341_WR_Pin, GPIO_PIN_RESET);
 434:Core/Src/lcd.c ****             // HAL_GPIO_WritePin(ILI9341_WR_GPIO_Port, ILI9341_WR_Pin, GPIO_PIN_SET);
 435:Core/Src/lcd.c **** 
 436:Core/Src/lcd.c ****             // HAL_SPI_Transmit(&ILI9341_SPI_PORT, data, sizeof(data), HAL_MAX_DELAY);
 437:Core/Src/lcd.c ****         }
 438:Core/Src/lcd.c ****     }
 439:Core/Src/lcd.c **** 
 440:Core/Src/lcd.c ****     ILI9341_Unselect();
 441:Core/Src/lcd.c **** }
 442:Core/Src/lcd.c **** 
 443:Core/Src/lcd.c **** void ILI9341_FillScreen(uint16_t color)
 444:Core/Src/lcd.c **** {
 445:Core/Src/lcd.c ****     ILI9341_FillRectangle(0, 0, ILI9341_WIDTH, ILI9341_HEIGHT, color);
 446:Core/Src/lcd.c **** }
 447:Core/Src/lcd.c **** 
 448:Core/Src/lcd.c **** void ILI9341_DrawImage(uint16_t x, uint16_t y, uint16_t w, uint16_t h, const uint16_t* data)
 449:Core/Src/lcd.c **** {
 450:Core/Src/lcd.c ****     if((x >= ILI9341_WIDTH) || (y >= ILI9341_HEIGHT)) return;
 451:Core/Src/lcd.c ****     if((x + w - 1) >= ILI9341_WIDTH) return;
 452:Core/Src/lcd.c ****     if((y + h - 1) >= ILI9341_HEIGHT) return;
 453:Core/Src/lcd.c **** 
 454:Core/Src/lcd.c ****     ILI9341_Select();
 455:Core/Src/lcd.c ****     ILI9341_SetAddressWindow(x, y, x+w-1, y+h-1);
 456:Core/Src/lcd.c ****     ILI9341_WriteData((uint8_t*)data, sizeof(uint16_t)*w*h);
 457:Core/Src/lcd.c ****     ILI9341_Unselect();
 458:Core/Src/lcd.c **** }
 459:Core/Src/lcd.c **** 
 460:Core/Src/lcd.c **** void ILI9341_InvertColors(bool invert)
 461:Core/Src/lcd.c **** {
 462:Core/Src/lcd.c ****     ILI9341_Select();
 463:Core/Src/lcd.c ****     ILI9341_WriteCommand(invert ? 0x21 /* INVON */ : 0x20 /* INVOFF */);
 464:Core/Src/lcd.c ****     ILI9341_Unselect();
 465:Core/Src/lcd.c **** }
 466:Core/Src/lcd.c **** 
 467:Core/Src/lcd.c **** void ILI9341_DrawTriangle(uint16_t x1, uint16_t y1, uint16_t x2, uint16_t y2, uint16_t x3, uint16_t
 468:Core/Src/lcd.c **** {
 469:Core/Src/lcd.c ****     ILI9341_DrawLine(x1, y1, x2, y2, color);
 470:Core/Src/lcd.c ****     ILI9341_DrawLine(x2, y2, x3, y3, color);
 471:Core/Src/lcd.c ****     ILI9341_DrawLine(x3, y3, x1, y1, color);
 472:Core/Src/lcd.c **** }
 473:Core/Src/lcd.c **** 
 474:Core/Src/lcd.c **** static void _swap(uint16_t *a, uint16_t *b)
 475:Core/Src/lcd.c **** {
  27              		.loc 1 475 1 view -0
  28              		.cfi_startproc
  29              		@ args = 0, pretend = 0, frame = 0
  30              		@ frame_needed = 0, uses_anonymous_args = 0
  31              		@ link register save eliminated.
 476:Core/Src/lcd.c **** 	uint16_t tmp;
  32              		.loc 1 476 2 view .LVU1
 477:Core/Src/lcd.c ****     tmp = *a;
  33              		.loc 1 477 5 view .LVU2
  34              		.loc 1 477 9 is_stmt 0 view .LVU3
  35 0000 0388     		ldrh	r3, [r0]
  36              	.LVL1:
 478:Core/Src/lcd.c **** 	*a = *b;
ARM GAS  C:\Users\Vento\AppData\Local\Temp\ccDU9lzs.s 			page 10


  37              		.loc 1 478 2 is_stmt 1 view .LVU4
  38              		.loc 1 478 7 is_stmt 0 view .LVU5
  39 0002 0A88     		ldrh	r2, [r1]
  40              		.loc 1 478 5 view .LVU6
  41 0004 0280     		strh	r2, [r0]	@ movhi
 479:Core/Src/lcd.c **** 	*b = tmp;
  42              		.loc 1 479 2 is_stmt 1 view .LVU7
  43              		.loc 1 479 5 is_stmt 0 view .LVU8
  44 0006 0B80     		strh	r3, [r1]	@ movhi
 480:Core/Src/lcd.c **** }
  45              		.loc 1 480 1 view .LVU9
  46 0008 7047     		bx	lr
  47              		.cfi_endproc
  48              	.LFE85:
  50              		.global	__aeabi_i2d
  51              		.global	__aeabi_ddiv
  52              		.global	__aeabi_dadd
  53              		.global	__aeabi_dmul
  54              		.global	__aeabi_dcmpeq
  55              		.global	__aeabi_d2iz
  56              		.section	.text.sqrt_t,"ax",%progbits
  57              		.align	1
  58              		.syntax unified
  59              		.thumb
  60              		.thumb_func
  61              		.fpu softvfp
  63              	sqrt_t:
  64              	.LVL2:
  65              	.LFB87:
 481:Core/Src/lcd.c **** 
 482:Core/Src/lcd.c **** void ILI9341_FillTriangle(uint16_t x0, uint16_t y0, uint16_t x1, uint16_t y1, uint16_t x2, uint16_t
 483:Core/Src/lcd.c **** {
 484:Core/Src/lcd.c ****     uint16_t a, b, y, last;
 485:Core/Src/lcd.c **** 	int dx01, dy01, dx02, dy02, dx12, dy12;
 486:Core/Src/lcd.c **** 	long sa = 0;
 487:Core/Src/lcd.c **** 	long sb = 0;
 488:Core/Src/lcd.c **** 
 489:Core/Src/lcd.c ****     if (y0 > y1) 
 490:Core/Src/lcd.c **** 	{
 491:Core/Src/lcd.c ****         _swap(&y0,&y1); 
 492:Core/Src/lcd.c **** 		_swap(&x0,&x1);
 493:Core/Src/lcd.c ****     }
 494:Core/Src/lcd.c ****     if (y1 > y2) 
 495:Core/Src/lcd.c **** 	{
 496:Core/Src/lcd.c ****         _swap(&y2,&y1); 
 497:Core/Src/lcd.c **** 		_swap(&x2,&x1);
 498:Core/Src/lcd.c ****     }
 499:Core/Src/lcd.c ****     if (y0 > y1) 
 500:Core/Src/lcd.c **** 	{
 501:Core/Src/lcd.c ****         _swap(&y0,&y1); 
 502:Core/Src/lcd.c **** 		_swap(&x0,&x1);
 503:Core/Src/lcd.c ****     }
 504:Core/Src/lcd.c **** 	
 505:Core/Src/lcd.c ****     if (y0 == y2) 
 506:Core/Src/lcd.c **** 	{ 
 507:Core/Src/lcd.c **** 		a = b = x0;
 508:Core/Src/lcd.c **** 		if(x1 < a)
ARM GAS  C:\Users\Vento\AppData\Local\Temp\ccDU9lzs.s 			page 11


 509:Core/Src/lcd.c ****         {
 510:Core/Src/lcd.c **** 			a = x1;
 511:Core/Src/lcd.c ****         }
 512:Core/Src/lcd.c ****         else if (x1 > b)
 513:Core/Src/lcd.c ****         {
 514:Core/Src/lcd.c ****             b = x1;
 515:Core/Src/lcd.c ****         }
 516:Core/Src/lcd.c **** 
 517:Core/Src/lcd.c ****         if (x2 < a)
 518:Core/Src/lcd.c ****         {
 519:Core/Src/lcd.c ****             a = x2;
 520:Core/Src/lcd.c ****         }
 521:Core/Src/lcd.c ****         else if (x2 > b)
 522:Core/Src/lcd.c ****         {
 523:Core/Src/lcd.c ****             b = x2;
 524:Core/Src/lcd.c ****         }
 525:Core/Src/lcd.c **** 
 526:Core/Src/lcd.c **** 		ILI9341_FillRectangle(a, y0, b - a + 1, y0 - y0 + 1, color);
 527:Core/Src/lcd.c **** 
 528:Core/Src/lcd.c ****         return;
 529:Core/Src/lcd.c **** 	}
 530:Core/Src/lcd.c **** 
 531:Core/Src/lcd.c **** 	dx01 = x1 - x0;
 532:Core/Src/lcd.c **** 	dy01 = y1 - y0;
 533:Core/Src/lcd.c **** 	dx02 = x2 - x0;
 534:Core/Src/lcd.c **** 	dy02 = y2 - y0;
 535:Core/Src/lcd.c **** 	dx12 = x2 - x1;
 536:Core/Src/lcd.c **** 	dy12 = y2 - y1;
 537:Core/Src/lcd.c **** 	
 538:Core/Src/lcd.c **** 	if(y1 == y2)
 539:Core/Src/lcd.c **** 	{
 540:Core/Src/lcd.c **** 		last = y1; 
 541:Core/Src/lcd.c **** 	}
 542:Core/Src/lcd.c ****     else
 543:Core/Src/lcd.c **** 	{
 544:Core/Src/lcd.c **** 		last = y1 - 1; 
 545:Core/Src/lcd.c **** 	}
 546:Core/Src/lcd.c **** 
 547:Core/Src/lcd.c **** 	for(y = y0; y <= last; y++) 
 548:Core/Src/lcd.c **** 	{
 549:Core/Src/lcd.c **** 		a = x0 + sa / dy01;
 550:Core/Src/lcd.c **** 		b = x0 + sb / dy02;
 551:Core/Src/lcd.c **** 		sa += dx01;
 552:Core/Src/lcd.c ****         sb += dx02;
 553:Core/Src/lcd.c ****         if(a > b)
 554:Core/Src/lcd.c ****         {
 555:Core/Src/lcd.c **** 			_swap(&a,&b);
 556:Core/Src/lcd.c **** 		}
 557:Core/Src/lcd.c **** 		ILI9341_FillRectangle(a, y, b - a + 1, y - y + 1, color);
 558:Core/Src/lcd.c **** 	}
 559:Core/Src/lcd.c **** 
 560:Core/Src/lcd.c **** 	sa = dx12 * (y - y1);
 561:Core/Src/lcd.c **** 	sb = dx02 * (y - y0);
 562:Core/Src/lcd.c **** 
 563:Core/Src/lcd.c **** 	for(; y <=y2 ; y++) 
 564:Core/Src/lcd.c **** 	{
 565:Core/Src/lcd.c **** 		a = x1 + sa / dy12;
ARM GAS  C:\Users\Vento\AppData\Local\Temp\ccDU9lzs.s 			page 12


 566:Core/Src/lcd.c **** 		b = x0 + sb / dy02;
 567:Core/Src/lcd.c **** 		sa += dx12;
 568:Core/Src/lcd.c **** 		sb += dx02;
 569:Core/Src/lcd.c **** 		if(a > b)
 570:Core/Src/lcd.c **** 		{
 571:Core/Src/lcd.c **** 			_swap(&a,&b);
 572:Core/Src/lcd.c **** 		}
 573:Core/Src/lcd.c **** 		ILI9341_FillRectangle(a, y, b - a + 1, y - y + 1, color);
 574:Core/Src/lcd.c **** 	}
 575:Core/Src/lcd.c **** }
 576:Core/Src/lcd.c **** 
 577:Core/Src/lcd.c **** static int sqrt_t(int x)
 578:Core/Src/lcd.c **** {
  66              		.loc 1 578 1 is_stmt 1 view -0
  67              		.cfi_startproc
  68              		@ args = 0, pretend = 0, frame = 0
  69              		@ frame_needed = 0, uses_anonymous_args = 0
  70              		.loc 1 578 1 is_stmt 0 view .LVU11
  71 0000 70B5     		push	{r4, r5, r6, lr}
  72              	.LCFI0:
  73              		.cfi_def_cfa_offset 16
  74              		.cfi_offset 4, -16
  75              		.cfi_offset 5, -12
  76              		.cfi_offset 6, -8
  77              		.cfi_offset 14, -4
 579:Core/Src/lcd.c ****     if (x == 0)
  78              		.loc 1 579 5 is_stmt 1 view .LVU12
  79              		.loc 1 579 8 is_stmt 0 view .LVU13
  80 0002 0646     		mov	r6, r0
  81 0004 18B3     		cbz	r0, .L2
 580:Core/Src/lcd.c ****         return 0;
 581:Core/Src/lcd.c ****     double last = 0;
 582:Core/Src/lcd.c ****     double res = 1;
  82              		.loc 1 582 12 view .LVU14
  83 0006 0024     		movs	r4, #0
  84 0008 114D     		ldr	r5, .L8
 581:Core/Src/lcd.c ****     double res = 1;
  85              		.loc 1 581 12 view .LVU15
  86 000a 0020     		movs	r0, #0
  87              	.LVL3:
 581:Core/Src/lcd.c ****     double res = 1;
  88              		.loc 1 581 12 view .LVU16
  89 000c 0021     		movs	r1, #0
  90 000e 14E0     		b	.L4
  91              	.LVL4:
  92              	.L5:
 583:Core/Src/lcd.c ****     while (res != last)
 584:Core/Src/lcd.c ****     {
 585:Core/Src/lcd.c ****         last = res;
  93              		.loc 1 585 9 is_stmt 1 view .LVU17
 586:Core/Src/lcd.c ****         res = (res + x / res) / 2;
  94              		.loc 1 586 9 view .LVU18
  95              		.loc 1 586 24 is_stmt 0 view .LVU19
  96 0010 3046     		mov	r0, r6
  97 0012 FFF7FEFF 		bl	__aeabi_i2d
  98              	.LVL5:
  99 0016 2246     		mov	r2, r4
ARM GAS  C:\Users\Vento\AppData\Local\Temp\ccDU9lzs.s 			page 13


 100 0018 2B46     		mov	r3, r5
 101 001a FFF7FEFF 		bl	__aeabi_ddiv
 102              	.LVL6:
 103              		.loc 1 586 20 view .LVU20
 104 001e 2246     		mov	r2, r4
 105 0020 2B46     		mov	r3, r5
 106 0022 FFF7FEFF 		bl	__aeabi_dadd
 107              	.LVL7:
 108              		.loc 1 586 13 view .LVU21
 109 0026 0022     		movs	r2, #0
 110 0028 0A4B     		ldr	r3, .L8+4
 111 002a FFF7FEFF 		bl	__aeabi_dmul
 112              	.LVL8:
 113 002e 0246     		mov	r2, r0
 114 0030 0B46     		mov	r3, r1
 115              	.LVL9:
 585:Core/Src/lcd.c ****         res = (res + x / res) / 2;
 116              		.loc 1 585 14 view .LVU22
 117 0032 2046     		mov	r0, r4
 118 0034 2946     		mov	r1, r5
 119              		.loc 1 586 13 view .LVU23
 120 0036 1446     		mov	r4, r2
 121              	.LVL10:
 122              		.loc 1 586 13 view .LVU24
 123 0038 1D46     		mov	r5, r3
 124              	.LVL11:
 125              	.L4:
 583:Core/Src/lcd.c ****     while (res != last)
 126              		.loc 1 583 11 is_stmt 1 view .LVU25
 127 003a 2246     		mov	r2, r4
 128 003c 2B46     		mov	r3, r5
 129 003e FFF7FEFF 		bl	__aeabi_dcmpeq
 130              	.LVL12:
 583:Core/Src/lcd.c ****     while (res != last)
 131              		.loc 1 583 11 is_stmt 0 view .LVU26
 132 0042 0028     		cmp	r0, #0
 133 0044 E4D0     		beq	.L5
 587:Core/Src/lcd.c ****     }
 588:Core/Src/lcd.c ****     return (int)res;
 134              		.loc 1 588 5 is_stmt 1 view .LVU27
 135              		.loc 1 588 12 is_stmt 0 view .LVU28
 136 0046 2046     		mov	r0, r4
 137 0048 2946     		mov	r1, r5
 138 004a FFF7FEFF 		bl	__aeabi_d2iz
 139              	.LVL13:
 140              	.L2:
 589:Core/Src/lcd.c **** }
 141              		.loc 1 589 1 view .LVU29
 142 004e 70BD     		pop	{r4, r5, r6, pc}
 143              	.LVL14:
 144              	.L9:
 145              		.loc 1 589 1 view .LVU30
 146              		.align	2
 147              	.L8:
 148 0050 0000F03F 		.word	1072693248
 149 0054 0000E03F 		.word	1071644672
 150              		.cfi_endproc
ARM GAS  C:\Users\Vento\AppData\Local\Temp\ccDU9lzs.s 			page 14


 151              	.LFE87:
 153              		.section	.text.ILI9341_WriteData,"ax",%progbits
 154              		.align	1
 155              		.syntax unified
 156              		.thumb
 157              		.thumb_func
 158              		.fpu softvfp
 160              	ILI9341_WriteData:
 161              	.LVL15:
 162              	.LFB72:
  88:Core/Src/lcd.c ****     // ILI9341_Select();
 163              		.loc 1 88 1 is_stmt 1 view -0
 164              		.cfi_startproc
 165              		@ args = 0, pretend = 0, frame = 0
 166              		@ frame_needed = 0, uses_anonymous_args = 0
  88:Core/Src/lcd.c ****     // ILI9341_Select();
 167              		.loc 1 88 1 is_stmt 0 view .LVU32
 168 0000 F8B5     		push	{r3, r4, r5, r6, r7, lr}
 169              	.LCFI1:
 170              		.cfi_def_cfa_offset 24
 171              		.cfi_offset 3, -24
 172              		.cfi_offset 4, -20
 173              		.cfi_offset 5, -16
 174              		.cfi_offset 6, -12
 175              		.cfi_offset 7, -8
 176              		.cfi_offset 14, -4
 177 0002 0646     		mov	r6, r0
 178 0004 0D46     		mov	r5, r1
  90:Core/Src/lcd.c **** 
 179              		.loc 1 90 5 is_stmt 1 view .LVU33
 180 0006 0122     		movs	r2, #1
 181 0008 4FF48071 		mov	r1, #256
 182              	.LVL16:
  90:Core/Src/lcd.c **** 
 183              		.loc 1 90 5 is_stmt 0 view .LVU34
 184 000c 1248     		ldr	r0, .L14
 185              	.LVL17:
  90:Core/Src/lcd.c **** 
 186              		.loc 1 90 5 view .LVU35
 187 000e FFF7FEFF 		bl	HAL_GPIO_WritePin
 188              	.LVL18:
  92:Core/Src/lcd.c ****     {
 189              		.loc 1 92 5 is_stmt 1 view .LVU36
 190              	.LBB33:
  92:Core/Src/lcd.c ****     {
 191              		.loc 1 92 10 view .LVU37
  92:Core/Src/lcd.c ****     {
 192              		.loc 1 92 14 is_stmt 0 view .LVU38
 193 0012 0024     		movs	r4, #0
  92:Core/Src/lcd.c ****     {
 194              		.loc 1 92 5 view .LVU39
 195 0014 1DE0     		b	.L11
 196              	.LVL19:
 197              	.L12:
  94:Core/Src/lcd.c ****     }
 198              		.loc 1 94 9 is_stmt 1 discriminator 3 view .LVU40
 199 0016 335D     		ldrb	r3, [r6, r4]	@ zero_extendqisi2
ARM GAS  C:\Users\Vento\AppData\Local\Temp\ccDU9lzs.s 			page 15


 200              	.LVL20:
 201              	.LBB34:
 202              	.LBI34:
  46:Core/Src/lcd.c **** {
 203              		.loc 1 46 20 discriminator 3 view .LVU41
 204              	.LBB35:
  48:Core/Src/lcd.c ****     uint8_t temp_Bit3rd_Data = data & 0x04;
 205              		.loc 1 48 5 discriminator 3 view .LVU42
  48:Core/Src/lcd.c ****     uint8_t temp_Bit3rd_Data = data & 0x04;
 206              		.loc 1 48 13 is_stmt 0 discriminator 3 view .LVU43
 207 0018 03F00201 		and	r1, r3, #2
 208              	.LVL21:
  49:Core/Src/lcd.c ****     data &= ~0x06;
 209              		.loc 1 49 5 is_stmt 1 discriminator 3 view .LVU44
  50:Core/Src/lcd.c ****     data |= (uint8_t)((temp_Bit2nd_Data << 1) | (temp_Bit3rd_Data >> 1));
 210              		.loc 1 50 5 discriminator 3 view .LVU45
  50:Core/Src/lcd.c ****     data |= (uint8_t)((temp_Bit2nd_Data << 1) | (temp_Bit3rd_Data >> 1));
 211              		.loc 1 50 10 is_stmt 0 discriminator 3 view .LVU46
 212 001c 03F0F902 		and	r2, r3, #249
 213              	.LVL22:
  51:Core/Src/lcd.c **** 
 214              		.loc 1 51 5 is_stmt 1 discriminator 3 view .LVU47
  51:Core/Src/lcd.c **** 
 215              		.loc 1 51 47 is_stmt 0 discriminator 3 view .LVU48
 216 0020 5B08     		lsrs	r3, r3, #1
 217              	.LVL23:
  51:Core/Src/lcd.c **** 
 218              		.loc 1 51 47 discriminator 3 view .LVU49
 219 0022 03F00203 		and	r3, r3, #2
  51:Core/Src/lcd.c **** 
 220              		.loc 1 51 13 discriminator 3 view .LVU50
 221 0026 43EA4103 		orr	r3, r3, r1, lsl #1
  51:Core/Src/lcd.c **** 
 222              		.loc 1 51 10 discriminator 3 view .LVU51
 223 002a 1A43     		orrs	r2, r2, r3
 224              	.LVL24:
  53:Core/Src/lcd.c ****     tempReg &= 0xFFFFFF00;
 225              		.loc 1 53 5 is_stmt 1 discriminator 3 view .LVU52
  53:Core/Src/lcd.c ****     tempReg &= 0xFFFFFF00;
 226              		.loc 1 53 14 is_stmt 0 discriminator 3 view .LVU53
 227 002c 0A4F     		ldr	r7, .L14
 228 002e FB68     		ldr	r3, [r7, #12]
 229              	.LVL25:
  54:Core/Src/lcd.c ****     tempReg |= (uint32_t)data;
 230              		.loc 1 54 5 is_stmt 1 discriminator 3 view .LVU54
  54:Core/Src/lcd.c ****     tempReg |= (uint32_t)data;
 231              		.loc 1 54 13 is_stmt 0 discriminator 3 view .LVU55
 232 0030 23F0FF03 		bic	r3, r3, #255
 233              	.LVL26:
  55:Core/Src/lcd.c ****     DATA_PORT->ODR = tempReg;
 234              		.loc 1 55 5 is_stmt 1 discriminator 3 view .LVU56
  55:Core/Src/lcd.c ****     DATA_PORT->ODR = tempReg;
 235              		.loc 1 55 13 is_stmt 0 discriminator 3 view .LVU57
 236 0034 1343     		orrs	r3, r3, r2
 237              	.LVL27:
  56:Core/Src/lcd.c **** 
 238              		.loc 1 56 5 is_stmt 1 discriminator 3 view .LVU58
ARM GAS  C:\Users\Vento\AppData\Local\Temp\ccDU9lzs.s 			page 16


  56:Core/Src/lcd.c **** 
 239              		.loc 1 56 20 is_stmt 0 discriminator 3 view .LVU59
 240 0036 FB60     		str	r3, [r7, #12]
 241              	.LVL28:
  67:Core/Src/lcd.c ****     HAL_GPIO_WritePin(ILI9341_WR_GPIO_Port, ILI9341_WR_Pin, GPIO_PIN_SET);
 242              		.loc 1 67 5 is_stmt 1 discriminator 3 view .LVU60
 243 0038 0022     		movs	r2, #0
 244              	.LVL29:
  67:Core/Src/lcd.c ****     HAL_GPIO_WritePin(ILI9341_WR_GPIO_Port, ILI9341_WR_Pin, GPIO_PIN_SET);
 245              		.loc 1 67 5 is_stmt 0 discriminator 3 view .LVU61
 246 003a 4FF48061 		mov	r1, #1024
 247              	.LVL30:
  67:Core/Src/lcd.c ****     HAL_GPIO_WritePin(ILI9341_WR_GPIO_Port, ILI9341_WR_Pin, GPIO_PIN_SET);
 248              		.loc 1 67 5 discriminator 3 view .LVU62
 249 003e 3846     		mov	r0, r7
 250 0040 FFF7FEFF 		bl	HAL_GPIO_WritePin
 251              	.LVL31:
  68:Core/Src/lcd.c **** }
 252              		.loc 1 68 5 is_stmt 1 discriminator 3 view .LVU63
 253 0044 0122     		movs	r2, #1
 254 0046 4FF48061 		mov	r1, #1024
 255 004a 3846     		mov	r0, r7
 256 004c FFF7FEFF 		bl	HAL_GPIO_WritePin
 257              	.LVL32:
  68:Core/Src/lcd.c **** }
 258              		.loc 1 68 5 is_stmt 0 discriminator 3 view .LVU64
 259              	.LBE35:
 260              	.LBE34:
  92:Core/Src/lcd.c ****     {
 261              		.loc 1 92 36 is_stmt 1 discriminator 3 view .LVU65
  92:Core/Src/lcd.c ****     {
 262              		.loc 1 92 37 is_stmt 0 discriminator 3 view .LVU66
 263 0050 0134     		adds	r4, r4, #1
 264              	.LVL33:
 265              	.L11:
  92:Core/Src/lcd.c ****     {
 266              		.loc 1 92 21 is_stmt 1 discriminator 1 view .LVU67
  92:Core/Src/lcd.c ****     {
 267              		.loc 1 92 5 is_stmt 0 discriminator 1 view .LVU68
 268 0052 AC42     		cmp	r4, r5
 269 0054 DFD3     		bcc	.L12
 270              	.LBE33:
  97:Core/Src/lcd.c **** 
 271              		.loc 1 97 1 view .LVU69
 272 0056 F8BD     		pop	{r3, r4, r5, r6, r7, pc}
 273              	.LVL34:
 274              	.L15:
  97:Core/Src/lcd.c **** 
 275              		.loc 1 97 1 view .LVU70
 276              		.align	2
 277              	.L14:
 278 0058 000C0140 		.word	1073810432
 279              		.cfi_endproc
 280              	.LFE72:
 282              		.section	.text.ILI9341_SetAddressWindow,"ax",%progbits
 283              		.align	1
 284              		.syntax unified
ARM GAS  C:\Users\Vento\AppData\Local\Temp\ccDU9lzs.s 			page 17


 285              		.thumb
 286              		.thumb_func
 287              		.fpu softvfp
 289              	ILI9341_SetAddressWindow:
 290              	.LVL35:
 291              	.LFB73:
 100:Core/Src/lcd.c ****     // column address set
 292              		.loc 1 100 1 is_stmt 1 view -0
 293              		.cfi_startproc
 294              		@ args = 0, pretend = 0, frame = 8
 295              		@ frame_needed = 0, uses_anonymous_args = 0
 100:Core/Src/lcd.c ****     // column address set
 296              		.loc 1 100 1 is_stmt 0 view .LVU72
 297 0000 2DE9F043 		push	{r4, r5, r6, r7, r8, r9, lr}
 298              	.LCFI2:
 299              		.cfi_def_cfa_offset 28
 300              		.cfi_offset 4, -28
 301              		.cfi_offset 5, -24
 302              		.cfi_offset 6, -20
 303              		.cfi_offset 7, -16
 304              		.cfi_offset 8, -12
 305              		.cfi_offset 9, -8
 306              		.cfi_offset 14, -4
 307 0004 83B0     		sub	sp, sp, #12
 308              	.LCFI3:
 309              		.cfi_def_cfa_offset 40
 310 0006 8146     		mov	r9, r0
 311 0008 0F46     		mov	r7, r1
 312 000a 9046     		mov	r8, r2
 313 000c 1E46     		mov	r6, r3
 102:Core/Src/lcd.c ****     {
 314              		.loc 1 102 5 is_stmt 1 view .LVU73
 315              	.LVL36:
 316              	.LBB50:
 317              	.LBI50:
  71:Core/Src/lcd.c **** {
 318              		.loc 1 71 20 view .LVU74
 319              	.LBB51:
  74:Core/Src/lcd.c ****     ILI9341_SetData(cmd);
 320              		.loc 1 74 5 view .LVU75
 321 000e 364C     		ldr	r4, .L18
 322 0010 0022     		movs	r2, #0
 323              	.LVL37:
  74:Core/Src/lcd.c ****     ILI9341_SetData(cmd);
 324              		.loc 1 74 5 is_stmt 0 view .LVU76
 325 0012 4FF48071 		mov	r1, #256
 326              	.LVL38:
  74:Core/Src/lcd.c ****     ILI9341_SetData(cmd);
 327              		.loc 1 74 5 view .LVU77
 328 0016 2046     		mov	r0, r4
 329              	.LVL39:
  74:Core/Src/lcd.c ****     ILI9341_SetData(cmd);
 330              		.loc 1 74 5 view .LVU78
 331 0018 FFF7FEFF 		bl	HAL_GPIO_WritePin
 332              	.LVL40:
  75:Core/Src/lcd.c ****     // ILI9341_Unselect();
 333              		.loc 1 75 5 is_stmt 1 view .LVU79
ARM GAS  C:\Users\Vento\AppData\Local\Temp\ccDU9lzs.s 			page 18


 334              	.LBB52:
 335              	.LBI52:
  46:Core/Src/lcd.c **** {
 336              		.loc 1 46 20 view .LVU80
 337              	.LBB53:
  48:Core/Src/lcd.c ****     uint8_t temp_Bit3rd_Data = data & 0x04;
 338              		.loc 1 48 5 view .LVU81
  49:Core/Src/lcd.c ****     data &= ~0x06;
 339              		.loc 1 49 5 view .LVU82
  50:Core/Src/lcd.c ****     data |= (uint8_t)((temp_Bit2nd_Data << 1) | (temp_Bit3rd_Data >> 1));
 340              		.loc 1 50 5 view .LVU83
  51:Core/Src/lcd.c **** 
 341              		.loc 1 51 5 view .LVU84
  53:Core/Src/lcd.c ****     tempReg &= 0xFFFFFF00;
 342              		.loc 1 53 5 view .LVU85
  53:Core/Src/lcd.c ****     tempReg &= 0xFFFFFF00;
 343              		.loc 1 53 14 is_stmt 0 view .LVU86
 344 001c E568     		ldr	r5, [r4, #12]
 345              	.LVL41:
  54:Core/Src/lcd.c ****     tempReg |= (uint32_t)data;
 346              		.loc 1 54 5 is_stmt 1 view .LVU87
  54:Core/Src/lcd.c ****     tempReg |= (uint32_t)data;
 347              		.loc 1 54 13 is_stmt 0 view .LVU88
 348 001e 25F0FF05 		bic	r5, r5, #255
 349              	.LVL42:
  55:Core/Src/lcd.c ****     DATA_PORT->ODR = tempReg;
 350              		.loc 1 55 5 is_stmt 1 view .LVU89
  55:Core/Src/lcd.c ****     DATA_PORT->ODR = tempReg;
 351              		.loc 1 55 13 is_stmt 0 view .LVU90
 352 0022 45F02C05 		orr	r5, r5, #44
 353              	.LVL43:
  56:Core/Src/lcd.c **** 
 354              		.loc 1 56 5 is_stmt 1 view .LVU91
  56:Core/Src/lcd.c **** 
 355              		.loc 1 56 20 is_stmt 0 view .LVU92
 356 0026 E560     		str	r5, [r4, #12]
  67:Core/Src/lcd.c ****     HAL_GPIO_WritePin(ILI9341_WR_GPIO_Port, ILI9341_WR_Pin, GPIO_PIN_SET);
 357              		.loc 1 67 5 is_stmt 1 view .LVU93
 358 0028 0022     		movs	r2, #0
 359 002a 4FF48061 		mov	r1, #1024
 360 002e 2046     		mov	r0, r4
 361 0030 FFF7FEFF 		bl	HAL_GPIO_WritePin
 362              	.LVL44:
  68:Core/Src/lcd.c **** }
 363              		.loc 1 68 5 view .LVU94
 364 0034 0122     		movs	r2, #1
 365 0036 4FF48061 		mov	r1, #1024
 366 003a 2046     		mov	r0, r4
 367 003c FFF7FEFF 		bl	HAL_GPIO_WritePin
 368              	.LVL45:
  68:Core/Src/lcd.c **** }
 369              		.loc 1 68 5 is_stmt 0 view .LVU95
 370              	.LBE53:
 371              	.LBE52:
 372              	.LBE51:
 373              	.LBE50:
 374              	.LBB54:
ARM GAS  C:\Users\Vento\AppData\Local\Temp\ccDU9lzs.s 			page 19


 104:Core/Src/lcd.c ****         ILI9341_WriteData(data, sizeof(data));
 375              		.loc 1 104 9 is_stmt 1 view .LVU96
 104:Core/Src/lcd.c ****         ILI9341_WriteData(data, sizeof(data));
 376              		.loc 1 104 17 is_stmt 0 view .LVU97
 377 0040 4FEA1923 		lsr	r3, r9, #8
 378 0044 8DF80430 		strb	r3, [sp, #4]
 379 0048 8DF80590 		strb	r9, [sp, #5]
 380 004c 4FEA1823 		lsr	r3, r8, #8
 381 0050 8DF80630 		strb	r3, [sp, #6]
 382 0054 8DF80780 		strb	r8, [sp, #7]
 105:Core/Src/lcd.c ****     }
 383              		.loc 1 105 9 is_stmt 1 view .LVU98
 384 0058 0421     		movs	r1, #4
 385 005a 0DEB0100 		add	r0, sp, r1
 386 005e FFF7FEFF 		bl	ILI9341_WriteData
 387              	.LVL46:
 388              	.LBE54:
 109:Core/Src/lcd.c ****     {
 389              		.loc 1 109 5 view .LVU99
 390              	.LBB55:
 391              	.LBI55:
  71:Core/Src/lcd.c **** {
 392              		.loc 1 71 20 view .LVU100
 393              	.LBB56:
  74:Core/Src/lcd.c ****     ILI9341_SetData(cmd);
 394              		.loc 1 74 5 view .LVU101
 395 0062 0022     		movs	r2, #0
 396 0064 4FF48071 		mov	r1, #256
 397 0068 2046     		mov	r0, r4
 398 006a FFF7FEFF 		bl	HAL_GPIO_WritePin
 399              	.LVL47:
  75:Core/Src/lcd.c ****     // ILI9341_Unselect();
 400              		.loc 1 75 5 view .LVU102
 401              	.LBB57:
 402              	.LBI57:
  46:Core/Src/lcd.c **** {
 403              		.loc 1 46 20 view .LVU103
 404              	.LBB58:
  48:Core/Src/lcd.c ****     uint8_t temp_Bit3rd_Data = data & 0x04;
 405              		.loc 1 48 5 view .LVU104
  49:Core/Src/lcd.c ****     data &= ~0x06;
 406              		.loc 1 49 5 view .LVU105
  50:Core/Src/lcd.c ****     data |= (uint8_t)((temp_Bit2nd_Data << 1) | (temp_Bit3rd_Data >> 1));
 407              		.loc 1 50 5 view .LVU106
  51:Core/Src/lcd.c **** 
 408              		.loc 1 51 5 view .LVU107
  53:Core/Src/lcd.c ****     tempReg &= 0xFFFFFF00;
 409              		.loc 1 53 5 view .LVU108
  53:Core/Src/lcd.c ****     tempReg &= 0xFFFFFF00;
 410              		.loc 1 53 14 is_stmt 0 view .LVU109
 411 006e E268     		ldr	r2, [r4, #12]
 412              	.LVL48:
  54:Core/Src/lcd.c ****     tempReg |= (uint32_t)data;
 413              		.loc 1 54 5 is_stmt 1 view .LVU110
  54:Core/Src/lcd.c ****     tempReg |= (uint32_t)data;
 414              		.loc 1 54 13 is_stmt 0 view .LVU111
 415 0070 22F0FF02 		bic	r2, r2, #255
ARM GAS  C:\Users\Vento\AppData\Local\Temp\ccDU9lzs.s 			page 20


 416              	.LVL49:
  55:Core/Src/lcd.c ****     DATA_PORT->ODR = tempReg;
 417              		.loc 1 55 5 is_stmt 1 view .LVU112
  55:Core/Src/lcd.c ****     DATA_PORT->ODR = tempReg;
 418              		.loc 1 55 13 is_stmt 0 view .LVU113
 419 0074 42F02D02 		orr	r2, r2, #45
 420              	.LVL50:
  56:Core/Src/lcd.c **** 
 421              		.loc 1 56 5 is_stmt 1 view .LVU114
  56:Core/Src/lcd.c **** 
 422              		.loc 1 56 20 is_stmt 0 view .LVU115
 423 0078 E260     		str	r2, [r4, #12]
  67:Core/Src/lcd.c ****     HAL_GPIO_WritePin(ILI9341_WR_GPIO_Port, ILI9341_WR_Pin, GPIO_PIN_SET);
 424              		.loc 1 67 5 is_stmt 1 view .LVU116
 425 007a 0022     		movs	r2, #0
 426              	.LVL51:
  67:Core/Src/lcd.c ****     HAL_GPIO_WritePin(ILI9341_WR_GPIO_Port, ILI9341_WR_Pin, GPIO_PIN_SET);
 427              		.loc 1 67 5 is_stmt 0 view .LVU117
 428 007c 4FF48061 		mov	r1, #1024
 429 0080 2046     		mov	r0, r4
 430 0082 FFF7FEFF 		bl	HAL_GPIO_WritePin
 431              	.LVL52:
  68:Core/Src/lcd.c **** }
 432              		.loc 1 68 5 is_stmt 1 view .LVU118
 433 0086 0122     		movs	r2, #1
 434 0088 4FF48061 		mov	r1, #1024
 435 008c 2046     		mov	r0, r4
 436 008e FFF7FEFF 		bl	HAL_GPIO_WritePin
 437              	.LVL53:
  68:Core/Src/lcd.c **** }
 438              		.loc 1 68 5 is_stmt 0 view .LVU119
 439              	.LBE58:
 440              	.LBE57:
 441              	.LBE56:
 442              	.LBE55:
 443              	.LBB59:
 111:Core/Src/lcd.c ****         ILI9341_WriteData(data, sizeof(data));
 444              		.loc 1 111 9 is_stmt 1 view .LVU120
 111:Core/Src/lcd.c ****         ILI9341_WriteData(data, sizeof(data));
 445              		.loc 1 111 17 is_stmt 0 view .LVU121
 446 0092 3B0A     		lsrs	r3, r7, #8
 447 0094 8DF80430 		strb	r3, [sp, #4]
 448 0098 8DF80570 		strb	r7, [sp, #5]
 449 009c 330A     		lsrs	r3, r6, #8
 450 009e 8DF80630 		strb	r3, [sp, #6]
 451 00a2 8DF80760 		strb	r6, [sp, #7]
 112:Core/Src/lcd.c ****     }
 452              		.loc 1 112 9 is_stmt 1 view .LVU122
 453 00a6 0421     		movs	r1, #4
 454 00a8 0DEB0100 		add	r0, sp, r1
 455 00ac FFF7FEFF 		bl	ILI9341_WriteData
 456              	.LVL54:
 457              	.LBE59:
 116:Core/Src/lcd.c **** }
 458              		.loc 1 116 5 view .LVU123
 459              	.LBB60:
 460              	.LBI60:
ARM GAS  C:\Users\Vento\AppData\Local\Temp\ccDU9lzs.s 			page 21


  71:Core/Src/lcd.c **** {
 461              		.loc 1 71 20 view .LVU124
 462              	.LBB61:
  74:Core/Src/lcd.c ****     ILI9341_SetData(cmd);
 463              		.loc 1 74 5 view .LVU125
 464 00b0 0022     		movs	r2, #0
 465 00b2 4FF48071 		mov	r1, #256
 466 00b6 2046     		mov	r0, r4
 467 00b8 FFF7FEFF 		bl	HAL_GPIO_WritePin
 468              	.LVL55:
  75:Core/Src/lcd.c ****     // ILI9341_Unselect();
 469              		.loc 1 75 5 view .LVU126
 470              	.LBB62:
 471              	.LBI62:
  46:Core/Src/lcd.c **** {
 472              		.loc 1 46 20 view .LVU127
 473              	.LBB63:
  48:Core/Src/lcd.c ****     uint8_t temp_Bit3rd_Data = data & 0x04;
 474              		.loc 1 48 5 view .LVU128
  49:Core/Src/lcd.c ****     data &= ~0x06;
 475              		.loc 1 49 5 view .LVU129
  50:Core/Src/lcd.c ****     data |= (uint8_t)((temp_Bit2nd_Data << 1) | (temp_Bit3rd_Data >> 1));
 476              		.loc 1 50 5 view .LVU130
  51:Core/Src/lcd.c **** 
 477              		.loc 1 51 5 view .LVU131
  53:Core/Src/lcd.c ****     tempReg &= 0xFFFFFF00;
 478              		.loc 1 53 5 view .LVU132
  53:Core/Src/lcd.c ****     tempReg &= 0xFFFFFF00;
 479              		.loc 1 53 14 is_stmt 0 view .LVU133
 480 00bc E368     		ldr	r3, [r4, #12]
 481              	.LVL56:
  54:Core/Src/lcd.c ****     tempReg |= (uint32_t)data;
 482              		.loc 1 54 5 is_stmt 1 view .LVU134
  54:Core/Src/lcd.c ****     tempReg |= (uint32_t)data;
 483              		.loc 1 54 13 is_stmt 0 view .LVU135
 484 00be 23F0FF03 		bic	r3, r3, #255
 485              	.LVL57:
  55:Core/Src/lcd.c ****     DATA_PORT->ODR = tempReg;
 486              		.loc 1 55 5 is_stmt 1 view .LVU136
  55:Core/Src/lcd.c ****     DATA_PORT->ODR = tempReg;
 487              		.loc 1 55 13 is_stmt 0 view .LVU137
 488 00c2 43F02A03 		orr	r3, r3, #42
 489              	.LVL58:
  56:Core/Src/lcd.c **** 
 490              		.loc 1 56 5 is_stmt 1 view .LVU138
  56:Core/Src/lcd.c **** 
 491              		.loc 1 56 20 is_stmt 0 view .LVU139
 492 00c6 E360     		str	r3, [r4, #12]
  67:Core/Src/lcd.c ****     HAL_GPIO_WritePin(ILI9341_WR_GPIO_Port, ILI9341_WR_Pin, GPIO_PIN_SET);
 493              		.loc 1 67 5 is_stmt 1 view .LVU140
 494 00c8 0022     		movs	r2, #0
 495 00ca 4FF48061 		mov	r1, #1024
 496 00ce 2046     		mov	r0, r4
 497 00d0 FFF7FEFF 		bl	HAL_GPIO_WritePin
 498              	.LVL59:
  68:Core/Src/lcd.c **** }
 499              		.loc 1 68 5 view .LVU141
ARM GAS  C:\Users\Vento\AppData\Local\Temp\ccDU9lzs.s 			page 22


 500 00d4 0122     		movs	r2, #1
 501 00d6 4FF48061 		mov	r1, #1024
 502 00da 2046     		mov	r0, r4
 503 00dc FFF7FEFF 		bl	HAL_GPIO_WritePin
 504              	.LVL60:
  68:Core/Src/lcd.c **** }
 505              		.loc 1 68 5 is_stmt 0 view .LVU142
 506              	.LBE63:
 507              	.LBE62:
 508              	.LBE61:
 509              	.LBE60:
 117:Core/Src/lcd.c **** 
 510              		.loc 1 117 1 view .LVU143
 511 00e0 03B0     		add	sp, sp, #12
 512              	.LCFI4:
 513              		.cfi_def_cfa_offset 28
 514              		@ sp needed
 515 00e2 BDE8F083 		pop	{r4, r5, r6, r7, r8, r9, pc}
 516              	.L19:
 517 00e6 00BF     		.align	2
 518              	.L18:
 519 00e8 000C0140 		.word	1073810432
 520              		.cfi_endproc
 521              	.LFE73:
 523              		.section	.text.ILI9341_WriteChar,"ax",%progbits
 524              		.align	1
 525              		.syntax unified
 526              		.thumb
 527              		.thumb_func
 528              		.fpu softvfp
 530              	ILI9341_WriteChar:
 531              	.LVL61:
 532              	.LFB77:
 340:Core/Src/lcd.c ****     uint32_t i, b, j;
 533              		.loc 1 340 1 is_stmt 1 view -0
 534              		.cfi_startproc
 535              		@ args = 20, pretend = 8, frame = 8
 536              		@ frame_needed = 0, uses_anonymous_args = 0
 340:Core/Src/lcd.c ****     uint32_t i, b, j;
 537              		.loc 1 340 1 is_stmt 0 view .LVU145
 538 0000 82B0     		sub	sp, sp, #8
 539              	.LCFI5:
 540              		.cfi_def_cfa_offset 8
 541 0002 2DE9F04F 		push	{r4, r5, r6, r7, r8, r9, r10, fp, lr}
 542              	.LCFI6:
 543              		.cfi_def_cfa_offset 44
 544              		.cfi_offset 4, -44
 545              		.cfi_offset 5, -40
 546              		.cfi_offset 6, -36
 547              		.cfi_offset 7, -32
 548              		.cfi_offset 8, -28
 549              		.cfi_offset 9, -24
 550              		.cfi_offset 10, -20
 551              		.cfi_offset 11, -16
 552              		.cfi_offset 14, -12
 553 0006 83B0     		sub	sp, sp, #12
 554              	.LCFI7:
ARM GAS  C:\Users\Vento\AppData\Local\Temp\ccDU9lzs.s 			page 23


 555              		.cfi_def_cfa_offset 56
 556 0008 9346     		mov	fp, r2
 557 000a 0D93     		str	r3, [sp, #52]
 558 000c BDF83C80 		ldrh	r8, [sp, #60]
 559 0010 BDF84070 		ldrh	r7, [sp, #64]
 341:Core/Src/lcd.c **** 
 560              		.loc 1 341 5 is_stmt 1 view .LVU146
 343:Core/Src/lcd.c **** 
 561              		.loc 1 343 5 view .LVU147
 343:Core/Src/lcd.c **** 
 562              		.loc 1 343 42 is_stmt 0 view .LVU148
 563 0014 9DF83450 		ldrb	r5, [sp, #52]	@ zero_extendqisi2
 343:Core/Src/lcd.c **** 
 564              		.loc 1 343 37 view .LVU149
 565 0018 2A18     		adds	r2, r5, r0
 566              	.LVL62:
 343:Core/Src/lcd.c **** 
 567              		.loc 1 343 37 view .LVU150
 568 001a 92B2     		uxth	r2, r2
 343:Core/Src/lcd.c **** 
 569              		.loc 1 343 58 view .LVU151
 570 001c 9DF835A0 		ldrb	r10, [sp, #53]	@ zero_extendqisi2
 343:Core/Src/lcd.c **** 
 571              		.loc 1 343 53 view .LVU152
 572 0020 0AEB0103 		add	r3, r10, r1
 573 0024 9BB2     		uxth	r3, r3
 343:Core/Src/lcd.c **** 
 574              		.loc 1 343 5 view .LVU153
 575 0026 013B     		subs	r3, r3, #1
 576 0028 013A     		subs	r2, r2, #1
 577 002a 9BB2     		uxth	r3, r3
 578 002c 92B2     		uxth	r2, r2
 579 002e FFF7FEFF 		bl	ILI9341_SetAddressWindow
 580              	.LVL63:
 345:Core/Src/lcd.c ****         b = font.data[(ch - 32) * font.height + i];
 581              		.loc 1 345 5 is_stmt 1 view .LVU154
 345:Core/Src/lcd.c ****         b = font.data[(ch - 32) * font.height + i];
 582              		.loc 1 345 11 is_stmt 0 view .LVU155
 583 0032 4FF00009 		mov	r9, #0
 345:Core/Src/lcd.c ****         b = font.data[(ch - 32) * font.height + i];
 584              		.loc 1 345 5 view .LVU156
 585 0036 1DE0     		b	.L21
 586              	.LVL64:
 587              	.L23:
 588              	.LBB64:
 352:Core/Src/lcd.c ****                 ILI9341_WriteData(data, sizeof(data));
 589              		.loc 1 352 17 is_stmt 1 view .LVU157
 352:Core/Src/lcd.c ****                 ILI9341_WriteData(data, sizeof(data));
 590              		.loc 1 352 25 is_stmt 0 view .LVU158
 591 0038 3B0A     		lsrs	r3, r7, #8
 592 003a 8DF80430 		strb	r3, [sp, #4]
 593 003e 8DF80570 		strb	r7, [sp, #5]
 353:Core/Src/lcd.c ****             }
 594              		.loc 1 353 17 is_stmt 1 view .LVU159
 595 0042 0221     		movs	r1, #2
 596 0044 01A8     		add	r0, sp, #4
 597 0046 FFF7FEFF 		bl	ILI9341_WriteData
ARM GAS  C:\Users\Vento\AppData\Local\Temp\ccDU9lzs.s 			page 24


 598              	.LVL65:
 599              	.L24:
 353:Core/Src/lcd.c ****             }
 600              		.loc 1 353 17 is_stmt 0 view .LVU160
 601              	.LBE64:
 347:Core/Src/lcd.c ****             if((b << j) & 0x8000)  {
 602              		.loc 1 347 36 is_stmt 1 discriminator 2 view .LVU161
 347:Core/Src/lcd.c ****             if((b << j) & 0x8000)  {
 603              		.loc 1 347 37 is_stmt 0 discriminator 2 view .LVU162
 604 004a 0134     		adds	r4, r4, #1
 605              	.LVL66:
 606              	.L22:
 347:Core/Src/lcd.c ****             if((b << j) & 0x8000)  {
 607              		.loc 1 347 20 is_stmt 1 discriminator 1 view .LVU163
 347:Core/Src/lcd.c ****             if((b << j) & 0x8000)  {
 608              		.loc 1 347 9 is_stmt 0 discriminator 1 view .LVU164
 609 004c A542     		cmp	r5, r4
 610 004e 0FD9     		bls	.L28
 348:Core/Src/lcd.c ****                 uint8_t data[] = { color >> 8, color & 0xFF };
 611              		.loc 1 348 13 is_stmt 1 view .LVU165
 348:Core/Src/lcd.c ****                 uint8_t data[] = { color >> 8, color & 0xFF };
 612              		.loc 1 348 19 is_stmt 0 view .LVU166
 613 0050 06FA04F3 		lsl	r3, r6, r4
 348:Core/Src/lcd.c ****                 uint8_t data[] = { color >> 8, color & 0xFF };
 614              		.loc 1 348 15 view .LVU167
 615 0054 13F4004F 		tst	r3, #32768
 616 0058 EED0     		beq	.L23
 617              	.LBB65:
 349:Core/Src/lcd.c ****                 ILI9341_WriteData(data, sizeof(data));
 618              		.loc 1 349 17 is_stmt 1 view .LVU168
 349:Core/Src/lcd.c ****                 ILI9341_WriteData(data, sizeof(data));
 619              		.loc 1 349 25 is_stmt 0 view .LVU169
 620 005a 4FEA1823 		lsr	r3, r8, #8
 621 005e 8DF80430 		strb	r3, [sp, #4]
 622 0062 8DF80580 		strb	r8, [sp, #5]
 350:Core/Src/lcd.c ****             } else {
 623              		.loc 1 350 17 is_stmt 1 view .LVU170
 624 0066 0221     		movs	r1, #2
 625 0068 01A8     		add	r0, sp, #4
 626 006a FFF7FEFF 		bl	ILI9341_WriteData
 627              	.LVL67:
 628              	.LBE65:
 629 006e ECE7     		b	.L24
 630              	.L28:
 345:Core/Src/lcd.c ****         b = font.data[(ch - 32) * font.height + i];
 631              		.loc 1 345 33 discriminator 2 view .LVU171
 345:Core/Src/lcd.c ****         b = font.data[(ch - 32) * font.height + i];
 632              		.loc 1 345 34 is_stmt 0 discriminator 2 view .LVU172
 633 0070 09F10109 		add	r9, r9, #1
 634              	.LVL68:
 635              	.L21:
 345:Core/Src/lcd.c ****         b = font.data[(ch - 32) * font.height + i];
 636              		.loc 1 345 16 is_stmt 1 discriminator 1 view .LVU173
 345:Core/Src/lcd.c ****         b = font.data[(ch - 32) * font.height + i];
 637              		.loc 1 345 5 is_stmt 0 discriminator 1 view .LVU174
 638 0074 CA45     		cmp	r10, r9
 639 0076 08D9     		bls	.L29
ARM GAS  C:\Users\Vento\AppData\Local\Temp\ccDU9lzs.s 			page 25


 346:Core/Src/lcd.c ****         for(j = 0; j < font.width; j++) {
 640              		.loc 1 346 9 is_stmt 1 view .LVU175
 346:Core/Src/lcd.c ****         for(j = 0; j < font.width; j++) {
 641              		.loc 1 346 27 is_stmt 0 view .LVU176
 642 0078 ABF12003 		sub	r3, fp, #32
 346:Core/Src/lcd.c ****         for(j = 0; j < font.width; j++) {
 643              		.loc 1 346 47 view .LVU177
 644 007c 0AFB0393 		mla	r3, r10, r3, r9
 346:Core/Src/lcd.c ****         for(j = 0; j < font.width; j++) {
 645              		.loc 1 346 22 view .LVU178
 646 0080 0E9A     		ldr	r2, [sp, #56]
 647 0082 32F81360 		ldrh	r6, [r2, r3, lsl #1]
 648              	.LVL69:
 347:Core/Src/lcd.c ****             if((b << j) & 0x8000)  {
 649              		.loc 1 347 9 is_stmt 1 view .LVU179
 347:Core/Src/lcd.c ****             if((b << j) & 0x8000)  {
 650              		.loc 1 347 15 is_stmt 0 view .LVU180
 651 0086 0024     		movs	r4, #0
 347:Core/Src/lcd.c ****             if((b << j) & 0x8000)  {
 652              		.loc 1 347 9 view .LVU181
 653 0088 E0E7     		b	.L22
 654              	.LVL70:
 655              	.L29:
 357:Core/Src/lcd.c **** 
 656              		.loc 1 357 1 view .LVU182
 657 008a 03B0     		add	sp, sp, #12
 658              	.LCFI8:
 659              		.cfi_def_cfa_offset 44
 660              		@ sp needed
 661 008c BDE8F04F 		pop	{r4, r5, r6, r7, r8, r9, r10, fp, lr}
 662              	.LCFI9:
 663              		.cfi_restore 14
 664              		.cfi_restore 11
 665              		.cfi_restore 10
 666              		.cfi_restore 9
 667              		.cfi_restore 8
 668              		.cfi_restore 7
 669              		.cfi_restore 6
 670              		.cfi_restore 5
 671              		.cfi_restore 4
 672              		.cfi_def_cfa_offset 8
 673              	.LVL71:
 357:Core/Src/lcd.c **** 
 674              		.loc 1 357 1 view .LVU183
 675 0090 02B0     		add	sp, sp, #8
 676              	.LCFI10:
 677              		.cfi_def_cfa_offset 0
 678 0092 7047     		bx	lr
 679              		.cfi_endproc
 680              	.LFE77:
 682              		.section	.text.ILI9341_LCD_LED,"ax",%progbits
 683              		.align	1
 684              		.global	ILI9341_LCD_LED
 685              		.syntax unified
 686              		.thumb
 687              		.thumb_func
 688              		.fpu softvfp
ARM GAS  C:\Users\Vento\AppData\Local\Temp\ccDU9lzs.s 			page 26


 690              	ILI9341_LCD_LED:
 691              	.LVL72:
 692              	.LFB65:
  21:Core/Src/lcd.c ****     if (state == true)
 693              		.loc 1 21 1 is_stmt 1 view -0
 694              		.cfi_startproc
 695              		@ args = 0, pretend = 0, frame = 0
 696              		@ frame_needed = 0, uses_anonymous_args = 0
  21:Core/Src/lcd.c ****     if (state == true)
 697              		.loc 1 21 1 is_stmt 0 view .LVU185
 698 0000 08B5     		push	{r3, lr}
 699              	.LCFI11:
 700              		.cfi_def_cfa_offset 8
 701              		.cfi_offset 3, -8
 702              		.cfi_offset 14, -4
  22:Core/Src/lcd.c ****         HAL_GPIO_WritePin(ILI9341_LED_GPIO_Port, ILI9341_LED_Pin, SET);
 703              		.loc 1 22 5 is_stmt 1 view .LVU186
  22:Core/Src/lcd.c ****         HAL_GPIO_WritePin(ILI9341_LED_GPIO_Port, ILI9341_LED_Pin, SET);
 704              		.loc 1 22 8 is_stmt 0 view .LVU187
 705 0002 28B1     		cbz	r0, .L31
  23:Core/Src/lcd.c ****     else
 706              		.loc 1 23 9 is_stmt 1 view .LVU188
 707 0004 0122     		movs	r2, #1
 708 0006 0421     		movs	r1, #4
 709 0008 0448     		ldr	r0, .L34
 710              	.LVL73:
  23:Core/Src/lcd.c ****     else
 711              		.loc 1 23 9 is_stmt 0 view .LVU189
 712 000a FFF7FEFF 		bl	HAL_GPIO_WritePin
 713              	.LVL74:
 714              	.L30:
  26:Core/Src/lcd.c **** 
 715              		.loc 1 26 1 view .LVU190
 716 000e 08BD     		pop	{r3, pc}
 717              	.LVL75:
 718              	.L31:
  25:Core/Src/lcd.c **** }
 719              		.loc 1 25 9 is_stmt 1 view .LVU191
 720 0010 0022     		movs	r2, #0
 721 0012 0421     		movs	r1, #4
 722 0014 0148     		ldr	r0, .L34
 723              	.LVL76:
  25:Core/Src/lcd.c **** }
 724              		.loc 1 25 9 is_stmt 0 view .LVU192
 725 0016 FFF7FEFF 		bl	HAL_GPIO_WritePin
 726              	.LVL77:
  26:Core/Src/lcd.c **** 
 727              		.loc 1 26 1 view .LVU193
 728 001a F8E7     		b	.L30
 729              	.L35:
 730              		.align	2
 731              	.L34:
 732 001c 00140140 		.word	1073812480
 733              		.cfi_endproc
 734              	.LFE65:
 736              		.section	.text.ILI9341_Unselect,"ax",%progbits
 737              		.align	1
ARM GAS  C:\Users\Vento\AppData\Local\Temp\ccDU9lzs.s 			page 27


 738              		.global	ILI9341_Unselect
 739              		.syntax unified
 740              		.thumb
 741              		.thumb_func
 742              		.fpu softvfp
 744              	ILI9341_Unselect:
 745              	.LFB67:
  34:Core/Src/lcd.c ****     HAL_GPIO_WritePin(ILI9341_CS_GPIO_Port, ILI9341_CS_Pin, GPIO_PIN_SET);
 746              		.loc 1 34 1 is_stmt 1 view -0
 747              		.cfi_startproc
 748              		@ args = 0, pretend = 0, frame = 0
 749              		@ frame_needed = 0, uses_anonymous_args = 0
 750 0000 08B5     		push	{r3, lr}
 751              	.LCFI12:
 752              		.cfi_def_cfa_offset 8
 753              		.cfi_offset 3, -8
 754              		.cfi_offset 14, -4
  35:Core/Src/lcd.c **** }
 755              		.loc 1 35 5 view .LVU195
 756 0002 0122     		movs	r2, #1
 757 0004 4FF40071 		mov	r1, #512
 758 0008 0148     		ldr	r0, .L38
 759 000a FFF7FEFF 		bl	HAL_GPIO_WritePin
 760              	.LVL78:
  36:Core/Src/lcd.c **** 
 761              		.loc 1 36 1 is_stmt 0 view .LVU196
 762 000e 08BD     		pop	{r3, pc}
 763              	.L39:
 764              		.align	2
 765              	.L38:
 766 0010 000C0140 		.word	1073810432
 767              		.cfi_endproc
 768              	.LFE67:
 770              		.section	.text.ILI9341_DrawPixel,"ax",%progbits
 771              		.align	1
 772              		.global	ILI9341_DrawPixel
 773              		.syntax unified
 774              		.thumb
 775              		.thumb_func
 776              		.fpu softvfp
 778              	ILI9341_DrawPixel:
 779              	.LVL79:
 780              	.LFB75:
 270:Core/Src/lcd.c ****     if((x >= ILI9341_WIDTH) || (y >= ILI9341_HEIGHT))
 781              		.loc 1 270 1 is_stmt 1 view -0
 782              		.cfi_startproc
 783              		@ args = 0, pretend = 0, frame = 8
 784              		@ frame_needed = 0, uses_anonymous_args = 0
 271:Core/Src/lcd.c ****         return;
 785              		.loc 1 271 5 view .LVU198
 271:Core/Src/lcd.c ****         return;
 786              		.loc 1 271 7 is_stmt 0 view .LVU199
 787 0000 B0F5A07F 		cmp	r0, #320
 788 0004 27D2     		bcs	.L45
 270:Core/Src/lcd.c ****     if((x >= ILI9341_WIDTH) || (y >= ILI9341_HEIGHT))
 789              		.loc 1 270 1 discriminator 1 view .LVU200
 790 0006 F0B5     		push	{r4, r5, r6, r7, lr}
ARM GAS  C:\Users\Vento\AppData\Local\Temp\ccDU9lzs.s 			page 28


 791              	.LCFI13:
 792              		.cfi_def_cfa_offset 20
 793              		.cfi_offset 4, -20
 794              		.cfi_offset 5, -16
 795              		.cfi_offset 6, -12
 796              		.cfi_offset 7, -8
 797              		.cfi_offset 14, -4
 798 0008 83B0     		sub	sp, sp, #12
 799              	.LCFI14:
 800              		.cfi_def_cfa_offset 32
 801 000a 0446     		mov	r4, r0
 802 000c 0D46     		mov	r5, r1
 803 000e 1646     		mov	r6, r2
 271:Core/Src/lcd.c ****         return;
 804              		.loc 1 271 29 discriminator 1 view .LVU201
 805 0010 EF29     		cmp	r1, #239
 806 0012 01D9     		bls	.L48
 807              	.LVL80:
 808              	.L40:
 281:Core/Src/lcd.c **** 
 809              		.loc 1 281 1 view .LVU202
 810 0014 03B0     		add	sp, sp, #12
 811              	.LCFI15:
 812              		.cfi_remember_state
 813              		.cfi_def_cfa_offset 20
 814              		@ sp needed
 815 0016 F0BD     		pop	{r4, r5, r6, r7, pc}
 816              	.LVL81:
 817              	.L48:
 818              	.LCFI16:
 819              		.cfi_restore_state
 274:Core/Src/lcd.c **** 
 820              		.loc 1 274 5 is_stmt 1 view .LVU203
 821              	.LBB66:
 822              	.LBI66:
  28:Core/Src/lcd.c **** {
 823              		.loc 1 28 20 view .LVU204
 824              	.LBB67:
  30:Core/Src/lcd.c **** }
 825              		.loc 1 30 5 view .LVU205
 826 0018 0F4F     		ldr	r7, .L49
 827 001a 0022     		movs	r2, #0
 828              	.LVL82:
  30:Core/Src/lcd.c **** }
 829              		.loc 1 30 5 is_stmt 0 view .LVU206
 830 001c 4FF40071 		mov	r1, #512
 831              	.LVL83:
  30:Core/Src/lcd.c **** }
 832              		.loc 1 30 5 view .LVU207
 833 0020 3846     		mov	r0, r7
 834              	.LVL84:
  30:Core/Src/lcd.c **** }
 835              		.loc 1 30 5 view .LVU208
 836 0022 FFF7FEFF 		bl	HAL_GPIO_WritePin
 837              	.LVL85:
 838              	.LBE67:
 839              	.LBE66:
ARM GAS  C:\Users\Vento\AppData\Local\Temp\ccDU9lzs.s 			page 29


 276:Core/Src/lcd.c ****     uint8_t data[] = { color >> 8, color & 0xFF };
 840              		.loc 1 276 5 is_stmt 1 view .LVU209
 841 0026 6B1C     		adds	r3, r5, #1
 842 0028 621C     		adds	r2, r4, #1
 843 002a 9BB2     		uxth	r3, r3
 844 002c 92B2     		uxth	r2, r2
 845 002e 2946     		mov	r1, r5
 846 0030 2046     		mov	r0, r4
 847 0032 FFF7FEFF 		bl	ILI9341_SetAddressWindow
 848              	.LVL86:
 277:Core/Src/lcd.c ****     ILI9341_WriteData(data, sizeof(data));
 849              		.loc 1 277 5 view .LVU210
 277:Core/Src/lcd.c ****     ILI9341_WriteData(data, sizeof(data));
 850              		.loc 1 277 13 is_stmt 0 view .LVU211
 851 0036 330A     		lsrs	r3, r6, #8
 852 0038 8DF80430 		strb	r3, [sp, #4]
 853 003c 8DF80560 		strb	r6, [sp, #5]
 278:Core/Src/lcd.c **** 
 854              		.loc 1 278 5 is_stmt 1 view .LVU212
 855 0040 0221     		movs	r1, #2
 856 0042 01A8     		add	r0, sp, #4
 857 0044 FFF7FEFF 		bl	ILI9341_WriteData
 858              	.LVL87:
 280:Core/Src/lcd.c **** }
 859              		.loc 1 280 5 view .LVU213
 860              	.LBB68:
 861              	.LBI68:
  33:Core/Src/lcd.c **** {
 862              		.loc 1 33 13 view .LVU214
 863              	.LBB69:
  35:Core/Src/lcd.c **** }
 864              		.loc 1 35 5 view .LVU215
 865 0048 0122     		movs	r2, #1
 866 004a 4FF40071 		mov	r1, #512
 867 004e 3846     		mov	r0, r7
 868 0050 FFF7FEFF 		bl	HAL_GPIO_WritePin
 869              	.LVL88:
 870              	.LBE69:
 871              	.LBE68:
 872 0054 DEE7     		b	.L40
 873              	.LVL89:
 874              	.L45:
 875              	.LCFI17:
 876              		.cfi_def_cfa_offset 0
 877              		.cfi_restore 4
 878              		.cfi_restore 5
 879              		.cfi_restore 6
 880              		.cfi_restore 7
 881              		.cfi_restore 14
  35:Core/Src/lcd.c **** }
 882              		.loc 1 35 5 is_stmt 0 view .LVU216
 883 0056 7047     		bx	lr
 884              	.L50:
 885              		.align	2
 886              	.L49:
 887 0058 000C0140 		.word	1073810432
 888              		.cfi_endproc
ARM GAS  C:\Users\Vento\AppData\Local\Temp\ccDU9lzs.s 			page 30


 889              	.LFE75:
 891              		.section	.text.ILI9341_DrawLine,"ax",%progbits
 892              		.align	1
 893              		.global	ILI9341_DrawLine
 894              		.syntax unified
 895              		.thumb
 896              		.thumb_func
 897              		.fpu softvfp
 899              	ILI9341_DrawLine:
 900              	.LVL90:
 901              	.LFB76:
 284:Core/Src/lcd.c ****     uint16_t t; 
 902              		.loc 1 284 1 is_stmt 1 view -0
 903              		.cfi_startproc
 904              		@ args = 4, pretend = 0, frame = 16
 905              		@ frame_needed = 0, uses_anonymous_args = 0
 284:Core/Src/lcd.c ****     uint16_t t; 
 906              		.loc 1 284 1 is_stmt 0 view .LVU218
 907 0000 2DE9F04F 		push	{r4, r5, r6, r7, r8, r9, r10, fp, lr}
 908              	.LCFI18:
 909              		.cfi_def_cfa_offset 36
 910              		.cfi_offset 4, -36
 911              		.cfi_offset 5, -32
 912              		.cfi_offset 6, -28
 913              		.cfi_offset 7, -24
 914              		.cfi_offset 8, -20
 915              		.cfi_offset 9, -16
 916              		.cfi_offset 10, -12
 917              		.cfi_offset 11, -8
 918              		.cfi_offset 14, -4
 919 0004 85B0     		sub	sp, sp, #20
 920              	.LCFI19:
 921              		.cfi_def_cfa_offset 56
 922 0006 BDF83840 		ldrh	r4, [sp, #56]
 923 000a 0194     		str	r4, [sp, #4]
 285:Core/Src/lcd.c **** 	int xerr = 0, yerr = 0, delta_x, delta_y, distance; 
 924              		.loc 1 285 5 is_stmt 1 view .LVU219
 286:Core/Src/lcd.c **** 	int incx, incy, uRow, uCol;
 925              		.loc 1 286 2 view .LVU220
 926              	.LVL91:
 287:Core/Src/lcd.c **** 
 927              		.loc 1 287 2 view .LVU221
 289:Core/Src/lcd.c **** 	delta_y = y2 - y1; 
 928              		.loc 1 289 2 view .LVU222
 289:Core/Src/lcd.c **** 	delta_y = y2 - y1; 
 929              		.loc 1 289 15 is_stmt 0 view .LVU223
 930 000c 8046     		mov	r8, r0
 289:Core/Src/lcd.c **** 	delta_y = y2 - y1; 
 931              		.loc 1 289 10 view .LVU224
 932 000e A2EB000A 		sub	r10, r2, r0
 933              	.LVL92:
 290:Core/Src/lcd.c **** 	uRow = x1; 
 934              		.loc 1 290 2 is_stmt 1 view .LVU225
 290:Core/Src/lcd.c **** 	uRow = x1; 
 935              		.loc 1 290 15 is_stmt 0 view .LVU226
 936 0012 8946     		mov	r9, r1
 290:Core/Src/lcd.c **** 	uRow = x1; 
ARM GAS  C:\Users\Vento\AppData\Local\Temp\ccDU9lzs.s 			page 31


 937              		.loc 1 290 10 view .LVU227
 938 0014 A3EB010B 		sub	fp, r3, r1
 939              	.LVL93:
 291:Core/Src/lcd.c **** 	uCol = y1;
 940              		.loc 1 291 2 is_stmt 1 view .LVU228
 292:Core/Src/lcd.c **** 
 941              		.loc 1 292 2 view .LVU229
 294:Core/Src/lcd.c ****         incx = 1;
 942              		.loc 1 294 2 view .LVU230
 294:Core/Src/lcd.c ****         incx = 1;
 943              		.loc 1 294 5 is_stmt 0 view .LVU231
 944 0018 BAF1000F 		cmp	r10, #0
 945 001c 0DDD     		ble	.L65
 295:Core/Src/lcd.c **** 	else if (delta_x == 0)
 946              		.loc 1 295 14 view .LVU232
 947 001e 0122     		movs	r2, #1
 948              	.LVL94:
 295:Core/Src/lcd.c **** 	else if (delta_x == 0)
 949              		.loc 1 295 14 view .LVU233
 950 0020 0292     		str	r2, [sp, #8]
 951              	.L52:
 952              	.LVL95:
 304:Core/Src/lcd.c ****         incy = 1; 
 953              		.loc 1 304 5 is_stmt 1 view .LVU234
 304:Core/Src/lcd.c ****         incy = 1; 
 954              		.loc 1 304 8 is_stmt 0 view .LVU235
 955 0022 BBF1000F 		cmp	fp, #0
 956 0026 14DD     		ble	.L66
 305:Core/Src/lcd.c **** 	else if (delta_y==0)
 957              		.loc 1 305 14 view .LVU236
 958 0028 0123     		movs	r3, #1
 959              	.LVL96:
 305:Core/Src/lcd.c **** 	else if (delta_y==0)
 960              		.loc 1 305 14 view .LVU237
 961 002a 0393     		str	r3, [sp, #12]
 962              	.L53:
 963              	.LVL97:
 314:Core/Src/lcd.c ****         distance = delta_x;
 964              		.loc 1 314 2 is_stmt 1 view .LVU238
 314:Core/Src/lcd.c ****         distance = delta_x;
 965              		.loc 1 314 5 is_stmt 0 view .LVU239
 966 002c DA45     		cmp	r10, fp
 967 002e 1CDD     		ble	.L63
 315:Core/Src/lcd.c **** 	else 
 968              		.loc 1 315 18 view .LVU240
 969 0030 5646     		mov	r6, r10
 970              	.L54:
 971              	.LVL98:
 319:Core/Src/lcd.c **** 	{  
 972              		.loc 1 319 2 is_stmt 1 view .LVU241
 286:Core/Src/lcd.c **** 	int incx, incy, uRow, uCol;
 973              		.loc 1 286 16 is_stmt 0 view .LVU242
 974 0032 0025     		movs	r5, #0
 286:Core/Src/lcd.c **** 	int incx, incy, uRow, uCol;
 975              		.loc 1 286 6 view .LVU243
 976 0034 2F46     		mov	r7, r5
 319:Core/Src/lcd.c **** 	{  
ARM GAS  C:\Users\Vento\AppData\Local\Temp\ccDU9lzs.s 			page 32


 977              		.loc 1 319 8 view .LVU244
 978 0036 2C46     		mov	r4, r5
 319:Core/Src/lcd.c **** 	{  
 979              		.loc 1 319 2 view .LVU245
 980 0038 1BE0     		b	.L55
 981              	.LVL99:
 982              	.L65:
 296:Core/Src/lcd.c ****         incx = 0;
 983              		.loc 1 296 7 is_stmt 1 view .LVU246
 296:Core/Src/lcd.c ****         incx = 0;
 984              		.loc 1 296 10 is_stmt 0 view .LVU247
 985 003a BAF1000F 		cmp	r10, #0
 986 003e 05D0     		beq	.L60
 300:Core/Src/lcd.c ****         delta_x = -delta_x;
 987              		.loc 1 300 9 is_stmt 1 view .LVU248
 988              	.LVL100:
 301:Core/Src/lcd.c ****     } 
 989              		.loc 1 301 9 view .LVU249
 301:Core/Src/lcd.c ****     } 
 990              		.loc 1 301 17 is_stmt 0 view .LVU250
 991 0040 A0EB020A 		sub	r10, r0, r2
 992              	.LVL101:
 300:Core/Src/lcd.c ****         delta_x = -delta_x;
 993              		.loc 1 300 14 view .LVU251
 994 0044 4FF0FF32 		mov	r2, #-1
 995              	.LVL102:
 300:Core/Src/lcd.c ****         delta_x = -delta_x;
 996              		.loc 1 300 14 view .LVU252
 997 0048 0292     		str	r2, [sp, #8]
 998 004a EAE7     		b	.L52
 999              	.LVL103:
 1000              	.L60:
 297:Core/Src/lcd.c **** 	else 
 1001              		.loc 1 297 14 view .LVU253
 1002 004c CDF808A0 		str	r10, [sp, #8]
 1003 0050 E7E7     		b	.L52
 1004              	.LVL104:
 1005              	.L66:
 306:Core/Src/lcd.c ****         incy = 0;
 1006              		.loc 1 306 7 is_stmt 1 view .LVU254
 306:Core/Src/lcd.c ****         incy = 0;
 1007              		.loc 1 306 10 is_stmt 0 view .LVU255
 1008 0052 BBF1000F 		cmp	fp, #0
 1009 0056 05D0     		beq	.L62
 310:Core/Src/lcd.c ****         delta_y = -delta_y;
 1010              		.loc 1 310 9 is_stmt 1 view .LVU256
 1011              	.LVL105:
 311:Core/Src/lcd.c ****     } 
 1012              		.loc 1 311 9 view .LVU257
 311:Core/Src/lcd.c ****     } 
 1013              		.loc 1 311 17 is_stmt 0 view .LVU258
 1014 0058 A1EB030B 		sub	fp, r1, r3
 1015              	.LVL106:
 310:Core/Src/lcd.c ****         delta_y = -delta_y;
 1016              		.loc 1 310 14 view .LVU259
 1017 005c 4FF0FF33 		mov	r3, #-1
 1018              	.LVL107:
ARM GAS  C:\Users\Vento\AppData\Local\Temp\ccDU9lzs.s 			page 33


 310:Core/Src/lcd.c ****         delta_y = -delta_y;
 1019              		.loc 1 310 14 view .LVU260
 1020 0060 0393     		str	r3, [sp, #12]
 1021 0062 E3E7     		b	.L53
 1022              	.LVL108:
 1023              	.L62:
 307:Core/Src/lcd.c **** 	else
 1024              		.loc 1 307 14 view .LVU261
 1025 0064 CDF80CB0 		str	fp, [sp, #12]
 1026 0068 E0E7     		b	.L53
 1027              	.LVL109:
 1028              	.L63:
 317:Core/Src/lcd.c ****     
 1029              		.loc 1 317 18 view .LVU262
 1030 006a 5E46     		mov	r6, fp
 1031 006c E1E7     		b	.L54
 1032              	.LVL110:
 1033              	.L57:
 319:Core/Src/lcd.c **** 	{  
 1034              		.loc 1 319 32 is_stmt 1 discriminator 2 view .LVU263
 319:Core/Src/lcd.c **** 	{  
 1035              		.loc 1 319 33 is_stmt 0 discriminator 2 view .LVU264
 1036 006e 0134     		adds	r4, r4, #1
 1037              	.LVL111:
 319:Core/Src/lcd.c **** 	{  
 1038              		.loc 1 319 33 discriminator 2 view .LVU265
 1039 0070 A4B2     		uxth	r4, r4
 1040              	.LVL112:
 1041              	.L55:
 319:Core/Src/lcd.c **** 	{  
 1042              		.loc 1 319 13 is_stmt 1 discriminator 1 view .LVU266
 319:Core/Src/lcd.c **** 	{  
 1043              		.loc 1 319 27 is_stmt 0 discriminator 1 view .LVU267
 1044 0072 731C     		adds	r3, r6, #1
 319:Core/Src/lcd.c **** 	{  
 1045              		.loc 1 319 2 discriminator 1 view .LVU268
 1046 0074 9C42     		cmp	r4, r3
 1047 0076 13DC     		bgt	.L67
 321:Core/Src/lcd.c **** 
 1048              		.loc 1 321 3 is_stmt 1 view .LVU269
 1049 0078 019A     		ldr	r2, [sp, #4]
 1050 007a 1FFA89F1 		uxth	r1, r9
 1051 007e 1FFA88F0 		uxth	r0, r8
 1052 0082 FFF7FEFF 		bl	ILI9341_DrawPixel
 1053              	.LVL113:
 323:Core/Src/lcd.c **** 		yerr += delta_y; 
 1054              		.loc 1 323 3 view .LVU270
 323:Core/Src/lcd.c **** 		yerr += delta_y; 
 1055              		.loc 1 323 8 is_stmt 0 view .LVU271
 1056 0086 5744     		add	r7, r7, r10
 1057              	.LVL114:
 324:Core/Src/lcd.c **** 
 1058              		.loc 1 324 3 is_stmt 1 view .LVU272
 324:Core/Src/lcd.c **** 
 1059              		.loc 1 324 8 is_stmt 0 view .LVU273
 1060 0088 5D44     		add	r5, r5, fp
 1061              	.LVL115:
ARM GAS  C:\Users\Vento\AppData\Local\Temp\ccDU9lzs.s 			page 34


 326:Core/Src/lcd.c **** 		{ 
 1062              		.loc 1 326 3 is_stmt 1 view .LVU274
 326:Core/Src/lcd.c **** 		{ 
 1063              		.loc 1 326 6 is_stmt 0 view .LVU275
 1064 008a BE42     		cmp	r6, r7
 1065 008c 02DA     		bge	.L56
 328:Core/Src/lcd.c **** 			uRow += incx; 
 1066              		.loc 1 328 4 is_stmt 1 view .LVU276
 328:Core/Src/lcd.c **** 			uRow += incx; 
 1067              		.loc 1 328 9 is_stmt 0 view .LVU277
 1068 008e BF1B     		subs	r7, r7, r6
 1069              	.LVL116:
 329:Core/Src/lcd.c **** 		} 
 1070              		.loc 1 329 4 is_stmt 1 view .LVU278
 329:Core/Src/lcd.c **** 		} 
 1071              		.loc 1 329 9 is_stmt 0 view .LVU279
 1072 0090 029B     		ldr	r3, [sp, #8]
 1073 0092 9844     		add	r8, r8, r3
 1074              	.LVL117:
 1075              	.L56:
 331:Core/Src/lcd.c **** 		{ 
 1076              		.loc 1 331 3 is_stmt 1 view .LVU280
 331:Core/Src/lcd.c **** 		{ 
 1077              		.loc 1 331 6 is_stmt 0 view .LVU281
 1078 0094 AE42     		cmp	r6, r5
 1079 0096 EADA     		bge	.L57
 333:Core/Src/lcd.c **** 			uCol += incy; 
 1080              		.loc 1 333 4 is_stmt 1 view .LVU282
 333:Core/Src/lcd.c **** 			uCol += incy; 
 1081              		.loc 1 333 9 is_stmt 0 view .LVU283
 1082 0098 AD1B     		subs	r5, r5, r6
 1083              	.LVL118:
 334:Core/Src/lcd.c **** 		} 
 1084              		.loc 1 334 4 is_stmt 1 view .LVU284
 334:Core/Src/lcd.c **** 		} 
 1085              		.loc 1 334 9 is_stmt 0 view .LVU285
 1086 009a 039B     		ldr	r3, [sp, #12]
 1087 009c 9944     		add	r9, r9, r3
 1088              	.LVL119:
 334:Core/Src/lcd.c **** 		} 
 1089              		.loc 1 334 9 view .LVU286
 1090 009e E6E7     		b	.L57
 1091              	.L67:
 337:Core/Src/lcd.c **** 
 1092              		.loc 1 337 1 view .LVU287
 1093 00a0 05B0     		add	sp, sp, #20
 1094              	.LCFI20:
 1095              		.cfi_def_cfa_offset 36
 1096              		@ sp needed
 1097 00a2 BDE8F08F 		pop	{r4, r5, r6, r7, r8, r9, r10, fp, pc}
 337:Core/Src/lcd.c **** 
 1098              		.loc 1 337 1 view .LVU288
 1099              		.cfi_endproc
 1100              	.LFE76:
 1102              		.section	.text.ILI9341_WriteString,"ax",%progbits
 1103              		.align	1
 1104              		.global	ILI9341_WriteString
ARM GAS  C:\Users\Vento\AppData\Local\Temp\ccDU9lzs.s 			page 35


 1105              		.syntax unified
 1106              		.thumb
 1107              		.thumb_func
 1108              		.fpu softvfp
 1110              	ILI9341_WriteString:
 1111              	.LVL120:
 1112              	.LFB78:
 360:Core/Src/lcd.c ****     ILI9341_Select();
 1113              		.loc 1 360 1 is_stmt 1 view -0
 1114              		.cfi_startproc
 1115              		@ args = 20, pretend = 8, frame = 0
 1116              		@ frame_needed = 0, uses_anonymous_args = 0
 360:Core/Src/lcd.c ****     ILI9341_Select();
 1117              		.loc 1 360 1 is_stmt 0 view .LVU290
 1118 0000 82B0     		sub	sp, sp, #8
 1119              	.LCFI21:
 1120              		.cfi_def_cfa_offset 8
 1121 0002 2DE9F043 		push	{r4, r5, r6, r7, r8, r9, lr}
 1122              	.LCFI22:
 1123              		.cfi_def_cfa_offset 36
 1124              		.cfi_offset 4, -36
 1125              		.cfi_offset 5, -32
 1126              		.cfi_offset 6, -28
 1127              		.cfi_offset 7, -24
 1128              		.cfi_offset 8, -20
 1129              		.cfi_offset 9, -16
 1130              		.cfi_offset 14, -12
 1131 0006 85B0     		sub	sp, sp, #20
 1132              	.LCFI23:
 1133              		.cfi_def_cfa_offset 56
 1134 0008 0646     		mov	r6, r0
 1135 000a 0D46     		mov	r5, r1
 1136 000c 1746     		mov	r7, r2
 1137 000e 0D93     		str	r3, [sp, #52]
 1138 0010 BDF83C90 		ldrh	r9, [sp, #60]
 1139 0014 BDF84080 		ldrh	r8, [sp, #64]
 361:Core/Src/lcd.c **** 
 1140              		.loc 1 361 5 is_stmt 1 view .LVU291
 1141              	.LBB70:
 1142              	.LBI70:
  28:Core/Src/lcd.c **** {
 1143              		.loc 1 28 20 view .LVU292
 1144              	.LBB71:
  30:Core/Src/lcd.c **** }
 1145              		.loc 1 30 5 view .LVU293
 1146 0018 0022     		movs	r2, #0
 1147              	.LVL121:
  30:Core/Src/lcd.c **** }
 1148              		.loc 1 30 5 is_stmt 0 view .LVU294
 1149 001a 4FF40071 		mov	r1, #512
 1150              	.LVL122:
  30:Core/Src/lcd.c **** }
 1151              		.loc 1 30 5 view .LVU295
 1152 001e 1948     		ldr	r0, .L77
 1153              	.LVL123:
  30:Core/Src/lcd.c **** }
 1154              		.loc 1 30 5 view .LVU296
ARM GAS  C:\Users\Vento\AppData\Local\Temp\ccDU9lzs.s 			page 36


 1155 0020 FFF7FEFF 		bl	HAL_GPIO_WritePin
 1156              	.LVL124:
  31:Core/Src/lcd.c **** 
 1157              		.loc 1 31 1 view .LVU297
 1158 0024 10E0     		b	.L69
 1159              	.LVL125:
 1160              	.L76:
  31:Core/Src/lcd.c **** 
 1161              		.loc 1 31 1 view .LVU298
 1162              	.LBE71:
 1163              	.LBE70:
 373:Core/Src/lcd.c ****                 continue;
 1164              		.loc 1 373 17 is_stmt 1 view .LVU299
 373:Core/Src/lcd.c ****                 continue;
 1165              		.loc 1 373 20 is_stmt 0 view .LVU300
 1166 0026 0137     		adds	r7, r7, #1
 1167              	.LVL126:
 374:Core/Src/lcd.c ****             }
 1168              		.loc 1 374 17 is_stmt 1 view .LVU301
 365:Core/Src/lcd.c ****             y += font.height;
 1169              		.loc 1 365 15 is_stmt 0 view .LVU302
 1170 0028 0026     		movs	r6, #0
 374:Core/Src/lcd.c ****             }
 1171              		.loc 1 374 17 view .LVU303
 1172 002a 0DE0     		b	.L69
 1173              	.LVL127:
 1174              	.L70:
 378:Core/Src/lcd.c ****         x += font.width;
 1175              		.loc 1 378 9 is_stmt 1 view .LVU304
 1176 002c CDF80880 		str	r8, [sp, #8]
 1177 0030 CDF80490 		str	r9, [sp, #4]
 1178 0034 0E9B     		ldr	r3, [sp, #56]
 1179 0036 0093     		str	r3, [sp]
 1180 0038 0D9B     		ldr	r3, [sp, #52]
 1181 003a 2946     		mov	r1, r5
 1182 003c 3046     		mov	r0, r6
 1183 003e FFF7FEFF 		bl	ILI9341_WriteChar
 1184              	.LVL128:
 379:Core/Src/lcd.c ****         str++;
 1185              		.loc 1 379 9 view .LVU305
 379:Core/Src/lcd.c ****         str++;
 1186              		.loc 1 379 11 is_stmt 0 view .LVU306
 1187 0042 3444     		add	r4, r4, r6
 1188 0044 A6B2     		uxth	r6, r4
 1189              	.LVL129:
 380:Core/Src/lcd.c ****     }
 1190              		.loc 1 380 9 is_stmt 1 view .LVU307
 380:Core/Src/lcd.c ****     }
 1191              		.loc 1 380 12 is_stmt 0 view .LVU308
 1192 0046 0137     		adds	r7, r7, #1
 1193              	.LVL130:
 1194              	.L69:
 363:Core/Src/lcd.c ****         if(x + font.width >= ILI9341_WIDTH) {
 1195              		.loc 1 363 10 is_stmt 1 view .LVU309
 363:Core/Src/lcd.c ****         if(x + font.width >= ILI9341_WIDTH) {
 1196              		.loc 1 363 11 is_stmt 0 view .LVU310
 1197 0048 3A78     		ldrb	r2, [r7]	@ zero_extendqisi2
ARM GAS  C:\Users\Vento\AppData\Local\Temp\ccDU9lzs.s 			page 37


 363:Core/Src/lcd.c ****         if(x + font.width >= ILI9341_WIDTH) {
 1198              		.loc 1 363 10 view .LVU311
 1199 004a 82B1     		cbz	r2, .L71
 364:Core/Src/lcd.c ****             x = 0;
 1200              		.loc 1 364 9 is_stmt 1 view .LVU312
 364:Core/Src/lcd.c ****             x = 0;
 1201              		.loc 1 364 20 is_stmt 0 view .LVU313
 1202 004c 9DF83440 		ldrb	r4, [sp, #52]	@ zero_extendqisi2
 364:Core/Src/lcd.c ****             x = 0;
 1203              		.loc 1 364 14 view .LVU314
 1204 0050 3319     		adds	r3, r6, r4
 364:Core/Src/lcd.c ****             x = 0;
 1205              		.loc 1 364 11 view .LVU315
 1206 0052 B3F5A07F 		cmp	r3, #320
 1207 0056 E9DB     		blt	.L70
 365:Core/Src/lcd.c ****             y += font.height;
 1208              		.loc 1 365 13 is_stmt 1 view .LVU316
 1209              	.LVL131:
 366:Core/Src/lcd.c ****             if(y + font.height >= ILI9341_HEIGHT) {
 1210              		.loc 1 366 13 view .LVU317
 366:Core/Src/lcd.c ****             if(y + font.height >= ILI9341_HEIGHT) {
 1211              		.loc 1 366 22 is_stmt 0 view .LVU318
 1212 0058 9DF83530 		ldrb	r3, [sp, #53]	@ zero_extendqisi2
 366:Core/Src/lcd.c ****             if(y + font.height >= ILI9341_HEIGHT) {
 1213              		.loc 1 366 15 view .LVU319
 1214 005c 1D44     		add	r5, r5, r3
 1215              	.LVL132:
 366:Core/Src/lcd.c ****             if(y + font.height >= ILI9341_HEIGHT) {
 1216              		.loc 1 366 15 view .LVU320
 1217 005e ADB2     		uxth	r5, r5
 1218              	.LVL133:
 367:Core/Src/lcd.c ****                 break;
 1219              		.loc 1 367 13 is_stmt 1 view .LVU321
 367:Core/Src/lcd.c ****                 break;
 1220              		.loc 1 367 18 is_stmt 0 view .LVU322
 1221 0060 2B44     		add	r3, r3, r5
 367:Core/Src/lcd.c ****                 break;
 1222              		.loc 1 367 15 view .LVU323
 1223 0062 EF2B     		cmp	r3, #239
 1224 0064 03DC     		bgt	.L71
 371:Core/Src/lcd.c ****                 // skip spaces in the beginning of the new line
 1225              		.loc 1 371 13 is_stmt 1 view .LVU324
 371:Core/Src/lcd.c ****                 // skip spaces in the beginning of the new line
 1226              		.loc 1 371 15 is_stmt 0 view .LVU325
 1227 0066 202A     		cmp	r2, #32
 1228 0068 DDD0     		beq	.L76
 365:Core/Src/lcd.c ****             y += font.height;
 1229              		.loc 1 365 15 view .LVU326
 1230 006a 0026     		movs	r6, #0
 1231 006c DEE7     		b	.L70
 1232              	.LVL134:
 1233              	.L71:
 383:Core/Src/lcd.c **** }
 1234              		.loc 1 383 5 is_stmt 1 view .LVU327
 1235              	.LBB72:
 1236              	.LBI72:
  33:Core/Src/lcd.c **** {
ARM GAS  C:\Users\Vento\AppData\Local\Temp\ccDU9lzs.s 			page 38


 1237              		.loc 1 33 13 view .LVU328
 1238              	.LBB73:
  35:Core/Src/lcd.c **** }
 1239              		.loc 1 35 5 view .LVU329
 1240 006e 0122     		movs	r2, #1
 1241 0070 4FF40071 		mov	r1, #512
 1242 0074 0348     		ldr	r0, .L77
 1243 0076 FFF7FEFF 		bl	HAL_GPIO_WritePin
 1244              	.LVL135:
 1245              	.LBE73:
 1246              	.LBE72:
 384:Core/Src/lcd.c **** 
 1247              		.loc 1 384 1 is_stmt 0 view .LVU330
 1248 007a 05B0     		add	sp, sp, #20
 1249              	.LCFI24:
 1250              		.cfi_def_cfa_offset 36
 1251              		@ sp needed
 1252 007c BDE8F043 		pop	{r4, r5, r6, r7, r8, r9, lr}
 1253              	.LCFI25:
 1254              		.cfi_restore 14
 1255              		.cfi_restore 9
 1256              		.cfi_restore 8
 1257              		.cfi_restore 7
 1258              		.cfi_restore 6
 1259              		.cfi_restore 5
 1260              		.cfi_restore 4
 1261              		.cfi_def_cfa_offset 8
 1262              	.LVL136:
 384:Core/Src/lcd.c **** 
 1263              		.loc 1 384 1 view .LVU331
 1264 0080 02B0     		add	sp, sp, #8
 1265              	.LCFI26:
 1266              		.cfi_def_cfa_offset 0
 1267 0082 7047     		bx	lr
 1268              	.L78:
 1269              		.align	2
 1270              	.L77:
 1271 0084 000C0140 		.word	1073810432
 1272              		.cfi_endproc
 1273              	.LFE78:
 1275              		.section	.text.ILI9341_DrawRectangle,"ax",%progbits
 1276              		.align	1
 1277              		.global	ILI9341_DrawRectangle
 1278              		.syntax unified
 1279              		.thumb
 1280              		.thumb_func
 1281              		.fpu softvfp
 1283              	ILI9341_DrawRectangle:
 1284              	.LVL137:
 1285              	.LFB79:
 387:Core/Src/lcd.c ****     ILI9341_DrawLine(x, y, x + w, y, color);
 1286              		.loc 1 387 1 is_stmt 1 view -0
 1287              		.cfi_startproc
 1288              		@ args = 4, pretend = 0, frame = 0
 1289              		@ frame_needed = 0, uses_anonymous_args = 0
 387:Core/Src/lcd.c ****     ILI9341_DrawLine(x, y, x + w, y, color);
 1290              		.loc 1 387 1 is_stmt 0 view .LVU333
ARM GAS  C:\Users\Vento\AppData\Local\Temp\ccDU9lzs.s 			page 39


 1291 0000 2DE9F041 		push	{r4, r5, r6, r7, r8, lr}
 1292              	.LCFI27:
 1293              		.cfi_def_cfa_offset 24
 1294              		.cfi_offset 4, -24
 1295              		.cfi_offset 5, -20
 1296              		.cfi_offset 6, -16
 1297              		.cfi_offset 7, -12
 1298              		.cfi_offset 8, -8
 1299              		.cfi_offset 14, -4
 1300 0004 82B0     		sub	sp, sp, #8
 1301              	.LCFI28:
 1302              		.cfi_def_cfa_offset 32
 1303 0006 0646     		mov	r6, r0
 1304 0008 0F46     		mov	r7, r1
 1305 000a 1C46     		mov	r4, r3
 1306 000c BDF82080 		ldrh	r8, [sp, #32]
 388:Core/Src/lcd.c ****     ILI9341_DrawLine(x + w, y, x + w, y + h, color);
 1307              		.loc 1 388 5 is_stmt 1 view .LVU334
 1308 0010 0244     		add	r2, r2, r0
 1309              	.LVL138:
 388:Core/Src/lcd.c ****     ILI9341_DrawLine(x + w, y, x + w, y + h, color);
 1310              		.loc 1 388 5 is_stmt 0 view .LVU335
 1311 0012 95B2     		uxth	r5, r2
 1312 0014 CDF80080 		str	r8, [sp]
 1313 0018 0B46     		mov	r3, r1
 1314              	.LVL139:
 388:Core/Src/lcd.c ****     ILI9341_DrawLine(x + w, y, x + w, y + h, color);
 1315              		.loc 1 388 5 view .LVU336
 1316 001a 2A46     		mov	r2, r5
 1317 001c FFF7FEFF 		bl	ILI9341_DrawLine
 1318              	.LVL140:
 389:Core/Src/lcd.c ****     ILI9341_DrawLine(x, y, x, y + h, color);
 1319              		.loc 1 389 5 is_stmt 1 view .LVU337
 1320 0020 3C44     		add	r4, r4, r7
 1321 0022 A4B2     		uxth	r4, r4
 1322 0024 CDF80080 		str	r8, [sp]
 1323 0028 2346     		mov	r3, r4
 1324 002a 2A46     		mov	r2, r5
 1325 002c 3946     		mov	r1, r7
 1326 002e 2846     		mov	r0, r5
 1327 0030 FFF7FEFF 		bl	ILI9341_DrawLine
 1328              	.LVL141:
 390:Core/Src/lcd.c ****     ILI9341_DrawLine(x, y + h, x + w, y + h, color);
 1329              		.loc 1 390 5 view .LVU338
 1330 0034 CDF80080 		str	r8, [sp]
 1331 0038 2346     		mov	r3, r4
 1332 003a 3246     		mov	r2, r6
 1333 003c 3946     		mov	r1, r7
 1334 003e 3046     		mov	r0, r6
 1335 0040 FFF7FEFF 		bl	ILI9341_DrawLine
 1336              	.LVL142:
 391:Core/Src/lcd.c **** }
 1337              		.loc 1 391 5 view .LVU339
 1338 0044 CDF80080 		str	r8, [sp]
 1339 0048 2346     		mov	r3, r4
 1340 004a 2A46     		mov	r2, r5
 1341 004c 2146     		mov	r1, r4
ARM GAS  C:\Users\Vento\AppData\Local\Temp\ccDU9lzs.s 			page 40


 1342 004e 3046     		mov	r0, r6
 1343 0050 FFF7FEFF 		bl	ILI9341_DrawLine
 1344              	.LVL143:
 392:Core/Src/lcd.c **** 
 1345              		.loc 1 392 1 is_stmt 0 view .LVU340
 1346 0054 02B0     		add	sp, sp, #8
 1347              	.LCFI29:
 1348              		.cfi_def_cfa_offset 24
 1349              		@ sp needed
 1350 0056 BDE8F081 		pop	{r4, r5, r6, r7, r8, pc}
 392:Core/Src/lcd.c **** 
 1351              		.loc 1 392 1 view .LVU341
 1352              		.cfi_endproc
 1353              	.LFE79:
 1355              		.section	.text.ILI9341_FillRectangle,"ax",%progbits
 1356              		.align	1
 1357              		.global	ILI9341_FillRectangle
 1358              		.syntax unified
 1359              		.thumb
 1360              		.thumb_func
 1361              		.fpu softvfp
 1363              	ILI9341_FillRectangle:
 1364              	.LVL144:
 1365              	.LFB80:
 395:Core/Src/lcd.c ****     // clipping
 1366              		.loc 1 395 1 is_stmt 1 view -0
 1367              		.cfi_startproc
 1368              		@ args = 4, pretend = 0, frame = 8
 1369              		@ frame_needed = 0, uses_anonymous_args = 0
 395:Core/Src/lcd.c ****     // clipping
 1370              		.loc 1 395 1 is_stmt 0 view .LVU343
 1371 0000 2DE9F047 		push	{r4, r5, r6, r7, r8, r9, r10, lr}
 1372              	.LCFI30:
 1373              		.cfi_def_cfa_offset 32
 1374              		.cfi_offset 4, -32
 1375              		.cfi_offset 5, -28
 1376              		.cfi_offset 6, -24
 1377              		.cfi_offset 7, -20
 1378              		.cfi_offset 8, -16
 1379              		.cfi_offset 9, -12
 1380              		.cfi_offset 10, -8
 1381              		.cfi_offset 14, -4
 1382 0004 82B0     		sub	sp, sp, #8
 1383              	.LCFI31:
 1384              		.cfi_def_cfa_offset 40
 1385 0006 BDF82860 		ldrh	r6, [sp, #40]
 397:Core/Src/lcd.c ****     if((x + w - 1) >= ILI9341_WIDTH) w = ILI9341_WIDTH - x;
 1386              		.loc 1 397 5 is_stmt 1 view .LVU344
 397:Core/Src/lcd.c ****     if((x + w - 1) >= ILI9341_WIDTH) w = ILI9341_WIDTH - x;
 1387              		.loc 1 397 7 is_stmt 0 view .LVU345
 1388 000a B0F5A07F 		cmp	r0, #320
 1389 000e 80F08380 		bcs	.L81
 1390 0012 0446     		mov	r4, r0
 1391 0014 0D46     		mov	r5, r1
 1392 0016 9146     		mov	r9, r2
 1393 0018 9846     		mov	r8, r3
 397:Core/Src/lcd.c ****     if((x + w - 1) >= ILI9341_WIDTH) w = ILI9341_WIDTH - x;
ARM GAS  C:\Users\Vento\AppData\Local\Temp\ccDU9lzs.s 			page 41


 1394              		.loc 1 397 29 discriminator 2 view .LVU346
 1395 001a EF29     		cmp	r1, #239
 1396 001c 7CD8     		bhi	.L81
 398:Core/Src/lcd.c ****     if((y + h - 1) >= ILI9341_HEIGHT) h = ILI9341_HEIGHT - y;
 1397              		.loc 1 398 5 is_stmt 1 view .LVU347
 398:Core/Src/lcd.c ****     if((y + h - 1) >= ILI9341_HEIGHT) h = ILI9341_HEIGHT - y;
 1398              		.loc 1 398 11 is_stmt 0 view .LVU348
 1399 001e 8318     		adds	r3, r0, r2
 1400              	.LVL145:
 398:Core/Src/lcd.c ****     if((y + h - 1) >= ILI9341_HEIGHT) h = ILI9341_HEIGHT - y;
 1401              		.loc 1 398 7 view .LVU349
 1402 0020 B3F5A07F 		cmp	r3, #320
 1403 0024 03DD     		ble	.L85
 398:Core/Src/lcd.c ****     if((y + h - 1) >= ILI9341_HEIGHT) h = ILI9341_HEIGHT - y;
 1404              		.loc 1 398 38 is_stmt 1 discriminator 1 view .LVU350
 398:Core/Src/lcd.c ****     if((y + h - 1) >= ILI9341_HEIGHT) h = ILI9341_HEIGHT - y;
 1405              		.loc 1 398 40 is_stmt 0 discriminator 1 view .LVU351
 1406 0026 C0F5A079 		rsb	r9, r0, #320
 1407 002a 1FFA89F9 		uxth	r9, r9
 1408              	.LVL146:
 1409              	.L85:
 399:Core/Src/lcd.c **** 
 1410              		.loc 1 399 5 is_stmt 1 view .LVU352
 399:Core/Src/lcd.c **** 
 1411              		.loc 1 399 11 is_stmt 0 view .LVU353
 1412 002e 05EB0803 		add	r3, r5, r8
 399:Core/Src/lcd.c **** 
 1413              		.loc 1 399 7 view .LVU354
 1414 0032 F02B     		cmp	r3, #240
 1415 0034 03DD     		ble	.L86
 399:Core/Src/lcd.c **** 
 1416              		.loc 1 399 39 is_stmt 1 discriminator 1 view .LVU355
 399:Core/Src/lcd.c **** 
 1417              		.loc 1 399 41 is_stmt 0 discriminator 1 view .LVU356
 1418 0036 C5F1F008 		rsb	r8, r5, #240
 1419 003a 1FFA88F8 		uxth	r8, r8
 1420              	.LVL147:
 1421              	.L86:
 401:Core/Src/lcd.c ****     ILI9341_SetAddressWindow(x, y, x+w-1, y+h-1);
 1422              		.loc 1 401 5 is_stmt 1 view .LVU357
 1423              	.LBB82:
 1424              	.LBI82:
  28:Core/Src/lcd.c **** {
 1425              		.loc 1 28 20 view .LVU358
 1426              	.LBB83:
  30:Core/Src/lcd.c **** }
 1427              		.loc 1 30 5 view .LVU359
 1428 003e DFF8E0A0 		ldr	r10, .L93
 1429 0042 0022     		movs	r2, #0
 1430 0044 4FF40071 		mov	r1, #512
 1431              	.LVL148:
  30:Core/Src/lcd.c **** }
 1432              		.loc 1 30 5 is_stmt 0 view .LVU360
 1433 0048 5046     		mov	r0, r10
 1434              	.LVL149:
  30:Core/Src/lcd.c **** }
 1435              		.loc 1 30 5 view .LVU361
ARM GAS  C:\Users\Vento\AppData\Local\Temp\ccDU9lzs.s 			page 42


 1436 004a FFF7FEFF 		bl	HAL_GPIO_WritePin
 1437              	.LVL150:
 1438              	.LBE83:
 1439              	.LBE82:
 402:Core/Src/lcd.c **** 
 1440              		.loc 1 402 5 is_stmt 1 view .LVU362
 402:Core/Src/lcd.c **** 
 1441              		.loc 1 402 37 is_stmt 0 view .LVU363
 1442 004e 09EB0402 		add	r2, r9, r4
 1443 0052 92B2     		uxth	r2, r2
 402:Core/Src/lcd.c **** 
 1444              		.loc 1 402 44 view .LVU364
 1445 0054 08EB0503 		add	r3, r8, r5
 1446 0058 9BB2     		uxth	r3, r3
 402:Core/Src/lcd.c **** 
 1447              		.loc 1 402 5 view .LVU365
 1448 005a 013B     		subs	r3, r3, #1
 1449 005c 013A     		subs	r2, r2, #1
 1450 005e 9BB2     		uxth	r3, r3
 1451 0060 92B2     		uxth	r2, r2
 1452 0062 2946     		mov	r1, r5
 1453 0064 2046     		mov	r0, r4
 1454 0066 FFF7FEFF 		bl	ILI9341_SetAddressWindow
 1455              	.LVL151:
 404:Core/Src/lcd.c ****     HAL_GPIO_WritePin(ILI9341_DC_GPIO_Port, ILI9341_DC_Pin, GPIO_PIN_SET);
 1456              		.loc 1 404 5 is_stmt 1 view .LVU366
 404:Core/Src/lcd.c ****     HAL_GPIO_WritePin(ILI9341_DC_GPIO_Port, ILI9341_DC_Pin, GPIO_PIN_SET);
 1457              		.loc 1 404 13 is_stmt 0 view .LVU367
 1458 006a 370A     		lsrs	r7, r6, #8
 1459 006c 8DF80470 		strb	r7, [sp, #4]
 1460 0070 F6B2     		uxtb	r6, r6
 1461 0072 8DF80560 		strb	r6, [sp, #5]
 405:Core/Src/lcd.c ****     for(y = h; y > 0; y--) 
 1462              		.loc 1 405 5 is_stmt 1 view .LVU368
 1463 0076 0122     		movs	r2, #1
 1464 0078 4FF48071 		mov	r1, #256
 1465 007c 5046     		mov	r0, r10
 1466 007e FFF7FEFF 		bl	HAL_GPIO_WritePin
 1467              	.LVL152:
 406:Core/Src/lcd.c ****     {
 1468              		.loc 1 406 5 view .LVU369
 406:Core/Src/lcd.c ****     {
 1469              		.loc 1 406 5 is_stmt 0 view .LVU370
 1470 0082 3EE0     		b	.L87
 1471              	.LVL153:
 1472              	.L88:
 410:Core/Src/lcd.c ****             // HAL_GPIO_WritePin(DB8_PORT,  DB8,  (data[0] >> 0x00U) & 0x01U);
 1473              		.loc 1 410 13 is_stmt 1 view .LVU371
 1474              	.LBB84:
 1475              	.LBI84:
  46:Core/Src/lcd.c **** {
 1476              		.loc 1 46 20 view .LVU372
 1477              	.LBB85:
  48:Core/Src/lcd.c ****     uint8_t temp_Bit3rd_Data = data & 0x04;
 1478              		.loc 1 48 5 view .LVU373
  48:Core/Src/lcd.c ****     uint8_t temp_Bit3rd_Data = data & 0x04;
 1479              		.loc 1 48 13 is_stmt 0 view .LVU374
ARM GAS  C:\Users\Vento\AppData\Local\Temp\ccDU9lzs.s 			page 43


 1480 0084 07F00202 		and	r2, r7, #2
  49:Core/Src/lcd.c ****     data &= ~0x06;
 1481              		.loc 1 49 5 is_stmt 1 view .LVU375
 1482              	.LVL154:
  50:Core/Src/lcd.c ****     data |= (uint8_t)((temp_Bit2nd_Data << 1) | (temp_Bit3rd_Data >> 1));
 1483              		.loc 1 50 5 view .LVU376
  50:Core/Src/lcd.c ****     data |= (uint8_t)((temp_Bit2nd_Data << 1) | (temp_Bit3rd_Data >> 1));
 1484              		.loc 1 50 10 is_stmt 0 view .LVU377
 1485 0088 07F0F903 		and	r3, r7, #249
 1486              	.LVL155:
  51:Core/Src/lcd.c **** 
 1487              		.loc 1 51 5 is_stmt 1 view .LVU378
  51:Core/Src/lcd.c **** 
 1488              		.loc 1 51 47 is_stmt 0 view .LVU379
 1489 008c 7908     		lsrs	r1, r7, #1
 1490 008e 01F00201 		and	r1, r1, #2
  51:Core/Src/lcd.c **** 
 1491              		.loc 1 51 13 view .LVU380
 1492 0092 41EA4202 		orr	r2, r1, r2, lsl #1
  51:Core/Src/lcd.c **** 
 1493              		.loc 1 51 10 view .LVU381
 1494 0096 1A43     		orrs	r2, r2, r3
 1495              	.LVL156:
  53:Core/Src/lcd.c ****     tempReg &= 0xFFFFFF00;
 1496              		.loc 1 53 5 is_stmt 1 view .LVU382
  53:Core/Src/lcd.c ****     tempReg &= 0xFFFFFF00;
 1497              		.loc 1 53 14 is_stmt 0 view .LVU383
 1498 0098 214C     		ldr	r4, .L93
 1499 009a E368     		ldr	r3, [r4, #12]
 1500              	.LVL157:
  54:Core/Src/lcd.c ****     tempReg |= (uint32_t)data;
 1501              		.loc 1 54 5 is_stmt 1 view .LVU384
  54:Core/Src/lcd.c ****     tempReg |= (uint32_t)data;
 1502              		.loc 1 54 13 is_stmt 0 view .LVU385
 1503 009c 23F0FF03 		bic	r3, r3, #255
 1504              	.LVL158:
  55:Core/Src/lcd.c ****     DATA_PORT->ODR = tempReg;
 1505              		.loc 1 55 5 is_stmt 1 view .LVU386
  55:Core/Src/lcd.c ****     DATA_PORT->ODR = tempReg;
 1506              		.loc 1 55 13 is_stmt 0 view .LVU387
 1507 00a0 1343     		orrs	r3, r3, r2
 1508              	.LVL159:
  56:Core/Src/lcd.c **** 
 1509              		.loc 1 56 5 is_stmt 1 view .LVU388
  56:Core/Src/lcd.c **** 
 1510              		.loc 1 56 20 is_stmt 0 view .LVU389
 1511 00a2 E360     		str	r3, [r4, #12]
  67:Core/Src/lcd.c ****     HAL_GPIO_WritePin(ILI9341_WR_GPIO_Port, ILI9341_WR_Pin, GPIO_PIN_SET);
 1512              		.loc 1 67 5 is_stmt 1 view .LVU390
 1513 00a4 0022     		movs	r2, #0
 1514              	.LVL160:
  67:Core/Src/lcd.c ****     HAL_GPIO_WritePin(ILI9341_WR_GPIO_Port, ILI9341_WR_Pin, GPIO_PIN_SET);
 1515              		.loc 1 67 5 is_stmt 0 view .LVU391
 1516 00a6 4FF48061 		mov	r1, #1024
 1517              	.LVL161:
  67:Core/Src/lcd.c ****     HAL_GPIO_WritePin(ILI9341_WR_GPIO_Port, ILI9341_WR_Pin, GPIO_PIN_SET);
 1518              		.loc 1 67 5 view .LVU392
ARM GAS  C:\Users\Vento\AppData\Local\Temp\ccDU9lzs.s 			page 44


 1519 00aa 2046     		mov	r0, r4
 1520 00ac FFF7FEFF 		bl	HAL_GPIO_WritePin
 1521              	.LVL162:
  68:Core/Src/lcd.c **** }
 1522              		.loc 1 68 5 is_stmt 1 view .LVU393
 1523 00b0 0122     		movs	r2, #1
 1524 00b2 4FF48061 		mov	r1, #1024
 1525 00b6 2046     		mov	r0, r4
 1526 00b8 FFF7FEFF 		bl	HAL_GPIO_WritePin
 1527              	.LVL163:
  68:Core/Src/lcd.c **** }
 1528              		.loc 1 68 5 is_stmt 0 view .LVU394
 1529              	.LBE85:
 1530              	.LBE84:
 423:Core/Src/lcd.c ****             // HAL_GPIO_WritePin(DB8_PORT,  DB8,  (data[1] >> 0x00U) & 0x01U);
 1531              		.loc 1 423 13 is_stmt 1 view .LVU395
 1532              	.LBB86:
 1533              	.LBI86:
  46:Core/Src/lcd.c **** {
 1534              		.loc 1 46 20 view .LVU396
 1535              	.LBB87:
  48:Core/Src/lcd.c ****     uint8_t temp_Bit3rd_Data = data & 0x04;
 1536              		.loc 1 48 5 view .LVU397
  48:Core/Src/lcd.c ****     uint8_t temp_Bit3rd_Data = data & 0x04;
 1537              		.loc 1 48 13 is_stmt 0 view .LVU398
 1538 00bc 06F00203 		and	r3, r6, #2
  49:Core/Src/lcd.c ****     data &= ~0x06;
 1539              		.loc 1 49 5 is_stmt 1 view .LVU399
 1540              	.LVL164:
  50:Core/Src/lcd.c ****     data |= (uint8_t)((temp_Bit2nd_Data << 1) | (temp_Bit3rd_Data >> 1));
 1541              		.loc 1 50 5 view .LVU400
  50:Core/Src/lcd.c ****     data |= (uint8_t)((temp_Bit2nd_Data << 1) | (temp_Bit3rd_Data >> 1));
 1542              		.loc 1 50 10 is_stmt 0 view .LVU401
 1543 00c0 06F0F901 		and	r1, r6, #249
 1544              	.LVL165:
  51:Core/Src/lcd.c **** 
 1545              		.loc 1 51 5 is_stmt 1 view .LVU402
  51:Core/Src/lcd.c **** 
 1546              		.loc 1 51 47 is_stmt 0 view .LVU403
 1547 00c4 7208     		lsrs	r2, r6, #1
 1548 00c6 02F00202 		and	r2, r2, #2
  51:Core/Src/lcd.c **** 
 1549              		.loc 1 51 13 view .LVU404
 1550 00ca 42EA4303 		orr	r3, r2, r3, lsl #1
  51:Core/Src/lcd.c **** 
 1551              		.loc 1 51 10 view .LVU405
 1552 00ce 0B43     		orrs	r3, r3, r1
 1553              	.LVL166:
  53:Core/Src/lcd.c ****     tempReg &= 0xFFFFFF00;
 1554              		.loc 1 53 5 is_stmt 1 view .LVU406
  53:Core/Src/lcd.c ****     tempReg &= 0xFFFFFF00;
 1555              		.loc 1 53 14 is_stmt 0 view .LVU407
 1556 00d0 E168     		ldr	r1, [r4, #12]
 1557              	.LVL167:
  54:Core/Src/lcd.c ****     tempReg |= (uint32_t)data;
 1558              		.loc 1 54 5 is_stmt 1 view .LVU408
  54:Core/Src/lcd.c ****     tempReg |= (uint32_t)data;
ARM GAS  C:\Users\Vento\AppData\Local\Temp\ccDU9lzs.s 			page 45


 1559              		.loc 1 54 13 is_stmt 0 view .LVU409
 1560 00d2 21F0FF01 		bic	r1, r1, #255
 1561              	.LVL168:
  55:Core/Src/lcd.c ****     DATA_PORT->ODR = tempReg;
 1562              		.loc 1 55 5 is_stmt 1 view .LVU410
  55:Core/Src/lcd.c ****     DATA_PORT->ODR = tempReg;
 1563              		.loc 1 55 13 is_stmt 0 view .LVU411
 1564 00d6 1943     		orrs	r1, r1, r3
 1565              	.LVL169:
  56:Core/Src/lcd.c **** 
 1566              		.loc 1 56 5 is_stmt 1 view .LVU412
  56:Core/Src/lcd.c **** 
 1567              		.loc 1 56 20 is_stmt 0 view .LVU413
 1568 00d8 E160     		str	r1, [r4, #12]
  67:Core/Src/lcd.c ****     HAL_GPIO_WritePin(ILI9341_WR_GPIO_Port, ILI9341_WR_Pin, GPIO_PIN_SET);
 1569              		.loc 1 67 5 is_stmt 1 view .LVU414
 1570 00da 0022     		movs	r2, #0
 1571 00dc 4FF48061 		mov	r1, #1024
 1572              	.LVL170:
  67:Core/Src/lcd.c ****     HAL_GPIO_WritePin(ILI9341_WR_GPIO_Port, ILI9341_WR_Pin, GPIO_PIN_SET);
 1573              		.loc 1 67 5 is_stmt 0 view .LVU415
 1574 00e0 2046     		mov	r0, r4
 1575 00e2 FFF7FEFF 		bl	HAL_GPIO_WritePin
 1576              	.LVL171:
  68:Core/Src/lcd.c **** }
 1577              		.loc 1 68 5 is_stmt 1 view .LVU416
 1578 00e6 0122     		movs	r2, #1
 1579 00e8 4FF48061 		mov	r1, #1024
 1580 00ec 2046     		mov	r0, r4
 1581 00ee FFF7FEFF 		bl	HAL_GPIO_WritePin
 1582              	.LVL172:
  68:Core/Src/lcd.c **** }
 1583              		.loc 1 68 5 is_stmt 0 view .LVU417
 1584              	.LBE87:
 1585              	.LBE86:
 408:Core/Src/lcd.c ****         {
 1586              		.loc 1 408 27 is_stmt 1 view .LVU418
 408:Core/Src/lcd.c ****         {
 1587              		.loc 1 408 28 is_stmt 0 view .LVU419
 1588 00f2 013D     		subs	r5, r5, #1
 1589              	.LVL173:
 408:Core/Src/lcd.c ****         {
 1590              		.loc 1 408 28 view .LVU420
 1591 00f4 ADB2     		uxth	r5, r5
 1592              	.LVL174:
 1593              	.L89:
 408:Core/Src/lcd.c ****         {
 1594              		.loc 1 408 20 is_stmt 1 discriminator 1 view .LVU421
 408:Core/Src/lcd.c ****         {
 1595              		.loc 1 408 9 is_stmt 0 discriminator 1 view .LVU422
 1596 00f6 002D     		cmp	r5, #0
 1597 00f8 C4D1     		bne	.L88
 406:Core/Src/lcd.c ****     {
 1598              		.loc 1 406 23 is_stmt 1 discriminator 2 view .LVU423
 406:Core/Src/lcd.c ****     {
 1599              		.loc 1 406 24 is_stmt 0 discriminator 2 view .LVU424
 1600 00fa 08F1FF38 		add	r8, r8, #-1
ARM GAS  C:\Users\Vento\AppData\Local\Temp\ccDU9lzs.s 			page 46


 1601              	.LVL175:
 406:Core/Src/lcd.c ****     {
 1602              		.loc 1 406 24 discriminator 2 view .LVU425
 1603 00fe 1FFA88F8 		uxth	r8, r8
 1604              	.LVL176:
 1605              	.L87:
 406:Core/Src/lcd.c ****     {
 1606              		.loc 1 406 16 is_stmt 1 discriminator 1 view .LVU426
 406:Core/Src/lcd.c ****     {
 1607              		.loc 1 406 5 is_stmt 0 discriminator 1 view .LVU427
 1608 0102 B8F1000F 		cmp	r8, #0
 1609 0106 01D0     		beq	.L92
 408:Core/Src/lcd.c ****         {
 1610              		.loc 1 408 15 view .LVU428
 1611 0108 4D46     		mov	r5, r9
 1612 010a F4E7     		b	.L89
 1613              	.L92:
 440:Core/Src/lcd.c **** }
 1614              		.loc 1 440 5 is_stmt 1 view .LVU429
 1615              	.LBB88:
 1616              	.LBI88:
  33:Core/Src/lcd.c **** {
 1617              		.loc 1 33 13 view .LVU430
 1618              	.LBB89:
  35:Core/Src/lcd.c **** }
 1619              		.loc 1 35 5 view .LVU431
 1620 010c 0122     		movs	r2, #1
 1621 010e 4FF40071 		mov	r1, #512
 1622 0112 0348     		ldr	r0, .L93
 1623 0114 FFF7FEFF 		bl	HAL_GPIO_WritePin
 1624              	.LVL177:
 1625              	.L81:
  35:Core/Src/lcd.c **** }
 1626              		.loc 1 35 5 is_stmt 0 view .LVU432
 1627              	.LBE89:
 1628              	.LBE88:
 441:Core/Src/lcd.c **** 
 1629              		.loc 1 441 1 view .LVU433
 1630 0118 02B0     		add	sp, sp, #8
 1631              	.LCFI32:
 1632              		.cfi_def_cfa_offset 32
 1633              		@ sp needed
 1634 011a BDE8F087 		pop	{r4, r5, r6, r7, r8, r9, r10, pc}
 1635              	.L94:
 1636 011e 00BF     		.align	2
 1637              	.L93:
 1638 0120 000C0140 		.word	1073810432
 1639              		.cfi_endproc
 1640              	.LFE80:
 1642              		.section	.text.ILI9341_FillScreen,"ax",%progbits
 1643              		.align	1
 1644              		.global	ILI9341_FillScreen
 1645              		.syntax unified
 1646              		.thumb
 1647              		.thumb_func
 1648              		.fpu softvfp
 1650              	ILI9341_FillScreen:
ARM GAS  C:\Users\Vento\AppData\Local\Temp\ccDU9lzs.s 			page 47


 1651              	.LVL178:
 1652              	.LFB81:
 444:Core/Src/lcd.c ****     ILI9341_FillRectangle(0, 0, ILI9341_WIDTH, ILI9341_HEIGHT, color);
 1653              		.loc 1 444 1 is_stmt 1 view -0
 1654              		.cfi_startproc
 1655              		@ args = 0, pretend = 0, frame = 0
 1656              		@ frame_needed = 0, uses_anonymous_args = 0
 444:Core/Src/lcd.c ****     ILI9341_FillRectangle(0, 0, ILI9341_WIDTH, ILI9341_HEIGHT, color);
 1657              		.loc 1 444 1 is_stmt 0 view .LVU435
 1658 0000 00B5     		push	{lr}
 1659              	.LCFI33:
 1660              		.cfi_def_cfa_offset 4
 1661              		.cfi_offset 14, -4
 1662 0002 83B0     		sub	sp, sp, #12
 1663              	.LCFI34:
 1664              		.cfi_def_cfa_offset 16
 445:Core/Src/lcd.c **** }
 1665              		.loc 1 445 5 is_stmt 1 view .LVU436
 1666 0004 0090     		str	r0, [sp]
 1667 0006 F023     		movs	r3, #240
 1668 0008 4FF4A072 		mov	r2, #320
 1669 000c 0021     		movs	r1, #0
 1670 000e 0846     		mov	r0, r1
 1671              	.LVL179:
 445:Core/Src/lcd.c **** }
 1672              		.loc 1 445 5 is_stmt 0 view .LVU437
 1673 0010 FFF7FEFF 		bl	ILI9341_FillRectangle
 1674              	.LVL180:
 446:Core/Src/lcd.c **** 
 1675              		.loc 1 446 1 view .LVU438
 1676 0014 03B0     		add	sp, sp, #12
 1677              	.LCFI35:
 1678              		.cfi_def_cfa_offset 4
 1679              		@ sp needed
 1680 0016 5DF804FB 		ldr	pc, [sp], #4
 1681              		.cfi_endproc
 1682              	.LFE81:
 1684              		.section	.text.ILI9341_Init,"ax",%progbits
 1685              		.align	1
 1686              		.global	ILI9341_Init
 1687              		.syntax unified
 1688              		.thumb
 1689              		.thumb_func
 1690              		.fpu softvfp
 1692              	ILI9341_Init:
 1693              	.LFB74:
 120:Core/Src/lcd.c ****     ILI9341_LCD_LED(false);
 1694              		.loc 1 120 1 is_stmt 1 view -0
 1695              		.cfi_startproc
 1696              		@ args = 0, pretend = 0, frame = 0
 1697              		@ frame_needed = 0, uses_anonymous_args = 0
 1698 0000 38B5     		push	{r3, r4, r5, lr}
 1699              	.LCFI36:
 1700              		.cfi_def_cfa_offset 16
 1701              		.cfi_offset 3, -16
 1702              		.cfi_offset 4, -12
 1703              		.cfi_offset 5, -8
ARM GAS  C:\Users\Vento\AppData\Local\Temp\ccDU9lzs.s 			page 48


 1704              		.cfi_offset 14, -4
 121:Core/Src/lcd.c ****     HAL_GPIO_WritePin(ILI9341_WR_GPIO_Port, ILI9341_WR_Pin, GPIO_PIN_SET);
 1705              		.loc 1 121 5 view .LVU440
 1706              	.LVL181:
 1707              	.LBB440:
 1708              	.LBI440:
  20:Core/Src/lcd.c **** {
 1709              		.loc 1 20 13 view .LVU441
 1710              	.LBB441:
  22:Core/Src/lcd.c ****         HAL_GPIO_WritePin(ILI9341_LED_GPIO_Port, ILI9341_LED_Pin, SET);
 1711              		.loc 1 22 5 view .LVU442
  25:Core/Src/lcd.c **** }
 1712              		.loc 1 25 9 view .LVU443
 1713 0002 0022     		movs	r2, #0
 1714 0004 0421     		movs	r1, #4
 1715 0006 EB48     		ldr	r0, .L99
 1716 0008 FFF7FEFF 		bl	HAL_GPIO_WritePin
 1717              	.LVL182:
  25:Core/Src/lcd.c **** }
 1718              		.loc 1 25 9 is_stmt 0 view .LVU444
 1719              	.LBE441:
 1720              	.LBE440:
 122:Core/Src/lcd.c ****     HAL_GPIO_WritePin(ILI9341_RD_GPIO_Port, ILI9341_RD_Pin, GPIO_PIN_SET);
 1721              		.loc 1 122 5 is_stmt 1 view .LVU445
 1722 000c EA4C     		ldr	r4, .L99+4
 1723 000e 0122     		movs	r2, #1
 1724 0010 4FF48061 		mov	r1, #1024
 1725 0014 2046     		mov	r0, r4
 1726 0016 FFF7FEFF 		bl	HAL_GPIO_WritePin
 1727              	.LVL183:
 123:Core/Src/lcd.c **** 
 1728              		.loc 1 123 5 view .LVU446
 1729 001a 0122     		movs	r2, #1
 1730 001c 4FF40061 		mov	r1, #2048
 1731 0020 2046     		mov	r0, r4
 1732 0022 FFF7FEFF 		bl	HAL_GPIO_WritePin
 1733              	.LVL184:
 125:Core/Src/lcd.c **** 
 1734              		.loc 1 125 5 view .LVU447
 1735              	.LBB442:
 1736              	.LBI442:
  28:Core/Src/lcd.c **** {
 1737              		.loc 1 28 20 view .LVU448
 1738              	.LBB443:
  30:Core/Src/lcd.c **** }
 1739              		.loc 1 30 5 view .LVU449
 1740 0026 0022     		movs	r2, #0
 1741 0028 4FF40071 		mov	r1, #512
 1742 002c 2046     		mov	r0, r4
 1743 002e FFF7FEFF 		bl	HAL_GPIO_WritePin
 1744              	.LVL185:
 1745              	.LBE443:
 1746              	.LBE442:
 127:Core/Src/lcd.c **** 
 1747              		.loc 1 127 5 view .LVU450
 1748              	.LBB444:
 1749              	.LBI444:
ARM GAS  C:\Users\Vento\AppData\Local\Temp\ccDU9lzs.s 			page 49


  38:Core/Src/lcd.c **** {
 1750              		.loc 1 38 20 view .LVU451
 1751              	.LBB445:
  40:Core/Src/lcd.c ****     HAL_Delay(200);
 1752              		.loc 1 40 5 view .LVU452
 1753 0032 E24D     		ldr	r5, .L99+8
 1754 0034 0022     		movs	r2, #0
 1755 0036 4FF48051 		mov	r1, #4096
 1756 003a 2846     		mov	r0, r5
 1757 003c FFF7FEFF 		bl	HAL_GPIO_WritePin
 1758              	.LVL186:
  41:Core/Src/lcd.c ****     HAL_GPIO_WritePin(ILI9341_RES_GPIO_Port, ILI9341_RES_Pin, GPIO_PIN_SET);
 1759              		.loc 1 41 5 view .LVU453
 1760 0040 C820     		movs	r0, #200
 1761 0042 FFF7FEFF 		bl	HAL_Delay
 1762              	.LVL187:
  42:Core/Src/lcd.c ****     HAL_Delay(200);
 1763              		.loc 1 42 5 view .LVU454
 1764 0046 0122     		movs	r2, #1
 1765 0048 4FF48051 		mov	r1, #4096
 1766 004c 2846     		mov	r0, r5
 1767 004e FFF7FEFF 		bl	HAL_GPIO_WritePin
 1768              	.LVL188:
  43:Core/Src/lcd.c **** }
 1769              		.loc 1 43 5 view .LVU455
 1770 0052 C820     		movs	r0, #200
 1771 0054 FFF7FEFF 		bl	HAL_Delay
 1772              	.LVL189:
 1773              	.LBE445:
 1774              	.LBE444:
 130:Core/Src/lcd.c ****     HAL_Delay(200);
 1775              		.loc 1 130 5 view .LVU456
 1776              	.LBB446:
 1777              	.LBI446:
  71:Core/Src/lcd.c **** {
 1778              		.loc 1 71 20 view .LVU457
 1779              	.LBB447:
  74:Core/Src/lcd.c ****     ILI9341_SetData(cmd);
 1780              		.loc 1 74 5 view .LVU458
 1781 0058 0022     		movs	r2, #0
 1782 005a 4FF48071 		mov	r1, #256
 1783 005e 2046     		mov	r0, r4
 1784 0060 FFF7FEFF 		bl	HAL_GPIO_WritePin
 1785              	.LVL190:
  75:Core/Src/lcd.c ****     // ILI9341_Unselect();
 1786              		.loc 1 75 5 view .LVU459
 1787              	.LBB448:
 1788              	.LBI448:
  46:Core/Src/lcd.c **** {
 1789              		.loc 1 46 20 view .LVU460
 1790              	.LBB449:
  48:Core/Src/lcd.c ****     uint8_t temp_Bit3rd_Data = data & 0x04;
 1791              		.loc 1 48 5 view .LVU461
  49:Core/Src/lcd.c ****     data &= ~0x06;
 1792              		.loc 1 49 5 view .LVU462
  50:Core/Src/lcd.c ****     data |= (uint8_t)((temp_Bit2nd_Data << 1) | (temp_Bit3rd_Data >> 1));
 1793              		.loc 1 50 5 view .LVU463
ARM GAS  C:\Users\Vento\AppData\Local\Temp\ccDU9lzs.s 			page 50


  51:Core/Src/lcd.c **** 
 1794              		.loc 1 51 5 view .LVU464
  53:Core/Src/lcd.c ****     tempReg &= 0xFFFFFF00;
 1795              		.loc 1 53 5 view .LVU465
  53:Core/Src/lcd.c ****     tempReg &= 0xFFFFFF00;
 1796              		.loc 1 53 14 is_stmt 0 view .LVU466
 1797 0064 E368     		ldr	r3, [r4, #12]
 1798              	.LVL191:
  54:Core/Src/lcd.c ****     tempReg |= (uint32_t)data;
 1799              		.loc 1 54 5 is_stmt 1 view .LVU467
  54:Core/Src/lcd.c ****     tempReg |= (uint32_t)data;
 1800              		.loc 1 54 13 is_stmt 0 view .LVU468
 1801 0066 23F0FF03 		bic	r3, r3, #255
 1802              	.LVL192:
  55:Core/Src/lcd.c ****     DATA_PORT->ODR = tempReg;
 1803              		.loc 1 55 5 is_stmt 1 view .LVU469
  55:Core/Src/lcd.c ****     DATA_PORT->ODR = tempReg;
 1804              		.loc 1 55 13 is_stmt 0 view .LVU470
 1805 006a 43F00103 		orr	r3, r3, #1
 1806              	.LVL193:
  56:Core/Src/lcd.c **** 
 1807              		.loc 1 56 5 is_stmt 1 view .LVU471
  56:Core/Src/lcd.c **** 
 1808              		.loc 1 56 20 is_stmt 0 view .LVU472
 1809 006e E360     		str	r3, [r4, #12]
  67:Core/Src/lcd.c ****     HAL_GPIO_WritePin(ILI9341_WR_GPIO_Port, ILI9341_WR_Pin, GPIO_PIN_SET);
 1810              		.loc 1 67 5 is_stmt 1 view .LVU473
 1811 0070 0022     		movs	r2, #0
 1812 0072 4FF48061 		mov	r1, #1024
 1813 0076 2046     		mov	r0, r4
 1814 0078 FFF7FEFF 		bl	HAL_GPIO_WritePin
 1815              	.LVL194:
  68:Core/Src/lcd.c **** }
 1816              		.loc 1 68 5 view .LVU474
 1817 007c 0122     		movs	r2, #1
 1818 007e 4FF48061 		mov	r1, #1024
 1819 0082 2046     		mov	r0, r4
 1820 0084 FFF7FEFF 		bl	HAL_GPIO_WritePin
 1821              	.LVL195:
  68:Core/Src/lcd.c **** }
 1822              		.loc 1 68 5 is_stmt 0 view .LVU475
 1823              	.LBE449:
 1824              	.LBE448:
 1825              	.LBE447:
 1826              	.LBE446:
 131:Core/Src/lcd.c ****     
 1827              		.loc 1 131 5 is_stmt 1 view .LVU476
 1828 0088 C820     		movs	r0, #200
 1829 008a FFF7FEFF 		bl	HAL_Delay
 1830              	.LVL196:
 136:Core/Src/lcd.c ****     ILI9341_Write_Data(0x39);
 1831              		.loc 1 136 5 view .LVU477
 1832              	.LBB450:
 1833              	.LBI450:
  71:Core/Src/lcd.c **** {
 1834              		.loc 1 71 20 view .LVU478
 1835              	.LBB451:
ARM GAS  C:\Users\Vento\AppData\Local\Temp\ccDU9lzs.s 			page 51


  74:Core/Src/lcd.c ****     ILI9341_SetData(cmd);
 1836              		.loc 1 74 5 view .LVU479
 1837 008e 0022     		movs	r2, #0
 1838 0090 4FF48071 		mov	r1, #256
 1839 0094 2046     		mov	r0, r4
 1840 0096 FFF7FEFF 		bl	HAL_GPIO_WritePin
 1841              	.LVL197:
  75:Core/Src/lcd.c ****     // ILI9341_Unselect();
 1842              		.loc 1 75 5 view .LVU480
 1843              	.LBB452:
 1844              	.LBI452:
  46:Core/Src/lcd.c **** {
 1845              		.loc 1 46 20 view .LVU481
 1846              	.LBB453:
  48:Core/Src/lcd.c ****     uint8_t temp_Bit3rd_Data = data & 0x04;
 1847              		.loc 1 48 5 view .LVU482
  49:Core/Src/lcd.c ****     data &= ~0x06;
 1848              		.loc 1 49 5 view .LVU483
  50:Core/Src/lcd.c ****     data |= (uint8_t)((temp_Bit2nd_Data << 1) | (temp_Bit3rd_Data >> 1));
 1849              		.loc 1 50 5 view .LVU484
  51:Core/Src/lcd.c **** 
 1850              		.loc 1 51 5 view .LVU485
  53:Core/Src/lcd.c ****     tempReg &= 0xFFFFFF00;
 1851              		.loc 1 53 5 view .LVU486
  53:Core/Src/lcd.c ****     tempReg &= 0xFFFFFF00;
 1852              		.loc 1 53 14 is_stmt 0 view .LVU487
 1853 009a E368     		ldr	r3, [r4, #12]
 1854              	.LVL198:
  54:Core/Src/lcd.c ****     tempReg |= (uint32_t)data;
 1855              		.loc 1 54 5 is_stmt 1 view .LVU488
  54:Core/Src/lcd.c ****     tempReg |= (uint32_t)data;
 1856              		.loc 1 54 13 is_stmt 0 view .LVU489
 1857 009c 23F0FF03 		bic	r3, r3, #255
 1858              	.LVL199:
  55:Core/Src/lcd.c ****     DATA_PORT->ODR = tempReg;
 1859              		.loc 1 55 5 is_stmt 1 view .LVU490
  55:Core/Src/lcd.c ****     DATA_PORT->ODR = tempReg;
 1860              		.loc 1 55 13 is_stmt 0 view .LVU491
 1861 00a0 43F0CD03 		orr	r3, r3, #205
 1862              	.LVL200:
  56:Core/Src/lcd.c **** 
 1863              		.loc 1 56 5 is_stmt 1 view .LVU492
  56:Core/Src/lcd.c **** 
 1864              		.loc 1 56 20 is_stmt 0 view .LVU493
 1865 00a4 E360     		str	r3, [r4, #12]
  67:Core/Src/lcd.c ****     HAL_GPIO_WritePin(ILI9341_WR_GPIO_Port, ILI9341_WR_Pin, GPIO_PIN_SET);
 1866              		.loc 1 67 5 is_stmt 1 view .LVU494
 1867 00a6 0022     		movs	r2, #0
 1868 00a8 4FF48061 		mov	r1, #1024
 1869 00ac 2046     		mov	r0, r4
 1870 00ae FFF7FEFF 		bl	HAL_GPIO_WritePin
 1871              	.LVL201:
  68:Core/Src/lcd.c **** }
 1872              		.loc 1 68 5 view .LVU495
 1873 00b2 0122     		movs	r2, #1
 1874 00b4 4FF48061 		mov	r1, #1024
 1875 00b8 2046     		mov	r0, r4
ARM GAS  C:\Users\Vento\AppData\Local\Temp\ccDU9lzs.s 			page 52


 1876 00ba FFF7FEFF 		bl	HAL_GPIO_WritePin
 1877              	.LVL202:
  68:Core/Src/lcd.c **** }
 1878              		.loc 1 68 5 is_stmt 0 view .LVU496
 1879              	.LBE453:
 1880              	.LBE452:
 1881              	.LBE451:
 1882              	.LBE450:
 137:Core/Src/lcd.c ****     ILI9341_Write_Data(0x2C);
 1883              		.loc 1 137 5 is_stmt 1 view .LVU497
 1884              	.LBB454:
 1885              	.LBI454:
  79:Core/Src/lcd.c **** {
 1886              		.loc 1 79 20 view .LVU498
 1887              	.LBB455:
  82:Core/Src/lcd.c ****     ILI9341_SetData(data);
 1888              		.loc 1 82 5 view .LVU499
 1889 00be 0122     		movs	r2, #1
 1890 00c0 4FF48071 		mov	r1, #256
 1891 00c4 2046     		mov	r0, r4
 1892 00c6 FFF7FEFF 		bl	HAL_GPIO_WritePin
 1893              	.LVL203:
  83:Core/Src/lcd.c ****     // ILI9341_Unselect();
 1894              		.loc 1 83 5 view .LVU500
 1895              	.LBB456:
 1896              	.LBI456:
  46:Core/Src/lcd.c **** {
 1897              		.loc 1 46 20 view .LVU501
 1898              	.LBB457:
  48:Core/Src/lcd.c ****     uint8_t temp_Bit3rd_Data = data & 0x04;
 1899              		.loc 1 48 5 view .LVU502
  49:Core/Src/lcd.c ****     data &= ~0x06;
 1900              		.loc 1 49 5 view .LVU503
  50:Core/Src/lcd.c ****     data |= (uint8_t)((temp_Bit2nd_Data << 1) | (temp_Bit3rd_Data >> 1));
 1901              		.loc 1 50 5 view .LVU504
  51:Core/Src/lcd.c **** 
 1902              		.loc 1 51 5 view .LVU505
  53:Core/Src/lcd.c ****     tempReg &= 0xFFFFFF00;
 1903              		.loc 1 53 5 view .LVU506
  53:Core/Src/lcd.c ****     tempReg &= 0xFFFFFF00;
 1904              		.loc 1 53 14 is_stmt 0 view .LVU507
 1905 00ca E368     		ldr	r3, [r4, #12]
 1906              	.LVL204:
  54:Core/Src/lcd.c ****     tempReg |= (uint32_t)data;
 1907              		.loc 1 54 5 is_stmt 1 view .LVU508
  54:Core/Src/lcd.c ****     tempReg |= (uint32_t)data;
 1908              		.loc 1 54 13 is_stmt 0 view .LVU509
 1909 00cc 23F0FF03 		bic	r3, r3, #255
 1910              	.LVL205:
  55:Core/Src/lcd.c ****     DATA_PORT->ODR = tempReg;
 1911              		.loc 1 55 5 is_stmt 1 view .LVU510
  55:Core/Src/lcd.c ****     DATA_PORT->ODR = tempReg;
 1912              		.loc 1 55 13 is_stmt 0 view .LVU511
 1913 00d0 43F03903 		orr	r3, r3, #57
 1914              	.LVL206:
  56:Core/Src/lcd.c **** 
 1915              		.loc 1 56 5 is_stmt 1 view .LVU512
ARM GAS  C:\Users\Vento\AppData\Local\Temp\ccDU9lzs.s 			page 53


  56:Core/Src/lcd.c **** 
 1916              		.loc 1 56 20 is_stmt 0 view .LVU513
 1917 00d4 E360     		str	r3, [r4, #12]
  67:Core/Src/lcd.c ****     HAL_GPIO_WritePin(ILI9341_WR_GPIO_Port, ILI9341_WR_Pin, GPIO_PIN_SET);
 1918              		.loc 1 67 5 is_stmt 1 view .LVU514
 1919 00d6 0022     		movs	r2, #0
 1920 00d8 4FF48061 		mov	r1, #1024
 1921 00dc 2046     		mov	r0, r4
 1922 00de FFF7FEFF 		bl	HAL_GPIO_WritePin
 1923              	.LVL207:
  68:Core/Src/lcd.c **** }
 1924              		.loc 1 68 5 view .LVU515
 1925 00e2 0122     		movs	r2, #1
 1926 00e4 4FF48061 		mov	r1, #1024
 1927 00e8 2046     		mov	r0, r4
 1928 00ea FFF7FEFF 		bl	HAL_GPIO_WritePin
 1929              	.LVL208:
  68:Core/Src/lcd.c **** }
 1930              		.loc 1 68 5 is_stmt 0 view .LVU516
 1931              	.LBE457:
 1932              	.LBE456:
 1933              	.LBE455:
 1934              	.LBE454:
 138:Core/Src/lcd.c ****     ILI9341_Write_Data(0x00);
 1935              		.loc 1 138 5 is_stmt 1 view .LVU517
 1936              	.LBB458:
 1937              	.LBI458:
  79:Core/Src/lcd.c **** {
 1938              		.loc 1 79 20 view .LVU518
 1939              	.LBB459:
  82:Core/Src/lcd.c ****     ILI9341_SetData(data);
 1940              		.loc 1 82 5 view .LVU519
 1941 00ee 0122     		movs	r2, #1
 1942 00f0 4FF48071 		mov	r1, #256
 1943 00f4 2046     		mov	r0, r4
 1944 00f6 FFF7FEFF 		bl	HAL_GPIO_WritePin
 1945              	.LVL209:
  83:Core/Src/lcd.c ****     // ILI9341_Unselect();
 1946              		.loc 1 83 5 view .LVU520
 1947              	.LBB460:
 1948              	.LBI460:
  46:Core/Src/lcd.c **** {
 1949              		.loc 1 46 20 view .LVU521
 1950              	.LBB461:
  48:Core/Src/lcd.c ****     uint8_t temp_Bit3rd_Data = data & 0x04;
 1951              		.loc 1 48 5 view .LVU522
  49:Core/Src/lcd.c ****     data &= ~0x06;
 1952              		.loc 1 49 5 view .LVU523
  50:Core/Src/lcd.c ****     data |= (uint8_t)((temp_Bit2nd_Data << 1) | (temp_Bit3rd_Data >> 1));
 1953              		.loc 1 50 5 view .LVU524
  51:Core/Src/lcd.c **** 
 1954              		.loc 1 51 5 view .LVU525
  53:Core/Src/lcd.c ****     tempReg &= 0xFFFFFF00;
 1955              		.loc 1 53 5 view .LVU526
  53:Core/Src/lcd.c ****     tempReg &= 0xFFFFFF00;
 1956              		.loc 1 53 14 is_stmt 0 view .LVU527
 1957 00fa E368     		ldr	r3, [r4, #12]
ARM GAS  C:\Users\Vento\AppData\Local\Temp\ccDU9lzs.s 			page 54


 1958              	.LVL210:
  54:Core/Src/lcd.c ****     tempReg |= (uint32_t)data;
 1959              		.loc 1 54 5 is_stmt 1 view .LVU528
  54:Core/Src/lcd.c ****     tempReg |= (uint32_t)data;
 1960              		.loc 1 54 13 is_stmt 0 view .LVU529
 1961 00fc 23F0FF03 		bic	r3, r3, #255
 1962              	.LVL211:
  55:Core/Src/lcd.c ****     DATA_PORT->ODR = tempReg;
 1963              		.loc 1 55 5 is_stmt 1 view .LVU530
  55:Core/Src/lcd.c ****     DATA_PORT->ODR = tempReg;
 1964              		.loc 1 55 13 is_stmt 0 view .LVU531
 1965 0100 43F02A03 		orr	r3, r3, #42
 1966              	.LVL212:
  56:Core/Src/lcd.c **** 
 1967              		.loc 1 56 5 is_stmt 1 view .LVU532
  56:Core/Src/lcd.c **** 
 1968              		.loc 1 56 20 is_stmt 0 view .LVU533
 1969 0104 E360     		str	r3, [r4, #12]
  67:Core/Src/lcd.c ****     HAL_GPIO_WritePin(ILI9341_WR_GPIO_Port, ILI9341_WR_Pin, GPIO_PIN_SET);
 1970              		.loc 1 67 5 is_stmt 1 view .LVU534
 1971 0106 0022     		movs	r2, #0
 1972 0108 4FF48061 		mov	r1, #1024
 1973 010c 2046     		mov	r0, r4
 1974 010e FFF7FEFF 		bl	HAL_GPIO_WritePin
 1975              	.LVL213:
  68:Core/Src/lcd.c **** }
 1976              		.loc 1 68 5 view .LVU535
 1977 0112 0122     		movs	r2, #1
 1978 0114 4FF48061 		mov	r1, #1024
 1979 0118 2046     		mov	r0, r4
 1980 011a FFF7FEFF 		bl	HAL_GPIO_WritePin
 1981              	.LVL214:
  68:Core/Src/lcd.c **** }
 1982              		.loc 1 68 5 is_stmt 0 view .LVU536
 1983              	.LBE461:
 1984              	.LBE460:
 1985              	.LBE459:
 1986              	.LBE458:
 139:Core/Src/lcd.c ****     ILI9341_Write_Data(0x34);
 1987              		.loc 1 139 5 is_stmt 1 view .LVU537
 1988              	.LBB462:
 1989              	.LBI462:
  79:Core/Src/lcd.c **** {
 1990              		.loc 1 79 20 view .LVU538
 1991              	.LBB463:
  82:Core/Src/lcd.c ****     ILI9341_SetData(data);
 1992              		.loc 1 82 5 view .LVU539
 1993 011e 0122     		movs	r2, #1
 1994 0120 4FF48071 		mov	r1, #256
 1995 0124 2046     		mov	r0, r4
 1996 0126 FFF7FEFF 		bl	HAL_GPIO_WritePin
 1997              	.LVL215:
  83:Core/Src/lcd.c ****     // ILI9341_Unselect();
 1998              		.loc 1 83 5 view .LVU540
 1999              	.LBB464:
 2000              	.LBI464:
  46:Core/Src/lcd.c **** {
ARM GAS  C:\Users\Vento\AppData\Local\Temp\ccDU9lzs.s 			page 55


 2001              		.loc 1 46 20 view .LVU541
 2002              	.LBB465:
  48:Core/Src/lcd.c ****     uint8_t temp_Bit3rd_Data = data & 0x04;
 2003              		.loc 1 48 5 view .LVU542
  49:Core/Src/lcd.c ****     data &= ~0x06;
 2004              		.loc 1 49 5 view .LVU543
  50:Core/Src/lcd.c ****     data |= (uint8_t)((temp_Bit2nd_Data << 1) | (temp_Bit3rd_Data >> 1));
 2005              		.loc 1 50 5 view .LVU544
  51:Core/Src/lcd.c **** 
 2006              		.loc 1 51 5 view .LVU545
  53:Core/Src/lcd.c ****     tempReg &= 0xFFFFFF00;
 2007              		.loc 1 53 5 view .LVU546
  53:Core/Src/lcd.c ****     tempReg &= 0xFFFFFF00;
 2008              		.loc 1 53 14 is_stmt 0 view .LVU547
 2009 012a E368     		ldr	r3, [r4, #12]
 2010              	.LVL216:
  54:Core/Src/lcd.c ****     tempReg |= (uint32_t)data;
 2011              		.loc 1 54 5 is_stmt 1 view .LVU548
  54:Core/Src/lcd.c ****     tempReg |= (uint32_t)data;
 2012              		.loc 1 54 13 is_stmt 0 view .LVU549
 2013 012c 23F0FF03 		bic	r3, r3, #255
 2014              	.LVL217:
  55:Core/Src/lcd.c ****     DATA_PORT->ODR = tempReg;
 2015              		.loc 1 55 5 is_stmt 1 view .LVU550
  56:Core/Src/lcd.c **** 
 2016              		.loc 1 56 5 view .LVU551
  56:Core/Src/lcd.c **** 
 2017              		.loc 1 56 20 is_stmt 0 view .LVU552
 2018 0130 E360     		str	r3, [r4, #12]
  67:Core/Src/lcd.c ****     HAL_GPIO_WritePin(ILI9341_WR_GPIO_Port, ILI9341_WR_Pin, GPIO_PIN_SET);
 2019              		.loc 1 67 5 is_stmt 1 view .LVU553
 2020 0132 0022     		movs	r2, #0
 2021 0134 4FF48061 		mov	r1, #1024
 2022 0138 2046     		mov	r0, r4
 2023 013a FFF7FEFF 		bl	HAL_GPIO_WritePin
 2024              	.LVL218:
  68:Core/Src/lcd.c **** }
 2025              		.loc 1 68 5 view .LVU554
 2026 013e 0122     		movs	r2, #1
 2027 0140 4FF48061 		mov	r1, #1024
 2028 0144 2046     		mov	r0, r4
 2029 0146 FFF7FEFF 		bl	HAL_GPIO_WritePin
 2030              	.LVL219:
  68:Core/Src/lcd.c **** }
 2031              		.loc 1 68 5 is_stmt 0 view .LVU555
 2032              	.LBE465:
 2033              	.LBE464:
 2034              	.LBE463:
 2035              	.LBE462:
 140:Core/Src/lcd.c ****     ILI9341_Write_Data(0x02);
 2036              		.loc 1 140 5 is_stmt 1 view .LVU556
 2037              	.LBB466:
 2038              	.LBI466:
  79:Core/Src/lcd.c **** {
 2039              		.loc 1 79 20 view .LVU557
 2040              	.LBB467:
  82:Core/Src/lcd.c ****     ILI9341_SetData(data);
ARM GAS  C:\Users\Vento\AppData\Local\Temp\ccDU9lzs.s 			page 56


 2041              		.loc 1 82 5 view .LVU558
 2042 014a 0122     		movs	r2, #1
 2043 014c 4FF48071 		mov	r1, #256
 2044 0150 2046     		mov	r0, r4
 2045 0152 FFF7FEFF 		bl	HAL_GPIO_WritePin
 2046              	.LVL220:
  83:Core/Src/lcd.c ****     // ILI9341_Unselect();
 2047              		.loc 1 83 5 view .LVU559
 2048              	.LBB468:
 2049              	.LBI468:
  46:Core/Src/lcd.c **** {
 2050              		.loc 1 46 20 view .LVU560
 2051              	.LBB469:
  48:Core/Src/lcd.c ****     uint8_t temp_Bit3rd_Data = data & 0x04;
 2052              		.loc 1 48 5 view .LVU561
  49:Core/Src/lcd.c ****     data &= ~0x06;
 2053              		.loc 1 49 5 view .LVU562
  50:Core/Src/lcd.c ****     data |= (uint8_t)((temp_Bit2nd_Data << 1) | (temp_Bit3rd_Data >> 1));
 2054              		.loc 1 50 5 view .LVU563
  51:Core/Src/lcd.c **** 
 2055              		.loc 1 51 5 view .LVU564
  53:Core/Src/lcd.c ****     tempReg &= 0xFFFFFF00;
 2056              		.loc 1 53 5 view .LVU565
  53:Core/Src/lcd.c ****     tempReg &= 0xFFFFFF00;
 2057              		.loc 1 53 14 is_stmt 0 view .LVU566
 2058 0156 E368     		ldr	r3, [r4, #12]
 2059              	.LVL221:
  54:Core/Src/lcd.c ****     tempReg |= (uint32_t)data;
 2060              		.loc 1 54 5 is_stmt 1 view .LVU567
  54:Core/Src/lcd.c ****     tempReg |= (uint32_t)data;
 2061              		.loc 1 54 13 is_stmt 0 view .LVU568
 2062 0158 23F0FF03 		bic	r3, r3, #255
 2063              	.LVL222:
  55:Core/Src/lcd.c ****     DATA_PORT->ODR = tempReg;
 2064              		.loc 1 55 5 is_stmt 1 view .LVU569
  55:Core/Src/lcd.c ****     DATA_PORT->ODR = tempReg;
 2065              		.loc 1 55 13 is_stmt 0 view .LVU570
 2066 015c 43F03203 		orr	r3, r3, #50
 2067              	.LVL223:
  56:Core/Src/lcd.c **** 
 2068              		.loc 1 56 5 is_stmt 1 view .LVU571
  56:Core/Src/lcd.c **** 
 2069              		.loc 1 56 20 is_stmt 0 view .LVU572
 2070 0160 E360     		str	r3, [r4, #12]
  67:Core/Src/lcd.c ****     HAL_GPIO_WritePin(ILI9341_WR_GPIO_Port, ILI9341_WR_Pin, GPIO_PIN_SET);
 2071              		.loc 1 67 5 is_stmt 1 view .LVU573
 2072 0162 0022     		movs	r2, #0
 2073 0164 4FF48061 		mov	r1, #1024
 2074 0168 2046     		mov	r0, r4
 2075 016a FFF7FEFF 		bl	HAL_GPIO_WritePin
 2076              	.LVL224:
  68:Core/Src/lcd.c **** }
 2077              		.loc 1 68 5 view .LVU574
 2078 016e 0122     		movs	r2, #1
 2079 0170 4FF48061 		mov	r1, #1024
 2080 0174 2046     		mov	r0, r4
 2081 0176 FFF7FEFF 		bl	HAL_GPIO_WritePin
ARM GAS  C:\Users\Vento\AppData\Local\Temp\ccDU9lzs.s 			page 57


 2082              	.LVL225:
  68:Core/Src/lcd.c **** }
 2083              		.loc 1 68 5 is_stmt 0 view .LVU575
 2084              	.LBE469:
 2085              	.LBE468:
 2086              	.LBE467:
 2087              	.LBE466:
 141:Core/Src/lcd.c **** 
 2088              		.loc 1 141 5 is_stmt 1 view .LVU576
 2089              	.LBB470:
 2090              	.LBI470:
  79:Core/Src/lcd.c **** {
 2091              		.loc 1 79 20 view .LVU577
 2092              	.LBB471:
  82:Core/Src/lcd.c ****     ILI9341_SetData(data);
 2093              		.loc 1 82 5 view .LVU578
 2094 017a 0122     		movs	r2, #1
 2095 017c 4FF48071 		mov	r1, #256
 2096 0180 2046     		mov	r0, r4
 2097 0182 FFF7FEFF 		bl	HAL_GPIO_WritePin
 2098              	.LVL226:
  83:Core/Src/lcd.c ****     // ILI9341_Unselect();
 2099              		.loc 1 83 5 view .LVU579
 2100              	.LBB472:
 2101              	.LBI472:
  46:Core/Src/lcd.c **** {
 2102              		.loc 1 46 20 view .LVU580
 2103              	.LBB473:
  48:Core/Src/lcd.c ****     uint8_t temp_Bit3rd_Data = data & 0x04;
 2104              		.loc 1 48 5 view .LVU581
  49:Core/Src/lcd.c ****     data &= ~0x06;
 2105              		.loc 1 49 5 view .LVU582
  50:Core/Src/lcd.c ****     data |= (uint8_t)((temp_Bit2nd_Data << 1) | (temp_Bit3rd_Data >> 1));
 2106              		.loc 1 50 5 view .LVU583
  51:Core/Src/lcd.c **** 
 2107              		.loc 1 51 5 view .LVU584
  53:Core/Src/lcd.c ****     tempReg &= 0xFFFFFF00;
 2108              		.loc 1 53 5 view .LVU585
  53:Core/Src/lcd.c ****     tempReg &= 0xFFFFFF00;
 2109              		.loc 1 53 14 is_stmt 0 view .LVU586
 2110 0186 E368     		ldr	r3, [r4, #12]
 2111              	.LVL227:
  54:Core/Src/lcd.c ****     tempReg |= (uint32_t)data;
 2112              		.loc 1 54 5 is_stmt 1 view .LVU587
  54:Core/Src/lcd.c ****     tempReg |= (uint32_t)data;
 2113              		.loc 1 54 13 is_stmt 0 view .LVU588
 2114 0188 23F0FF03 		bic	r3, r3, #255
 2115              	.LVL228:
  55:Core/Src/lcd.c ****     DATA_PORT->ODR = tempReg;
 2116              		.loc 1 55 5 is_stmt 1 view .LVU589
  55:Core/Src/lcd.c ****     DATA_PORT->ODR = tempReg;
 2117              		.loc 1 55 13 is_stmt 0 view .LVU590
 2118 018c 43F00403 		orr	r3, r3, #4
 2119              	.LVL229:
  56:Core/Src/lcd.c **** 
 2120              		.loc 1 56 5 is_stmt 1 view .LVU591
  56:Core/Src/lcd.c **** 
ARM GAS  C:\Users\Vento\AppData\Local\Temp\ccDU9lzs.s 			page 58


 2121              		.loc 1 56 20 is_stmt 0 view .LVU592
 2122 0190 E360     		str	r3, [r4, #12]
  67:Core/Src/lcd.c ****     HAL_GPIO_WritePin(ILI9341_WR_GPIO_Port, ILI9341_WR_Pin, GPIO_PIN_SET);
 2123              		.loc 1 67 5 is_stmt 1 view .LVU593
 2124 0192 0022     		movs	r2, #0
 2125 0194 4FF48061 		mov	r1, #1024
 2126 0198 2046     		mov	r0, r4
 2127 019a FFF7FEFF 		bl	HAL_GPIO_WritePin
 2128              	.LVL230:
  68:Core/Src/lcd.c **** }
 2129              		.loc 1 68 5 view .LVU594
 2130 019e 0122     		movs	r2, #1
 2131 01a0 4FF48061 		mov	r1, #1024
 2132 01a4 2046     		mov	r0, r4
 2133 01a6 FFF7FEFF 		bl	HAL_GPIO_WritePin
 2134              	.LVL231:
  68:Core/Src/lcd.c **** }
 2135              		.loc 1 68 5 is_stmt 0 view .LVU595
 2136              	.LBE473:
 2137              	.LBE472:
 2138              	.LBE471:
 2139              	.LBE470:
 144:Core/Src/lcd.c ****     ILI9341_Write_Data(0x00);
 2140              		.loc 1 144 5 is_stmt 1 view .LVU596
 2141              	.LBB474:
 2142              	.LBI474:
  71:Core/Src/lcd.c **** {
 2143              		.loc 1 71 20 view .LVU597
 2144              	.LBB475:
  74:Core/Src/lcd.c ****     ILI9341_SetData(cmd);
 2145              		.loc 1 74 5 view .LVU598
 2146 01aa 0022     		movs	r2, #0
 2147 01ac 4FF48071 		mov	r1, #256
 2148 01b0 2046     		mov	r0, r4
 2149 01b2 FFF7FEFF 		bl	HAL_GPIO_WritePin
 2150              	.LVL232:
  75:Core/Src/lcd.c ****     // ILI9341_Unselect();
 2151              		.loc 1 75 5 view .LVU599
 2152              	.LBB476:
 2153              	.LBI476:
  46:Core/Src/lcd.c **** {
 2154              		.loc 1 46 20 view .LVU600
 2155              	.LBB477:
  48:Core/Src/lcd.c ****     uint8_t temp_Bit3rd_Data = data & 0x04;
 2156              		.loc 1 48 5 view .LVU601
  49:Core/Src/lcd.c ****     data &= ~0x06;
 2157              		.loc 1 49 5 view .LVU602
  50:Core/Src/lcd.c ****     data |= (uint8_t)((temp_Bit2nd_Data << 1) | (temp_Bit3rd_Data >> 1));
 2158              		.loc 1 50 5 view .LVU603
  51:Core/Src/lcd.c **** 
 2159              		.loc 1 51 5 view .LVU604
  53:Core/Src/lcd.c ****     tempReg &= 0xFFFFFF00;
 2160              		.loc 1 53 5 view .LVU605
  53:Core/Src/lcd.c ****     tempReg &= 0xFFFFFF00;
 2161              		.loc 1 53 14 is_stmt 0 view .LVU606
 2162 01b6 E368     		ldr	r3, [r4, #12]
 2163              	.LVL233:
ARM GAS  C:\Users\Vento\AppData\Local\Temp\ccDU9lzs.s 			page 59


  54:Core/Src/lcd.c ****     tempReg |= (uint32_t)data;
 2164              		.loc 1 54 5 is_stmt 1 view .LVU607
  54:Core/Src/lcd.c ****     tempReg |= (uint32_t)data;
 2165              		.loc 1 54 13 is_stmt 0 view .LVU608
 2166 01b8 23F0FF03 		bic	r3, r3, #255
 2167              	.LVL234:
  55:Core/Src/lcd.c ****     DATA_PORT->ODR = tempReg;
 2168              		.loc 1 55 5 is_stmt 1 view .LVU609
  55:Core/Src/lcd.c ****     DATA_PORT->ODR = tempReg;
 2169              		.loc 1 55 13 is_stmt 0 view .LVU610
 2170 01bc 43F0CF03 		orr	r3, r3, #207
 2171              	.LVL235:
  56:Core/Src/lcd.c **** 
 2172              		.loc 1 56 5 is_stmt 1 view .LVU611
  56:Core/Src/lcd.c **** 
 2173              		.loc 1 56 20 is_stmt 0 view .LVU612
 2174 01c0 E360     		str	r3, [r4, #12]
  67:Core/Src/lcd.c ****     HAL_GPIO_WritePin(ILI9341_WR_GPIO_Port, ILI9341_WR_Pin, GPIO_PIN_SET);
 2175              		.loc 1 67 5 is_stmt 1 view .LVU613
 2176 01c2 0022     		movs	r2, #0
 2177 01c4 4FF48061 		mov	r1, #1024
 2178 01c8 2046     		mov	r0, r4
 2179 01ca FFF7FEFF 		bl	HAL_GPIO_WritePin
 2180              	.LVL236:
  68:Core/Src/lcd.c **** }
 2181              		.loc 1 68 5 view .LVU614
 2182 01ce 0122     		movs	r2, #1
 2183 01d0 4FF48061 		mov	r1, #1024
 2184 01d4 2046     		mov	r0, r4
 2185 01d6 FFF7FEFF 		bl	HAL_GPIO_WritePin
 2186              	.LVL237:
  68:Core/Src/lcd.c **** }
 2187              		.loc 1 68 5 is_stmt 0 view .LVU615
 2188              	.LBE477:
 2189              	.LBE476:
 2190              	.LBE475:
 2191              	.LBE474:
 145:Core/Src/lcd.c ****     ILI9341_Write_Data(0xC1);
 2192              		.loc 1 145 5 is_stmt 1 view .LVU616
 2193              	.LBB478:
 2194              	.LBI478:
  79:Core/Src/lcd.c **** {
 2195              		.loc 1 79 20 view .LVU617
 2196              	.LBB479:
  82:Core/Src/lcd.c ****     ILI9341_SetData(data);
 2197              		.loc 1 82 5 view .LVU618
 2198 01da 0122     		movs	r2, #1
 2199 01dc 4FF48071 		mov	r1, #256
 2200 01e0 2046     		mov	r0, r4
 2201 01e2 FFF7FEFF 		bl	HAL_GPIO_WritePin
 2202              	.LVL238:
  83:Core/Src/lcd.c ****     // ILI9341_Unselect();
 2203              		.loc 1 83 5 view .LVU619
 2204              	.LBB480:
 2205              	.LBI480:
  46:Core/Src/lcd.c **** {
 2206              		.loc 1 46 20 view .LVU620
ARM GAS  C:\Users\Vento\AppData\Local\Temp\ccDU9lzs.s 			page 60


 2207              	.LBB481:
  48:Core/Src/lcd.c ****     uint8_t temp_Bit3rd_Data = data & 0x04;
 2208              		.loc 1 48 5 view .LVU621
  49:Core/Src/lcd.c ****     data &= ~0x06;
 2209              		.loc 1 49 5 view .LVU622
  50:Core/Src/lcd.c ****     data |= (uint8_t)((temp_Bit2nd_Data << 1) | (temp_Bit3rd_Data >> 1));
 2210              		.loc 1 50 5 view .LVU623
  51:Core/Src/lcd.c **** 
 2211              		.loc 1 51 5 view .LVU624
  53:Core/Src/lcd.c ****     tempReg &= 0xFFFFFF00;
 2212              		.loc 1 53 5 view .LVU625
  53:Core/Src/lcd.c ****     tempReg &= 0xFFFFFF00;
 2213              		.loc 1 53 14 is_stmt 0 view .LVU626
 2214 01e6 E368     		ldr	r3, [r4, #12]
 2215              	.LVL239:
  54:Core/Src/lcd.c ****     tempReg |= (uint32_t)data;
 2216              		.loc 1 54 5 is_stmt 1 view .LVU627
  54:Core/Src/lcd.c ****     tempReg |= (uint32_t)data;
 2217              		.loc 1 54 13 is_stmt 0 view .LVU628
 2218 01e8 23F0FF03 		bic	r3, r3, #255
 2219              	.LVL240:
  55:Core/Src/lcd.c ****     DATA_PORT->ODR = tempReg;
 2220              		.loc 1 55 5 is_stmt 1 view .LVU629
  56:Core/Src/lcd.c **** 
 2221              		.loc 1 56 5 view .LVU630
  56:Core/Src/lcd.c **** 
 2222              		.loc 1 56 20 is_stmt 0 view .LVU631
 2223 01ec E360     		str	r3, [r4, #12]
  67:Core/Src/lcd.c ****     HAL_GPIO_WritePin(ILI9341_WR_GPIO_Port, ILI9341_WR_Pin, GPIO_PIN_SET);
 2224              		.loc 1 67 5 is_stmt 1 view .LVU632
 2225 01ee 0022     		movs	r2, #0
 2226 01f0 4FF48061 		mov	r1, #1024
 2227 01f4 2046     		mov	r0, r4
 2228 01f6 FFF7FEFF 		bl	HAL_GPIO_WritePin
 2229              	.LVL241:
  68:Core/Src/lcd.c **** }
 2230              		.loc 1 68 5 view .LVU633
 2231 01fa 0122     		movs	r2, #1
 2232 01fc 4FF48061 		mov	r1, #1024
 2233 0200 2046     		mov	r0, r4
 2234 0202 FFF7FEFF 		bl	HAL_GPIO_WritePin
 2235              	.LVL242:
  68:Core/Src/lcd.c **** }
 2236              		.loc 1 68 5 is_stmt 0 view .LVU634
 2237              	.LBE481:
 2238              	.LBE480:
 2239              	.LBE479:
 2240              	.LBE478:
 146:Core/Src/lcd.c ****     ILI9341_Write_Data(0x30);
 2241              		.loc 1 146 5 is_stmt 1 view .LVU635
 2242              	.LBB482:
 2243              	.LBI482:
  79:Core/Src/lcd.c **** {
 2244              		.loc 1 79 20 view .LVU636
 2245              	.LBB483:
  82:Core/Src/lcd.c ****     ILI9341_SetData(data);
 2246              		.loc 1 82 5 view .LVU637
ARM GAS  C:\Users\Vento\AppData\Local\Temp\ccDU9lzs.s 			page 61


 2247 0206 0122     		movs	r2, #1
 2248 0208 4FF48071 		mov	r1, #256
 2249 020c 2046     		mov	r0, r4
 2250 020e FFF7FEFF 		bl	HAL_GPIO_WritePin
 2251              	.LVL243:
  83:Core/Src/lcd.c ****     // ILI9341_Unselect();
 2252              		.loc 1 83 5 view .LVU638
 2253              	.LBB484:
 2254              	.LBI484:
  46:Core/Src/lcd.c **** {
 2255              		.loc 1 46 20 view .LVU639
 2256              	.LBB485:
  48:Core/Src/lcd.c ****     uint8_t temp_Bit3rd_Data = data & 0x04;
 2257              		.loc 1 48 5 view .LVU640
  49:Core/Src/lcd.c ****     data &= ~0x06;
 2258              		.loc 1 49 5 view .LVU641
  50:Core/Src/lcd.c ****     data |= (uint8_t)((temp_Bit2nd_Data << 1) | (temp_Bit3rd_Data >> 1));
 2259              		.loc 1 50 5 view .LVU642
  51:Core/Src/lcd.c **** 
 2260              		.loc 1 51 5 view .LVU643
  53:Core/Src/lcd.c ****     tempReg &= 0xFFFFFF00;
 2261              		.loc 1 53 5 view .LVU644
  53:Core/Src/lcd.c ****     tempReg &= 0xFFFFFF00;
 2262              		.loc 1 53 14 is_stmt 0 view .LVU645
 2263 0212 E368     		ldr	r3, [r4, #12]
 2264              	.LVL244:
  54:Core/Src/lcd.c ****     tempReg |= (uint32_t)data;
 2265              		.loc 1 54 5 is_stmt 1 view .LVU646
  54:Core/Src/lcd.c ****     tempReg |= (uint32_t)data;
 2266              		.loc 1 54 13 is_stmt 0 view .LVU647
 2267 0214 23F0FF03 		bic	r3, r3, #255
 2268              	.LVL245:
  55:Core/Src/lcd.c ****     DATA_PORT->ODR = tempReg;
 2269              		.loc 1 55 5 is_stmt 1 view .LVU648
  55:Core/Src/lcd.c ****     DATA_PORT->ODR = tempReg;
 2270              		.loc 1 55 13 is_stmt 0 view .LVU649
 2271 0218 43F0C103 		orr	r3, r3, #193
 2272              	.LVL246:
  56:Core/Src/lcd.c **** 
 2273              		.loc 1 56 5 is_stmt 1 view .LVU650
  56:Core/Src/lcd.c **** 
 2274              		.loc 1 56 20 is_stmt 0 view .LVU651
 2275 021c E360     		str	r3, [r4, #12]
  67:Core/Src/lcd.c ****     HAL_GPIO_WritePin(ILI9341_WR_GPIO_Port, ILI9341_WR_Pin, GPIO_PIN_SET);
 2276              		.loc 1 67 5 is_stmt 1 view .LVU652
 2277 021e 0022     		movs	r2, #0
 2278 0220 4FF48061 		mov	r1, #1024
 2279 0224 2046     		mov	r0, r4
 2280 0226 FFF7FEFF 		bl	HAL_GPIO_WritePin
 2281              	.LVL247:
  68:Core/Src/lcd.c **** }
 2282              		.loc 1 68 5 view .LVU653
 2283 022a 0122     		movs	r2, #1
 2284 022c 4FF48061 		mov	r1, #1024
 2285 0230 2046     		mov	r0, r4
 2286 0232 FFF7FEFF 		bl	HAL_GPIO_WritePin
 2287              	.LVL248:
ARM GAS  C:\Users\Vento\AppData\Local\Temp\ccDU9lzs.s 			page 62


  68:Core/Src/lcd.c **** }
 2288              		.loc 1 68 5 is_stmt 0 view .LVU654
 2289              	.LBE485:
 2290              	.LBE484:
 2291              	.LBE483:
 2292              	.LBE482:
 147:Core/Src/lcd.c **** 
 2293              		.loc 1 147 5 is_stmt 1 view .LVU655
 2294              	.LBB486:
 2295              	.LBI486:
  79:Core/Src/lcd.c **** {
 2296              		.loc 1 79 20 view .LVU656
 2297              	.LBB487:
  82:Core/Src/lcd.c ****     ILI9341_SetData(data);
 2298              		.loc 1 82 5 view .LVU657
 2299 0236 0122     		movs	r2, #1
 2300 0238 4FF48071 		mov	r1, #256
 2301 023c 2046     		mov	r0, r4
 2302 023e FFF7FEFF 		bl	HAL_GPIO_WritePin
 2303              	.LVL249:
  83:Core/Src/lcd.c ****     // ILI9341_Unselect();
 2304              		.loc 1 83 5 view .LVU658
 2305              	.LBB488:
 2306              	.LBI488:
  46:Core/Src/lcd.c **** {
 2307              		.loc 1 46 20 view .LVU659
 2308              	.LBB489:
  48:Core/Src/lcd.c ****     uint8_t temp_Bit3rd_Data = data & 0x04;
 2309              		.loc 1 48 5 view .LVU660
  49:Core/Src/lcd.c ****     data &= ~0x06;
 2310              		.loc 1 49 5 view .LVU661
  50:Core/Src/lcd.c ****     data |= (uint8_t)((temp_Bit2nd_Data << 1) | (temp_Bit3rd_Data >> 1));
 2311              		.loc 1 50 5 view .LVU662
  51:Core/Src/lcd.c **** 
 2312              		.loc 1 51 5 view .LVU663
  53:Core/Src/lcd.c ****     tempReg &= 0xFFFFFF00;
 2313              		.loc 1 53 5 view .LVU664
  53:Core/Src/lcd.c ****     tempReg &= 0xFFFFFF00;
 2314              		.loc 1 53 14 is_stmt 0 view .LVU665
 2315 0242 E368     		ldr	r3, [r4, #12]
 2316              	.LVL250:
  54:Core/Src/lcd.c ****     tempReg |= (uint32_t)data;
 2317              		.loc 1 54 5 is_stmt 1 view .LVU666
  54:Core/Src/lcd.c ****     tempReg |= (uint32_t)data;
 2318              		.loc 1 54 13 is_stmt 0 view .LVU667
 2319 0244 23F0FF03 		bic	r3, r3, #255
 2320              	.LVL251:
  55:Core/Src/lcd.c ****     DATA_PORT->ODR = tempReg;
 2321              		.loc 1 55 5 is_stmt 1 view .LVU668
  55:Core/Src/lcd.c ****     DATA_PORT->ODR = tempReg;
 2322              		.loc 1 55 13 is_stmt 0 view .LVU669
 2323 0248 43F03003 		orr	r3, r3, #48
 2324              	.LVL252:
  56:Core/Src/lcd.c **** 
 2325              		.loc 1 56 5 is_stmt 1 view .LVU670
  56:Core/Src/lcd.c **** 
 2326              		.loc 1 56 20 is_stmt 0 view .LVU671
ARM GAS  C:\Users\Vento\AppData\Local\Temp\ccDU9lzs.s 			page 63


 2327 024c E360     		str	r3, [r4, #12]
  67:Core/Src/lcd.c ****     HAL_GPIO_WritePin(ILI9341_WR_GPIO_Port, ILI9341_WR_Pin, GPIO_PIN_SET);
 2328              		.loc 1 67 5 is_stmt 1 view .LVU672
 2329 024e 0022     		movs	r2, #0
 2330 0250 4FF48061 		mov	r1, #1024
 2331 0254 2046     		mov	r0, r4
 2332 0256 FFF7FEFF 		bl	HAL_GPIO_WritePin
 2333              	.LVL253:
  68:Core/Src/lcd.c **** }
 2334              		.loc 1 68 5 view .LVU673
 2335 025a 0122     		movs	r2, #1
 2336 025c 4FF48061 		mov	r1, #1024
 2337 0260 2046     		mov	r0, r4
 2338 0262 FFF7FEFF 		bl	HAL_GPIO_WritePin
 2339              	.LVL254:
  68:Core/Src/lcd.c **** }
 2340              		.loc 1 68 5 is_stmt 0 view .LVU674
 2341              	.LBE489:
 2342              	.LBE488:
 2343              	.LBE487:
 2344              	.LBE486:
 150:Core/Src/lcd.c ****     ILI9341_Write_Data(0x85);
 2345              		.loc 1 150 5 is_stmt 1 view .LVU675
 2346              	.LBB490:
 2347              	.LBI490:
  71:Core/Src/lcd.c **** {
 2348              		.loc 1 71 20 view .LVU676
 2349              	.LBB491:
  74:Core/Src/lcd.c ****     ILI9341_SetData(cmd);
 2350              		.loc 1 74 5 view .LVU677
 2351 0266 0022     		movs	r2, #0
 2352 0268 4FF48071 		mov	r1, #256
 2353 026c 2046     		mov	r0, r4
 2354 026e FFF7FEFF 		bl	HAL_GPIO_WritePin
 2355              	.LVL255:
  75:Core/Src/lcd.c ****     // ILI9341_Unselect();
 2356              		.loc 1 75 5 view .LVU678
 2357              	.LBB492:
 2358              	.LBI492:
  46:Core/Src/lcd.c **** {
 2359              		.loc 1 46 20 view .LVU679
 2360              	.LBB493:
  48:Core/Src/lcd.c ****     uint8_t temp_Bit3rd_Data = data & 0x04;
 2361              		.loc 1 48 5 view .LVU680
  49:Core/Src/lcd.c ****     data &= ~0x06;
 2362              		.loc 1 49 5 view .LVU681
  50:Core/Src/lcd.c ****     data |= (uint8_t)((temp_Bit2nd_Data << 1) | (temp_Bit3rd_Data >> 1));
 2363              		.loc 1 50 5 view .LVU682
  51:Core/Src/lcd.c **** 
 2364              		.loc 1 51 5 view .LVU683
  53:Core/Src/lcd.c ****     tempReg &= 0xFFFFFF00;
 2365              		.loc 1 53 5 view .LVU684
  53:Core/Src/lcd.c ****     tempReg &= 0xFFFFFF00;
 2366              		.loc 1 53 14 is_stmt 0 view .LVU685
 2367 0272 E368     		ldr	r3, [r4, #12]
 2368              	.LVL256:
  54:Core/Src/lcd.c ****     tempReg |= (uint32_t)data;
ARM GAS  C:\Users\Vento\AppData\Local\Temp\ccDU9lzs.s 			page 64


 2369              		.loc 1 54 5 is_stmt 1 view .LVU686
  54:Core/Src/lcd.c ****     tempReg |= (uint32_t)data;
 2370              		.loc 1 54 13 is_stmt 0 view .LVU687
 2371 0274 23F0FF03 		bic	r3, r3, #255
 2372              	.LVL257:
  55:Core/Src/lcd.c ****     DATA_PORT->ODR = tempReg;
 2373              		.loc 1 55 5 is_stmt 1 view .LVU688
  55:Core/Src/lcd.c ****     DATA_PORT->ODR = tempReg;
 2374              		.loc 1 55 13 is_stmt 0 view .LVU689
 2375 0278 43F0E803 		orr	r3, r3, #232
 2376              	.LVL258:
  56:Core/Src/lcd.c **** 
 2377              		.loc 1 56 5 is_stmt 1 view .LVU690
  56:Core/Src/lcd.c **** 
 2378              		.loc 1 56 20 is_stmt 0 view .LVU691
 2379 027c E360     		str	r3, [r4, #12]
  67:Core/Src/lcd.c ****     HAL_GPIO_WritePin(ILI9341_WR_GPIO_Port, ILI9341_WR_Pin, GPIO_PIN_SET);
 2380              		.loc 1 67 5 is_stmt 1 view .LVU692
 2381 027e 0022     		movs	r2, #0
 2382 0280 4FF48061 		mov	r1, #1024
 2383 0284 2046     		mov	r0, r4
 2384 0286 FFF7FEFF 		bl	HAL_GPIO_WritePin
 2385              	.LVL259:
  68:Core/Src/lcd.c **** }
 2386              		.loc 1 68 5 view .LVU693
 2387 028a 0122     		movs	r2, #1
 2388 028c 4FF48061 		mov	r1, #1024
 2389 0290 2046     		mov	r0, r4
 2390 0292 FFF7FEFF 		bl	HAL_GPIO_WritePin
 2391              	.LVL260:
  68:Core/Src/lcd.c **** }
 2392              		.loc 1 68 5 is_stmt 0 view .LVU694
 2393              	.LBE493:
 2394              	.LBE492:
 2395              	.LBE491:
 2396              	.LBE490:
 151:Core/Src/lcd.c ****     ILI9341_Write_Data(0x00);
 2397              		.loc 1 151 5 is_stmt 1 view .LVU695
 2398              	.LBB494:
 2399              	.LBI494:
  79:Core/Src/lcd.c **** {
 2400              		.loc 1 79 20 view .LVU696
 2401              	.LBB495:
  82:Core/Src/lcd.c ****     ILI9341_SetData(data);
 2402              		.loc 1 82 5 view .LVU697
 2403 0296 0122     		movs	r2, #1
 2404 0298 4FF48071 		mov	r1, #256
 2405 029c 2046     		mov	r0, r4
 2406 029e FFF7FEFF 		bl	HAL_GPIO_WritePin
 2407              	.LVL261:
  83:Core/Src/lcd.c ****     // ILI9341_Unselect();
 2408              		.loc 1 83 5 view .LVU698
 2409              	.LBB496:
 2410              	.LBI496:
  46:Core/Src/lcd.c **** {
 2411              		.loc 1 46 20 view .LVU699
 2412              	.LBB497:
ARM GAS  C:\Users\Vento\AppData\Local\Temp\ccDU9lzs.s 			page 65


  48:Core/Src/lcd.c ****     uint8_t temp_Bit3rd_Data = data & 0x04;
 2413              		.loc 1 48 5 view .LVU700
  49:Core/Src/lcd.c ****     data &= ~0x06;
 2414              		.loc 1 49 5 view .LVU701
  50:Core/Src/lcd.c ****     data |= (uint8_t)((temp_Bit2nd_Data << 1) | (temp_Bit3rd_Data >> 1));
 2415              		.loc 1 50 5 view .LVU702
  51:Core/Src/lcd.c **** 
 2416              		.loc 1 51 5 view .LVU703
  53:Core/Src/lcd.c ****     tempReg &= 0xFFFFFF00;
 2417              		.loc 1 53 5 view .LVU704
  53:Core/Src/lcd.c ****     tempReg &= 0xFFFFFF00;
 2418              		.loc 1 53 14 is_stmt 0 view .LVU705
 2419 02a2 E368     		ldr	r3, [r4, #12]
 2420              	.LVL262:
  54:Core/Src/lcd.c ****     tempReg |= (uint32_t)data;
 2421              		.loc 1 54 5 is_stmt 1 view .LVU706
  54:Core/Src/lcd.c ****     tempReg |= (uint32_t)data;
 2422              		.loc 1 54 13 is_stmt 0 view .LVU707
 2423 02a4 23F0FF03 		bic	r3, r3, #255
 2424              	.LVL263:
  55:Core/Src/lcd.c ****     DATA_PORT->ODR = tempReg;
 2425              		.loc 1 55 5 is_stmt 1 view .LVU708
  55:Core/Src/lcd.c ****     DATA_PORT->ODR = tempReg;
 2426              		.loc 1 55 13 is_stmt 0 view .LVU709
 2427 02a8 43F08303 		orr	r3, r3, #131
 2428              	.LVL264:
  56:Core/Src/lcd.c **** 
 2429              		.loc 1 56 5 is_stmt 1 view .LVU710
  56:Core/Src/lcd.c **** 
 2430              		.loc 1 56 20 is_stmt 0 view .LVU711
 2431 02ac E360     		str	r3, [r4, #12]
  67:Core/Src/lcd.c ****     HAL_GPIO_WritePin(ILI9341_WR_GPIO_Port, ILI9341_WR_Pin, GPIO_PIN_SET);
 2432              		.loc 1 67 5 is_stmt 1 view .LVU712
 2433 02ae 0022     		movs	r2, #0
 2434 02b0 4FF48061 		mov	r1, #1024
 2435 02b4 2046     		mov	r0, r4
 2436 02b6 FFF7FEFF 		bl	HAL_GPIO_WritePin
 2437              	.LVL265:
  68:Core/Src/lcd.c **** }
 2438              		.loc 1 68 5 view .LVU713
 2439 02ba 0122     		movs	r2, #1
 2440 02bc 4FF48061 		mov	r1, #1024
 2441 02c0 2046     		mov	r0, r4
 2442 02c2 FFF7FEFF 		bl	HAL_GPIO_WritePin
 2443              	.LVL266:
  68:Core/Src/lcd.c **** }
 2444              		.loc 1 68 5 is_stmt 0 view .LVU714
 2445              	.LBE497:
 2446              	.LBE496:
 2447              	.LBE495:
 2448              	.LBE494:
 152:Core/Src/lcd.c ****     ILI9341_Write_Data(0x78);
 2449              		.loc 1 152 5 is_stmt 1 view .LVU715
 2450              	.LBB498:
 2451              	.LBI498:
  79:Core/Src/lcd.c **** {
 2452              		.loc 1 79 20 view .LVU716
ARM GAS  C:\Users\Vento\AppData\Local\Temp\ccDU9lzs.s 			page 66


 2453              	.LBB499:
  82:Core/Src/lcd.c ****     ILI9341_SetData(data);
 2454              		.loc 1 82 5 view .LVU717
 2455 02c6 0122     		movs	r2, #1
 2456 02c8 4FF48071 		mov	r1, #256
 2457 02cc 2046     		mov	r0, r4
 2458 02ce FFF7FEFF 		bl	HAL_GPIO_WritePin
 2459              	.LVL267:
  83:Core/Src/lcd.c ****     // ILI9341_Unselect();
 2460              		.loc 1 83 5 view .LVU718
 2461              	.LBB500:
 2462              	.LBI500:
  46:Core/Src/lcd.c **** {
 2463              		.loc 1 46 20 view .LVU719
 2464              	.LBB501:
  48:Core/Src/lcd.c ****     uint8_t temp_Bit3rd_Data = data & 0x04;
 2465              		.loc 1 48 5 view .LVU720
  49:Core/Src/lcd.c ****     data &= ~0x06;
 2466              		.loc 1 49 5 view .LVU721
  50:Core/Src/lcd.c ****     data |= (uint8_t)((temp_Bit2nd_Data << 1) | (temp_Bit3rd_Data >> 1));
 2467              		.loc 1 50 5 view .LVU722
  51:Core/Src/lcd.c **** 
 2468              		.loc 1 51 5 view .LVU723
  53:Core/Src/lcd.c ****     tempReg &= 0xFFFFFF00;
 2469              		.loc 1 53 5 view .LVU724
  53:Core/Src/lcd.c ****     tempReg &= 0xFFFFFF00;
 2470              		.loc 1 53 14 is_stmt 0 view .LVU725
 2471 02d2 E368     		ldr	r3, [r4, #12]
 2472              	.LVL268:
  54:Core/Src/lcd.c ****     tempReg |= (uint32_t)data;
 2473              		.loc 1 54 5 is_stmt 1 view .LVU726
  54:Core/Src/lcd.c ****     tempReg |= (uint32_t)data;
 2474              		.loc 1 54 13 is_stmt 0 view .LVU727
 2475 02d4 23F0FF03 		bic	r3, r3, #255
 2476              	.LVL269:
  55:Core/Src/lcd.c ****     DATA_PORT->ODR = tempReg;
 2477              		.loc 1 55 5 is_stmt 1 view .LVU728
  56:Core/Src/lcd.c **** 
 2478              		.loc 1 56 5 view .LVU729
  56:Core/Src/lcd.c **** 
 2479              		.loc 1 56 20 is_stmt 0 view .LVU730
 2480 02d8 E360     		str	r3, [r4, #12]
  67:Core/Src/lcd.c ****     HAL_GPIO_WritePin(ILI9341_WR_GPIO_Port, ILI9341_WR_Pin, GPIO_PIN_SET);
 2481              		.loc 1 67 5 is_stmt 1 view .LVU731
 2482 02da 0022     		movs	r2, #0
 2483 02dc 4FF48061 		mov	r1, #1024
 2484 02e0 2046     		mov	r0, r4
 2485 02e2 FFF7FEFF 		bl	HAL_GPIO_WritePin
 2486              	.LVL270:
  68:Core/Src/lcd.c **** }
 2487              		.loc 1 68 5 view .LVU732
 2488 02e6 0122     		movs	r2, #1
 2489 02e8 4FF48061 		mov	r1, #1024
 2490 02ec 2046     		mov	r0, r4
 2491 02ee FFF7FEFF 		bl	HAL_GPIO_WritePin
 2492              	.LVL271:
  68:Core/Src/lcd.c **** }
ARM GAS  C:\Users\Vento\AppData\Local\Temp\ccDU9lzs.s 			page 67


 2493              		.loc 1 68 5 is_stmt 0 view .LVU733
 2494              	.LBE501:
 2495              	.LBE500:
 2496              	.LBE499:
 2497              	.LBE498:
 153:Core/Src/lcd.c **** 
 2498              		.loc 1 153 5 is_stmt 1 view .LVU734
 2499              	.LBB502:
 2500              	.LBI502:
  79:Core/Src/lcd.c **** {
 2501              		.loc 1 79 20 view .LVU735
 2502              	.LBB503:
  82:Core/Src/lcd.c ****     ILI9341_SetData(data);
 2503              		.loc 1 82 5 view .LVU736
 2504 02f2 0122     		movs	r2, #1
 2505 02f4 4FF48071 		mov	r1, #256
 2506 02f8 2046     		mov	r0, r4
 2507 02fa FFF7FEFF 		bl	HAL_GPIO_WritePin
 2508              	.LVL272:
  83:Core/Src/lcd.c ****     // ILI9341_Unselect();
 2509              		.loc 1 83 5 view .LVU737
 2510              	.LBB504:
 2511              	.LBI504:
  46:Core/Src/lcd.c **** {
 2512              		.loc 1 46 20 view .LVU738
 2513              	.LBB505:
  48:Core/Src/lcd.c ****     uint8_t temp_Bit3rd_Data = data & 0x04;
 2514              		.loc 1 48 5 view .LVU739
  49:Core/Src/lcd.c ****     data &= ~0x06;
 2515              		.loc 1 49 5 view .LVU740
  50:Core/Src/lcd.c ****     data |= (uint8_t)((temp_Bit2nd_Data << 1) | (temp_Bit3rd_Data >> 1));
 2516              		.loc 1 50 5 view .LVU741
  51:Core/Src/lcd.c **** 
 2517              		.loc 1 51 5 view .LVU742
  53:Core/Src/lcd.c ****     tempReg &= 0xFFFFFF00;
 2518              		.loc 1 53 5 view .LVU743
  53:Core/Src/lcd.c ****     tempReg &= 0xFFFFFF00;
 2519              		.loc 1 53 14 is_stmt 0 view .LVU744
 2520 02fe E368     		ldr	r3, [r4, #12]
 2521              	.LVL273:
  54:Core/Src/lcd.c ****     tempReg |= (uint32_t)data;
 2522              		.loc 1 54 5 is_stmt 1 view .LVU745
  54:Core/Src/lcd.c ****     tempReg |= (uint32_t)data;
 2523              		.loc 1 54 13 is_stmt 0 view .LVU746
 2524 0300 23F0FF03 		bic	r3, r3, #255
 2525              	.LVL274:
  55:Core/Src/lcd.c ****     DATA_PORT->ODR = tempReg;
 2526              		.loc 1 55 5 is_stmt 1 view .LVU747
  55:Core/Src/lcd.c ****     DATA_PORT->ODR = tempReg;
 2527              		.loc 1 55 13 is_stmt 0 view .LVU748
 2528 0304 43F07803 		orr	r3, r3, #120
 2529              	.LVL275:
  56:Core/Src/lcd.c **** 
 2530              		.loc 1 56 5 is_stmt 1 view .LVU749
  56:Core/Src/lcd.c **** 
 2531              		.loc 1 56 20 is_stmt 0 view .LVU750
 2532 0308 E360     		str	r3, [r4, #12]
ARM GAS  C:\Users\Vento\AppData\Local\Temp\ccDU9lzs.s 			page 68


  67:Core/Src/lcd.c ****     HAL_GPIO_WritePin(ILI9341_WR_GPIO_Port, ILI9341_WR_Pin, GPIO_PIN_SET);
 2533              		.loc 1 67 5 is_stmt 1 view .LVU751
 2534 030a 0022     		movs	r2, #0
 2535 030c 4FF48061 		mov	r1, #1024
 2536 0310 2046     		mov	r0, r4
 2537 0312 FFF7FEFF 		bl	HAL_GPIO_WritePin
 2538              	.LVL276:
  68:Core/Src/lcd.c **** }
 2539              		.loc 1 68 5 view .LVU752
 2540 0316 0122     		movs	r2, #1
 2541 0318 4FF48061 		mov	r1, #1024
 2542 031c 2046     		mov	r0, r4
 2543 031e FFF7FEFF 		bl	HAL_GPIO_WritePin
 2544              	.LVL277:
  68:Core/Src/lcd.c **** }
 2545              		.loc 1 68 5 is_stmt 0 view .LVU753
 2546              	.LBE505:
 2547              	.LBE504:
 2548              	.LBE503:
 2549              	.LBE502:
 156:Core/Src/lcd.c ****     ILI9341_Write_Data(0x00);
 2550              		.loc 1 156 5 is_stmt 1 view .LVU754
 2551              	.LBB506:
 2552              	.LBI506:
  71:Core/Src/lcd.c **** {
 2553              		.loc 1 71 20 view .LVU755
 2554              	.LBB507:
  74:Core/Src/lcd.c ****     ILI9341_SetData(cmd);
 2555              		.loc 1 74 5 view .LVU756
 2556 0322 0022     		movs	r2, #0
 2557 0324 4FF48071 		mov	r1, #256
 2558 0328 2046     		mov	r0, r4
 2559 032a FFF7FEFF 		bl	HAL_GPIO_WritePin
 2560              	.LVL278:
  75:Core/Src/lcd.c ****     // ILI9341_Unselect();
 2561              		.loc 1 75 5 view .LVU757
 2562              	.LBB508:
 2563              	.LBI508:
  46:Core/Src/lcd.c **** {
 2564              		.loc 1 46 20 view .LVU758
 2565              	.LBB509:
  48:Core/Src/lcd.c ****     uint8_t temp_Bit3rd_Data = data & 0x04;
 2566              		.loc 1 48 5 view .LVU759
  49:Core/Src/lcd.c ****     data &= ~0x06;
 2567              		.loc 1 49 5 view .LVU760
  50:Core/Src/lcd.c ****     data |= (uint8_t)((temp_Bit2nd_Data << 1) | (temp_Bit3rd_Data >> 1));
 2568              		.loc 1 50 5 view .LVU761
  51:Core/Src/lcd.c **** 
 2569              		.loc 1 51 5 view .LVU762
  53:Core/Src/lcd.c ****     tempReg &= 0xFFFFFF00;
 2570              		.loc 1 53 5 view .LVU763
  53:Core/Src/lcd.c ****     tempReg &= 0xFFFFFF00;
 2571              		.loc 1 53 14 is_stmt 0 view .LVU764
 2572 032e E368     		ldr	r3, [r4, #12]
 2573              	.LVL279:
  54:Core/Src/lcd.c ****     tempReg |= (uint32_t)data;
 2574              		.loc 1 54 5 is_stmt 1 view .LVU765
ARM GAS  C:\Users\Vento\AppData\Local\Temp\ccDU9lzs.s 			page 69


  54:Core/Src/lcd.c ****     tempReg |= (uint32_t)data;
 2575              		.loc 1 54 13 is_stmt 0 view .LVU766
 2576 0330 23F0FF03 		bic	r3, r3, #255
 2577              	.LVL280:
  55:Core/Src/lcd.c ****     DATA_PORT->ODR = tempReg;
 2578              		.loc 1 55 5 is_stmt 1 view .LVU767
  55:Core/Src/lcd.c ****     DATA_PORT->ODR = tempReg;
 2579              		.loc 1 55 13 is_stmt 0 view .LVU768
 2580 0334 43F0EC03 		orr	r3, r3, #236
 2581              	.LVL281:
  56:Core/Src/lcd.c **** 
 2582              		.loc 1 56 5 is_stmt 1 view .LVU769
  56:Core/Src/lcd.c **** 
 2583              		.loc 1 56 20 is_stmt 0 view .LVU770
 2584 0338 E360     		str	r3, [r4, #12]
  67:Core/Src/lcd.c ****     HAL_GPIO_WritePin(ILI9341_WR_GPIO_Port, ILI9341_WR_Pin, GPIO_PIN_SET);
 2585              		.loc 1 67 5 is_stmt 1 view .LVU771
 2586 033a 0022     		movs	r2, #0
 2587 033c 4FF48061 		mov	r1, #1024
 2588 0340 2046     		mov	r0, r4
 2589 0342 FFF7FEFF 		bl	HAL_GPIO_WritePin
 2590              	.LVL282:
  68:Core/Src/lcd.c **** }
 2591              		.loc 1 68 5 view .LVU772
 2592 0346 0122     		movs	r2, #1
 2593 0348 4FF48061 		mov	r1, #1024
 2594 034c 2046     		mov	r0, r4
 2595 034e FFF7FEFF 		bl	HAL_GPIO_WritePin
 2596              	.LVL283:
  68:Core/Src/lcd.c **** }
 2597              		.loc 1 68 5 is_stmt 0 view .LVU773
 2598              	.LBE509:
 2599              	.LBE508:
 2600              	.LBE507:
 2601              	.LBE506:
 157:Core/Src/lcd.c ****     ILI9341_Write_Data(0x00);
 2602              		.loc 1 157 5 is_stmt 1 view .LVU774
 2603              	.LBB510:
 2604              	.LBI510:
  79:Core/Src/lcd.c **** {
 2605              		.loc 1 79 20 view .LVU775
 2606              	.LBB511:
  82:Core/Src/lcd.c ****     ILI9341_SetData(data);
 2607              		.loc 1 82 5 view .LVU776
 2608 0352 0122     		movs	r2, #1
 2609 0354 4FF48071 		mov	r1, #256
 2610 0358 2046     		mov	r0, r4
 2611 035a FFF7FEFF 		bl	HAL_GPIO_WritePin
 2612              	.LVL284:
  83:Core/Src/lcd.c ****     // ILI9341_Unselect();
 2613              		.loc 1 83 5 view .LVU777
 2614              	.LBB512:
 2615              	.LBI512:
  46:Core/Src/lcd.c **** {
 2616              		.loc 1 46 20 view .LVU778
 2617              	.LBB513:
  48:Core/Src/lcd.c ****     uint8_t temp_Bit3rd_Data = data & 0x04;
ARM GAS  C:\Users\Vento\AppData\Local\Temp\ccDU9lzs.s 			page 70


 2618              		.loc 1 48 5 view .LVU779
  49:Core/Src/lcd.c ****     data &= ~0x06;
 2619              		.loc 1 49 5 view .LVU780
  50:Core/Src/lcd.c ****     data |= (uint8_t)((temp_Bit2nd_Data << 1) | (temp_Bit3rd_Data >> 1));
 2620              		.loc 1 50 5 view .LVU781
  51:Core/Src/lcd.c **** 
 2621              		.loc 1 51 5 view .LVU782
  53:Core/Src/lcd.c ****     tempReg &= 0xFFFFFF00;
 2622              		.loc 1 53 5 view .LVU783
  53:Core/Src/lcd.c ****     tempReg &= 0xFFFFFF00;
 2623              		.loc 1 53 14 is_stmt 0 view .LVU784
 2624 035e E368     		ldr	r3, [r4, #12]
 2625              	.LVL285:
  54:Core/Src/lcd.c ****     tempReg |= (uint32_t)data;
 2626              		.loc 1 54 5 is_stmt 1 view .LVU785
  54:Core/Src/lcd.c ****     tempReg |= (uint32_t)data;
 2627              		.loc 1 54 13 is_stmt 0 view .LVU786
 2628 0360 23F0FF03 		bic	r3, r3, #255
 2629              	.LVL286:
  55:Core/Src/lcd.c ****     DATA_PORT->ODR = tempReg;
 2630              		.loc 1 55 5 is_stmt 1 view .LVU787
  56:Core/Src/lcd.c **** 
 2631              		.loc 1 56 5 view .LVU788
  56:Core/Src/lcd.c **** 
 2632              		.loc 1 56 20 is_stmt 0 view .LVU789
 2633 0364 E360     		str	r3, [r4, #12]
  67:Core/Src/lcd.c ****     HAL_GPIO_WritePin(ILI9341_WR_GPIO_Port, ILI9341_WR_Pin, GPIO_PIN_SET);
 2634              		.loc 1 67 5 is_stmt 1 view .LVU790
 2635 0366 0022     		movs	r2, #0
 2636 0368 4FF48061 		mov	r1, #1024
 2637 036c 2046     		mov	r0, r4
 2638 036e FFF7FEFF 		bl	HAL_GPIO_WritePin
 2639              	.LVL287:
  68:Core/Src/lcd.c **** }
 2640              		.loc 1 68 5 view .LVU791
 2641 0372 0122     		movs	r2, #1
 2642 0374 4FF48061 		mov	r1, #1024
 2643 0378 2046     		mov	r0, r4
 2644 037a FFF7FEFF 		bl	HAL_GPIO_WritePin
 2645              	.LVL288:
  68:Core/Src/lcd.c **** }
 2646              		.loc 1 68 5 is_stmt 0 view .LVU792
 2647              	.LBE513:
 2648              	.LBE512:
 2649              	.LBE511:
 2650              	.LBE510:
 158:Core/Src/lcd.c **** 
 2651              		.loc 1 158 5 is_stmt 1 view .LVU793
 2652              	.LBB514:
 2653              	.LBI514:
  79:Core/Src/lcd.c **** {
 2654              		.loc 1 79 20 view .LVU794
 2655              	.LBB515:
  82:Core/Src/lcd.c ****     ILI9341_SetData(data);
 2656              		.loc 1 82 5 view .LVU795
 2657 037e 0122     		movs	r2, #1
 2658 0380 4FF48071 		mov	r1, #256
ARM GAS  C:\Users\Vento\AppData\Local\Temp\ccDU9lzs.s 			page 71


 2659 0384 2046     		mov	r0, r4
 2660 0386 FFF7FEFF 		bl	HAL_GPIO_WritePin
 2661              	.LVL289:
  83:Core/Src/lcd.c ****     // ILI9341_Unselect();
 2662              		.loc 1 83 5 view .LVU796
 2663              	.LBB516:
 2664              	.LBI516:
  46:Core/Src/lcd.c **** {
 2665              		.loc 1 46 20 view .LVU797
 2666              	.LBB517:
  48:Core/Src/lcd.c ****     uint8_t temp_Bit3rd_Data = data & 0x04;
 2667              		.loc 1 48 5 view .LVU798
  49:Core/Src/lcd.c ****     data &= ~0x06;
 2668              		.loc 1 49 5 view .LVU799
  50:Core/Src/lcd.c ****     data |= (uint8_t)((temp_Bit2nd_Data << 1) | (temp_Bit3rd_Data >> 1));
 2669              		.loc 1 50 5 view .LVU800
  51:Core/Src/lcd.c **** 
 2670              		.loc 1 51 5 view .LVU801
  53:Core/Src/lcd.c ****     tempReg &= 0xFFFFFF00;
 2671              		.loc 1 53 5 view .LVU802
  53:Core/Src/lcd.c ****     tempReg &= 0xFFFFFF00;
 2672              		.loc 1 53 14 is_stmt 0 view .LVU803
 2673 038a E368     		ldr	r3, [r4, #12]
 2674              	.LVL290:
  54:Core/Src/lcd.c ****     tempReg |= (uint32_t)data;
 2675              		.loc 1 54 5 is_stmt 1 view .LVU804
  54:Core/Src/lcd.c ****     tempReg |= (uint32_t)data;
 2676              		.loc 1 54 13 is_stmt 0 view .LVU805
 2677 038c 23F0FF03 		bic	r3, r3, #255
 2678              	.LVL291:
  55:Core/Src/lcd.c ****     DATA_PORT->ODR = tempReg;
 2679              		.loc 1 55 5 is_stmt 1 view .LVU806
  56:Core/Src/lcd.c **** 
 2680              		.loc 1 56 5 view .LVU807
  56:Core/Src/lcd.c **** 
 2681              		.loc 1 56 20 is_stmt 0 view .LVU808
 2682 0390 E360     		str	r3, [r4, #12]
  67:Core/Src/lcd.c ****     HAL_GPIO_WritePin(ILI9341_WR_GPIO_Port, ILI9341_WR_Pin, GPIO_PIN_SET);
 2683              		.loc 1 67 5 is_stmt 1 view .LVU809
 2684 0392 0022     		movs	r2, #0
 2685 0394 4FF48061 		mov	r1, #1024
 2686 0398 2046     		mov	r0, r4
 2687 039a FFF7FEFF 		bl	HAL_GPIO_WritePin
 2688              	.LVL292:
  68:Core/Src/lcd.c **** }
 2689              		.loc 1 68 5 view .LVU810
 2690 039e 0122     		movs	r2, #1
 2691 03a0 4FF48061 		mov	r1, #1024
 2692 03a4 2046     		mov	r0, r4
 2693 03a6 FFF7FEFF 		bl	HAL_GPIO_WritePin
 2694              	.LVL293:
  68:Core/Src/lcd.c **** }
 2695              		.loc 1 68 5 is_stmt 0 view .LVU811
 2696              	.LBE517:
 2697              	.LBE516:
 2698              	.LBE515:
 2699              	.LBE514:
ARM GAS  C:\Users\Vento\AppData\Local\Temp\ccDU9lzs.s 			page 72


 161:Core/Src/lcd.c ****     ILI9341_Write_Data(0x64);
 2700              		.loc 1 161 5 is_stmt 1 view .LVU812
 2701              	.LBB518:
 2702              	.LBI518:
  71:Core/Src/lcd.c **** {
 2703              		.loc 1 71 20 view .LVU813
 2704              	.LBB519:
  74:Core/Src/lcd.c ****     ILI9341_SetData(cmd);
 2705              		.loc 1 74 5 view .LVU814
 2706 03aa 0022     		movs	r2, #0
 2707 03ac 4FF48071 		mov	r1, #256
 2708 03b0 06E0     		b	.L100
 2709              	.L101:
 2710 03b2 00BF     		.align	2
 2711              	.L99:
 2712 03b4 00140140 		.word	1073812480
 2713 03b8 000C0140 		.word	1073810432
 2714 03bc 00100140 		.word	1073811456
 2715              	.L100:
 2716 03c0 2046     		mov	r0, r4
 2717 03c2 FFF7FEFF 		bl	HAL_GPIO_WritePin
 2718              	.LVL294:
  75:Core/Src/lcd.c ****     // ILI9341_Unselect();
 2719              		.loc 1 75 5 view .LVU815
 2720              	.LBB520:
 2721              	.LBI520:
  46:Core/Src/lcd.c **** {
 2722              		.loc 1 46 20 view .LVU816
 2723              	.LBB521:
  48:Core/Src/lcd.c ****     uint8_t temp_Bit3rd_Data = data & 0x04;
 2724              		.loc 1 48 5 view .LVU817
  49:Core/Src/lcd.c ****     data &= ~0x06;
 2725              		.loc 1 49 5 view .LVU818
  50:Core/Src/lcd.c ****     data |= (uint8_t)((temp_Bit2nd_Data << 1) | (temp_Bit3rd_Data >> 1));
 2726              		.loc 1 50 5 view .LVU819
  51:Core/Src/lcd.c **** 
 2727              		.loc 1 51 5 view .LVU820
  53:Core/Src/lcd.c ****     tempReg &= 0xFFFFFF00;
 2728              		.loc 1 53 5 view .LVU821
  53:Core/Src/lcd.c ****     tempReg &= 0xFFFFFF00;
 2729              		.loc 1 53 14 is_stmt 0 view .LVU822
 2730 03c6 E368     		ldr	r3, [r4, #12]
 2731              	.LVL295:
  54:Core/Src/lcd.c ****     tempReg |= (uint32_t)data;
 2732              		.loc 1 54 5 is_stmt 1 view .LVU823
  54:Core/Src/lcd.c ****     tempReg |= (uint32_t)data;
 2733              		.loc 1 54 13 is_stmt 0 view .LVU824
 2734 03c8 23F0FF03 		bic	r3, r3, #255
 2735              	.LVL296:
  55:Core/Src/lcd.c ****     DATA_PORT->ODR = tempReg;
 2736              		.loc 1 55 5 is_stmt 1 view .LVU825
  55:Core/Src/lcd.c ****     DATA_PORT->ODR = tempReg;
 2737              		.loc 1 55 13 is_stmt 0 view .LVU826
 2738 03cc 43F0EB03 		orr	r3, r3, #235
 2739              	.LVL297:
  56:Core/Src/lcd.c **** 
 2740              		.loc 1 56 5 is_stmt 1 view .LVU827
ARM GAS  C:\Users\Vento\AppData\Local\Temp\ccDU9lzs.s 			page 73


  56:Core/Src/lcd.c **** 
 2741              		.loc 1 56 20 is_stmt 0 view .LVU828
 2742 03d0 E360     		str	r3, [r4, #12]
  67:Core/Src/lcd.c ****     HAL_GPIO_WritePin(ILI9341_WR_GPIO_Port, ILI9341_WR_Pin, GPIO_PIN_SET);
 2743              		.loc 1 67 5 is_stmt 1 view .LVU829
 2744 03d2 0022     		movs	r2, #0
 2745 03d4 4FF48061 		mov	r1, #1024
 2746 03d8 2046     		mov	r0, r4
 2747 03da FFF7FEFF 		bl	HAL_GPIO_WritePin
 2748              	.LVL298:
  68:Core/Src/lcd.c **** }
 2749              		.loc 1 68 5 view .LVU830
 2750 03de 0122     		movs	r2, #1
 2751 03e0 4FF48061 		mov	r1, #1024
 2752 03e4 2046     		mov	r0, r4
 2753 03e6 FFF7FEFF 		bl	HAL_GPIO_WritePin
 2754              	.LVL299:
  68:Core/Src/lcd.c **** }
 2755              		.loc 1 68 5 is_stmt 0 view .LVU831
 2756              	.LBE521:
 2757              	.LBE520:
 2758              	.LBE519:
 2759              	.LBE518:
 162:Core/Src/lcd.c ****     ILI9341_Write_Data(0x03);
 2760              		.loc 1 162 5 is_stmt 1 view .LVU832
 2761              	.LBB522:
 2762              	.LBI522:
  79:Core/Src/lcd.c **** {
 2763              		.loc 1 79 20 view .LVU833
 2764              	.LBB523:
  82:Core/Src/lcd.c ****     ILI9341_SetData(data);
 2765              		.loc 1 82 5 view .LVU834
 2766 03ea 0122     		movs	r2, #1
 2767 03ec 4FF48071 		mov	r1, #256
 2768 03f0 2046     		mov	r0, r4
 2769 03f2 FFF7FEFF 		bl	HAL_GPIO_WritePin
 2770              	.LVL300:
  83:Core/Src/lcd.c ****     // ILI9341_Unselect();
 2771              		.loc 1 83 5 view .LVU835
 2772              	.LBB524:
 2773              	.LBI524:
  46:Core/Src/lcd.c **** {
 2774              		.loc 1 46 20 view .LVU836
 2775              	.LBB525:
  48:Core/Src/lcd.c ****     uint8_t temp_Bit3rd_Data = data & 0x04;
 2776              		.loc 1 48 5 view .LVU837
  49:Core/Src/lcd.c ****     data &= ~0x06;
 2777              		.loc 1 49 5 view .LVU838
  50:Core/Src/lcd.c ****     data |= (uint8_t)((temp_Bit2nd_Data << 1) | (temp_Bit3rd_Data >> 1));
 2778              		.loc 1 50 5 view .LVU839
  51:Core/Src/lcd.c **** 
 2779              		.loc 1 51 5 view .LVU840
  53:Core/Src/lcd.c ****     tempReg &= 0xFFFFFF00;
 2780              		.loc 1 53 5 view .LVU841
  53:Core/Src/lcd.c ****     tempReg &= 0xFFFFFF00;
 2781              		.loc 1 53 14 is_stmt 0 view .LVU842
 2782 03f6 E368     		ldr	r3, [r4, #12]
ARM GAS  C:\Users\Vento\AppData\Local\Temp\ccDU9lzs.s 			page 74


 2783              	.LVL301:
  54:Core/Src/lcd.c ****     tempReg |= (uint32_t)data;
 2784              		.loc 1 54 5 is_stmt 1 view .LVU843
  54:Core/Src/lcd.c ****     tempReg |= (uint32_t)data;
 2785              		.loc 1 54 13 is_stmt 0 view .LVU844
 2786 03f8 23F0FF03 		bic	r3, r3, #255
 2787              	.LVL302:
  55:Core/Src/lcd.c ****     DATA_PORT->ODR = tempReg;
 2788              		.loc 1 55 5 is_stmt 1 view .LVU845
  55:Core/Src/lcd.c ****     DATA_PORT->ODR = tempReg;
 2789              		.loc 1 55 13 is_stmt 0 view .LVU846
 2790 03fc 43F06203 		orr	r3, r3, #98
 2791              	.LVL303:
  56:Core/Src/lcd.c **** 
 2792              		.loc 1 56 5 is_stmt 1 view .LVU847
  56:Core/Src/lcd.c **** 
 2793              		.loc 1 56 20 is_stmt 0 view .LVU848
 2794 0400 E360     		str	r3, [r4, #12]
  67:Core/Src/lcd.c ****     HAL_GPIO_WritePin(ILI9341_WR_GPIO_Port, ILI9341_WR_Pin, GPIO_PIN_SET);
 2795              		.loc 1 67 5 is_stmt 1 view .LVU849
 2796 0402 0022     		movs	r2, #0
 2797 0404 4FF48061 		mov	r1, #1024
 2798 0408 2046     		mov	r0, r4
 2799 040a FFF7FEFF 		bl	HAL_GPIO_WritePin
 2800              	.LVL304:
  68:Core/Src/lcd.c **** }
 2801              		.loc 1 68 5 view .LVU850
 2802 040e 0122     		movs	r2, #1
 2803 0410 4FF48061 		mov	r1, #1024
 2804 0414 2046     		mov	r0, r4
 2805 0416 FFF7FEFF 		bl	HAL_GPIO_WritePin
 2806              	.LVL305:
  68:Core/Src/lcd.c **** }
 2807              		.loc 1 68 5 is_stmt 0 view .LVU851
 2808              	.LBE525:
 2809              	.LBE524:
 2810              	.LBE523:
 2811              	.LBE522:
 163:Core/Src/lcd.c ****     ILI9341_Write_Data(0x12);
 2812              		.loc 1 163 5 is_stmt 1 view .LVU852
 2813              	.LBB526:
 2814              	.LBI526:
  79:Core/Src/lcd.c **** {
 2815              		.loc 1 79 20 view .LVU853
 2816              	.LBB527:
  82:Core/Src/lcd.c ****     ILI9341_SetData(data);
 2817              		.loc 1 82 5 view .LVU854
 2818 041a 0122     		movs	r2, #1
 2819 041c 4FF48071 		mov	r1, #256
 2820 0420 2046     		mov	r0, r4
 2821 0422 FFF7FEFF 		bl	HAL_GPIO_WritePin
 2822              	.LVL306:
  83:Core/Src/lcd.c ****     // ILI9341_Unselect();
 2823              		.loc 1 83 5 view .LVU855
 2824              	.LBB528:
 2825              	.LBI528:
  46:Core/Src/lcd.c **** {
ARM GAS  C:\Users\Vento\AppData\Local\Temp\ccDU9lzs.s 			page 75


 2826              		.loc 1 46 20 view .LVU856
 2827              	.LBB529:
  48:Core/Src/lcd.c ****     uint8_t temp_Bit3rd_Data = data & 0x04;
 2828              		.loc 1 48 5 view .LVU857
  49:Core/Src/lcd.c ****     data &= ~0x06;
 2829              		.loc 1 49 5 view .LVU858
  50:Core/Src/lcd.c ****     data |= (uint8_t)((temp_Bit2nd_Data << 1) | (temp_Bit3rd_Data >> 1));
 2830              		.loc 1 50 5 view .LVU859
  51:Core/Src/lcd.c **** 
 2831              		.loc 1 51 5 view .LVU860
  53:Core/Src/lcd.c ****     tempReg &= 0xFFFFFF00;
 2832              		.loc 1 53 5 view .LVU861
  53:Core/Src/lcd.c ****     tempReg &= 0xFFFFFF00;
 2833              		.loc 1 53 14 is_stmt 0 view .LVU862
 2834 0426 E368     		ldr	r3, [r4, #12]
 2835              	.LVL307:
  54:Core/Src/lcd.c ****     tempReg |= (uint32_t)data;
 2836              		.loc 1 54 5 is_stmt 1 view .LVU863
  54:Core/Src/lcd.c ****     tempReg |= (uint32_t)data;
 2837              		.loc 1 54 13 is_stmt 0 view .LVU864
 2838 0428 23F0FF03 		bic	r3, r3, #255
 2839              	.LVL308:
  55:Core/Src/lcd.c ****     DATA_PORT->ODR = tempReg;
 2840              		.loc 1 55 5 is_stmt 1 view .LVU865
  55:Core/Src/lcd.c ****     DATA_PORT->ODR = tempReg;
 2841              		.loc 1 55 13 is_stmt 0 view .LVU866
 2842 042c 43F00503 		orr	r3, r3, #5
 2843              	.LVL309:
  56:Core/Src/lcd.c **** 
 2844              		.loc 1 56 5 is_stmt 1 view .LVU867
  56:Core/Src/lcd.c **** 
 2845              		.loc 1 56 20 is_stmt 0 view .LVU868
 2846 0430 E360     		str	r3, [r4, #12]
  67:Core/Src/lcd.c ****     HAL_GPIO_WritePin(ILI9341_WR_GPIO_Port, ILI9341_WR_Pin, GPIO_PIN_SET);
 2847              		.loc 1 67 5 is_stmt 1 view .LVU869
 2848 0432 0022     		movs	r2, #0
 2849 0434 4FF48061 		mov	r1, #1024
 2850 0438 2046     		mov	r0, r4
 2851 043a FFF7FEFF 		bl	HAL_GPIO_WritePin
 2852              	.LVL310:
  68:Core/Src/lcd.c **** }
 2853              		.loc 1 68 5 view .LVU870
 2854 043e 0122     		movs	r2, #1
 2855 0440 4FF48061 		mov	r1, #1024
 2856 0444 2046     		mov	r0, r4
 2857 0446 FFF7FEFF 		bl	HAL_GPIO_WritePin
 2858              	.LVL311:
  68:Core/Src/lcd.c **** }
 2859              		.loc 1 68 5 is_stmt 0 view .LVU871
 2860              	.LBE529:
 2861              	.LBE528:
 2862              	.LBE527:
 2863              	.LBE526:
 164:Core/Src/lcd.c ****     ILI9341_Write_Data(0x81);
 2864              		.loc 1 164 5 is_stmt 1 view .LVU872
 2865              	.LBB530:
 2866              	.LBI530:
ARM GAS  C:\Users\Vento\AppData\Local\Temp\ccDU9lzs.s 			page 76


  79:Core/Src/lcd.c **** {
 2867              		.loc 1 79 20 view .LVU873
 2868              	.LBB531:
  82:Core/Src/lcd.c ****     ILI9341_SetData(data);
 2869              		.loc 1 82 5 view .LVU874
 2870 044a 0122     		movs	r2, #1
 2871 044c 4FF48071 		mov	r1, #256
 2872 0450 2046     		mov	r0, r4
 2873 0452 FFF7FEFF 		bl	HAL_GPIO_WritePin
 2874              	.LVL312:
  83:Core/Src/lcd.c ****     // ILI9341_Unselect();
 2875              		.loc 1 83 5 view .LVU875
 2876              	.LBB532:
 2877              	.LBI532:
  46:Core/Src/lcd.c **** {
 2878              		.loc 1 46 20 view .LVU876
 2879              	.LBB533:
  48:Core/Src/lcd.c ****     uint8_t temp_Bit3rd_Data = data & 0x04;
 2880              		.loc 1 48 5 view .LVU877
  49:Core/Src/lcd.c ****     data &= ~0x06;
 2881              		.loc 1 49 5 view .LVU878
  50:Core/Src/lcd.c ****     data |= (uint8_t)((temp_Bit2nd_Data << 1) | (temp_Bit3rd_Data >> 1));
 2882              		.loc 1 50 5 view .LVU879
  51:Core/Src/lcd.c **** 
 2883              		.loc 1 51 5 view .LVU880
  53:Core/Src/lcd.c ****     tempReg &= 0xFFFFFF00;
 2884              		.loc 1 53 5 view .LVU881
  53:Core/Src/lcd.c ****     tempReg &= 0xFFFFFF00;
 2885              		.loc 1 53 14 is_stmt 0 view .LVU882
 2886 0456 E368     		ldr	r3, [r4, #12]
 2887              	.LVL313:
  54:Core/Src/lcd.c ****     tempReg |= (uint32_t)data;
 2888              		.loc 1 54 5 is_stmt 1 view .LVU883
  54:Core/Src/lcd.c ****     tempReg |= (uint32_t)data;
 2889              		.loc 1 54 13 is_stmt 0 view .LVU884
 2890 0458 23F0FF03 		bic	r3, r3, #255
 2891              	.LVL314:
  55:Core/Src/lcd.c ****     DATA_PORT->ODR = tempReg;
 2892              		.loc 1 55 5 is_stmt 1 view .LVU885
  55:Core/Src/lcd.c ****     DATA_PORT->ODR = tempReg;
 2893              		.loc 1 55 13 is_stmt 0 view .LVU886
 2894 045c 43F01403 		orr	r3, r3, #20
 2895              	.LVL315:
  56:Core/Src/lcd.c **** 
 2896              		.loc 1 56 5 is_stmt 1 view .LVU887
  56:Core/Src/lcd.c **** 
 2897              		.loc 1 56 20 is_stmt 0 view .LVU888
 2898 0460 E360     		str	r3, [r4, #12]
  67:Core/Src/lcd.c ****     HAL_GPIO_WritePin(ILI9341_WR_GPIO_Port, ILI9341_WR_Pin, GPIO_PIN_SET);
 2899              		.loc 1 67 5 is_stmt 1 view .LVU889
 2900 0462 0022     		movs	r2, #0
 2901 0464 4FF48061 		mov	r1, #1024
 2902 0468 2046     		mov	r0, r4
 2903 046a FFF7FEFF 		bl	HAL_GPIO_WritePin
 2904              	.LVL316:
  68:Core/Src/lcd.c **** }
 2905              		.loc 1 68 5 view .LVU890
ARM GAS  C:\Users\Vento\AppData\Local\Temp\ccDU9lzs.s 			page 77


 2906 046e 0122     		movs	r2, #1
 2907 0470 4FF48061 		mov	r1, #1024
 2908 0474 2046     		mov	r0, r4
 2909 0476 FFF7FEFF 		bl	HAL_GPIO_WritePin
 2910              	.LVL317:
  68:Core/Src/lcd.c **** }
 2911              		.loc 1 68 5 is_stmt 0 view .LVU891
 2912              	.LBE533:
 2913              	.LBE532:
 2914              	.LBE531:
 2915              	.LBE530:
 165:Core/Src/lcd.c **** 
 2916              		.loc 1 165 5 is_stmt 1 view .LVU892
 2917              	.LBB534:
 2918              	.LBI534:
  79:Core/Src/lcd.c **** {
 2919              		.loc 1 79 20 view .LVU893
 2920              	.LBB535:
  82:Core/Src/lcd.c ****     ILI9341_SetData(data);
 2921              		.loc 1 82 5 view .LVU894
 2922 047a 0122     		movs	r2, #1
 2923 047c 4FF48071 		mov	r1, #256
 2924 0480 2046     		mov	r0, r4
 2925 0482 FFF7FEFF 		bl	HAL_GPIO_WritePin
 2926              	.LVL318:
  83:Core/Src/lcd.c ****     // ILI9341_Unselect();
 2927              		.loc 1 83 5 view .LVU895
 2928              	.LBB536:
 2929              	.LBI536:
  46:Core/Src/lcd.c **** {
 2930              		.loc 1 46 20 view .LVU896
 2931              	.LBB537:
  48:Core/Src/lcd.c ****     uint8_t temp_Bit3rd_Data = data & 0x04;
 2932              		.loc 1 48 5 view .LVU897
  49:Core/Src/lcd.c ****     data &= ~0x06;
 2933              		.loc 1 49 5 view .LVU898
  50:Core/Src/lcd.c ****     data |= (uint8_t)((temp_Bit2nd_Data << 1) | (temp_Bit3rd_Data >> 1));
 2934              		.loc 1 50 5 view .LVU899
  51:Core/Src/lcd.c **** 
 2935              		.loc 1 51 5 view .LVU900
  53:Core/Src/lcd.c ****     tempReg &= 0xFFFFFF00;
 2936              		.loc 1 53 5 view .LVU901
  53:Core/Src/lcd.c ****     tempReg &= 0xFFFFFF00;
 2937              		.loc 1 53 14 is_stmt 0 view .LVU902
 2938 0486 E368     		ldr	r3, [r4, #12]
 2939              	.LVL319:
  54:Core/Src/lcd.c ****     tempReg |= (uint32_t)data;
 2940              		.loc 1 54 5 is_stmt 1 view .LVU903
  54:Core/Src/lcd.c ****     tempReg |= (uint32_t)data;
 2941              		.loc 1 54 13 is_stmt 0 view .LVU904
 2942 0488 23F0FF03 		bic	r3, r3, #255
 2943              	.LVL320:
  55:Core/Src/lcd.c ****     DATA_PORT->ODR = tempReg;
 2944              		.loc 1 55 5 is_stmt 1 view .LVU905
  55:Core/Src/lcd.c ****     DATA_PORT->ODR = tempReg;
 2945              		.loc 1 55 13 is_stmt 0 view .LVU906
 2946 048c 43F08103 		orr	r3, r3, #129
ARM GAS  C:\Users\Vento\AppData\Local\Temp\ccDU9lzs.s 			page 78


 2947              	.LVL321:
  56:Core/Src/lcd.c **** 
 2948              		.loc 1 56 5 is_stmt 1 view .LVU907
  56:Core/Src/lcd.c **** 
 2949              		.loc 1 56 20 is_stmt 0 view .LVU908
 2950 0490 E360     		str	r3, [r4, #12]
  67:Core/Src/lcd.c ****     HAL_GPIO_WritePin(ILI9341_WR_GPIO_Port, ILI9341_WR_Pin, GPIO_PIN_SET);
 2951              		.loc 1 67 5 is_stmt 1 view .LVU909
 2952 0492 0022     		movs	r2, #0
 2953 0494 4FF48061 		mov	r1, #1024
 2954 0498 2046     		mov	r0, r4
 2955 049a FFF7FEFF 		bl	HAL_GPIO_WritePin
 2956              	.LVL322:
  68:Core/Src/lcd.c **** }
 2957              		.loc 1 68 5 view .LVU910
 2958 049e 0122     		movs	r2, #1
 2959 04a0 4FF48061 		mov	r1, #1024
 2960 04a4 2046     		mov	r0, r4
 2961 04a6 FFF7FEFF 		bl	HAL_GPIO_WritePin
 2962              	.LVL323:
  68:Core/Src/lcd.c **** }
 2963              		.loc 1 68 5 is_stmt 0 view .LVU911
 2964              	.LBE537:
 2965              	.LBE536:
 2966              	.LBE535:
 2967              	.LBE534:
 168:Core/Src/lcd.c ****     ILI9341_Write_Data(0x20);
 2968              		.loc 1 168 5 is_stmt 1 view .LVU912
 2969              	.LBB538:
 2970              	.LBI538:
  71:Core/Src/lcd.c **** {
 2971              		.loc 1 71 20 view .LVU913
 2972              	.LBB539:
  74:Core/Src/lcd.c ****     ILI9341_SetData(cmd);
 2973              		.loc 1 74 5 view .LVU914
 2974 04aa 0022     		movs	r2, #0
 2975 04ac 4FF48071 		mov	r1, #256
 2976 04b0 2046     		mov	r0, r4
 2977 04b2 FFF7FEFF 		bl	HAL_GPIO_WritePin
 2978              	.LVL324:
  75:Core/Src/lcd.c ****     // ILI9341_Unselect();
 2979              		.loc 1 75 5 view .LVU915
 2980              	.LBB540:
 2981              	.LBI540:
  46:Core/Src/lcd.c **** {
 2982              		.loc 1 46 20 view .LVU916
 2983              	.LBB541:
  48:Core/Src/lcd.c ****     uint8_t temp_Bit3rd_Data = data & 0x04;
 2984              		.loc 1 48 5 view .LVU917
  49:Core/Src/lcd.c ****     data &= ~0x06;
 2985              		.loc 1 49 5 view .LVU918
  50:Core/Src/lcd.c ****     data |= (uint8_t)((temp_Bit2nd_Data << 1) | (temp_Bit3rd_Data >> 1));
 2986              		.loc 1 50 5 view .LVU919
  51:Core/Src/lcd.c **** 
 2987              		.loc 1 51 5 view .LVU920
  53:Core/Src/lcd.c ****     tempReg &= 0xFFFFFF00;
 2988              		.loc 1 53 5 view .LVU921
ARM GAS  C:\Users\Vento\AppData\Local\Temp\ccDU9lzs.s 			page 79


  53:Core/Src/lcd.c ****     tempReg &= 0xFFFFFF00;
 2989              		.loc 1 53 14 is_stmt 0 view .LVU922
 2990 04b6 E368     		ldr	r3, [r4, #12]
 2991              	.LVL325:
  54:Core/Src/lcd.c ****     tempReg |= (uint32_t)data;
 2992              		.loc 1 54 5 is_stmt 1 view .LVU923
  54:Core/Src/lcd.c ****     tempReg |= (uint32_t)data;
 2993              		.loc 1 54 13 is_stmt 0 view .LVU924
 2994 04b8 23F0FF03 		bic	r3, r3, #255
 2995              	.LVL326:
  55:Core/Src/lcd.c ****     DATA_PORT->ODR = tempReg;
 2996              		.loc 1 55 5 is_stmt 1 view .LVU925
  55:Core/Src/lcd.c ****     DATA_PORT->ODR = tempReg;
 2997              		.loc 1 55 13 is_stmt 0 view .LVU926
 2998 04bc 43F0F703 		orr	r3, r3, #247
 2999              	.LVL327:
  56:Core/Src/lcd.c **** 
 3000              		.loc 1 56 5 is_stmt 1 view .LVU927
  56:Core/Src/lcd.c **** 
 3001              		.loc 1 56 20 is_stmt 0 view .LVU928
 3002 04c0 E360     		str	r3, [r4, #12]
  67:Core/Src/lcd.c ****     HAL_GPIO_WritePin(ILI9341_WR_GPIO_Port, ILI9341_WR_Pin, GPIO_PIN_SET);
 3003              		.loc 1 67 5 is_stmt 1 view .LVU929
 3004 04c2 0022     		movs	r2, #0
 3005 04c4 4FF48061 		mov	r1, #1024
 3006 04c8 2046     		mov	r0, r4
 3007 04ca FFF7FEFF 		bl	HAL_GPIO_WritePin
 3008              	.LVL328:
  68:Core/Src/lcd.c **** }
 3009              		.loc 1 68 5 view .LVU930
 3010 04ce 0122     		movs	r2, #1
 3011 04d0 4FF48061 		mov	r1, #1024
 3012 04d4 2046     		mov	r0, r4
 3013 04d6 FFF7FEFF 		bl	HAL_GPIO_WritePin
 3014              	.LVL329:
  68:Core/Src/lcd.c **** }
 3015              		.loc 1 68 5 is_stmt 0 view .LVU931
 3016              	.LBE541:
 3017              	.LBE540:
 3018              	.LBE539:
 3019              	.LBE538:
 169:Core/Src/lcd.c **** 
 3020              		.loc 1 169 5 is_stmt 1 view .LVU932
 3021              	.LBB542:
 3022              	.LBI542:
  79:Core/Src/lcd.c **** {
 3023              		.loc 1 79 20 view .LVU933
 3024              	.LBB543:
  82:Core/Src/lcd.c ****     ILI9341_SetData(data);
 3025              		.loc 1 82 5 view .LVU934
 3026 04da 0122     		movs	r2, #1
 3027 04dc 4FF48071 		mov	r1, #256
 3028 04e0 2046     		mov	r0, r4
 3029 04e2 FFF7FEFF 		bl	HAL_GPIO_WritePin
 3030              	.LVL330:
  83:Core/Src/lcd.c ****     // ILI9341_Unselect();
 3031              		.loc 1 83 5 view .LVU935
ARM GAS  C:\Users\Vento\AppData\Local\Temp\ccDU9lzs.s 			page 80


 3032              	.LBB544:
 3033              	.LBI544:
  46:Core/Src/lcd.c **** {
 3034              		.loc 1 46 20 view .LVU936
 3035              	.LBB545:
  48:Core/Src/lcd.c ****     uint8_t temp_Bit3rd_Data = data & 0x04;
 3036              		.loc 1 48 5 view .LVU937
  49:Core/Src/lcd.c ****     data &= ~0x06;
 3037              		.loc 1 49 5 view .LVU938
  50:Core/Src/lcd.c ****     data |= (uint8_t)((temp_Bit2nd_Data << 1) | (temp_Bit3rd_Data >> 1));
 3038              		.loc 1 50 5 view .LVU939
  51:Core/Src/lcd.c **** 
 3039              		.loc 1 51 5 view .LVU940
  53:Core/Src/lcd.c ****     tempReg &= 0xFFFFFF00;
 3040              		.loc 1 53 5 view .LVU941
  53:Core/Src/lcd.c ****     tempReg &= 0xFFFFFF00;
 3041              		.loc 1 53 14 is_stmt 0 view .LVU942
 3042 04e6 E368     		ldr	r3, [r4, #12]
 3043              	.LVL331:
  54:Core/Src/lcd.c ****     tempReg |= (uint32_t)data;
 3044              		.loc 1 54 5 is_stmt 1 view .LVU943
  54:Core/Src/lcd.c ****     tempReg |= (uint32_t)data;
 3045              		.loc 1 54 13 is_stmt 0 view .LVU944
 3046 04e8 23F0FF03 		bic	r3, r3, #255
 3047              	.LVL332:
  55:Core/Src/lcd.c ****     DATA_PORT->ODR = tempReg;
 3048              		.loc 1 55 5 is_stmt 1 view .LVU945
  55:Core/Src/lcd.c ****     DATA_PORT->ODR = tempReg;
 3049              		.loc 1 55 13 is_stmt 0 view .LVU946
 3050 04ec 43F02003 		orr	r3, r3, #32
 3051              	.LVL333:
  56:Core/Src/lcd.c **** 
 3052              		.loc 1 56 5 is_stmt 1 view .LVU947
  56:Core/Src/lcd.c **** 
 3053              		.loc 1 56 20 is_stmt 0 view .LVU948
 3054 04f0 E360     		str	r3, [r4, #12]
  67:Core/Src/lcd.c ****     HAL_GPIO_WritePin(ILI9341_WR_GPIO_Port, ILI9341_WR_Pin, GPIO_PIN_SET);
 3055              		.loc 1 67 5 is_stmt 1 view .LVU949
 3056 04f2 0022     		movs	r2, #0
 3057 04f4 4FF48061 		mov	r1, #1024
 3058 04f8 2046     		mov	r0, r4
 3059 04fa FFF7FEFF 		bl	HAL_GPIO_WritePin
 3060              	.LVL334:
  68:Core/Src/lcd.c **** }
 3061              		.loc 1 68 5 view .LVU950
 3062 04fe 0122     		movs	r2, #1
 3063 0500 4FF48061 		mov	r1, #1024
 3064 0504 2046     		mov	r0, r4
 3065 0506 FFF7FEFF 		bl	HAL_GPIO_WritePin
 3066              	.LVL335:
  68:Core/Src/lcd.c **** }
 3067              		.loc 1 68 5 is_stmt 0 view .LVU951
 3068              	.LBE545:
 3069              	.LBE544:
 3070              	.LBE543:
 3071              	.LBE542:
 172:Core/Src/lcd.c ****     ILI9341_Write_Data(0x23);
ARM GAS  C:\Users\Vento\AppData\Local\Temp\ccDU9lzs.s 			page 81


 3072              		.loc 1 172 5 is_stmt 1 view .LVU952
 3073              	.LBB546:
 3074              	.LBI546:
  71:Core/Src/lcd.c **** {
 3075              		.loc 1 71 20 view .LVU953
 3076              	.LBB547:
  74:Core/Src/lcd.c ****     ILI9341_SetData(cmd);
 3077              		.loc 1 74 5 view .LVU954
 3078 050a 0022     		movs	r2, #0
 3079 050c 4FF48071 		mov	r1, #256
 3080 0510 2046     		mov	r0, r4
 3081 0512 FFF7FEFF 		bl	HAL_GPIO_WritePin
 3082              	.LVL336:
  75:Core/Src/lcd.c ****     // ILI9341_Unselect();
 3083              		.loc 1 75 5 view .LVU955
 3084              	.LBB548:
 3085              	.LBI548:
  46:Core/Src/lcd.c **** {
 3086              		.loc 1 46 20 view .LVU956
 3087              	.LBB549:
  48:Core/Src/lcd.c ****     uint8_t temp_Bit3rd_Data = data & 0x04;
 3088              		.loc 1 48 5 view .LVU957
  49:Core/Src/lcd.c ****     data &= ~0x06;
 3089              		.loc 1 49 5 view .LVU958
  50:Core/Src/lcd.c ****     data |= (uint8_t)((temp_Bit2nd_Data << 1) | (temp_Bit3rd_Data >> 1));
 3090              		.loc 1 50 5 view .LVU959
  51:Core/Src/lcd.c **** 
 3091              		.loc 1 51 5 view .LVU960
  53:Core/Src/lcd.c ****     tempReg &= 0xFFFFFF00;
 3092              		.loc 1 53 5 view .LVU961
  53:Core/Src/lcd.c ****     tempReg &= 0xFFFFFF00;
 3093              		.loc 1 53 14 is_stmt 0 view .LVU962
 3094 0516 E368     		ldr	r3, [r4, #12]
 3095              	.LVL337:
  54:Core/Src/lcd.c ****     tempReg |= (uint32_t)data;
 3096              		.loc 1 54 5 is_stmt 1 view .LVU963
  54:Core/Src/lcd.c ****     tempReg |= (uint32_t)data;
 3097              		.loc 1 54 13 is_stmt 0 view .LVU964
 3098 0518 23F0FF03 		bic	r3, r3, #255
 3099              	.LVL338:
  55:Core/Src/lcd.c ****     DATA_PORT->ODR = tempReg;
 3100              		.loc 1 55 5 is_stmt 1 view .LVU965
  55:Core/Src/lcd.c ****     DATA_PORT->ODR = tempReg;
 3101              		.loc 1 55 13 is_stmt 0 view .LVU966
 3102 051c 43F0C003 		orr	r3, r3, #192
 3103              	.LVL339:
  56:Core/Src/lcd.c **** 
 3104              		.loc 1 56 5 is_stmt 1 view .LVU967
  56:Core/Src/lcd.c **** 
 3105              		.loc 1 56 20 is_stmt 0 view .LVU968
 3106 0520 E360     		str	r3, [r4, #12]
  67:Core/Src/lcd.c ****     HAL_GPIO_WritePin(ILI9341_WR_GPIO_Port, ILI9341_WR_Pin, GPIO_PIN_SET);
 3107              		.loc 1 67 5 is_stmt 1 view .LVU969
 3108 0522 0022     		movs	r2, #0
 3109 0524 4FF48061 		mov	r1, #1024
 3110 0528 2046     		mov	r0, r4
 3111 052a FFF7FEFF 		bl	HAL_GPIO_WritePin
ARM GAS  C:\Users\Vento\AppData\Local\Temp\ccDU9lzs.s 			page 82


 3112              	.LVL340:
  68:Core/Src/lcd.c **** }
 3113              		.loc 1 68 5 view .LVU970
 3114 052e 0122     		movs	r2, #1
 3115 0530 4FF48061 		mov	r1, #1024
 3116 0534 2046     		mov	r0, r4
 3117 0536 FFF7FEFF 		bl	HAL_GPIO_WritePin
 3118              	.LVL341:
  68:Core/Src/lcd.c **** }
 3119              		.loc 1 68 5 is_stmt 0 view .LVU971
 3120              	.LBE549:
 3121              	.LBE548:
 3122              	.LBE547:
 3123              	.LBE546:
 173:Core/Src/lcd.c **** 
 3124              		.loc 1 173 5 is_stmt 1 view .LVU972
 3125              	.LBB550:
 3126              	.LBI550:
  79:Core/Src/lcd.c **** {
 3127              		.loc 1 79 20 view .LVU973
 3128              	.LBB551:
  82:Core/Src/lcd.c ****     ILI9341_SetData(data);
 3129              		.loc 1 82 5 view .LVU974
 3130 053a 0122     		movs	r2, #1
 3131 053c 4FF48071 		mov	r1, #256
 3132 0540 2046     		mov	r0, r4
 3133 0542 FFF7FEFF 		bl	HAL_GPIO_WritePin
 3134              	.LVL342:
  83:Core/Src/lcd.c ****     // ILI9341_Unselect();
 3135              		.loc 1 83 5 view .LVU975
 3136              	.LBB552:
 3137              	.LBI552:
  46:Core/Src/lcd.c **** {
 3138              		.loc 1 46 20 view .LVU976
 3139              	.LBB553:
  48:Core/Src/lcd.c ****     uint8_t temp_Bit3rd_Data = data & 0x04;
 3140              		.loc 1 48 5 view .LVU977
  49:Core/Src/lcd.c ****     data &= ~0x06;
 3141              		.loc 1 49 5 view .LVU978
  50:Core/Src/lcd.c ****     data |= (uint8_t)((temp_Bit2nd_Data << 1) | (temp_Bit3rd_Data >> 1));
 3142              		.loc 1 50 5 view .LVU979
  51:Core/Src/lcd.c **** 
 3143              		.loc 1 51 5 view .LVU980
  53:Core/Src/lcd.c ****     tempReg &= 0xFFFFFF00;
 3144              		.loc 1 53 5 view .LVU981
  53:Core/Src/lcd.c ****     tempReg &= 0xFFFFFF00;
 3145              		.loc 1 53 14 is_stmt 0 view .LVU982
 3146 0546 E368     		ldr	r3, [r4, #12]
 3147              	.LVL343:
  54:Core/Src/lcd.c ****     tempReg |= (uint32_t)data;
 3148              		.loc 1 54 5 is_stmt 1 view .LVU983
  54:Core/Src/lcd.c ****     tempReg |= (uint32_t)data;
 3149              		.loc 1 54 13 is_stmt 0 view .LVU984
 3150 0548 23F0FF03 		bic	r3, r3, #255
 3151              	.LVL344:
  55:Core/Src/lcd.c ****     DATA_PORT->ODR = tempReg;
 3152              		.loc 1 55 5 is_stmt 1 view .LVU985
ARM GAS  C:\Users\Vento\AppData\Local\Temp\ccDU9lzs.s 			page 83


  55:Core/Src/lcd.c ****     DATA_PORT->ODR = tempReg;
 3153              		.loc 1 55 13 is_stmt 0 view .LVU986
 3154 054c 43F02503 		orr	r3, r3, #37
 3155              	.LVL345:
  56:Core/Src/lcd.c **** 
 3156              		.loc 1 56 5 is_stmt 1 view .LVU987
  56:Core/Src/lcd.c **** 
 3157              		.loc 1 56 20 is_stmt 0 view .LVU988
 3158 0550 E360     		str	r3, [r4, #12]
  67:Core/Src/lcd.c ****     HAL_GPIO_WritePin(ILI9341_WR_GPIO_Port, ILI9341_WR_Pin, GPIO_PIN_SET);
 3159              		.loc 1 67 5 is_stmt 1 view .LVU989
 3160 0552 0022     		movs	r2, #0
 3161 0554 4FF48061 		mov	r1, #1024
 3162 0558 2046     		mov	r0, r4
 3163 055a FFF7FEFF 		bl	HAL_GPIO_WritePin
 3164              	.LVL346:
  68:Core/Src/lcd.c **** }
 3165              		.loc 1 68 5 view .LVU990
 3166 055e 0122     		movs	r2, #1
 3167 0560 4FF48061 		mov	r1, #1024
 3168 0564 2046     		mov	r0, r4
 3169 0566 FFF7FEFF 		bl	HAL_GPIO_WritePin
 3170              	.LVL347:
  68:Core/Src/lcd.c **** }
 3171              		.loc 1 68 5 is_stmt 0 view .LVU991
 3172              	.LBE553:
 3173              	.LBE552:
 3174              	.LBE551:
 3175              	.LBE550:
 176:Core/Src/lcd.c ****     ILI9341_Write_Data(0x10);
 3176              		.loc 1 176 5 is_stmt 1 view .LVU992
 3177              	.LBB554:
 3178              	.LBI554:
  71:Core/Src/lcd.c **** {
 3179              		.loc 1 71 20 view .LVU993
 3180              	.LBB555:
  74:Core/Src/lcd.c ****     ILI9341_SetData(cmd);
 3181              		.loc 1 74 5 view .LVU994
 3182 056a 0022     		movs	r2, #0
 3183 056c 4FF48071 		mov	r1, #256
 3184 0570 2046     		mov	r0, r4
 3185 0572 FFF7FEFF 		bl	HAL_GPIO_WritePin
 3186              	.LVL348:
  75:Core/Src/lcd.c ****     // ILI9341_Unselect();
 3187              		.loc 1 75 5 view .LVU995
 3188              	.LBB556:
 3189              	.LBI556:
  46:Core/Src/lcd.c **** {
 3190              		.loc 1 46 20 view .LVU996
 3191              	.LBB557:
  48:Core/Src/lcd.c ****     uint8_t temp_Bit3rd_Data = data & 0x04;
 3192              		.loc 1 48 5 view .LVU997
  49:Core/Src/lcd.c ****     data &= ~0x06;
 3193              		.loc 1 49 5 view .LVU998
  50:Core/Src/lcd.c ****     data |= (uint8_t)((temp_Bit2nd_Data << 1) | (temp_Bit3rd_Data >> 1));
 3194              		.loc 1 50 5 view .LVU999
  51:Core/Src/lcd.c **** 
ARM GAS  C:\Users\Vento\AppData\Local\Temp\ccDU9lzs.s 			page 84


 3195              		.loc 1 51 5 view .LVU1000
  53:Core/Src/lcd.c ****     tempReg &= 0xFFFFFF00;
 3196              		.loc 1 53 5 view .LVU1001
  53:Core/Src/lcd.c ****     tempReg &= 0xFFFFFF00;
 3197              		.loc 1 53 14 is_stmt 0 view .LVU1002
 3198 0576 E368     		ldr	r3, [r4, #12]
 3199              	.LVL349:
  54:Core/Src/lcd.c ****     tempReg |= (uint32_t)data;
 3200              		.loc 1 54 5 is_stmt 1 view .LVU1003
  54:Core/Src/lcd.c ****     tempReg |= (uint32_t)data;
 3201              		.loc 1 54 13 is_stmt 0 view .LVU1004
 3202 0578 23F0FF03 		bic	r3, r3, #255
 3203              	.LVL350:
  55:Core/Src/lcd.c ****     DATA_PORT->ODR = tempReg;
 3204              		.loc 1 55 5 is_stmt 1 view .LVU1005
  55:Core/Src/lcd.c ****     DATA_PORT->ODR = tempReg;
 3205              		.loc 1 55 13 is_stmt 0 view .LVU1006
 3206 057c 43F0C103 		orr	r3, r3, #193
 3207              	.LVL351:
  56:Core/Src/lcd.c **** 
 3208              		.loc 1 56 5 is_stmt 1 view .LVU1007
  56:Core/Src/lcd.c **** 
 3209              		.loc 1 56 20 is_stmt 0 view .LVU1008
 3210 0580 E360     		str	r3, [r4, #12]
  67:Core/Src/lcd.c ****     HAL_GPIO_WritePin(ILI9341_WR_GPIO_Port, ILI9341_WR_Pin, GPIO_PIN_SET);
 3211              		.loc 1 67 5 is_stmt 1 view .LVU1009
 3212 0582 0022     		movs	r2, #0
 3213 0584 4FF48061 		mov	r1, #1024
 3214 0588 2046     		mov	r0, r4
 3215 058a FFF7FEFF 		bl	HAL_GPIO_WritePin
 3216              	.LVL352:
  68:Core/Src/lcd.c **** }
 3217              		.loc 1 68 5 view .LVU1010
 3218 058e 0122     		movs	r2, #1
 3219 0590 4FF48061 		mov	r1, #1024
 3220 0594 2046     		mov	r0, r4
 3221 0596 FFF7FEFF 		bl	HAL_GPIO_WritePin
 3222              	.LVL353:
  68:Core/Src/lcd.c **** }
 3223              		.loc 1 68 5 is_stmt 0 view .LVU1011
 3224              	.LBE557:
 3225              	.LBE556:
 3226              	.LBE555:
 3227              	.LBE554:
 177:Core/Src/lcd.c **** 
 3228              		.loc 1 177 5 is_stmt 1 view .LVU1012
 3229              	.LBB558:
 3230              	.LBI558:
  79:Core/Src/lcd.c **** {
 3231              		.loc 1 79 20 view .LVU1013
 3232              	.LBB559:
  82:Core/Src/lcd.c ****     ILI9341_SetData(data);
 3233              		.loc 1 82 5 view .LVU1014
 3234 059a 0122     		movs	r2, #1
 3235 059c 4FF48071 		mov	r1, #256
 3236 05a0 2046     		mov	r0, r4
 3237 05a2 FFF7FEFF 		bl	HAL_GPIO_WritePin
ARM GAS  C:\Users\Vento\AppData\Local\Temp\ccDU9lzs.s 			page 85


 3238              	.LVL354:
  83:Core/Src/lcd.c ****     // ILI9341_Unselect();
 3239              		.loc 1 83 5 view .LVU1015
 3240              	.LBB560:
 3241              	.LBI560:
  46:Core/Src/lcd.c **** {
 3242              		.loc 1 46 20 view .LVU1016
 3243              	.LBB561:
  48:Core/Src/lcd.c ****     uint8_t temp_Bit3rd_Data = data & 0x04;
 3244              		.loc 1 48 5 view .LVU1017
  49:Core/Src/lcd.c ****     data &= ~0x06;
 3245              		.loc 1 49 5 view .LVU1018
  50:Core/Src/lcd.c ****     data |= (uint8_t)((temp_Bit2nd_Data << 1) | (temp_Bit3rd_Data >> 1));
 3246              		.loc 1 50 5 view .LVU1019
  51:Core/Src/lcd.c **** 
 3247              		.loc 1 51 5 view .LVU1020
  53:Core/Src/lcd.c ****     tempReg &= 0xFFFFFF00;
 3248              		.loc 1 53 5 view .LVU1021
  53:Core/Src/lcd.c ****     tempReg &= 0xFFFFFF00;
 3249              		.loc 1 53 14 is_stmt 0 view .LVU1022
 3250 05a6 E368     		ldr	r3, [r4, #12]
 3251              	.LVL355:
  54:Core/Src/lcd.c ****     tempReg |= (uint32_t)data;
 3252              		.loc 1 54 5 is_stmt 1 view .LVU1023
  54:Core/Src/lcd.c ****     tempReg |= (uint32_t)data;
 3253              		.loc 1 54 13 is_stmt 0 view .LVU1024
 3254 05a8 23F0FF03 		bic	r3, r3, #255
 3255              	.LVL356:
  55:Core/Src/lcd.c ****     DATA_PORT->ODR = tempReg;
 3256              		.loc 1 55 5 is_stmt 1 view .LVU1025
  55:Core/Src/lcd.c ****     DATA_PORT->ODR = tempReg;
 3257              		.loc 1 55 13 is_stmt 0 view .LVU1026
 3258 05ac 43F01003 		orr	r3, r3, #16
 3259              	.LVL357:
  56:Core/Src/lcd.c **** 
 3260              		.loc 1 56 5 is_stmt 1 view .LVU1027
  56:Core/Src/lcd.c **** 
 3261              		.loc 1 56 20 is_stmt 0 view .LVU1028
 3262 05b0 E360     		str	r3, [r4, #12]
  67:Core/Src/lcd.c ****     HAL_GPIO_WritePin(ILI9341_WR_GPIO_Port, ILI9341_WR_Pin, GPIO_PIN_SET);
 3263              		.loc 1 67 5 is_stmt 1 view .LVU1029
 3264 05b2 0022     		movs	r2, #0
 3265 05b4 4FF48061 		mov	r1, #1024
 3266 05b8 2046     		mov	r0, r4
 3267 05ba FFF7FEFF 		bl	HAL_GPIO_WritePin
 3268              	.LVL358:
  68:Core/Src/lcd.c **** }
 3269              		.loc 1 68 5 view .LVU1030
 3270 05be 0122     		movs	r2, #1
 3271 05c0 4FF48061 		mov	r1, #1024
 3272 05c4 2046     		mov	r0, r4
 3273 05c6 FFF7FEFF 		bl	HAL_GPIO_WritePin
 3274              	.LVL359:
  68:Core/Src/lcd.c **** }
 3275              		.loc 1 68 5 is_stmt 0 view .LVU1031
 3276              	.LBE561:
 3277              	.LBE560:
ARM GAS  C:\Users\Vento\AppData\Local\Temp\ccDU9lzs.s 			page 86


 3278              	.LBE559:
 3279              	.LBE558:
 180:Core/Src/lcd.c ****     ILI9341_Write_Data(0x3E);
 3280              		.loc 1 180 5 is_stmt 1 view .LVU1032
 3281              	.LBB562:
 3282              	.LBI562:
  71:Core/Src/lcd.c **** {
 3283              		.loc 1 71 20 view .LVU1033
 3284              	.LBB563:
  74:Core/Src/lcd.c ****     ILI9341_SetData(cmd);
 3285              		.loc 1 74 5 view .LVU1034
 3286 05ca 0022     		movs	r2, #0
 3287 05cc 4FF48071 		mov	r1, #256
 3288 05d0 2046     		mov	r0, r4
 3289 05d2 FFF7FEFF 		bl	HAL_GPIO_WritePin
 3290              	.LVL360:
  75:Core/Src/lcd.c ****     // ILI9341_Unselect();
 3291              		.loc 1 75 5 view .LVU1035
 3292              	.LBB564:
 3293              	.LBI564:
  46:Core/Src/lcd.c **** {
 3294              		.loc 1 46 20 view .LVU1036
 3295              	.LBB565:
  48:Core/Src/lcd.c ****     uint8_t temp_Bit3rd_Data = data & 0x04;
 3296              		.loc 1 48 5 view .LVU1037
  49:Core/Src/lcd.c ****     data &= ~0x06;
 3297              		.loc 1 49 5 view .LVU1038
  50:Core/Src/lcd.c ****     data |= (uint8_t)((temp_Bit2nd_Data << 1) | (temp_Bit3rd_Data >> 1));
 3298              		.loc 1 50 5 view .LVU1039
  51:Core/Src/lcd.c **** 
 3299              		.loc 1 51 5 view .LVU1040
  53:Core/Src/lcd.c ****     tempReg &= 0xFFFFFF00;
 3300              		.loc 1 53 5 view .LVU1041
  53:Core/Src/lcd.c ****     tempReg &= 0xFFFFFF00;
 3301              		.loc 1 53 14 is_stmt 0 view .LVU1042
 3302 05d6 E368     		ldr	r3, [r4, #12]
 3303              	.LVL361:
  54:Core/Src/lcd.c ****     tempReg |= (uint32_t)data;
 3304              		.loc 1 54 5 is_stmt 1 view .LVU1043
  54:Core/Src/lcd.c ****     tempReg |= (uint32_t)data;
 3305              		.loc 1 54 13 is_stmt 0 view .LVU1044
 3306 05d8 23F0FF03 		bic	r3, r3, #255
 3307              	.LVL362:
  55:Core/Src/lcd.c ****     DATA_PORT->ODR = tempReg;
 3308              		.loc 1 55 5 is_stmt 1 view .LVU1045
  55:Core/Src/lcd.c ****     DATA_PORT->ODR = tempReg;
 3309              		.loc 1 55 13 is_stmt 0 view .LVU1046
 3310 05dc 43F0C303 		orr	r3, r3, #195
 3311              	.LVL363:
  56:Core/Src/lcd.c **** 
 3312              		.loc 1 56 5 is_stmt 1 view .LVU1047
  56:Core/Src/lcd.c **** 
 3313              		.loc 1 56 20 is_stmt 0 view .LVU1048
 3314 05e0 E360     		str	r3, [r4, #12]
  67:Core/Src/lcd.c ****     HAL_GPIO_WritePin(ILI9341_WR_GPIO_Port, ILI9341_WR_Pin, GPIO_PIN_SET);
 3315              		.loc 1 67 5 is_stmt 1 view .LVU1049
 3316 05e2 0022     		movs	r2, #0
ARM GAS  C:\Users\Vento\AppData\Local\Temp\ccDU9lzs.s 			page 87


 3317 05e4 4FF48061 		mov	r1, #1024
 3318 05e8 2046     		mov	r0, r4
 3319 05ea FFF7FEFF 		bl	HAL_GPIO_WritePin
 3320              	.LVL364:
  68:Core/Src/lcd.c **** }
 3321              		.loc 1 68 5 view .LVU1050
 3322 05ee 0122     		movs	r2, #1
 3323 05f0 4FF48061 		mov	r1, #1024
 3324 05f4 2046     		mov	r0, r4
 3325 05f6 FFF7FEFF 		bl	HAL_GPIO_WritePin
 3326              	.LVL365:
  68:Core/Src/lcd.c **** }
 3327              		.loc 1 68 5 is_stmt 0 view .LVU1051
 3328              	.LBE565:
 3329              	.LBE564:
 3330              	.LBE563:
 3331              	.LBE562:
 181:Core/Src/lcd.c ****     ILI9341_Write_Data(0x28);
 3332              		.loc 1 181 5 is_stmt 1 view .LVU1052
 3333              	.LBB566:
 3334              	.LBI566:
  79:Core/Src/lcd.c **** {
 3335              		.loc 1 79 20 view .LVU1053
 3336              	.LBB567:
  82:Core/Src/lcd.c ****     ILI9341_SetData(data);
 3337              		.loc 1 82 5 view .LVU1054
 3338 05fa 0122     		movs	r2, #1
 3339 05fc 4FF48071 		mov	r1, #256
 3340 0600 2046     		mov	r0, r4
 3341 0602 FFF7FEFF 		bl	HAL_GPIO_WritePin
 3342              	.LVL366:
  83:Core/Src/lcd.c ****     // ILI9341_Unselect();
 3343              		.loc 1 83 5 view .LVU1055
 3344              	.LBB568:
 3345              	.LBI568:
  46:Core/Src/lcd.c **** {
 3346              		.loc 1 46 20 view .LVU1056
 3347              	.LBB569:
  48:Core/Src/lcd.c ****     uint8_t temp_Bit3rd_Data = data & 0x04;
 3348              		.loc 1 48 5 view .LVU1057
  49:Core/Src/lcd.c ****     data &= ~0x06;
 3349              		.loc 1 49 5 view .LVU1058
  50:Core/Src/lcd.c ****     data |= (uint8_t)((temp_Bit2nd_Data << 1) | (temp_Bit3rd_Data >> 1));
 3350              		.loc 1 50 5 view .LVU1059
  51:Core/Src/lcd.c **** 
 3351              		.loc 1 51 5 view .LVU1060
  53:Core/Src/lcd.c ****     tempReg &= 0xFFFFFF00;
 3352              		.loc 1 53 5 view .LVU1061
  53:Core/Src/lcd.c ****     tempReg &= 0xFFFFFF00;
 3353              		.loc 1 53 14 is_stmt 0 view .LVU1062
 3354 0606 E368     		ldr	r3, [r4, #12]
 3355              	.LVL367:
  54:Core/Src/lcd.c ****     tempReg |= (uint32_t)data;
 3356              		.loc 1 54 5 is_stmt 1 view .LVU1063
  54:Core/Src/lcd.c ****     tempReg |= (uint32_t)data;
 3357              		.loc 1 54 13 is_stmt 0 view .LVU1064
 3358 0608 23F0FF03 		bic	r3, r3, #255
ARM GAS  C:\Users\Vento\AppData\Local\Temp\ccDU9lzs.s 			page 88


 3359              	.LVL368:
  55:Core/Src/lcd.c ****     DATA_PORT->ODR = tempReg;
 3360              		.loc 1 55 5 is_stmt 1 view .LVU1065
  55:Core/Src/lcd.c ****     DATA_PORT->ODR = tempReg;
 3361              		.loc 1 55 13 is_stmt 0 view .LVU1066
 3362 060c 43F03E03 		orr	r3, r3, #62
 3363              	.LVL369:
  56:Core/Src/lcd.c **** 
 3364              		.loc 1 56 5 is_stmt 1 view .LVU1067
  56:Core/Src/lcd.c **** 
 3365              		.loc 1 56 20 is_stmt 0 view .LVU1068
 3366 0610 E360     		str	r3, [r4, #12]
  67:Core/Src/lcd.c ****     HAL_GPIO_WritePin(ILI9341_WR_GPIO_Port, ILI9341_WR_Pin, GPIO_PIN_SET);
 3367              		.loc 1 67 5 is_stmt 1 view .LVU1069
 3368 0612 0022     		movs	r2, #0
 3369 0614 4FF48061 		mov	r1, #1024
 3370 0618 2046     		mov	r0, r4
 3371 061a FFF7FEFF 		bl	HAL_GPIO_WritePin
 3372              	.LVL370:
  68:Core/Src/lcd.c **** }
 3373              		.loc 1 68 5 view .LVU1070
 3374 061e 0122     		movs	r2, #1
 3375 0620 4FF48061 		mov	r1, #1024
 3376 0624 2046     		mov	r0, r4
 3377 0626 FFF7FEFF 		bl	HAL_GPIO_WritePin
 3378              	.LVL371:
  68:Core/Src/lcd.c **** }
 3379              		.loc 1 68 5 is_stmt 0 view .LVU1071
 3380              	.LBE569:
 3381              	.LBE568:
 3382              	.LBE567:
 3383              	.LBE566:
 182:Core/Src/lcd.c **** 
 3384              		.loc 1 182 5 is_stmt 1 view .LVU1072
 3385              	.LBB570:
 3386              	.LBI570:
  79:Core/Src/lcd.c **** {
 3387              		.loc 1 79 20 view .LVU1073
 3388              	.LBB571:
  82:Core/Src/lcd.c ****     ILI9341_SetData(data);
 3389              		.loc 1 82 5 view .LVU1074
 3390 062a 0122     		movs	r2, #1
 3391 062c 4FF48071 		mov	r1, #256
 3392 0630 2046     		mov	r0, r4
 3393 0632 FFF7FEFF 		bl	HAL_GPIO_WritePin
 3394              	.LVL372:
  83:Core/Src/lcd.c ****     // ILI9341_Unselect();
 3395              		.loc 1 83 5 view .LVU1075
 3396              	.LBB572:
 3397              	.LBI572:
  46:Core/Src/lcd.c **** {
 3398              		.loc 1 46 20 view .LVU1076
 3399              	.LBB573:
  48:Core/Src/lcd.c ****     uint8_t temp_Bit3rd_Data = data & 0x04;
 3400              		.loc 1 48 5 view .LVU1077
  49:Core/Src/lcd.c ****     data &= ~0x06;
 3401              		.loc 1 49 5 view .LVU1078
ARM GAS  C:\Users\Vento\AppData\Local\Temp\ccDU9lzs.s 			page 89


  50:Core/Src/lcd.c ****     data |= (uint8_t)((temp_Bit2nd_Data << 1) | (temp_Bit3rd_Data >> 1));
 3402              		.loc 1 50 5 view .LVU1079
  51:Core/Src/lcd.c **** 
 3403              		.loc 1 51 5 view .LVU1080
  53:Core/Src/lcd.c ****     tempReg &= 0xFFFFFF00;
 3404              		.loc 1 53 5 view .LVU1081
  53:Core/Src/lcd.c ****     tempReg &= 0xFFFFFF00;
 3405              		.loc 1 53 14 is_stmt 0 view .LVU1082
 3406 0636 E368     		ldr	r3, [r4, #12]
 3407              	.LVL373:
  54:Core/Src/lcd.c ****     tempReg |= (uint32_t)data;
 3408              		.loc 1 54 5 is_stmt 1 view .LVU1083
  54:Core/Src/lcd.c ****     tempReg |= (uint32_t)data;
 3409              		.loc 1 54 13 is_stmt 0 view .LVU1084
 3410 0638 23F0FF03 		bic	r3, r3, #255
 3411              	.LVL374:
  55:Core/Src/lcd.c ****     DATA_PORT->ODR = tempReg;
 3412              		.loc 1 55 5 is_stmt 1 view .LVU1085
  55:Core/Src/lcd.c ****     DATA_PORT->ODR = tempReg;
 3413              		.loc 1 55 13 is_stmt 0 view .LVU1086
 3414 063c 43F02803 		orr	r3, r3, #40
 3415              	.LVL375:
  56:Core/Src/lcd.c **** 
 3416              		.loc 1 56 5 is_stmt 1 view .LVU1087
  56:Core/Src/lcd.c **** 
 3417              		.loc 1 56 20 is_stmt 0 view .LVU1088
 3418 0640 E360     		str	r3, [r4, #12]
  67:Core/Src/lcd.c ****     HAL_GPIO_WritePin(ILI9341_WR_GPIO_Port, ILI9341_WR_Pin, GPIO_PIN_SET);
 3419              		.loc 1 67 5 is_stmt 1 view .LVU1089
 3420 0642 0022     		movs	r2, #0
 3421 0644 4FF48061 		mov	r1, #1024
 3422 0648 2046     		mov	r0, r4
 3423 064a FFF7FEFF 		bl	HAL_GPIO_WritePin
 3424              	.LVL376:
  68:Core/Src/lcd.c **** }
 3425              		.loc 1 68 5 view .LVU1090
 3426 064e 0122     		movs	r2, #1
 3427 0650 4FF48061 		mov	r1, #1024
 3428 0654 2046     		mov	r0, r4
 3429 0656 FFF7FEFF 		bl	HAL_GPIO_WritePin
 3430              	.LVL377:
  68:Core/Src/lcd.c **** }
 3431              		.loc 1 68 5 is_stmt 0 view .LVU1091
 3432              	.LBE573:
 3433              	.LBE572:
 3434              	.LBE571:
 3435              	.LBE570:
 185:Core/Src/lcd.c ****     ILI9341_Write_Data(0x86);
 3436              		.loc 1 185 5 is_stmt 1 view .LVU1092
 3437              	.LBB574:
 3438              	.LBI574:
  71:Core/Src/lcd.c **** {
 3439              		.loc 1 71 20 view .LVU1093
 3440              	.LBB575:
  74:Core/Src/lcd.c ****     ILI9341_SetData(cmd);
 3441              		.loc 1 74 5 view .LVU1094
 3442 065a 0022     		movs	r2, #0
ARM GAS  C:\Users\Vento\AppData\Local\Temp\ccDU9lzs.s 			page 90


 3443 065c 4FF48071 		mov	r1, #256
 3444 0660 2046     		mov	r0, r4
 3445 0662 FFF7FEFF 		bl	HAL_GPIO_WritePin
 3446              	.LVL378:
  75:Core/Src/lcd.c ****     // ILI9341_Unselect();
 3447              		.loc 1 75 5 view .LVU1095
 3448              	.LBB576:
 3449              	.LBI576:
  46:Core/Src/lcd.c **** {
 3450              		.loc 1 46 20 view .LVU1096
 3451              	.LBB577:
  48:Core/Src/lcd.c ****     uint8_t temp_Bit3rd_Data = data & 0x04;
 3452              		.loc 1 48 5 view .LVU1097
  49:Core/Src/lcd.c ****     data &= ~0x06;
 3453              		.loc 1 49 5 view .LVU1098
  50:Core/Src/lcd.c ****     data |= (uint8_t)((temp_Bit2nd_Data << 1) | (temp_Bit3rd_Data >> 1));
 3454              		.loc 1 50 5 view .LVU1099
  51:Core/Src/lcd.c **** 
 3455              		.loc 1 51 5 view .LVU1100
  53:Core/Src/lcd.c ****     tempReg &= 0xFFFFFF00;
 3456              		.loc 1 53 5 view .LVU1101
  53:Core/Src/lcd.c ****     tempReg &= 0xFFFFFF00;
 3457              		.loc 1 53 14 is_stmt 0 view .LVU1102
 3458 0666 E368     		ldr	r3, [r4, #12]
 3459              	.LVL379:
  54:Core/Src/lcd.c ****     tempReg |= (uint32_t)data;
 3460              		.loc 1 54 5 is_stmt 1 view .LVU1103
  54:Core/Src/lcd.c ****     tempReg |= (uint32_t)data;
 3461              		.loc 1 54 13 is_stmt 0 view .LVU1104
 3462 0668 23F0FF03 		bic	r3, r3, #255
 3463              	.LVL380:
  55:Core/Src/lcd.c ****     DATA_PORT->ODR = tempReg;
 3464              		.loc 1 55 5 is_stmt 1 view .LVU1105
  55:Core/Src/lcd.c ****     DATA_PORT->ODR = tempReg;
 3465              		.loc 1 55 13 is_stmt 0 view .LVU1106
 3466 066c 43F0C703 		orr	r3, r3, #199
 3467              	.LVL381:
  56:Core/Src/lcd.c **** 
 3468              		.loc 1 56 5 is_stmt 1 view .LVU1107
  56:Core/Src/lcd.c **** 
 3469              		.loc 1 56 20 is_stmt 0 view .LVU1108
 3470 0670 E360     		str	r3, [r4, #12]
  67:Core/Src/lcd.c ****     HAL_GPIO_WritePin(ILI9341_WR_GPIO_Port, ILI9341_WR_Pin, GPIO_PIN_SET);
 3471              		.loc 1 67 5 is_stmt 1 view .LVU1109
 3472 0672 0022     		movs	r2, #0
 3473 0674 4FF48061 		mov	r1, #1024
 3474 0678 2046     		mov	r0, r4
 3475 067a FFF7FEFF 		bl	HAL_GPIO_WritePin
 3476              	.LVL382:
  68:Core/Src/lcd.c **** }
 3477              		.loc 1 68 5 view .LVU1110
 3478 067e 0122     		movs	r2, #1
 3479 0680 4FF48061 		mov	r1, #1024
 3480 0684 2046     		mov	r0, r4
 3481 0686 FFF7FEFF 		bl	HAL_GPIO_WritePin
 3482              	.LVL383:
  68:Core/Src/lcd.c **** }
ARM GAS  C:\Users\Vento\AppData\Local\Temp\ccDU9lzs.s 			page 91


 3483              		.loc 1 68 5 is_stmt 0 view .LVU1111
 3484              	.LBE577:
 3485              	.LBE576:
 3486              	.LBE575:
 3487              	.LBE574:
 186:Core/Src/lcd.c **** 
 3488              		.loc 1 186 5 is_stmt 1 view .LVU1112
 3489              	.LBB578:
 3490              	.LBI578:
  79:Core/Src/lcd.c **** {
 3491              		.loc 1 79 20 view .LVU1113
 3492              	.LBB579:
  82:Core/Src/lcd.c ****     ILI9341_SetData(data);
 3493              		.loc 1 82 5 view .LVU1114
 3494 068a 0122     		movs	r2, #1
 3495 068c 4FF48071 		mov	r1, #256
 3496 0690 2046     		mov	r0, r4
 3497 0692 FFF7FEFF 		bl	HAL_GPIO_WritePin
 3498              	.LVL384:
  83:Core/Src/lcd.c ****     // ILI9341_Unselect();
 3499              		.loc 1 83 5 view .LVU1115
 3500              	.LBB580:
 3501              	.LBI580:
  46:Core/Src/lcd.c **** {
 3502              		.loc 1 46 20 view .LVU1116
 3503              	.LBB581:
  48:Core/Src/lcd.c ****     uint8_t temp_Bit3rd_Data = data & 0x04;
 3504              		.loc 1 48 5 view .LVU1117
  49:Core/Src/lcd.c ****     data &= ~0x06;
 3505              		.loc 1 49 5 view .LVU1118
  50:Core/Src/lcd.c ****     data |= (uint8_t)((temp_Bit2nd_Data << 1) | (temp_Bit3rd_Data >> 1));
 3506              		.loc 1 50 5 view .LVU1119
  51:Core/Src/lcd.c **** 
 3507              		.loc 1 51 5 view .LVU1120
  53:Core/Src/lcd.c ****     tempReg &= 0xFFFFFF00;
 3508              		.loc 1 53 5 view .LVU1121
  53:Core/Src/lcd.c ****     tempReg &= 0xFFFFFF00;
 3509              		.loc 1 53 14 is_stmt 0 view .LVU1122
 3510 0696 E368     		ldr	r3, [r4, #12]
 3511              	.LVL385:
  54:Core/Src/lcd.c ****     tempReg |= (uint32_t)data;
 3512              		.loc 1 54 5 is_stmt 1 view .LVU1123
  54:Core/Src/lcd.c ****     tempReg |= (uint32_t)data;
 3513              		.loc 1 54 13 is_stmt 0 view .LVU1124
 3514 0698 23F0FF03 		bic	r3, r3, #255
 3515              	.LVL386:
  55:Core/Src/lcd.c ****     DATA_PORT->ODR = tempReg;
 3516              		.loc 1 55 5 is_stmt 1 view .LVU1125
  55:Core/Src/lcd.c ****     DATA_PORT->ODR = tempReg;
 3517              		.loc 1 55 13 is_stmt 0 view .LVU1126
 3518 069c 43F08603 		orr	r3, r3, #134
 3519              	.LVL387:
  56:Core/Src/lcd.c **** 
 3520              		.loc 1 56 5 is_stmt 1 view .LVU1127
  56:Core/Src/lcd.c **** 
 3521              		.loc 1 56 20 is_stmt 0 view .LVU1128
 3522 06a0 E360     		str	r3, [r4, #12]
ARM GAS  C:\Users\Vento\AppData\Local\Temp\ccDU9lzs.s 			page 92


  67:Core/Src/lcd.c ****     HAL_GPIO_WritePin(ILI9341_WR_GPIO_Port, ILI9341_WR_Pin, GPIO_PIN_SET);
 3523              		.loc 1 67 5 is_stmt 1 view .LVU1129
 3524 06a2 0022     		movs	r2, #0
 3525 06a4 4FF48061 		mov	r1, #1024
 3526 06a8 2046     		mov	r0, r4
 3527 06aa FFF7FEFF 		bl	HAL_GPIO_WritePin
 3528              	.LVL388:
  68:Core/Src/lcd.c **** }
 3529              		.loc 1 68 5 view .LVU1130
 3530 06ae 0122     		movs	r2, #1
 3531 06b0 4FF48061 		mov	r1, #1024
 3532 06b4 2046     		mov	r0, r4
 3533 06b6 FFF7FEFF 		bl	HAL_GPIO_WritePin
 3534              	.LVL389:
  68:Core/Src/lcd.c **** }
 3535              		.loc 1 68 5 is_stmt 0 view .LVU1131
 3536              	.LBE581:
 3537              	.LBE580:
 3538              	.LBE579:
 3539              	.LBE578:
 189:Core/Src/lcd.c ****     ILI9341_Write_Data(0x48);
 3540              		.loc 1 189 5 is_stmt 1 view .LVU1132
 3541              	.LBB582:
 3542              	.LBI582:
  71:Core/Src/lcd.c **** {
 3543              		.loc 1 71 20 view .LVU1133
 3544              	.LBB583:
  74:Core/Src/lcd.c ****     ILI9341_SetData(cmd);
 3545              		.loc 1 74 5 view .LVU1134
 3546 06ba 0022     		movs	r2, #0
 3547 06bc 4FF48071 		mov	r1, #256
 3548 06c0 2046     		mov	r0, r4
 3549 06c2 FFF7FEFF 		bl	HAL_GPIO_WritePin
 3550              	.LVL390:
  75:Core/Src/lcd.c ****     // ILI9341_Unselect();
 3551              		.loc 1 75 5 view .LVU1135
 3552              	.LBB584:
 3553              	.LBI584:
  46:Core/Src/lcd.c **** {
 3554              		.loc 1 46 20 view .LVU1136
 3555              	.LBB585:
  48:Core/Src/lcd.c ****     uint8_t temp_Bit3rd_Data = data & 0x04;
 3556              		.loc 1 48 5 view .LVU1137
  49:Core/Src/lcd.c ****     data &= ~0x06;
 3557              		.loc 1 49 5 view .LVU1138
  50:Core/Src/lcd.c ****     data |= (uint8_t)((temp_Bit2nd_Data << 1) | (temp_Bit3rd_Data >> 1));
 3558              		.loc 1 50 5 view .LVU1139
  51:Core/Src/lcd.c **** 
 3559              		.loc 1 51 5 view .LVU1140
  53:Core/Src/lcd.c ****     tempReg &= 0xFFFFFF00;
 3560              		.loc 1 53 5 view .LVU1141
  53:Core/Src/lcd.c ****     tempReg &= 0xFFFFFF00;
 3561              		.loc 1 53 14 is_stmt 0 view .LVU1142
 3562 06c6 E368     		ldr	r3, [r4, #12]
 3563              	.LVL391:
  54:Core/Src/lcd.c ****     tempReg |= (uint32_t)data;
 3564              		.loc 1 54 5 is_stmt 1 view .LVU1143
ARM GAS  C:\Users\Vento\AppData\Local\Temp\ccDU9lzs.s 			page 93


  54:Core/Src/lcd.c ****     tempReg |= (uint32_t)data;
 3565              		.loc 1 54 13 is_stmt 0 view .LVU1144
 3566 06c8 23F0FF03 		bic	r3, r3, #255
 3567              	.LVL392:
  55:Core/Src/lcd.c ****     DATA_PORT->ODR = tempReg;
 3568              		.loc 1 55 5 is_stmt 1 view .LVU1145
  55:Core/Src/lcd.c ****     DATA_PORT->ODR = tempReg;
 3569              		.loc 1 55 13 is_stmt 0 view .LVU1146
 3570 06cc 43F03603 		orr	r3, r3, #54
 3571              	.LVL393:
  56:Core/Src/lcd.c **** 
 3572              		.loc 1 56 5 is_stmt 1 view .LVU1147
  56:Core/Src/lcd.c **** 
 3573              		.loc 1 56 20 is_stmt 0 view .LVU1148
 3574 06d0 E360     		str	r3, [r4, #12]
  67:Core/Src/lcd.c ****     HAL_GPIO_WritePin(ILI9341_WR_GPIO_Port, ILI9341_WR_Pin, GPIO_PIN_SET);
 3575              		.loc 1 67 5 is_stmt 1 view .LVU1149
 3576 06d2 0022     		movs	r2, #0
 3577 06d4 4FF48061 		mov	r1, #1024
 3578 06d8 2046     		mov	r0, r4
 3579 06da FFF7FEFF 		bl	HAL_GPIO_WritePin
 3580              	.LVL394:
  68:Core/Src/lcd.c **** }
 3581              		.loc 1 68 5 view .LVU1150
 3582 06de 0122     		movs	r2, #1
 3583 06e0 4FF48061 		mov	r1, #1024
 3584 06e4 2046     		mov	r0, r4
 3585 06e6 FFF7FEFF 		bl	HAL_GPIO_WritePin
 3586              	.LVL395:
  68:Core/Src/lcd.c **** }
 3587              		.loc 1 68 5 is_stmt 0 view .LVU1151
 3588              	.LBE585:
 3589              	.LBE584:
 3590              	.LBE583:
 3591              	.LBE582:
 190:Core/Src/lcd.c **** 
 3592              		.loc 1 190 5 is_stmt 1 view .LVU1152
 3593              	.LBB586:
 3594              	.LBI586:
  79:Core/Src/lcd.c **** {
 3595              		.loc 1 79 20 view .LVU1153
 3596              	.LBB587:
  82:Core/Src/lcd.c ****     ILI9341_SetData(data);
 3597              		.loc 1 82 5 view .LVU1154
 3598 06ea 0122     		movs	r2, #1
 3599 06ec 4FF48071 		mov	r1, #256
 3600 06f0 2046     		mov	r0, r4
 3601 06f2 FFF7FEFF 		bl	HAL_GPIO_WritePin
 3602              	.LVL396:
  83:Core/Src/lcd.c ****     // ILI9341_Unselect();
 3603              		.loc 1 83 5 view .LVU1155
 3604              	.LBB588:
 3605              	.LBI588:
  46:Core/Src/lcd.c **** {
 3606              		.loc 1 46 20 view .LVU1156
 3607              	.LBB589:
  48:Core/Src/lcd.c ****     uint8_t temp_Bit3rd_Data = data & 0x04;
ARM GAS  C:\Users\Vento\AppData\Local\Temp\ccDU9lzs.s 			page 94


 3608              		.loc 1 48 5 view .LVU1157
  49:Core/Src/lcd.c ****     data &= ~0x06;
 3609              		.loc 1 49 5 view .LVU1158
  50:Core/Src/lcd.c ****     data |= (uint8_t)((temp_Bit2nd_Data << 1) | (temp_Bit3rd_Data >> 1));
 3610              		.loc 1 50 5 view .LVU1159
  51:Core/Src/lcd.c **** 
 3611              		.loc 1 51 5 view .LVU1160
  53:Core/Src/lcd.c ****     tempReg &= 0xFFFFFF00;
 3612              		.loc 1 53 5 view .LVU1161
  53:Core/Src/lcd.c ****     tempReg &= 0xFFFFFF00;
 3613              		.loc 1 53 14 is_stmt 0 view .LVU1162
 3614 06f6 E368     		ldr	r3, [r4, #12]
 3615              	.LVL397:
  54:Core/Src/lcd.c ****     tempReg |= (uint32_t)data;
 3616              		.loc 1 54 5 is_stmt 1 view .LVU1163
  54:Core/Src/lcd.c ****     tempReg |= (uint32_t)data;
 3617              		.loc 1 54 13 is_stmt 0 view .LVU1164
 3618 06f8 23F0FF03 		bic	r3, r3, #255
 3619              	.LVL398:
  55:Core/Src/lcd.c ****     DATA_PORT->ODR = tempReg;
 3620              		.loc 1 55 5 is_stmt 1 view .LVU1165
  55:Core/Src/lcd.c ****     DATA_PORT->ODR = tempReg;
 3621              		.loc 1 55 13 is_stmt 0 view .LVU1166
 3622 06fc 43F04803 		orr	r3, r3, #72
 3623              	.LVL399:
  56:Core/Src/lcd.c **** 
 3624              		.loc 1 56 5 is_stmt 1 view .LVU1167
  56:Core/Src/lcd.c **** 
 3625              		.loc 1 56 20 is_stmt 0 view .LVU1168
 3626 0700 E360     		str	r3, [r4, #12]
  67:Core/Src/lcd.c ****     HAL_GPIO_WritePin(ILI9341_WR_GPIO_Port, ILI9341_WR_Pin, GPIO_PIN_SET);
 3627              		.loc 1 67 5 is_stmt 1 view .LVU1169
 3628 0702 0022     		movs	r2, #0
 3629 0704 4FF48061 		mov	r1, #1024
 3630 0708 2046     		mov	r0, r4
 3631 070a FFF7FEFF 		bl	HAL_GPIO_WritePin
 3632              	.LVL400:
  68:Core/Src/lcd.c **** }
 3633              		.loc 1 68 5 view .LVU1170
 3634 070e 0122     		movs	r2, #1
 3635 0710 4FF48061 		mov	r1, #1024
 3636 0714 2046     		mov	r0, r4
 3637 0716 FFF7FEFF 		bl	HAL_GPIO_WritePin
 3638              	.LVL401:
  68:Core/Src/lcd.c **** }
 3639              		.loc 1 68 5 is_stmt 0 view .LVU1171
 3640              	.LBE589:
 3641              	.LBE588:
 3642              	.LBE587:
 3643              	.LBE586:
 193:Core/Src/lcd.c ****     ILI9341_Write_Data(0x55);
 3644              		.loc 1 193 5 is_stmt 1 view .LVU1172
 3645              	.LBB590:
 3646              	.LBI590:
  71:Core/Src/lcd.c **** {
 3647              		.loc 1 71 20 view .LVU1173
 3648              	.LBB591:
ARM GAS  C:\Users\Vento\AppData\Local\Temp\ccDU9lzs.s 			page 95


  74:Core/Src/lcd.c ****     ILI9341_SetData(cmd);
 3649              		.loc 1 74 5 view .LVU1174
 3650 071a 0022     		movs	r2, #0
 3651 071c 4FF48071 		mov	r1, #256
 3652 0720 2046     		mov	r0, r4
 3653 0722 FFF7FEFF 		bl	HAL_GPIO_WritePin
 3654              	.LVL402:
  75:Core/Src/lcd.c ****     // ILI9341_Unselect();
 3655              		.loc 1 75 5 view .LVU1175
 3656              	.LBB592:
 3657              	.LBI592:
  46:Core/Src/lcd.c **** {
 3658              		.loc 1 46 20 view .LVU1176
 3659              	.LBB593:
  48:Core/Src/lcd.c ****     uint8_t temp_Bit3rd_Data = data & 0x04;
 3660              		.loc 1 48 5 view .LVU1177
  49:Core/Src/lcd.c ****     data &= ~0x06;
 3661              		.loc 1 49 5 view .LVU1178
  50:Core/Src/lcd.c ****     data |= (uint8_t)((temp_Bit2nd_Data << 1) | (temp_Bit3rd_Data >> 1));
 3662              		.loc 1 50 5 view .LVU1179
  51:Core/Src/lcd.c **** 
 3663              		.loc 1 51 5 view .LVU1180
  53:Core/Src/lcd.c ****     tempReg &= 0xFFFFFF00;
 3664              		.loc 1 53 5 view .LVU1181
  53:Core/Src/lcd.c ****     tempReg &= 0xFFFFFF00;
 3665              		.loc 1 53 14 is_stmt 0 view .LVU1182
 3666 0726 E368     		ldr	r3, [r4, #12]
 3667              	.LVL403:
  54:Core/Src/lcd.c ****     tempReg |= (uint32_t)data;
 3668              		.loc 1 54 5 is_stmt 1 view .LVU1183
  54:Core/Src/lcd.c ****     tempReg |= (uint32_t)data;
 3669              		.loc 1 54 13 is_stmt 0 view .LVU1184
 3670 0728 23F0FF03 		bic	r3, r3, #255
 3671              	.LVL404:
  55:Core/Src/lcd.c ****     DATA_PORT->ODR = tempReg;
 3672              		.loc 1 55 5 is_stmt 1 view .LVU1185
  55:Core/Src/lcd.c ****     DATA_PORT->ODR = tempReg;
 3673              		.loc 1 55 13 is_stmt 0 view .LVU1186
 3674 072c 43F03C03 		orr	r3, r3, #60
 3675              	.LVL405:
  56:Core/Src/lcd.c **** 
 3676              		.loc 1 56 5 is_stmt 1 view .LVU1187
  56:Core/Src/lcd.c **** 
 3677              		.loc 1 56 20 is_stmt 0 view .LVU1188
 3678 0730 E360     		str	r3, [r4, #12]
  67:Core/Src/lcd.c ****     HAL_GPIO_WritePin(ILI9341_WR_GPIO_Port, ILI9341_WR_Pin, GPIO_PIN_SET);
 3679              		.loc 1 67 5 is_stmt 1 view .LVU1189
 3680 0732 0022     		movs	r2, #0
 3681 0734 4FF48061 		mov	r1, #1024
 3682 0738 2046     		mov	r0, r4
 3683 073a FFF7FEFF 		bl	HAL_GPIO_WritePin
 3684              	.LVL406:
  68:Core/Src/lcd.c **** }
 3685              		.loc 1 68 5 view .LVU1190
 3686 073e 0122     		movs	r2, #1
 3687 0740 4FF48061 		mov	r1, #1024
 3688 0744 2046     		mov	r0, r4
ARM GAS  C:\Users\Vento\AppData\Local\Temp\ccDU9lzs.s 			page 96


 3689 0746 FFF7FEFF 		bl	HAL_GPIO_WritePin
 3690              	.LVL407:
  68:Core/Src/lcd.c **** }
 3691              		.loc 1 68 5 is_stmt 0 view .LVU1191
 3692              	.LBE593:
 3693              	.LBE592:
 3694              	.LBE591:
 3695              	.LBE590:
 194:Core/Src/lcd.c **** 
 3696              		.loc 1 194 5 is_stmt 1 view .LVU1192
 3697              	.LBB594:
 3698              	.LBI594:
  79:Core/Src/lcd.c **** {
 3699              		.loc 1 79 20 view .LVU1193
 3700              	.LBB595:
  82:Core/Src/lcd.c ****     ILI9341_SetData(data);
 3701              		.loc 1 82 5 view .LVU1194
 3702 074a 0122     		movs	r2, #1
 3703 074c 4FF48071 		mov	r1, #256
 3704 0750 2046     		mov	r0, r4
 3705 0752 FFF7FEFF 		bl	HAL_GPIO_WritePin
 3706              	.LVL408:
  83:Core/Src/lcd.c ****     // ILI9341_Unselect();
 3707              		.loc 1 83 5 view .LVU1195
 3708              	.LBB596:
 3709              	.LBI596:
  46:Core/Src/lcd.c **** {
 3710              		.loc 1 46 20 view .LVU1196
 3711              	.LBB597:
  48:Core/Src/lcd.c ****     uint8_t temp_Bit3rd_Data = data & 0x04;
 3712              		.loc 1 48 5 view .LVU1197
  49:Core/Src/lcd.c ****     data &= ~0x06;
 3713              		.loc 1 49 5 view .LVU1198
  50:Core/Src/lcd.c ****     data |= (uint8_t)((temp_Bit2nd_Data << 1) | (temp_Bit3rd_Data >> 1));
 3714              		.loc 1 50 5 view .LVU1199
  51:Core/Src/lcd.c **** 
 3715              		.loc 1 51 5 view .LVU1200
  53:Core/Src/lcd.c ****     tempReg &= 0xFFFFFF00;
 3716              		.loc 1 53 5 view .LVU1201
  53:Core/Src/lcd.c ****     tempReg &= 0xFFFFFF00;
 3717              		.loc 1 53 14 is_stmt 0 view .LVU1202
 3718 0756 E368     		ldr	r3, [r4, #12]
 3719              	.LVL409:
  54:Core/Src/lcd.c ****     tempReg |= (uint32_t)data;
 3720              		.loc 1 54 5 is_stmt 1 view .LVU1203
  54:Core/Src/lcd.c ****     tempReg |= (uint32_t)data;
 3721              		.loc 1 54 13 is_stmt 0 view .LVU1204
 3722 0758 23F0FF03 		bic	r3, r3, #255
 3723              	.LVL410:
  55:Core/Src/lcd.c ****     DATA_PORT->ODR = tempReg;
 3724              		.loc 1 55 5 is_stmt 1 view .LVU1205
  55:Core/Src/lcd.c ****     DATA_PORT->ODR = tempReg;
 3725              		.loc 1 55 13 is_stmt 0 view .LVU1206
 3726 075c 43F05303 		orr	r3, r3, #83
 3727              	.LVL411:
  56:Core/Src/lcd.c **** 
 3728              		.loc 1 56 5 is_stmt 1 view .LVU1207
ARM GAS  C:\Users\Vento\AppData\Local\Temp\ccDU9lzs.s 			page 97


  56:Core/Src/lcd.c **** 
 3729              		.loc 1 56 20 is_stmt 0 view .LVU1208
 3730 0760 E360     		str	r3, [r4, #12]
  67:Core/Src/lcd.c ****     HAL_GPIO_WritePin(ILI9341_WR_GPIO_Port, ILI9341_WR_Pin, GPIO_PIN_SET);
 3731              		.loc 1 67 5 is_stmt 1 view .LVU1209
 3732 0762 0022     		movs	r2, #0
 3733 0764 4FF48061 		mov	r1, #1024
 3734 0768 2046     		mov	r0, r4
 3735 076a FFF7FEFF 		bl	HAL_GPIO_WritePin
 3736              	.LVL412:
  68:Core/Src/lcd.c **** }
 3737              		.loc 1 68 5 view .LVU1210
 3738 076e 0122     		movs	r2, #1
 3739 0770 4FF48061 		mov	r1, #1024
 3740 0774 2046     		mov	r0, r4
 3741 0776 FFF7FEFF 		bl	HAL_GPIO_WritePin
 3742              	.LVL413:
  68:Core/Src/lcd.c **** }
 3743              		.loc 1 68 5 is_stmt 0 view .LVU1211
 3744              	.LBE597:
 3745              	.LBE596:
 3746              	.LBE595:
 3747              	.LBE594:
 197:Core/Src/lcd.c ****     ILI9341_Write_Data(0x00);
 3748              		.loc 1 197 5 is_stmt 1 view .LVU1212
 3749              	.LBB598:
 3750              	.LBI598:
  71:Core/Src/lcd.c **** {
 3751              		.loc 1 71 20 view .LVU1213
 3752              	.LBB599:
  74:Core/Src/lcd.c ****     ILI9341_SetData(cmd);
 3753              		.loc 1 74 5 view .LVU1214
 3754 077a 0022     		movs	r2, #0
 3755 077c 4FF48071 		mov	r1, #256
 3756 0780 2046     		mov	r0, r4
 3757 0782 FFF7FEFF 		bl	HAL_GPIO_WritePin
 3758              	.LVL414:
  75:Core/Src/lcd.c ****     // ILI9341_Unselect();
 3759              		.loc 1 75 5 view .LVU1215
 3760              	.LBB600:
 3761              	.LBI600:
  46:Core/Src/lcd.c **** {
 3762              		.loc 1 46 20 view .LVU1216
 3763              	.LBB601:
  48:Core/Src/lcd.c ****     uint8_t temp_Bit3rd_Data = data & 0x04;
 3764              		.loc 1 48 5 view .LVU1217
  49:Core/Src/lcd.c ****     data &= ~0x06;
 3765              		.loc 1 49 5 view .LVU1218
  50:Core/Src/lcd.c ****     data |= (uint8_t)((temp_Bit2nd_Data << 1) | (temp_Bit3rd_Data >> 1));
 3766              		.loc 1 50 5 view .LVU1219
  51:Core/Src/lcd.c **** 
 3767              		.loc 1 51 5 view .LVU1220
  53:Core/Src/lcd.c ****     tempReg &= 0xFFFFFF00;
 3768              		.loc 1 53 5 view .LVU1221
  53:Core/Src/lcd.c ****     tempReg &= 0xFFFFFF00;
 3769              		.loc 1 53 14 is_stmt 0 view .LVU1222
 3770 0786 E368     		ldr	r3, [r4, #12]
ARM GAS  C:\Users\Vento\AppData\Local\Temp\ccDU9lzs.s 			page 98


 3771              	.LVL415:
  54:Core/Src/lcd.c ****     tempReg |= (uint32_t)data;
 3772              		.loc 1 54 5 is_stmt 1 view .LVU1223
  54:Core/Src/lcd.c ****     tempReg |= (uint32_t)data;
 3773              		.loc 1 54 13 is_stmt 0 view .LVU1224
 3774 0788 23F0FF03 		bic	r3, r3, #255
 3775              	.LVL416:
  55:Core/Src/lcd.c ****     DATA_PORT->ODR = tempReg;
 3776              		.loc 1 55 5 is_stmt 1 view .LVU1225
  55:Core/Src/lcd.c ****     DATA_PORT->ODR = tempReg;
 3777              		.loc 1 55 13 is_stmt 0 view .LVU1226
 3778 078c 43F0B103 		orr	r3, r3, #177
 3779              	.LVL417:
  56:Core/Src/lcd.c **** 
 3780              		.loc 1 56 5 is_stmt 1 view .LVU1227
  56:Core/Src/lcd.c **** 
 3781              		.loc 1 56 20 is_stmt 0 view .LVU1228
 3782 0790 E360     		str	r3, [r4, #12]
  67:Core/Src/lcd.c ****     HAL_GPIO_WritePin(ILI9341_WR_GPIO_Port, ILI9341_WR_Pin, GPIO_PIN_SET);
 3783              		.loc 1 67 5 is_stmt 1 view .LVU1229
 3784 0792 0022     		movs	r2, #0
 3785 0794 4FF48061 		mov	r1, #1024
 3786 0798 2046     		mov	r0, r4
 3787 079a FFF7FEFF 		bl	HAL_GPIO_WritePin
 3788              	.LVL418:
  68:Core/Src/lcd.c **** }
 3789              		.loc 1 68 5 view .LVU1230
 3790 079e 0122     		movs	r2, #1
 3791 07a0 4FF48061 		mov	r1, #1024
 3792 07a4 2046     		mov	r0, r4
 3793 07a6 FFF7FEFF 		bl	HAL_GPIO_WritePin
 3794              	.LVL419:
  68:Core/Src/lcd.c **** }
 3795              		.loc 1 68 5 is_stmt 0 view .LVU1231
 3796              	.LBE601:
 3797              	.LBE600:
 3798              	.LBE599:
 3799              	.LBE598:
 198:Core/Src/lcd.c ****     ILI9341_Write_Data(0x18);
 3800              		.loc 1 198 5 is_stmt 1 view .LVU1232
 3801              	.LBB602:
 3802              	.LBI602:
  79:Core/Src/lcd.c **** {
 3803              		.loc 1 79 20 view .LVU1233
 3804              	.LBB603:
  82:Core/Src/lcd.c ****     ILI9341_SetData(data);
 3805              		.loc 1 82 5 view .LVU1234
 3806 07aa 0122     		movs	r2, #1
 3807 07ac 4FF48071 		mov	r1, #256
 3808 07b0 2046     		mov	r0, r4
 3809 07b2 FFF7FEFF 		bl	HAL_GPIO_WritePin
 3810              	.LVL420:
  83:Core/Src/lcd.c ****     // ILI9341_Unselect();
 3811              		.loc 1 83 5 view .LVU1235
 3812              	.LBB604:
 3813              	.LBI604:
  46:Core/Src/lcd.c **** {
ARM GAS  C:\Users\Vento\AppData\Local\Temp\ccDU9lzs.s 			page 99


 3814              		.loc 1 46 20 view .LVU1236
 3815              	.LBB605:
  48:Core/Src/lcd.c ****     uint8_t temp_Bit3rd_Data = data & 0x04;
 3816              		.loc 1 48 5 view .LVU1237
  49:Core/Src/lcd.c ****     data &= ~0x06;
 3817              		.loc 1 49 5 view .LVU1238
  50:Core/Src/lcd.c ****     data |= (uint8_t)((temp_Bit2nd_Data << 1) | (temp_Bit3rd_Data >> 1));
 3818              		.loc 1 50 5 view .LVU1239
  51:Core/Src/lcd.c **** 
 3819              		.loc 1 51 5 view .LVU1240
  53:Core/Src/lcd.c ****     tempReg &= 0xFFFFFF00;
 3820              		.loc 1 53 5 view .LVU1241
  53:Core/Src/lcd.c ****     tempReg &= 0xFFFFFF00;
 3821              		.loc 1 53 14 is_stmt 0 view .LVU1242
 3822 07b6 E368     		ldr	r3, [r4, #12]
 3823              	.LVL421:
  54:Core/Src/lcd.c ****     tempReg |= (uint32_t)data;
 3824              		.loc 1 54 5 is_stmt 1 view .LVU1243
  54:Core/Src/lcd.c ****     tempReg |= (uint32_t)data;
 3825              		.loc 1 54 13 is_stmt 0 view .LVU1244
 3826 07b8 23F0FF03 		bic	r3, r3, #255
 3827              	.LVL422:
  55:Core/Src/lcd.c ****     DATA_PORT->ODR = tempReg;
 3828              		.loc 1 55 5 is_stmt 1 view .LVU1245
  56:Core/Src/lcd.c **** 
 3829              		.loc 1 56 5 view .LVU1246
  56:Core/Src/lcd.c **** 
 3830              		.loc 1 56 20 is_stmt 0 view .LVU1247
 3831 07bc E360     		str	r3, [r4, #12]
  67:Core/Src/lcd.c ****     HAL_GPIO_WritePin(ILI9341_WR_GPIO_Port, ILI9341_WR_Pin, GPIO_PIN_SET);
 3832              		.loc 1 67 5 is_stmt 1 view .LVU1248
 3833 07be 0022     		movs	r2, #0
 3834 07c0 4FF48061 		mov	r1, #1024
 3835 07c4 2046     		mov	r0, r4
 3836 07c6 FFF7FEFF 		bl	HAL_GPIO_WritePin
 3837              	.LVL423:
  68:Core/Src/lcd.c **** }
 3838              		.loc 1 68 5 view .LVU1249
 3839 07ca 0122     		movs	r2, #1
 3840 07cc 4FF48061 		mov	r1, #1024
 3841 07d0 2046     		mov	r0, r4
 3842 07d2 FFF7FEFF 		bl	HAL_GPIO_WritePin
 3843              	.LVL424:
  68:Core/Src/lcd.c **** }
 3844              		.loc 1 68 5 is_stmt 0 view .LVU1250
 3845              	.LBE605:
 3846              	.LBE604:
 3847              	.LBE603:
 3848              	.LBE602:
 199:Core/Src/lcd.c **** 
 3849              		.loc 1 199 5 is_stmt 1 view .LVU1251
 3850              	.LBB606:
 3851              	.LBI606:
  79:Core/Src/lcd.c **** {
 3852              		.loc 1 79 20 view .LVU1252
 3853              	.LBB607:
  82:Core/Src/lcd.c ****     ILI9341_SetData(data);
ARM GAS  C:\Users\Vento\AppData\Local\Temp\ccDU9lzs.s 			page 100


 3854              		.loc 1 82 5 view .LVU1253
 3855 07d6 0122     		movs	r2, #1
 3856 07d8 4FF48071 		mov	r1, #256
 3857 07dc 2046     		mov	r0, r4
 3858 07de FFF7FEFF 		bl	HAL_GPIO_WritePin
 3859              	.LVL425:
  83:Core/Src/lcd.c ****     // ILI9341_Unselect();
 3860              		.loc 1 83 5 view .LVU1254
 3861              	.LBB608:
 3862              	.LBI608:
  46:Core/Src/lcd.c **** {
 3863              		.loc 1 46 20 view .LVU1255
 3864              	.LBB609:
  48:Core/Src/lcd.c ****     uint8_t temp_Bit3rd_Data = data & 0x04;
 3865              		.loc 1 48 5 view .LVU1256
  49:Core/Src/lcd.c ****     data &= ~0x06;
 3866              		.loc 1 49 5 view .LVU1257
  50:Core/Src/lcd.c ****     data |= (uint8_t)((temp_Bit2nd_Data << 1) | (temp_Bit3rd_Data >> 1));
 3867              		.loc 1 50 5 view .LVU1258
  51:Core/Src/lcd.c **** 
 3868              		.loc 1 51 5 view .LVU1259
  53:Core/Src/lcd.c ****     tempReg &= 0xFFFFFF00;
 3869              		.loc 1 53 5 view .LVU1260
  53:Core/Src/lcd.c ****     tempReg &= 0xFFFFFF00;
 3870              		.loc 1 53 14 is_stmt 0 view .LVU1261
 3871 07e2 E368     		ldr	r3, [r4, #12]
 3872              	.LVL426:
  54:Core/Src/lcd.c ****     tempReg |= (uint32_t)data;
 3873              		.loc 1 54 5 is_stmt 1 view .LVU1262
  54:Core/Src/lcd.c ****     tempReg |= (uint32_t)data;
 3874              		.loc 1 54 13 is_stmt 0 view .LVU1263
 3875 07e4 23F0FF03 		bic	r3, r3, #255
 3876              	.LVL427:
  55:Core/Src/lcd.c ****     DATA_PORT->ODR = tempReg;
 3877              		.loc 1 55 5 is_stmt 1 view .LVU1264
  55:Core/Src/lcd.c ****     DATA_PORT->ODR = tempReg;
 3878              		.loc 1 55 13 is_stmt 0 view .LVU1265
 3879 07e8 43F01803 		orr	r3, r3, #24
 3880              	.LVL428:
  56:Core/Src/lcd.c **** 
 3881              		.loc 1 56 5 is_stmt 1 view .LVU1266
  56:Core/Src/lcd.c **** 
 3882              		.loc 1 56 20 is_stmt 0 view .LVU1267
 3883 07ec E360     		str	r3, [r4, #12]
  67:Core/Src/lcd.c ****     HAL_GPIO_WritePin(ILI9341_WR_GPIO_Port, ILI9341_WR_Pin, GPIO_PIN_SET);
 3884              		.loc 1 67 5 is_stmt 1 view .LVU1268
 3885 07ee 0022     		movs	r2, #0
 3886 07f0 4FF48061 		mov	r1, #1024
 3887 07f4 2046     		mov	r0, r4
 3888 07f6 FFF7FEFF 		bl	HAL_GPIO_WritePin
 3889              	.LVL429:
  68:Core/Src/lcd.c **** }
 3890              		.loc 1 68 5 view .LVU1269
 3891 07fa 0122     		movs	r2, #1
 3892 07fc 4FF48061 		mov	r1, #1024
 3893 0800 2046     		mov	r0, r4
 3894 0802 FFF7FEFF 		bl	HAL_GPIO_WritePin
ARM GAS  C:\Users\Vento\AppData\Local\Temp\ccDU9lzs.s 			page 101


 3895              	.LVL430:
  68:Core/Src/lcd.c **** }
 3896              		.loc 1 68 5 is_stmt 0 view .LVU1270
 3897              	.LBE609:
 3898              	.LBE608:
 3899              	.LBE607:
 3900              	.LBE606:
 202:Core/Src/lcd.c ****     ILI9341_Write_Data(0x08);
 3901              		.loc 1 202 5 is_stmt 1 view .LVU1271
 3902              	.LBB610:
 3903              	.LBI610:
  71:Core/Src/lcd.c **** {
 3904              		.loc 1 71 20 view .LVU1272
 3905              	.LBB611:
  74:Core/Src/lcd.c ****     ILI9341_SetData(cmd);
 3906              		.loc 1 74 5 view .LVU1273
 3907 0806 0022     		movs	r2, #0
 3908 0808 4FF48071 		mov	r1, #256
 3909 080c 2046     		mov	r0, r4
 3910 080e FFF7FEFF 		bl	HAL_GPIO_WritePin
 3911              	.LVL431:
  75:Core/Src/lcd.c ****     // ILI9341_Unselect();
 3912              		.loc 1 75 5 view .LVU1274
 3913              	.LBB612:
 3914              	.LBI612:
  46:Core/Src/lcd.c **** {
 3915              		.loc 1 46 20 view .LVU1275
 3916              	.LBB613:
  48:Core/Src/lcd.c ****     uint8_t temp_Bit3rd_Data = data & 0x04;
 3917              		.loc 1 48 5 view .LVU1276
  49:Core/Src/lcd.c ****     data &= ~0x06;
 3918              		.loc 1 49 5 view .LVU1277
  50:Core/Src/lcd.c ****     data |= (uint8_t)((temp_Bit2nd_Data << 1) | (temp_Bit3rd_Data >> 1));
 3919              		.loc 1 50 5 view .LVU1278
  51:Core/Src/lcd.c **** 
 3920              		.loc 1 51 5 view .LVU1279
  53:Core/Src/lcd.c ****     tempReg &= 0xFFFFFF00;
 3921              		.loc 1 53 5 view .LVU1280
  53:Core/Src/lcd.c ****     tempReg &= 0xFFFFFF00;
 3922              		.loc 1 53 14 is_stmt 0 view .LVU1281
 3923 0812 E368     		ldr	r3, [r4, #12]
 3924              	.LVL432:
  54:Core/Src/lcd.c ****     tempReg |= (uint32_t)data;
 3925              		.loc 1 54 5 is_stmt 1 view .LVU1282
  54:Core/Src/lcd.c ****     tempReg |= (uint32_t)data;
 3926              		.loc 1 54 13 is_stmt 0 view .LVU1283
 3927 0814 23F0FF03 		bic	r3, r3, #255
 3928              	.LVL433:
  55:Core/Src/lcd.c ****     DATA_PORT->ODR = tempReg;
 3929              		.loc 1 55 5 is_stmt 1 view .LVU1284
  55:Core/Src/lcd.c ****     DATA_PORT->ODR = tempReg;
 3930              		.loc 1 55 13 is_stmt 0 view .LVU1285
 3931 0818 43F0B603 		orr	r3, r3, #182
 3932              	.LVL434:
  56:Core/Src/lcd.c **** 
 3933              		.loc 1 56 5 is_stmt 1 view .LVU1286
  56:Core/Src/lcd.c **** 
ARM GAS  C:\Users\Vento\AppData\Local\Temp\ccDU9lzs.s 			page 102


 3934              		.loc 1 56 20 is_stmt 0 view .LVU1287
 3935 081c E360     		str	r3, [r4, #12]
  67:Core/Src/lcd.c ****     HAL_GPIO_WritePin(ILI9341_WR_GPIO_Port, ILI9341_WR_Pin, GPIO_PIN_SET);
 3936              		.loc 1 67 5 is_stmt 1 view .LVU1288
 3937 081e 0022     		movs	r2, #0
 3938 0820 4FF48061 		mov	r1, #1024
 3939 0824 2046     		mov	r0, r4
 3940 0826 FFF7FEFF 		bl	HAL_GPIO_WritePin
 3941              	.LVL435:
  68:Core/Src/lcd.c **** }
 3942              		.loc 1 68 5 view .LVU1289
 3943 082a 0122     		movs	r2, #1
 3944 082c 4FF48061 		mov	r1, #1024
 3945 0830 2046     		mov	r0, r4
 3946 0832 FFF7FEFF 		bl	HAL_GPIO_WritePin
 3947              	.LVL436:
  68:Core/Src/lcd.c **** }
 3948              		.loc 1 68 5 is_stmt 0 view .LVU1290
 3949              	.LBE613:
 3950              	.LBE612:
 3951              	.LBE611:
 3952              	.LBE610:
 203:Core/Src/lcd.c ****     ILI9341_Write_Data(0x82);
 3953              		.loc 1 203 5 is_stmt 1 view .LVU1291
 3954              	.LBB614:
 3955              	.LBI614:
  79:Core/Src/lcd.c **** {
 3956              		.loc 1 79 20 view .LVU1292
 3957              	.LBB615:
  82:Core/Src/lcd.c ****     ILI9341_SetData(data);
 3958              		.loc 1 82 5 view .LVU1293
 3959 0836 0122     		movs	r2, #1
 3960 0838 4FF48071 		mov	r1, #256
 3961 083c 2046     		mov	r0, r4
 3962 083e FFF7FEFF 		bl	HAL_GPIO_WritePin
 3963              	.LVL437:
  83:Core/Src/lcd.c ****     // ILI9341_Unselect();
 3964              		.loc 1 83 5 view .LVU1294
 3965              	.LBB616:
 3966              	.LBI616:
  46:Core/Src/lcd.c **** {
 3967              		.loc 1 46 20 view .LVU1295
 3968              	.LBB617:
  48:Core/Src/lcd.c ****     uint8_t temp_Bit3rd_Data = data & 0x04;
 3969              		.loc 1 48 5 view .LVU1296
  49:Core/Src/lcd.c ****     data &= ~0x06;
 3970              		.loc 1 49 5 view .LVU1297
  50:Core/Src/lcd.c ****     data |= (uint8_t)((temp_Bit2nd_Data << 1) | (temp_Bit3rd_Data >> 1));
 3971              		.loc 1 50 5 view .LVU1298
  51:Core/Src/lcd.c **** 
 3972              		.loc 1 51 5 view .LVU1299
  53:Core/Src/lcd.c ****     tempReg &= 0xFFFFFF00;
 3973              		.loc 1 53 5 view .LVU1300
  53:Core/Src/lcd.c ****     tempReg &= 0xFFFFFF00;
 3974              		.loc 1 53 14 is_stmt 0 view .LVU1301
 3975 0842 E368     		ldr	r3, [r4, #12]
 3976              	.LVL438:
ARM GAS  C:\Users\Vento\AppData\Local\Temp\ccDU9lzs.s 			page 103


  54:Core/Src/lcd.c ****     tempReg |= (uint32_t)data;
 3977              		.loc 1 54 5 is_stmt 1 view .LVU1302
  54:Core/Src/lcd.c ****     tempReg |= (uint32_t)data;
 3978              		.loc 1 54 13 is_stmt 0 view .LVU1303
 3979 0844 23F0FF03 		bic	r3, r3, #255
 3980              	.LVL439:
  55:Core/Src/lcd.c ****     DATA_PORT->ODR = tempReg;
 3981              		.loc 1 55 5 is_stmt 1 view .LVU1304
  55:Core/Src/lcd.c ****     DATA_PORT->ODR = tempReg;
 3982              		.loc 1 55 13 is_stmt 0 view .LVU1305
 3983 0848 43F00803 		orr	r3, r3, #8
 3984              	.LVL440:
  56:Core/Src/lcd.c **** 
 3985              		.loc 1 56 5 is_stmt 1 view .LVU1306
  56:Core/Src/lcd.c **** 
 3986              		.loc 1 56 20 is_stmt 0 view .LVU1307
 3987 084c E360     		str	r3, [r4, #12]
  67:Core/Src/lcd.c ****     HAL_GPIO_WritePin(ILI9341_WR_GPIO_Port, ILI9341_WR_Pin, GPIO_PIN_SET);
 3988              		.loc 1 67 5 is_stmt 1 view .LVU1308
 3989 084e 0022     		movs	r2, #0
 3990 0850 4FF48061 		mov	r1, #1024
 3991 0854 2046     		mov	r0, r4
 3992 0856 FFF7FEFF 		bl	HAL_GPIO_WritePin
 3993              	.LVL441:
  68:Core/Src/lcd.c **** }
 3994              		.loc 1 68 5 view .LVU1309
 3995 085a 0122     		movs	r2, #1
 3996 085c 4FF48061 		mov	r1, #1024
 3997 0860 2046     		mov	r0, r4
 3998 0862 FFF7FEFF 		bl	HAL_GPIO_WritePin
 3999              	.LVL442:
  68:Core/Src/lcd.c **** }
 4000              		.loc 1 68 5 is_stmt 0 view .LVU1310
 4001              	.LBE617:
 4002              	.LBE616:
 4003              	.LBE615:
 4004              	.LBE614:
 204:Core/Src/lcd.c ****     ILI9341_Write_Data(0x27);
 4005              		.loc 1 204 5 is_stmt 1 view .LVU1311
 4006              	.LBB618:
 4007              	.LBI618:
  79:Core/Src/lcd.c **** {
 4008              		.loc 1 79 20 view .LVU1312
 4009              	.LBB619:
  82:Core/Src/lcd.c ****     ILI9341_SetData(data);
 4010              		.loc 1 82 5 view .LVU1313
 4011 0866 0122     		movs	r2, #1
 4012 0868 4FF48071 		mov	r1, #256
 4013 086c 2046     		mov	r0, r4
 4014 086e FFF7FEFF 		bl	HAL_GPIO_WritePin
 4015              	.LVL443:
  83:Core/Src/lcd.c ****     // ILI9341_Unselect();
 4016              		.loc 1 83 5 view .LVU1314
 4017              	.LBB620:
 4018              	.LBI620:
  46:Core/Src/lcd.c **** {
 4019              		.loc 1 46 20 view .LVU1315
ARM GAS  C:\Users\Vento\AppData\Local\Temp\ccDU9lzs.s 			page 104


 4020              	.LBB621:
  48:Core/Src/lcd.c ****     uint8_t temp_Bit3rd_Data = data & 0x04;
 4021              		.loc 1 48 5 view .LVU1316
  49:Core/Src/lcd.c ****     data &= ~0x06;
 4022              		.loc 1 49 5 view .LVU1317
  50:Core/Src/lcd.c ****     data |= (uint8_t)((temp_Bit2nd_Data << 1) | (temp_Bit3rd_Data >> 1));
 4023              		.loc 1 50 5 view .LVU1318
  51:Core/Src/lcd.c **** 
 4024              		.loc 1 51 5 view .LVU1319
  53:Core/Src/lcd.c ****     tempReg &= 0xFFFFFF00;
 4025              		.loc 1 53 5 view .LVU1320
  53:Core/Src/lcd.c ****     tempReg &= 0xFFFFFF00;
 4026              		.loc 1 53 14 is_stmt 0 view .LVU1321
 4027 0872 E368     		ldr	r3, [r4, #12]
 4028              	.LVL444:
  54:Core/Src/lcd.c ****     tempReg |= (uint32_t)data;
 4029              		.loc 1 54 5 is_stmt 1 view .LVU1322
  54:Core/Src/lcd.c ****     tempReg |= (uint32_t)data;
 4030              		.loc 1 54 13 is_stmt 0 view .LVU1323
 4031 0874 23F0FF03 		bic	r3, r3, #255
 4032              	.LVL445:
  55:Core/Src/lcd.c ****     DATA_PORT->ODR = tempReg;
 4033              		.loc 1 55 5 is_stmt 1 view .LVU1324
  55:Core/Src/lcd.c ****     DATA_PORT->ODR = tempReg;
 4034              		.loc 1 55 13 is_stmt 0 view .LVU1325
 4035 0878 43F08403 		orr	r3, r3, #132
 4036              	.LVL446:
  56:Core/Src/lcd.c **** 
 4037              		.loc 1 56 5 is_stmt 1 view .LVU1326
  56:Core/Src/lcd.c **** 
 4038              		.loc 1 56 20 is_stmt 0 view .LVU1327
 4039 087c E360     		str	r3, [r4, #12]
  67:Core/Src/lcd.c ****     HAL_GPIO_WritePin(ILI9341_WR_GPIO_Port, ILI9341_WR_Pin, GPIO_PIN_SET);
 4040              		.loc 1 67 5 is_stmt 1 view .LVU1328
 4041 087e 0022     		movs	r2, #0
 4042 0880 4FF48061 		mov	r1, #1024
 4043 0884 2046     		mov	r0, r4
 4044 0886 FFF7FEFF 		bl	HAL_GPIO_WritePin
 4045              	.LVL447:
  68:Core/Src/lcd.c **** }
 4046              		.loc 1 68 5 view .LVU1329
 4047 088a 0122     		movs	r2, #1
 4048 088c 4FF48061 		mov	r1, #1024
 4049 0890 2046     		mov	r0, r4
 4050 0892 FFF7FEFF 		bl	HAL_GPIO_WritePin
 4051              	.LVL448:
  68:Core/Src/lcd.c **** }
 4052              		.loc 1 68 5 is_stmt 0 view .LVU1330
 4053              	.LBE621:
 4054              	.LBE620:
 4055              	.LBE619:
 4056              	.LBE618:
 205:Core/Src/lcd.c **** 
 4057              		.loc 1 205 5 is_stmt 1 view .LVU1331
 4058              	.LBB622:
 4059              	.LBI622:
  79:Core/Src/lcd.c **** {
ARM GAS  C:\Users\Vento\AppData\Local\Temp\ccDU9lzs.s 			page 105


 4060              		.loc 1 79 20 view .LVU1332
 4061              	.LBB623:
  82:Core/Src/lcd.c ****     ILI9341_SetData(data);
 4062              		.loc 1 82 5 view .LVU1333
 4063 0896 0122     		movs	r2, #1
 4064 0898 4FF48071 		mov	r1, #256
 4065 089c 2046     		mov	r0, r4
 4066 089e FFF7FEFF 		bl	HAL_GPIO_WritePin
 4067              	.LVL449:
  83:Core/Src/lcd.c ****     // ILI9341_Unselect();
 4068              		.loc 1 83 5 view .LVU1334
 4069              	.LBB624:
 4070              	.LBI624:
  46:Core/Src/lcd.c **** {
 4071              		.loc 1 46 20 view .LVU1335
 4072              	.LBB625:
  48:Core/Src/lcd.c ****     uint8_t temp_Bit3rd_Data = data & 0x04;
 4073              		.loc 1 48 5 view .LVU1336
  49:Core/Src/lcd.c ****     data &= ~0x06;
 4074              		.loc 1 49 5 view .LVU1337
  50:Core/Src/lcd.c ****     data |= (uint8_t)((temp_Bit2nd_Data << 1) | (temp_Bit3rd_Data >> 1));
 4075              		.loc 1 50 5 view .LVU1338
  51:Core/Src/lcd.c **** 
 4076              		.loc 1 51 5 view .LVU1339
  53:Core/Src/lcd.c ****     tempReg &= 0xFFFFFF00;
 4077              		.loc 1 53 5 view .LVU1340
  53:Core/Src/lcd.c ****     tempReg &= 0xFFFFFF00;
 4078              		.loc 1 53 14 is_stmt 0 view .LVU1341
 4079 08a2 E368     		ldr	r3, [r4, #12]
 4080              	.LVL450:
  54:Core/Src/lcd.c ****     tempReg |= (uint32_t)data;
 4081              		.loc 1 54 5 is_stmt 1 view .LVU1342
  54:Core/Src/lcd.c ****     tempReg |= (uint32_t)data;
 4082              		.loc 1 54 13 is_stmt 0 view .LVU1343
 4083 08a4 23F0FF03 		bic	r3, r3, #255
 4084              	.LVL451:
  55:Core/Src/lcd.c ****     DATA_PORT->ODR = tempReg;
 4085              		.loc 1 55 5 is_stmt 1 view .LVU1344
  55:Core/Src/lcd.c ****     DATA_PORT->ODR = tempReg;
 4086              		.loc 1 55 13 is_stmt 0 view .LVU1345
 4087 08a8 43F02703 		orr	r3, r3, #39
 4088              	.LVL452:
  56:Core/Src/lcd.c **** 
 4089              		.loc 1 56 5 is_stmt 1 view .LVU1346
  56:Core/Src/lcd.c **** 
 4090              		.loc 1 56 20 is_stmt 0 view .LVU1347
 4091 08ac E360     		str	r3, [r4, #12]
  67:Core/Src/lcd.c ****     HAL_GPIO_WritePin(ILI9341_WR_GPIO_Port, ILI9341_WR_Pin, GPIO_PIN_SET);
 4092              		.loc 1 67 5 is_stmt 1 view .LVU1348
 4093 08ae 0022     		movs	r2, #0
 4094 08b0 4FF48061 		mov	r1, #1024
 4095 08b4 2046     		mov	r0, r4
 4096 08b6 FFF7FEFF 		bl	HAL_GPIO_WritePin
 4097              	.LVL453:
  68:Core/Src/lcd.c **** }
 4098              		.loc 1 68 5 view .LVU1349
 4099 08ba 0122     		movs	r2, #1
ARM GAS  C:\Users\Vento\AppData\Local\Temp\ccDU9lzs.s 			page 106


 4100 08bc 4FF48061 		mov	r1, #1024
 4101 08c0 2046     		mov	r0, r4
 4102 08c2 FFF7FEFF 		bl	HAL_GPIO_WritePin
 4103              	.LVL454:
  68:Core/Src/lcd.c **** }
 4104              		.loc 1 68 5 is_stmt 0 view .LVU1350
 4105              	.LBE625:
 4106              	.LBE624:
 4107              	.LBE623:
 4108              	.LBE622:
 208:Core/Src/lcd.c ****     ILI9341_Write_Data(0x00);
 4109              		.loc 1 208 5 is_stmt 1 view .LVU1351
 4110              	.LBB626:
 4111              	.LBI626:
  71:Core/Src/lcd.c **** {
 4112              		.loc 1 71 20 view .LVU1352
 4113              	.LBB627:
  74:Core/Src/lcd.c ****     ILI9341_SetData(cmd);
 4114              		.loc 1 74 5 view .LVU1353
 4115 08c6 0022     		movs	r2, #0
 4116 08c8 4FF48071 		mov	r1, #256
 4117 08cc 2046     		mov	r0, r4
 4118 08ce FFF7FEFF 		bl	HAL_GPIO_WritePin
 4119              	.LVL455:
  75:Core/Src/lcd.c ****     // ILI9341_Unselect();
 4120              		.loc 1 75 5 view .LVU1354
 4121              	.LBB628:
 4122              	.LBI628:
  46:Core/Src/lcd.c **** {
 4123              		.loc 1 46 20 view .LVU1355
 4124              	.LBB629:
  48:Core/Src/lcd.c ****     uint8_t temp_Bit3rd_Data = data & 0x04;
 4125              		.loc 1 48 5 view .LVU1356
  49:Core/Src/lcd.c ****     data &= ~0x06;
 4126              		.loc 1 49 5 view .LVU1357
  50:Core/Src/lcd.c ****     data |= (uint8_t)((temp_Bit2nd_Data << 1) | (temp_Bit3rd_Data >> 1));
 4127              		.loc 1 50 5 view .LVU1358
  51:Core/Src/lcd.c **** 
 4128              		.loc 1 51 5 view .LVU1359
  53:Core/Src/lcd.c ****     tempReg &= 0xFFFFFF00;
 4129              		.loc 1 53 5 view .LVU1360
  53:Core/Src/lcd.c ****     tempReg &= 0xFFFFFF00;
 4130              		.loc 1 53 14 is_stmt 0 view .LVU1361
 4131 08d2 E368     		ldr	r3, [r4, #12]
 4132              	.LVL456:
  54:Core/Src/lcd.c ****     tempReg |= (uint32_t)data;
 4133              		.loc 1 54 5 is_stmt 1 view .LVU1362
  54:Core/Src/lcd.c ****     tempReg |= (uint32_t)data;
 4134              		.loc 1 54 13 is_stmt 0 view .LVU1363
 4135 08d4 23F0FF03 		bic	r3, r3, #255
 4136              	.LVL457:
  55:Core/Src/lcd.c ****     DATA_PORT->ODR = tempReg;
 4137              		.loc 1 55 5 is_stmt 1 view .LVU1364
  55:Core/Src/lcd.c ****     DATA_PORT->ODR = tempReg;
 4138              		.loc 1 55 13 is_stmt 0 view .LVU1365
 4139 08d8 43F0F403 		orr	r3, r3, #244
 4140              	.LVL458:
ARM GAS  C:\Users\Vento\AppData\Local\Temp\ccDU9lzs.s 			page 107


  56:Core/Src/lcd.c **** 
 4141              		.loc 1 56 5 is_stmt 1 view .LVU1366
  56:Core/Src/lcd.c **** 
 4142              		.loc 1 56 20 is_stmt 0 view .LVU1367
 4143 08dc E360     		str	r3, [r4, #12]
  67:Core/Src/lcd.c ****     HAL_GPIO_WritePin(ILI9341_WR_GPIO_Port, ILI9341_WR_Pin, GPIO_PIN_SET);
 4144              		.loc 1 67 5 is_stmt 1 view .LVU1368
 4145 08de 0022     		movs	r2, #0
 4146 08e0 4FF48061 		mov	r1, #1024
 4147 08e4 2046     		mov	r0, r4
 4148 08e6 FFF7FEFF 		bl	HAL_GPIO_WritePin
 4149              	.LVL459:
  68:Core/Src/lcd.c **** }
 4150              		.loc 1 68 5 view .LVU1369
 4151 08ea 0122     		movs	r2, #1
 4152 08ec 4FF48061 		mov	r1, #1024
 4153 08f0 2046     		mov	r0, r4
 4154 08f2 FFF7FEFF 		bl	HAL_GPIO_WritePin
 4155              	.LVL460:
  68:Core/Src/lcd.c **** }
 4156              		.loc 1 68 5 is_stmt 0 view .LVU1370
 4157              	.LBE629:
 4158              	.LBE628:
 4159              	.LBE627:
 4160              	.LBE626:
 209:Core/Src/lcd.c **** 
 4161              		.loc 1 209 5 is_stmt 1 view .LVU1371
 4162              	.LBB630:
 4163              	.LBI630:
  79:Core/Src/lcd.c **** {
 4164              		.loc 1 79 20 view .LVU1372
 4165              	.LBB631:
  82:Core/Src/lcd.c ****     ILI9341_SetData(data);
 4166              		.loc 1 82 5 view .LVU1373
 4167 08f6 0122     		movs	r2, #1
 4168 08f8 4FF48071 		mov	r1, #256
 4169 08fc 2046     		mov	r0, r4
 4170 08fe FFF7FEFF 		bl	HAL_GPIO_WritePin
 4171              	.LVL461:
  83:Core/Src/lcd.c ****     // ILI9341_Unselect();
 4172              		.loc 1 83 5 view .LVU1374
 4173              	.LBB632:
 4174              	.LBI632:
  46:Core/Src/lcd.c **** {
 4175              		.loc 1 46 20 view .LVU1375
 4176              	.LBB633:
  48:Core/Src/lcd.c ****     uint8_t temp_Bit3rd_Data = data & 0x04;
 4177              		.loc 1 48 5 view .LVU1376
  49:Core/Src/lcd.c ****     data &= ~0x06;
 4178              		.loc 1 49 5 view .LVU1377
  50:Core/Src/lcd.c ****     data |= (uint8_t)((temp_Bit2nd_Data << 1) | (temp_Bit3rd_Data >> 1));
 4179              		.loc 1 50 5 view .LVU1378
  51:Core/Src/lcd.c **** 
 4180              		.loc 1 51 5 view .LVU1379
  53:Core/Src/lcd.c ****     tempReg &= 0xFFFFFF00;
 4181              		.loc 1 53 5 view .LVU1380
  53:Core/Src/lcd.c ****     tempReg &= 0xFFFFFF00;
ARM GAS  C:\Users\Vento\AppData\Local\Temp\ccDU9lzs.s 			page 108


 4182              		.loc 1 53 14 is_stmt 0 view .LVU1381
 4183 0902 E368     		ldr	r3, [r4, #12]
 4184              	.LVL462:
  54:Core/Src/lcd.c ****     tempReg |= (uint32_t)data;
 4185              		.loc 1 54 5 is_stmt 1 view .LVU1382
  54:Core/Src/lcd.c ****     tempReg |= (uint32_t)data;
 4186              		.loc 1 54 13 is_stmt 0 view .LVU1383
 4187 0904 23F0FF03 		bic	r3, r3, #255
 4188              	.LVL463:
  55:Core/Src/lcd.c ****     DATA_PORT->ODR = tempReg;
 4189              		.loc 1 55 5 is_stmt 1 view .LVU1384
  56:Core/Src/lcd.c **** 
 4190              		.loc 1 56 5 view .LVU1385
  56:Core/Src/lcd.c **** 
 4191              		.loc 1 56 20 is_stmt 0 view .LVU1386
 4192 0908 E360     		str	r3, [r4, #12]
  67:Core/Src/lcd.c ****     HAL_GPIO_WritePin(ILI9341_WR_GPIO_Port, ILI9341_WR_Pin, GPIO_PIN_SET);
 4193              		.loc 1 67 5 is_stmt 1 view .LVU1387
 4194 090a 0022     		movs	r2, #0
 4195 090c 4FF48061 		mov	r1, #1024
 4196 0910 2046     		mov	r0, r4
 4197 0912 FFF7FEFF 		bl	HAL_GPIO_WritePin
 4198              	.LVL464:
  68:Core/Src/lcd.c **** }
 4199              		.loc 1 68 5 view .LVU1388
 4200 0916 0122     		movs	r2, #1
 4201 0918 4FF48061 		mov	r1, #1024
 4202 091c 2046     		mov	r0, r4
 4203 091e FFF7FEFF 		bl	HAL_GPIO_WritePin
 4204              	.LVL465:
  68:Core/Src/lcd.c **** }
 4205              		.loc 1 68 5 is_stmt 0 view .LVU1389
 4206              	.LBE633:
 4207              	.LBE632:
 4208              	.LBE631:
 4209              	.LBE630:
 212:Core/Src/lcd.c ****     ILI9341_Write_Data(0x01);
 4210              		.loc 1 212 5 is_stmt 1 view .LVU1390
 4211              	.LBB634:
 4212              	.LBI634:
  71:Core/Src/lcd.c **** {
 4213              		.loc 1 71 20 view .LVU1391
 4214              	.LBB635:
  74:Core/Src/lcd.c ****     ILI9341_SetData(cmd);
 4215              		.loc 1 74 5 view .LVU1392
 4216 0922 0022     		movs	r2, #0
 4217 0924 4FF48071 		mov	r1, #256
 4218 0928 2046     		mov	r0, r4
 4219 092a FFF7FEFF 		bl	HAL_GPIO_WritePin
 4220              	.LVL466:
  75:Core/Src/lcd.c ****     // ILI9341_Unselect();
 4221              		.loc 1 75 5 view .LVU1393
 4222              	.LBB636:
 4223              	.LBI636:
  46:Core/Src/lcd.c **** {
 4224              		.loc 1 46 20 view .LVU1394
 4225              	.LBB637:
ARM GAS  C:\Users\Vento\AppData\Local\Temp\ccDU9lzs.s 			page 109


  48:Core/Src/lcd.c ****     uint8_t temp_Bit3rd_Data = data & 0x04;
 4226              		.loc 1 48 5 view .LVU1395
  49:Core/Src/lcd.c ****     data &= ~0x06;
 4227              		.loc 1 49 5 view .LVU1396
  50:Core/Src/lcd.c ****     data |= (uint8_t)((temp_Bit2nd_Data << 1) | (temp_Bit3rd_Data >> 1));
 4228              		.loc 1 50 5 view .LVU1397
  51:Core/Src/lcd.c **** 
 4229              		.loc 1 51 5 view .LVU1398
  53:Core/Src/lcd.c ****     tempReg &= 0xFFFFFF00;
 4230              		.loc 1 53 5 view .LVU1399
  53:Core/Src/lcd.c ****     tempReg &= 0xFFFFFF00;
 4231              		.loc 1 53 14 is_stmt 0 view .LVU1400
 4232 092e E368     		ldr	r3, [r4, #12]
 4233              	.LVL467:
  54:Core/Src/lcd.c ****     tempReg |= (uint32_t)data;
 4234              		.loc 1 54 5 is_stmt 1 view .LVU1401
  54:Core/Src/lcd.c ****     tempReg |= (uint32_t)data;
 4235              		.loc 1 54 13 is_stmt 0 view .LVU1402
 4236 0930 23F0FF03 		bic	r3, r3, #255
 4237              	.LVL468:
  55:Core/Src/lcd.c ****     DATA_PORT->ODR = tempReg;
 4238              		.loc 1 55 5 is_stmt 1 view .LVU1403
  55:Core/Src/lcd.c ****     DATA_PORT->ODR = tempReg;
 4239              		.loc 1 55 13 is_stmt 0 view .LVU1404
 4240 0934 43F02603 		orr	r3, r3, #38
 4241              	.LVL469:
  56:Core/Src/lcd.c **** 
 4242              		.loc 1 56 5 is_stmt 1 view .LVU1405
  56:Core/Src/lcd.c **** 
 4243              		.loc 1 56 20 is_stmt 0 view .LVU1406
 4244 0938 E360     		str	r3, [r4, #12]
  67:Core/Src/lcd.c ****     HAL_GPIO_WritePin(ILI9341_WR_GPIO_Port, ILI9341_WR_Pin, GPIO_PIN_SET);
 4245              		.loc 1 67 5 is_stmt 1 view .LVU1407
 4246 093a 0022     		movs	r2, #0
 4247 093c 4FF48061 		mov	r1, #1024
 4248 0940 2046     		mov	r0, r4
 4249 0942 FFF7FEFF 		bl	HAL_GPIO_WritePin
 4250              	.LVL470:
  68:Core/Src/lcd.c **** }
 4251              		.loc 1 68 5 view .LVU1408
 4252 0946 0122     		movs	r2, #1
 4253 0948 4FF48061 		mov	r1, #1024
 4254 094c 2046     		mov	r0, r4
 4255 094e FFF7FEFF 		bl	HAL_GPIO_WritePin
 4256              	.LVL471:
  68:Core/Src/lcd.c **** }
 4257              		.loc 1 68 5 is_stmt 0 view .LVU1409
 4258              	.LBE637:
 4259              	.LBE636:
 4260              	.LBE635:
 4261              	.LBE634:
 213:Core/Src/lcd.c **** 
 4262              		.loc 1 213 5 is_stmt 1 view .LVU1410
 4263              	.LBB638:
 4264              	.LBI638:
  79:Core/Src/lcd.c **** {
 4265              		.loc 1 79 20 view .LVU1411
ARM GAS  C:\Users\Vento\AppData\Local\Temp\ccDU9lzs.s 			page 110


 4266              	.LBB639:
  82:Core/Src/lcd.c ****     ILI9341_SetData(data);
 4267              		.loc 1 82 5 view .LVU1412
 4268 0952 0122     		movs	r2, #1
 4269 0954 4FF48071 		mov	r1, #256
 4270 0958 2046     		mov	r0, r4
 4271 095a FFF7FEFF 		bl	HAL_GPIO_WritePin
 4272              	.LVL472:
  83:Core/Src/lcd.c ****     // ILI9341_Unselect();
 4273              		.loc 1 83 5 view .LVU1413
 4274              	.LBB640:
 4275              	.LBI640:
  46:Core/Src/lcd.c **** {
 4276              		.loc 1 46 20 view .LVU1414
 4277              	.LBB641:
  48:Core/Src/lcd.c ****     uint8_t temp_Bit3rd_Data = data & 0x04;
 4278              		.loc 1 48 5 view .LVU1415
  49:Core/Src/lcd.c ****     data &= ~0x06;
 4279              		.loc 1 49 5 view .LVU1416
  50:Core/Src/lcd.c ****     data |= (uint8_t)((temp_Bit2nd_Data << 1) | (temp_Bit3rd_Data >> 1));
 4280              		.loc 1 50 5 view .LVU1417
  51:Core/Src/lcd.c **** 
 4281              		.loc 1 51 5 view .LVU1418
  53:Core/Src/lcd.c ****     tempReg &= 0xFFFFFF00;
 4282              		.loc 1 53 5 view .LVU1419
  53:Core/Src/lcd.c ****     tempReg &= 0xFFFFFF00;
 4283              		.loc 1 53 14 is_stmt 0 view .LVU1420
 4284 095e E368     		ldr	r3, [r4, #12]
 4285              	.LVL473:
  54:Core/Src/lcd.c ****     tempReg |= (uint32_t)data;
 4286              		.loc 1 54 5 is_stmt 1 view .LVU1421
  54:Core/Src/lcd.c ****     tempReg |= (uint32_t)data;
 4287              		.loc 1 54 13 is_stmt 0 view .LVU1422
 4288 0960 23F0FF03 		bic	r3, r3, #255
 4289              	.LVL474:
  55:Core/Src/lcd.c ****     DATA_PORT->ODR = tempReg;
 4290              		.loc 1 55 5 is_stmt 1 view .LVU1423
  55:Core/Src/lcd.c ****     DATA_PORT->ODR = tempReg;
 4291              		.loc 1 55 13 is_stmt 0 view .LVU1424
 4292 0964 43F00103 		orr	r3, r3, #1
 4293              	.LVL475:
  56:Core/Src/lcd.c **** 
 4294              		.loc 1 56 5 is_stmt 1 view .LVU1425
  56:Core/Src/lcd.c **** 
 4295              		.loc 1 56 20 is_stmt 0 view .LVU1426
 4296 0968 E360     		str	r3, [r4, #12]
  67:Core/Src/lcd.c ****     HAL_GPIO_WritePin(ILI9341_WR_GPIO_Port, ILI9341_WR_Pin, GPIO_PIN_SET);
 4297              		.loc 1 67 5 is_stmt 1 view .LVU1427
 4298 096a 0022     		movs	r2, #0
 4299 096c 4FF48061 		mov	r1, #1024
 4300 0970 2046     		mov	r0, r4
 4301 0972 FFF7FEFF 		bl	HAL_GPIO_WritePin
 4302              	.LVL476:
  68:Core/Src/lcd.c **** }
 4303              		.loc 1 68 5 view .LVU1428
 4304 0976 0122     		movs	r2, #1
 4305 0978 4FF48061 		mov	r1, #1024
ARM GAS  C:\Users\Vento\AppData\Local\Temp\ccDU9lzs.s 			page 111


 4306 097c 2046     		mov	r0, r4
 4307 097e FFF7FEFF 		bl	HAL_GPIO_WritePin
 4308              	.LVL477:
  68:Core/Src/lcd.c **** }
 4309              		.loc 1 68 5 is_stmt 0 view .LVU1429
 4310              	.LBE641:
 4311              	.LBE640:
 4312              	.LBE639:
 4313              	.LBE638:
 216:Core/Src/lcd.c ****     ILI9341_Write_Data(0x0F);
 4314              		.loc 1 216 5 is_stmt 1 view .LVU1430
 4315              	.LBB642:
 4316              	.LBI642:
  71:Core/Src/lcd.c **** {
 4317              		.loc 1 71 20 view .LVU1431
 4318              	.LBB643:
  74:Core/Src/lcd.c ****     ILI9341_SetData(cmd);
 4319              		.loc 1 74 5 view .LVU1432
 4320 0982 0022     		movs	r2, #0
 4321 0984 4FF48071 		mov	r1, #256
 4322 0988 2046     		mov	r0, r4
 4323 098a FFF7FEFF 		bl	HAL_GPIO_WritePin
 4324              	.LVL478:
  75:Core/Src/lcd.c ****     // ILI9341_Unselect();
 4325              		.loc 1 75 5 view .LVU1433
 4326              	.LBB644:
 4327              	.LBI644:
  46:Core/Src/lcd.c **** {
 4328              		.loc 1 46 20 view .LVU1434
 4329              	.LBB645:
  48:Core/Src/lcd.c ****     uint8_t temp_Bit3rd_Data = data & 0x04;
 4330              		.loc 1 48 5 view .LVU1435
  49:Core/Src/lcd.c ****     data &= ~0x06;
 4331              		.loc 1 49 5 view .LVU1436
  50:Core/Src/lcd.c ****     data |= (uint8_t)((temp_Bit2nd_Data << 1) | (temp_Bit3rd_Data >> 1));
 4332              		.loc 1 50 5 view .LVU1437
  51:Core/Src/lcd.c **** 
 4333              		.loc 1 51 5 view .LVU1438
  53:Core/Src/lcd.c ****     tempReg &= 0xFFFFFF00;
 4334              		.loc 1 53 5 view .LVU1439
  53:Core/Src/lcd.c ****     tempReg &= 0xFFFFFF00;
 4335              		.loc 1 53 14 is_stmt 0 view .LVU1440
 4336 098e E368     		ldr	r3, [r4, #12]
 4337              	.LVL479:
  54:Core/Src/lcd.c ****     tempReg |= (uint32_t)data;
 4338              		.loc 1 54 5 is_stmt 1 view .LVU1441
  54:Core/Src/lcd.c ****     tempReg |= (uint32_t)data;
 4339              		.loc 1 54 13 is_stmt 0 view .LVU1442
 4340 0990 23F0FF03 		bic	r3, r3, #255
 4341              	.LVL480:
  55:Core/Src/lcd.c ****     DATA_PORT->ODR = tempReg;
 4342              		.loc 1 55 5 is_stmt 1 view .LVU1443
  55:Core/Src/lcd.c ****     DATA_PORT->ODR = tempReg;
 4343              		.loc 1 55 13 is_stmt 0 view .LVU1444
 4344 0994 43F0E003 		orr	r3, r3, #224
 4345              	.LVL481:
  56:Core/Src/lcd.c **** 
ARM GAS  C:\Users\Vento\AppData\Local\Temp\ccDU9lzs.s 			page 112


 4346              		.loc 1 56 5 is_stmt 1 view .LVU1445
  56:Core/Src/lcd.c **** 
 4347              		.loc 1 56 20 is_stmt 0 view .LVU1446
 4348 0998 E360     		str	r3, [r4, #12]
  67:Core/Src/lcd.c ****     HAL_GPIO_WritePin(ILI9341_WR_GPIO_Port, ILI9341_WR_Pin, GPIO_PIN_SET);
 4349              		.loc 1 67 5 is_stmt 1 view .LVU1447
 4350 099a 0022     		movs	r2, #0
 4351 099c 4FF48061 		mov	r1, #1024
 4352 09a0 2046     		mov	r0, r4
 4353 09a2 FFF7FEFF 		bl	HAL_GPIO_WritePin
 4354              	.LVL482:
  68:Core/Src/lcd.c **** }
 4355              		.loc 1 68 5 view .LVU1448
 4356 09a6 0122     		movs	r2, #1
 4357 09a8 4FF48061 		mov	r1, #1024
 4358 09ac 2046     		mov	r0, r4
 4359 09ae FFF7FEFF 		bl	HAL_GPIO_WritePin
 4360              	.LVL483:
  68:Core/Src/lcd.c **** }
 4361              		.loc 1 68 5 is_stmt 0 view .LVU1449
 4362              	.LBE645:
 4363              	.LBE644:
 4364              	.LBE643:
 4365              	.LBE642:
 217:Core/Src/lcd.c ****     ILI9341_Write_Data(0x31);
 4366              		.loc 1 217 5 is_stmt 1 view .LVU1450
 4367              	.LBB646:
 4368              	.LBI646:
  79:Core/Src/lcd.c **** {
 4369              		.loc 1 79 20 view .LVU1451
 4370              	.LBB647:
  82:Core/Src/lcd.c ****     ILI9341_SetData(data);
 4371              		.loc 1 82 5 view .LVU1452
 4372 09b2 0122     		movs	r2, #1
 4373 09b4 4FF48071 		mov	r1, #256
 4374 09b8 2046     		mov	r0, r4
 4375 09ba FFF7FEFF 		bl	HAL_GPIO_WritePin
 4376              	.LVL484:
  83:Core/Src/lcd.c ****     // ILI9341_Unselect();
 4377              		.loc 1 83 5 view .LVU1453
 4378              	.LBB648:
 4379              	.LBI648:
  46:Core/Src/lcd.c **** {
 4380              		.loc 1 46 20 view .LVU1454
 4381              	.LBB649:
  48:Core/Src/lcd.c ****     uint8_t temp_Bit3rd_Data = data & 0x04;
 4382              		.loc 1 48 5 view .LVU1455
  49:Core/Src/lcd.c ****     data &= ~0x06;
 4383              		.loc 1 49 5 view .LVU1456
  50:Core/Src/lcd.c ****     data |= (uint8_t)((temp_Bit2nd_Data << 1) | (temp_Bit3rd_Data >> 1));
 4384              		.loc 1 50 5 view .LVU1457
  51:Core/Src/lcd.c **** 
 4385              		.loc 1 51 5 view .LVU1458
  53:Core/Src/lcd.c ****     tempReg &= 0xFFFFFF00;
 4386              		.loc 1 53 5 view .LVU1459
  53:Core/Src/lcd.c ****     tempReg &= 0xFFFFFF00;
 4387              		.loc 1 53 14 is_stmt 0 view .LVU1460
ARM GAS  C:\Users\Vento\AppData\Local\Temp\ccDU9lzs.s 			page 113


 4388 09be E368     		ldr	r3, [r4, #12]
 4389              	.LVL485:
  54:Core/Src/lcd.c ****     tempReg |= (uint32_t)data;
 4390              		.loc 1 54 5 is_stmt 1 view .LVU1461
  54:Core/Src/lcd.c ****     tempReg |= (uint32_t)data;
 4391              		.loc 1 54 13 is_stmt 0 view .LVU1462
 4392 09c0 23F0FF03 		bic	r3, r3, #255
 4393              	.LVL486:
  55:Core/Src/lcd.c ****     DATA_PORT->ODR = tempReg;
 4394              		.loc 1 55 5 is_stmt 1 view .LVU1463
  55:Core/Src/lcd.c ****     DATA_PORT->ODR = tempReg;
 4395              		.loc 1 55 13 is_stmt 0 view .LVU1464
 4396 09c4 43F00F03 		orr	r3, r3, #15
 4397              	.LVL487:
  56:Core/Src/lcd.c **** 
 4398              		.loc 1 56 5 is_stmt 1 view .LVU1465
  56:Core/Src/lcd.c **** 
 4399              		.loc 1 56 20 is_stmt 0 view .LVU1466
 4400 09c8 E360     		str	r3, [r4, #12]
  67:Core/Src/lcd.c ****     HAL_GPIO_WritePin(ILI9341_WR_GPIO_Port, ILI9341_WR_Pin, GPIO_PIN_SET);
 4401              		.loc 1 67 5 is_stmt 1 view .LVU1467
 4402 09ca 0022     		movs	r2, #0
 4403 09cc 4FF48061 		mov	r1, #1024
 4404 09d0 2046     		mov	r0, r4
 4405 09d2 FFF7FEFF 		bl	HAL_GPIO_WritePin
 4406              	.LVL488:
  68:Core/Src/lcd.c **** }
 4407              		.loc 1 68 5 view .LVU1468
 4408 09d6 0122     		movs	r2, #1
 4409 09d8 4FF48061 		mov	r1, #1024
 4410 09dc 2046     		mov	r0, r4
 4411 09de FFF7FEFF 		bl	HAL_GPIO_WritePin
 4412              	.LVL489:
  68:Core/Src/lcd.c **** }
 4413              		.loc 1 68 5 is_stmt 0 view .LVU1469
 4414              	.LBE649:
 4415              	.LBE648:
 4416              	.LBE647:
 4417              	.LBE646:
 218:Core/Src/lcd.c ****     ILI9341_Write_Data(0x2B);
 4418              		.loc 1 218 5 is_stmt 1 view .LVU1470
 4419              	.LBB650:
 4420              	.LBI650:
  79:Core/Src/lcd.c **** {
 4421              		.loc 1 79 20 view .LVU1471
 4422              	.LBB651:
  82:Core/Src/lcd.c ****     ILI9341_SetData(data);
 4423              		.loc 1 82 5 view .LVU1472
 4424 09e2 0122     		movs	r2, #1
 4425 09e4 4FF48071 		mov	r1, #256
 4426 09e8 2046     		mov	r0, r4
 4427 09ea FFF7FEFF 		bl	HAL_GPIO_WritePin
 4428              	.LVL490:
  83:Core/Src/lcd.c ****     // ILI9341_Unselect();
 4429              		.loc 1 83 5 view .LVU1473
 4430              	.LBB652:
 4431              	.LBI652:
ARM GAS  C:\Users\Vento\AppData\Local\Temp\ccDU9lzs.s 			page 114


  46:Core/Src/lcd.c **** {
 4432              		.loc 1 46 20 view .LVU1474
 4433              	.LBB653:
  48:Core/Src/lcd.c ****     uint8_t temp_Bit3rd_Data = data & 0x04;
 4434              		.loc 1 48 5 view .LVU1475
  49:Core/Src/lcd.c ****     data &= ~0x06;
 4435              		.loc 1 49 5 view .LVU1476
  50:Core/Src/lcd.c ****     data |= (uint8_t)((temp_Bit2nd_Data << 1) | (temp_Bit3rd_Data >> 1));
 4436              		.loc 1 50 5 view .LVU1477
  51:Core/Src/lcd.c **** 
 4437              		.loc 1 51 5 view .LVU1478
  53:Core/Src/lcd.c ****     tempReg &= 0xFFFFFF00;
 4438              		.loc 1 53 5 view .LVU1479
  53:Core/Src/lcd.c ****     tempReg &= 0xFFFFFF00;
 4439              		.loc 1 53 14 is_stmt 0 view .LVU1480
 4440 09ee E368     		ldr	r3, [r4, #12]
 4441              	.LVL491:
  54:Core/Src/lcd.c ****     tempReg |= (uint32_t)data;
 4442              		.loc 1 54 5 is_stmt 1 view .LVU1481
  54:Core/Src/lcd.c ****     tempReg |= (uint32_t)data;
 4443              		.loc 1 54 13 is_stmt 0 view .LVU1482
 4444 09f0 23F0FF03 		bic	r3, r3, #255
 4445              	.LVL492:
  55:Core/Src/lcd.c ****     DATA_PORT->ODR = tempReg;
 4446              		.loc 1 55 5 is_stmt 1 view .LVU1483
  55:Core/Src/lcd.c ****     DATA_PORT->ODR = tempReg;
 4447              		.loc 1 55 13 is_stmt 0 view .LVU1484
 4448 09f4 43F03103 		orr	r3, r3, #49
 4449              	.LVL493:
  56:Core/Src/lcd.c **** 
 4450              		.loc 1 56 5 is_stmt 1 view .LVU1485
  56:Core/Src/lcd.c **** 
 4451              		.loc 1 56 20 is_stmt 0 view .LVU1486
 4452 09f8 E360     		str	r3, [r4, #12]
  67:Core/Src/lcd.c ****     HAL_GPIO_WritePin(ILI9341_WR_GPIO_Port, ILI9341_WR_Pin, GPIO_PIN_SET);
 4453              		.loc 1 67 5 is_stmt 1 view .LVU1487
 4454 09fa 0022     		movs	r2, #0
 4455 09fc 4FF48061 		mov	r1, #1024
 4456 0a00 2046     		mov	r0, r4
 4457 0a02 FFF7FEFF 		bl	HAL_GPIO_WritePin
 4458              	.LVL494:
  68:Core/Src/lcd.c **** }
 4459              		.loc 1 68 5 view .LVU1488
 4460 0a06 0122     		movs	r2, #1
 4461 0a08 4FF48061 		mov	r1, #1024
 4462 0a0c 2046     		mov	r0, r4
 4463 0a0e FFF7FEFF 		bl	HAL_GPIO_WritePin
 4464              	.LVL495:
  68:Core/Src/lcd.c **** }
 4465              		.loc 1 68 5 is_stmt 0 view .LVU1489
 4466              	.LBE653:
 4467              	.LBE652:
 4468              	.LBE651:
 4469              	.LBE650:
 219:Core/Src/lcd.c ****     ILI9341_Write_Data(0x0C);
 4470              		.loc 1 219 5 is_stmt 1 view .LVU1490
 4471              	.LBB654:
ARM GAS  C:\Users\Vento\AppData\Local\Temp\ccDU9lzs.s 			page 115


 4472              	.LBI654:
  79:Core/Src/lcd.c **** {
 4473              		.loc 1 79 20 view .LVU1491
 4474              	.LBB655:
  82:Core/Src/lcd.c ****     ILI9341_SetData(data);
 4475              		.loc 1 82 5 view .LVU1492
 4476 0a12 0122     		movs	r2, #1
 4477 0a14 4FF48071 		mov	r1, #256
 4478 0a18 2046     		mov	r0, r4
 4479 0a1a FFF7FEFF 		bl	HAL_GPIO_WritePin
 4480              	.LVL496:
  83:Core/Src/lcd.c ****     // ILI9341_Unselect();
 4481              		.loc 1 83 5 view .LVU1493
 4482              	.LBB656:
 4483              	.LBI656:
  46:Core/Src/lcd.c **** {
 4484              		.loc 1 46 20 view .LVU1494
 4485              	.LBB657:
  48:Core/Src/lcd.c ****     uint8_t temp_Bit3rd_Data = data & 0x04;
 4486              		.loc 1 48 5 view .LVU1495
  49:Core/Src/lcd.c ****     data &= ~0x06;
 4487              		.loc 1 49 5 view .LVU1496
  50:Core/Src/lcd.c ****     data |= (uint8_t)((temp_Bit2nd_Data << 1) | (temp_Bit3rd_Data >> 1));
 4488              		.loc 1 50 5 view .LVU1497
  51:Core/Src/lcd.c **** 
 4489              		.loc 1 51 5 view .LVU1498
  53:Core/Src/lcd.c ****     tempReg &= 0xFFFFFF00;
 4490              		.loc 1 53 5 view .LVU1499
  53:Core/Src/lcd.c ****     tempReg &= 0xFFFFFF00;
 4491              		.loc 1 53 14 is_stmt 0 view .LVU1500
 4492 0a1e E368     		ldr	r3, [r4, #12]
 4493              	.LVL497:
  54:Core/Src/lcd.c ****     tempReg |= (uint32_t)data;
 4494              		.loc 1 54 5 is_stmt 1 view .LVU1501
  54:Core/Src/lcd.c ****     tempReg |= (uint32_t)data;
 4495              		.loc 1 54 13 is_stmt 0 view .LVU1502
 4496 0a20 23F0FF03 		bic	r3, r3, #255
 4497              	.LVL498:
  55:Core/Src/lcd.c ****     DATA_PORT->ODR = tempReg;
 4498              		.loc 1 55 5 is_stmt 1 view .LVU1503
  55:Core/Src/lcd.c ****     DATA_PORT->ODR = tempReg;
 4499              		.loc 1 55 13 is_stmt 0 view .LVU1504
 4500 0a24 43F02D03 		orr	r3, r3, #45
 4501              	.LVL499:
  56:Core/Src/lcd.c **** 
 4502              		.loc 1 56 5 is_stmt 1 view .LVU1505
  56:Core/Src/lcd.c **** 
 4503              		.loc 1 56 20 is_stmt 0 view .LVU1506
 4504 0a28 E360     		str	r3, [r4, #12]
  67:Core/Src/lcd.c ****     HAL_GPIO_WritePin(ILI9341_WR_GPIO_Port, ILI9341_WR_Pin, GPIO_PIN_SET);
 4505              		.loc 1 67 5 is_stmt 1 view .LVU1507
 4506 0a2a 0022     		movs	r2, #0
 4507 0a2c 4FF48061 		mov	r1, #1024
 4508 0a30 2046     		mov	r0, r4
 4509 0a32 FFF7FEFF 		bl	HAL_GPIO_WritePin
 4510              	.LVL500:
  68:Core/Src/lcd.c **** }
ARM GAS  C:\Users\Vento\AppData\Local\Temp\ccDU9lzs.s 			page 116


 4511              		.loc 1 68 5 view .LVU1508
 4512 0a36 0122     		movs	r2, #1
 4513 0a38 4FF48061 		mov	r1, #1024
 4514 0a3c 2046     		mov	r0, r4
 4515 0a3e FFF7FEFF 		bl	HAL_GPIO_WritePin
 4516              	.LVL501:
  68:Core/Src/lcd.c **** }
 4517              		.loc 1 68 5 is_stmt 0 view .LVU1509
 4518              	.LBE657:
 4519              	.LBE656:
 4520              	.LBE655:
 4521              	.LBE654:
 220:Core/Src/lcd.c ****     ILI9341_Write_Data(0x0E);
 4522              		.loc 1 220 5 is_stmt 1 view .LVU1510
 4523              	.LBB658:
 4524              	.LBI658:
  79:Core/Src/lcd.c **** {
 4525              		.loc 1 79 20 view .LVU1511
 4526              	.LBB659:
  82:Core/Src/lcd.c ****     ILI9341_SetData(data);
 4527              		.loc 1 82 5 view .LVU1512
 4528 0a42 0122     		movs	r2, #1
 4529 0a44 4FF48071 		mov	r1, #256
 4530 0a48 2046     		mov	r0, r4
 4531 0a4a FFF7FEFF 		bl	HAL_GPIO_WritePin
 4532              	.LVL502:
  83:Core/Src/lcd.c ****     // ILI9341_Unselect();
 4533              		.loc 1 83 5 view .LVU1513
 4534              	.LBB660:
 4535              	.LBI660:
  46:Core/Src/lcd.c **** {
 4536              		.loc 1 46 20 view .LVU1514
 4537              	.LBB661:
  48:Core/Src/lcd.c ****     uint8_t temp_Bit3rd_Data = data & 0x04;
 4538              		.loc 1 48 5 view .LVU1515
  49:Core/Src/lcd.c ****     data &= ~0x06;
 4539              		.loc 1 49 5 view .LVU1516
  50:Core/Src/lcd.c ****     data |= (uint8_t)((temp_Bit2nd_Data << 1) | (temp_Bit3rd_Data >> 1));
 4540              		.loc 1 50 5 view .LVU1517
  51:Core/Src/lcd.c **** 
 4541              		.loc 1 51 5 view .LVU1518
  53:Core/Src/lcd.c ****     tempReg &= 0xFFFFFF00;
 4542              		.loc 1 53 5 view .LVU1519
  53:Core/Src/lcd.c ****     tempReg &= 0xFFFFFF00;
 4543              		.loc 1 53 14 is_stmt 0 view .LVU1520
 4544 0a4e E368     		ldr	r3, [r4, #12]
 4545              	.LVL503:
  54:Core/Src/lcd.c ****     tempReg |= (uint32_t)data;
 4546              		.loc 1 54 5 is_stmt 1 view .LVU1521
  54:Core/Src/lcd.c ****     tempReg |= (uint32_t)data;
 4547              		.loc 1 54 13 is_stmt 0 view .LVU1522
 4548 0a50 23F0FF03 		bic	r3, r3, #255
 4549              	.LVL504:
  55:Core/Src/lcd.c ****     DATA_PORT->ODR = tempReg;
 4550              		.loc 1 55 5 is_stmt 1 view .LVU1523
  55:Core/Src/lcd.c ****     DATA_PORT->ODR = tempReg;
 4551              		.loc 1 55 13 is_stmt 0 view .LVU1524
ARM GAS  C:\Users\Vento\AppData\Local\Temp\ccDU9lzs.s 			page 117


 4552 0a54 43F00A03 		orr	r3, r3, #10
 4553              	.LVL505:
  56:Core/Src/lcd.c **** 
 4554              		.loc 1 56 5 is_stmt 1 view .LVU1525
  56:Core/Src/lcd.c **** 
 4555              		.loc 1 56 20 is_stmt 0 view .LVU1526
 4556 0a58 E360     		str	r3, [r4, #12]
  67:Core/Src/lcd.c ****     HAL_GPIO_WritePin(ILI9341_WR_GPIO_Port, ILI9341_WR_Pin, GPIO_PIN_SET);
 4557              		.loc 1 67 5 is_stmt 1 view .LVU1527
 4558 0a5a 0022     		movs	r2, #0
 4559 0a5c 4FF48061 		mov	r1, #1024
 4560 0a60 2046     		mov	r0, r4
 4561 0a62 FFF7FEFF 		bl	HAL_GPIO_WritePin
 4562              	.LVL506:
  68:Core/Src/lcd.c **** }
 4563              		.loc 1 68 5 view .LVU1528
 4564 0a66 0122     		movs	r2, #1
 4565 0a68 4FF48061 		mov	r1, #1024
 4566 0a6c 2046     		mov	r0, r4
 4567 0a6e FFF7FEFF 		bl	HAL_GPIO_WritePin
 4568              	.LVL507:
  68:Core/Src/lcd.c **** }
 4569              		.loc 1 68 5 is_stmt 0 view .LVU1529
 4570              	.LBE661:
 4571              	.LBE660:
 4572              	.LBE659:
 4573              	.LBE658:
 221:Core/Src/lcd.c ****     ILI9341_Write_Data(0x08);
 4574              		.loc 1 221 5 is_stmt 1 view .LVU1530
 4575              	.LBB662:
 4576              	.LBI662:
  79:Core/Src/lcd.c **** {
 4577              		.loc 1 79 20 view .LVU1531
 4578              	.LBB663:
  82:Core/Src/lcd.c ****     ILI9341_SetData(data);
 4579              		.loc 1 82 5 view .LVU1532
 4580 0a72 0122     		movs	r2, #1
 4581 0a74 4FF48071 		mov	r1, #256
 4582 0a78 2046     		mov	r0, r4
 4583 0a7a FFF7FEFF 		bl	HAL_GPIO_WritePin
 4584              	.LVL508:
  83:Core/Src/lcd.c ****     // ILI9341_Unselect();
 4585              		.loc 1 83 5 view .LVU1533
 4586              	.LBB664:
 4587              	.LBI664:
  46:Core/Src/lcd.c **** {
 4588              		.loc 1 46 20 view .LVU1534
 4589              	.LBB665:
  48:Core/Src/lcd.c ****     uint8_t temp_Bit3rd_Data = data & 0x04;
 4590              		.loc 1 48 5 view .LVU1535
  49:Core/Src/lcd.c ****     data &= ~0x06;
 4591              		.loc 1 49 5 view .LVU1536
  50:Core/Src/lcd.c ****     data |= (uint8_t)((temp_Bit2nd_Data << 1) | (temp_Bit3rd_Data >> 1));
 4592              		.loc 1 50 5 view .LVU1537
  51:Core/Src/lcd.c **** 
 4593              		.loc 1 51 5 view .LVU1538
  53:Core/Src/lcd.c ****     tempReg &= 0xFFFFFF00;
ARM GAS  C:\Users\Vento\AppData\Local\Temp\ccDU9lzs.s 			page 118


 4594              		.loc 1 53 5 view .LVU1539
  53:Core/Src/lcd.c ****     tempReg &= 0xFFFFFF00;
 4595              		.loc 1 53 14 is_stmt 0 view .LVU1540
 4596 0a7e E368     		ldr	r3, [r4, #12]
 4597              	.LVL509:
  54:Core/Src/lcd.c ****     tempReg |= (uint32_t)data;
 4598              		.loc 1 54 5 is_stmt 1 view .LVU1541
  54:Core/Src/lcd.c ****     tempReg |= (uint32_t)data;
 4599              		.loc 1 54 13 is_stmt 0 view .LVU1542
 4600 0a80 23F0FF03 		bic	r3, r3, #255
 4601              	.LVL510:
  55:Core/Src/lcd.c ****     DATA_PORT->ODR = tempReg;
 4602              		.loc 1 55 5 is_stmt 1 view .LVU1543
  55:Core/Src/lcd.c ****     DATA_PORT->ODR = tempReg;
 4603              		.loc 1 55 13 is_stmt 0 view .LVU1544
 4604 0a84 43F00E03 		orr	r3, r3, #14
 4605              	.LVL511:
  56:Core/Src/lcd.c **** 
 4606              		.loc 1 56 5 is_stmt 1 view .LVU1545
  56:Core/Src/lcd.c **** 
 4607              		.loc 1 56 20 is_stmt 0 view .LVU1546
 4608 0a88 E360     		str	r3, [r4, #12]
  67:Core/Src/lcd.c ****     HAL_GPIO_WritePin(ILI9341_WR_GPIO_Port, ILI9341_WR_Pin, GPIO_PIN_SET);
 4609              		.loc 1 67 5 is_stmt 1 view .LVU1547
 4610 0a8a 0022     		movs	r2, #0
 4611 0a8c 4FF48061 		mov	r1, #1024
 4612 0a90 2046     		mov	r0, r4
 4613 0a92 FFF7FEFF 		bl	HAL_GPIO_WritePin
 4614              	.LVL512:
  68:Core/Src/lcd.c **** }
 4615              		.loc 1 68 5 view .LVU1548
 4616 0a96 0122     		movs	r2, #1
 4617 0a98 4FF48061 		mov	r1, #1024
 4618 0a9c 2046     		mov	r0, r4
 4619 0a9e FFF7FEFF 		bl	HAL_GPIO_WritePin
 4620              	.LVL513:
  68:Core/Src/lcd.c **** }
 4621              		.loc 1 68 5 is_stmt 0 view .LVU1549
 4622              	.LBE665:
 4623              	.LBE664:
 4624              	.LBE663:
 4625              	.LBE662:
 222:Core/Src/lcd.c ****     ILI9341_Write_Data(0x4E);
 4626              		.loc 1 222 5 is_stmt 1 view .LVU1550
 4627              	.LBB666:
 4628              	.LBI666:
  79:Core/Src/lcd.c **** {
 4629              		.loc 1 79 20 view .LVU1551
 4630              	.LBB667:
  82:Core/Src/lcd.c ****     ILI9341_SetData(data);
 4631              		.loc 1 82 5 view .LVU1552
 4632 0aa2 0122     		movs	r2, #1
 4633 0aa4 4FF48071 		mov	r1, #256
 4634 0aa8 2046     		mov	r0, r4
 4635 0aaa FFF7FEFF 		bl	HAL_GPIO_WritePin
 4636              	.LVL514:
  83:Core/Src/lcd.c ****     // ILI9341_Unselect();
ARM GAS  C:\Users\Vento\AppData\Local\Temp\ccDU9lzs.s 			page 119


 4637              		.loc 1 83 5 view .LVU1553
 4638              	.LBB668:
 4639              	.LBI668:
  46:Core/Src/lcd.c **** {
 4640              		.loc 1 46 20 view .LVU1554
 4641              	.LBB669:
  48:Core/Src/lcd.c ****     uint8_t temp_Bit3rd_Data = data & 0x04;
 4642              		.loc 1 48 5 view .LVU1555
  49:Core/Src/lcd.c ****     data &= ~0x06;
 4643              		.loc 1 49 5 view .LVU1556
  50:Core/Src/lcd.c ****     data |= (uint8_t)((temp_Bit2nd_Data << 1) | (temp_Bit3rd_Data >> 1));
 4644              		.loc 1 50 5 view .LVU1557
  51:Core/Src/lcd.c **** 
 4645              		.loc 1 51 5 view .LVU1558
  53:Core/Src/lcd.c ****     tempReg &= 0xFFFFFF00;
 4646              		.loc 1 53 5 view .LVU1559
  53:Core/Src/lcd.c ****     tempReg &= 0xFFFFFF00;
 4647              		.loc 1 53 14 is_stmt 0 view .LVU1560
 4648 0aae E368     		ldr	r3, [r4, #12]
 4649              	.LVL515:
  54:Core/Src/lcd.c ****     tempReg |= (uint32_t)data;
 4650              		.loc 1 54 5 is_stmt 1 view .LVU1561
  54:Core/Src/lcd.c ****     tempReg |= (uint32_t)data;
 4651              		.loc 1 54 13 is_stmt 0 view .LVU1562
 4652 0ab0 23F0FF03 		bic	r3, r3, #255
 4653              	.LVL516:
  55:Core/Src/lcd.c ****     DATA_PORT->ODR = tempReg;
 4654              		.loc 1 55 5 is_stmt 1 view .LVU1563
  55:Core/Src/lcd.c ****     DATA_PORT->ODR = tempReg;
 4655              		.loc 1 55 13 is_stmt 0 view .LVU1564
 4656 0ab4 43F00803 		orr	r3, r3, #8
 4657              	.LVL517:
  56:Core/Src/lcd.c **** 
 4658              		.loc 1 56 5 is_stmt 1 view .LVU1565
  56:Core/Src/lcd.c **** 
 4659              		.loc 1 56 20 is_stmt 0 view .LVU1566
 4660 0ab8 E360     		str	r3, [r4, #12]
  67:Core/Src/lcd.c ****     HAL_GPIO_WritePin(ILI9341_WR_GPIO_Port, ILI9341_WR_Pin, GPIO_PIN_SET);
 4661              		.loc 1 67 5 is_stmt 1 view .LVU1567
 4662 0aba 0022     		movs	r2, #0
 4663 0abc 4FF48061 		mov	r1, #1024
 4664 0ac0 2046     		mov	r0, r4
 4665 0ac2 FFF7FEFF 		bl	HAL_GPIO_WritePin
 4666              	.LVL518:
  68:Core/Src/lcd.c **** }
 4667              		.loc 1 68 5 view .LVU1568
 4668 0ac6 0122     		movs	r2, #1
 4669 0ac8 4FF48061 		mov	r1, #1024
 4670 0acc 2046     		mov	r0, r4
 4671 0ace FFF7FEFF 		bl	HAL_GPIO_WritePin
 4672              	.LVL519:
  68:Core/Src/lcd.c **** }
 4673              		.loc 1 68 5 is_stmt 0 view .LVU1569
 4674              	.LBE669:
 4675              	.LBE668:
 4676              	.LBE667:
 4677              	.LBE666:
ARM GAS  C:\Users\Vento\AppData\Local\Temp\ccDU9lzs.s 			page 120


 223:Core/Src/lcd.c ****     ILI9341_Write_Data(0xF1);
 4678              		.loc 1 223 5 is_stmt 1 view .LVU1570
 4679              	.LBB670:
 4680              	.LBI670:
  79:Core/Src/lcd.c **** {
 4681              		.loc 1 79 20 view .LVU1571
 4682              	.LBB671:
  82:Core/Src/lcd.c ****     ILI9341_SetData(data);
 4683              		.loc 1 82 5 view .LVU1572
 4684 0ad2 0122     		movs	r2, #1
 4685 0ad4 4FF48071 		mov	r1, #256
 4686 0ad8 2046     		mov	r0, r4
 4687 0ada FFF7FEFF 		bl	HAL_GPIO_WritePin
 4688              	.LVL520:
  83:Core/Src/lcd.c ****     // ILI9341_Unselect();
 4689              		.loc 1 83 5 view .LVU1573
 4690              	.LBB672:
 4691              	.LBI672:
  46:Core/Src/lcd.c **** {
 4692              		.loc 1 46 20 view .LVU1574
 4693              	.LBB673:
  48:Core/Src/lcd.c ****     uint8_t temp_Bit3rd_Data = data & 0x04;
 4694              		.loc 1 48 5 view .LVU1575
  49:Core/Src/lcd.c ****     data &= ~0x06;
 4695              		.loc 1 49 5 view .LVU1576
  50:Core/Src/lcd.c ****     data |= (uint8_t)((temp_Bit2nd_Data << 1) | (temp_Bit3rd_Data >> 1));
 4696              		.loc 1 50 5 view .LVU1577
  51:Core/Src/lcd.c **** 
 4697              		.loc 1 51 5 view .LVU1578
  53:Core/Src/lcd.c ****     tempReg &= 0xFFFFFF00;
 4698              		.loc 1 53 5 view .LVU1579
  53:Core/Src/lcd.c ****     tempReg &= 0xFFFFFF00;
 4699              		.loc 1 53 14 is_stmt 0 view .LVU1580
 4700 0ade E368     		ldr	r3, [r4, #12]
 4701              	.LVL521:
  54:Core/Src/lcd.c ****     tempReg |= (uint32_t)data;
 4702              		.loc 1 54 5 is_stmt 1 view .LVU1581
  54:Core/Src/lcd.c ****     tempReg |= (uint32_t)data;
 4703              		.loc 1 54 13 is_stmt 0 view .LVU1582
 4704 0ae0 23F0FF03 		bic	r3, r3, #255
 4705              	.LVL522:
  55:Core/Src/lcd.c ****     DATA_PORT->ODR = tempReg;
 4706              		.loc 1 55 5 is_stmt 1 view .LVU1583
  55:Core/Src/lcd.c ****     DATA_PORT->ODR = tempReg;
 4707              		.loc 1 55 13 is_stmt 0 view .LVU1584
 4708 0ae4 43F04E03 		orr	r3, r3, #78
 4709              	.LVL523:
  56:Core/Src/lcd.c **** 
 4710              		.loc 1 56 5 is_stmt 1 view .LVU1585
  56:Core/Src/lcd.c **** 
 4711              		.loc 1 56 20 is_stmt 0 view .LVU1586
 4712 0ae8 E360     		str	r3, [r4, #12]
  67:Core/Src/lcd.c ****     HAL_GPIO_WritePin(ILI9341_WR_GPIO_Port, ILI9341_WR_Pin, GPIO_PIN_SET);
 4713              		.loc 1 67 5 is_stmt 1 view .LVU1587
 4714 0aea 0022     		movs	r2, #0
 4715 0aec 4FF48061 		mov	r1, #1024
 4716 0af0 2046     		mov	r0, r4
ARM GAS  C:\Users\Vento\AppData\Local\Temp\ccDU9lzs.s 			page 121


 4717 0af2 FFF7FEFF 		bl	HAL_GPIO_WritePin
 4718              	.LVL524:
  68:Core/Src/lcd.c **** }
 4719              		.loc 1 68 5 view .LVU1588
 4720 0af6 0122     		movs	r2, #1
 4721 0af8 4FF48061 		mov	r1, #1024
 4722 0afc 2046     		mov	r0, r4
 4723 0afe FFF7FEFF 		bl	HAL_GPIO_WritePin
 4724              	.LVL525:
  68:Core/Src/lcd.c **** }
 4725              		.loc 1 68 5 is_stmt 0 view .LVU1589
 4726              	.LBE673:
 4727              	.LBE672:
 4728              	.LBE671:
 4729              	.LBE670:
 224:Core/Src/lcd.c ****     ILI9341_Write_Data(0x37);
 4730              		.loc 1 224 5 is_stmt 1 view .LVU1590
 4731              	.LBB674:
 4732              	.LBI674:
  79:Core/Src/lcd.c **** {
 4733              		.loc 1 79 20 view .LVU1591
 4734              	.LBB675:
  82:Core/Src/lcd.c ****     ILI9341_SetData(data);
 4735              		.loc 1 82 5 view .LVU1592
 4736 0b02 0122     		movs	r2, #1
 4737 0b04 4FF48071 		mov	r1, #256
 4738 0b08 2046     		mov	r0, r4
 4739 0b0a FFF7FEFF 		bl	HAL_GPIO_WritePin
 4740              	.LVL526:
  83:Core/Src/lcd.c ****     // ILI9341_Unselect();
 4741              		.loc 1 83 5 view .LVU1593
 4742              	.LBB676:
 4743              	.LBI676:
  46:Core/Src/lcd.c **** {
 4744              		.loc 1 46 20 view .LVU1594
 4745              	.LBB677:
  48:Core/Src/lcd.c ****     uint8_t temp_Bit3rd_Data = data & 0x04;
 4746              		.loc 1 48 5 view .LVU1595
  49:Core/Src/lcd.c ****     data &= ~0x06;
 4747              		.loc 1 49 5 view .LVU1596
  50:Core/Src/lcd.c ****     data |= (uint8_t)((temp_Bit2nd_Data << 1) | (temp_Bit3rd_Data >> 1));
 4748              		.loc 1 50 5 view .LVU1597
  51:Core/Src/lcd.c **** 
 4749              		.loc 1 51 5 view .LVU1598
  53:Core/Src/lcd.c ****     tempReg &= 0xFFFFFF00;
 4750              		.loc 1 53 5 view .LVU1599
  53:Core/Src/lcd.c ****     tempReg &= 0xFFFFFF00;
 4751              		.loc 1 53 14 is_stmt 0 view .LVU1600
 4752 0b0e E368     		ldr	r3, [r4, #12]
 4753              	.LVL527:
  54:Core/Src/lcd.c ****     tempReg |= (uint32_t)data;
 4754              		.loc 1 54 5 is_stmt 1 view .LVU1601
  54:Core/Src/lcd.c ****     tempReg |= (uint32_t)data;
 4755              		.loc 1 54 13 is_stmt 0 view .LVU1602
 4756 0b10 23F0FF03 		bic	r3, r3, #255
 4757              	.LVL528:
  55:Core/Src/lcd.c ****     DATA_PORT->ODR = tempReg;
ARM GAS  C:\Users\Vento\AppData\Local\Temp\ccDU9lzs.s 			page 122


 4758              		.loc 1 55 5 is_stmt 1 view .LVU1603
  55:Core/Src/lcd.c ****     DATA_PORT->ODR = tempReg;
 4759              		.loc 1 55 13 is_stmt 0 view .LVU1604
 4760 0b14 43F0F103 		orr	r3, r3, #241
 4761              	.LVL529:
  56:Core/Src/lcd.c **** 
 4762              		.loc 1 56 5 is_stmt 1 view .LVU1605
  56:Core/Src/lcd.c **** 
 4763              		.loc 1 56 20 is_stmt 0 view .LVU1606
 4764 0b18 E360     		str	r3, [r4, #12]
  67:Core/Src/lcd.c ****     HAL_GPIO_WritePin(ILI9341_WR_GPIO_Port, ILI9341_WR_Pin, GPIO_PIN_SET);
 4765              		.loc 1 67 5 is_stmt 1 view .LVU1607
 4766 0b1a 0022     		movs	r2, #0
 4767 0b1c 4FF48061 		mov	r1, #1024
 4768 0b20 2046     		mov	r0, r4
 4769 0b22 FFF7FEFF 		bl	HAL_GPIO_WritePin
 4770              	.LVL530:
  68:Core/Src/lcd.c **** }
 4771              		.loc 1 68 5 view .LVU1608
 4772 0b26 0122     		movs	r2, #1
 4773 0b28 4FF48061 		mov	r1, #1024
 4774 0b2c 2046     		mov	r0, r4
 4775 0b2e FFF7FEFF 		bl	HAL_GPIO_WritePin
 4776              	.LVL531:
  68:Core/Src/lcd.c **** }
 4777              		.loc 1 68 5 is_stmt 0 view .LVU1609
 4778              	.LBE677:
 4779              	.LBE676:
 4780              	.LBE675:
 4781              	.LBE674:
 225:Core/Src/lcd.c ****     ILI9341_Write_Data(0x07);
 4782              		.loc 1 225 5 is_stmt 1 view .LVU1610
 4783              	.LBB678:
 4784              	.LBI678:
  79:Core/Src/lcd.c **** {
 4785              		.loc 1 79 20 view .LVU1611
 4786              	.LBB679:
  82:Core/Src/lcd.c ****     ILI9341_SetData(data);
 4787              		.loc 1 82 5 view .LVU1612
 4788 0b32 0122     		movs	r2, #1
 4789 0b34 4FF48071 		mov	r1, #256
 4790 0b38 2046     		mov	r0, r4
 4791 0b3a FFF7FEFF 		bl	HAL_GPIO_WritePin
 4792              	.LVL532:
  83:Core/Src/lcd.c ****     // ILI9341_Unselect();
 4793              		.loc 1 83 5 view .LVU1613
 4794              	.LBB680:
 4795              	.LBI680:
  46:Core/Src/lcd.c **** {
 4796              		.loc 1 46 20 view .LVU1614
 4797              	.LBB681:
  48:Core/Src/lcd.c ****     uint8_t temp_Bit3rd_Data = data & 0x04;
 4798              		.loc 1 48 5 view .LVU1615
  49:Core/Src/lcd.c ****     data &= ~0x06;
 4799              		.loc 1 49 5 view .LVU1616
  50:Core/Src/lcd.c ****     data |= (uint8_t)((temp_Bit2nd_Data << 1) | (temp_Bit3rd_Data >> 1));
 4800              		.loc 1 50 5 view .LVU1617
ARM GAS  C:\Users\Vento\AppData\Local\Temp\ccDU9lzs.s 			page 123


  51:Core/Src/lcd.c **** 
 4801              		.loc 1 51 5 view .LVU1618
  53:Core/Src/lcd.c ****     tempReg &= 0xFFFFFF00;
 4802              		.loc 1 53 5 view .LVU1619
  53:Core/Src/lcd.c ****     tempReg &= 0xFFFFFF00;
 4803              		.loc 1 53 14 is_stmt 0 view .LVU1620
 4804 0b3e E368     		ldr	r3, [r4, #12]
 4805              	.LVL533:
  54:Core/Src/lcd.c ****     tempReg |= (uint32_t)data;
 4806              		.loc 1 54 5 is_stmt 1 view .LVU1621
  54:Core/Src/lcd.c ****     tempReg |= (uint32_t)data;
 4807              		.loc 1 54 13 is_stmt 0 view .LVU1622
 4808 0b40 23F0FF03 		bic	r3, r3, #255
 4809              	.LVL534:
  55:Core/Src/lcd.c ****     DATA_PORT->ODR = tempReg;
 4810              		.loc 1 55 5 is_stmt 1 view .LVU1623
  55:Core/Src/lcd.c ****     DATA_PORT->ODR = tempReg;
 4811              		.loc 1 55 13 is_stmt 0 view .LVU1624
 4812 0b44 43F03703 		orr	r3, r3, #55
 4813              	.LVL535:
  56:Core/Src/lcd.c **** 
 4814              		.loc 1 56 5 is_stmt 1 view .LVU1625
  56:Core/Src/lcd.c **** 
 4815              		.loc 1 56 20 is_stmt 0 view .LVU1626
 4816 0b48 E360     		str	r3, [r4, #12]
  67:Core/Src/lcd.c ****     HAL_GPIO_WritePin(ILI9341_WR_GPIO_Port, ILI9341_WR_Pin, GPIO_PIN_SET);
 4817              		.loc 1 67 5 is_stmt 1 view .LVU1627
 4818 0b4a 0022     		movs	r2, #0
 4819 0b4c 4FF48061 		mov	r1, #1024
 4820 0b50 2046     		mov	r0, r4
 4821 0b52 FFF7FEFF 		bl	HAL_GPIO_WritePin
 4822              	.LVL536:
  68:Core/Src/lcd.c **** }
 4823              		.loc 1 68 5 view .LVU1628
 4824 0b56 0122     		movs	r2, #1
 4825 0b58 4FF48061 		mov	r1, #1024
 4826 0b5c 2046     		mov	r0, r4
 4827 0b5e FFF7FEFF 		bl	HAL_GPIO_WritePin
 4828              	.LVL537:
  68:Core/Src/lcd.c **** }
 4829              		.loc 1 68 5 is_stmt 0 view .LVU1629
 4830              	.LBE681:
 4831              	.LBE680:
 4832              	.LBE679:
 4833              	.LBE678:
 226:Core/Src/lcd.c ****     ILI9341_Write_Data(0x10);
 4834              		.loc 1 226 5 is_stmt 1 view .LVU1630
 4835              	.LBB682:
 4836              	.LBI682:
  79:Core/Src/lcd.c **** {
 4837              		.loc 1 79 20 view .LVU1631
 4838              	.LBB683:
  82:Core/Src/lcd.c ****     ILI9341_SetData(data);
 4839              		.loc 1 82 5 view .LVU1632
 4840 0b62 0122     		movs	r2, #1
 4841 0b64 4FF48071 		mov	r1, #256
 4842 0b68 2046     		mov	r0, r4
ARM GAS  C:\Users\Vento\AppData\Local\Temp\ccDU9lzs.s 			page 124


 4843 0b6a FFF7FEFF 		bl	HAL_GPIO_WritePin
 4844              	.LVL538:
  83:Core/Src/lcd.c ****     // ILI9341_Unselect();
 4845              		.loc 1 83 5 view .LVU1633
 4846              	.LBB684:
 4847              	.LBI684:
  46:Core/Src/lcd.c **** {
 4848              		.loc 1 46 20 view .LVU1634
 4849              	.LBB685:
  48:Core/Src/lcd.c ****     uint8_t temp_Bit3rd_Data = data & 0x04;
 4850              		.loc 1 48 5 view .LVU1635
  49:Core/Src/lcd.c ****     data &= ~0x06;
 4851              		.loc 1 49 5 view .LVU1636
  50:Core/Src/lcd.c ****     data |= (uint8_t)((temp_Bit2nd_Data << 1) | (temp_Bit3rd_Data >> 1));
 4852              		.loc 1 50 5 view .LVU1637
  51:Core/Src/lcd.c **** 
 4853              		.loc 1 51 5 view .LVU1638
  53:Core/Src/lcd.c ****     tempReg &= 0xFFFFFF00;
 4854              		.loc 1 53 5 view .LVU1639
  53:Core/Src/lcd.c ****     tempReg &= 0xFFFFFF00;
 4855              		.loc 1 53 14 is_stmt 0 view .LVU1640
 4856 0b6e E368     		ldr	r3, [r4, #12]
 4857              	.LVL539:
  54:Core/Src/lcd.c ****     tempReg |= (uint32_t)data;
 4858              		.loc 1 54 5 is_stmt 1 view .LVU1641
  54:Core/Src/lcd.c ****     tempReg |= (uint32_t)data;
 4859              		.loc 1 54 13 is_stmt 0 view .LVU1642
 4860 0b70 23F0FF03 		bic	r3, r3, #255
 4861              	.LVL540:
  55:Core/Src/lcd.c ****     DATA_PORT->ODR = tempReg;
 4862              		.loc 1 55 5 is_stmt 1 view .LVU1643
  55:Core/Src/lcd.c ****     DATA_PORT->ODR = tempReg;
 4863              		.loc 1 55 13 is_stmt 0 view .LVU1644
 4864 0b74 43F00703 		orr	r3, r3, #7
 4865              	.LVL541:
  56:Core/Src/lcd.c **** 
 4866              		.loc 1 56 5 is_stmt 1 view .LVU1645
  56:Core/Src/lcd.c **** 
 4867              		.loc 1 56 20 is_stmt 0 view .LVU1646
 4868 0b78 E360     		str	r3, [r4, #12]
  67:Core/Src/lcd.c ****     HAL_GPIO_WritePin(ILI9341_WR_GPIO_Port, ILI9341_WR_Pin, GPIO_PIN_SET);
 4869              		.loc 1 67 5 is_stmt 1 view .LVU1647
 4870 0b7a 0022     		movs	r2, #0
 4871 0b7c 4FF48061 		mov	r1, #1024
 4872 0b80 2046     		mov	r0, r4
 4873 0b82 FFF7FEFF 		bl	HAL_GPIO_WritePin
 4874              	.LVL542:
  68:Core/Src/lcd.c **** }
 4875              		.loc 1 68 5 view .LVU1648
 4876 0b86 0122     		movs	r2, #1
 4877 0b88 4FF48061 		mov	r1, #1024
 4878 0b8c 2046     		mov	r0, r4
 4879 0b8e FFF7FEFF 		bl	HAL_GPIO_WritePin
 4880              	.LVL543:
  68:Core/Src/lcd.c **** }
 4881              		.loc 1 68 5 is_stmt 0 view .LVU1649
 4882              	.LBE685:
ARM GAS  C:\Users\Vento\AppData\Local\Temp\ccDU9lzs.s 			page 125


 4883              	.LBE684:
 4884              	.LBE683:
 4885              	.LBE682:
 227:Core/Src/lcd.c ****     ILI9341_Write_Data(0x03);
 4886              		.loc 1 227 5 is_stmt 1 view .LVU1650
 4887              	.LBB686:
 4888              	.LBI686:
  79:Core/Src/lcd.c **** {
 4889              		.loc 1 79 20 view .LVU1651
 4890              	.LBB687:
  82:Core/Src/lcd.c ****     ILI9341_SetData(data);
 4891              		.loc 1 82 5 view .LVU1652
 4892 0b92 0122     		movs	r2, #1
 4893 0b94 4FF48071 		mov	r1, #256
 4894 0b98 2046     		mov	r0, r4
 4895 0b9a FFF7FEFF 		bl	HAL_GPIO_WritePin
 4896              	.LVL544:
  83:Core/Src/lcd.c ****     // ILI9341_Unselect();
 4897              		.loc 1 83 5 view .LVU1653
 4898              	.LBB688:
 4899              	.LBI688:
  46:Core/Src/lcd.c **** {
 4900              		.loc 1 46 20 view .LVU1654
 4901              	.LBB689:
  48:Core/Src/lcd.c ****     uint8_t temp_Bit3rd_Data = data & 0x04;
 4902              		.loc 1 48 5 view .LVU1655
  49:Core/Src/lcd.c ****     data &= ~0x06;
 4903              		.loc 1 49 5 view .LVU1656
  50:Core/Src/lcd.c ****     data |= (uint8_t)((temp_Bit2nd_Data << 1) | (temp_Bit3rd_Data >> 1));
 4904              		.loc 1 50 5 view .LVU1657
  51:Core/Src/lcd.c **** 
 4905              		.loc 1 51 5 view .LVU1658
  53:Core/Src/lcd.c ****     tempReg &= 0xFFFFFF00;
 4906              		.loc 1 53 5 view .LVU1659
  53:Core/Src/lcd.c ****     tempReg &= 0xFFFFFF00;
 4907              		.loc 1 53 14 is_stmt 0 view .LVU1660
 4908 0b9e E368     		ldr	r3, [r4, #12]
 4909              	.LVL545:
  54:Core/Src/lcd.c ****     tempReg |= (uint32_t)data;
 4910              		.loc 1 54 5 is_stmt 1 view .LVU1661
  54:Core/Src/lcd.c ****     tempReg |= (uint32_t)data;
 4911              		.loc 1 54 13 is_stmt 0 view .LVU1662
 4912 0ba0 23F0FF03 		bic	r3, r3, #255
 4913              	.LVL546:
  55:Core/Src/lcd.c ****     DATA_PORT->ODR = tempReg;
 4914              		.loc 1 55 5 is_stmt 1 view .LVU1663
  55:Core/Src/lcd.c ****     DATA_PORT->ODR = tempReg;
 4915              		.loc 1 55 13 is_stmt 0 view .LVU1664
 4916 0ba4 43F01003 		orr	r3, r3, #16
 4917              	.LVL547:
  56:Core/Src/lcd.c **** 
 4918              		.loc 1 56 5 is_stmt 1 view .LVU1665
  56:Core/Src/lcd.c **** 
 4919              		.loc 1 56 20 is_stmt 0 view .LVU1666
 4920 0ba8 E360     		str	r3, [r4, #12]
  67:Core/Src/lcd.c ****     HAL_GPIO_WritePin(ILI9341_WR_GPIO_Port, ILI9341_WR_Pin, GPIO_PIN_SET);
 4921              		.loc 1 67 5 is_stmt 1 view .LVU1667
ARM GAS  C:\Users\Vento\AppData\Local\Temp\ccDU9lzs.s 			page 126


 4922 0baa 0022     		movs	r2, #0
 4923 0bac 4FF48061 		mov	r1, #1024
 4924 0bb0 2046     		mov	r0, r4
 4925 0bb2 FFF7FEFF 		bl	HAL_GPIO_WritePin
 4926              	.LVL548:
  68:Core/Src/lcd.c **** }
 4927              		.loc 1 68 5 view .LVU1668
 4928 0bb6 0122     		movs	r2, #1
 4929 0bb8 4FF48061 		mov	r1, #1024
 4930 0bbc 2046     		mov	r0, r4
 4931 0bbe FFF7FEFF 		bl	HAL_GPIO_WritePin
 4932              	.LVL549:
  68:Core/Src/lcd.c **** }
 4933              		.loc 1 68 5 is_stmt 0 view .LVU1669
 4934              	.LBE689:
 4935              	.LBE688:
 4936              	.LBE687:
 4937              	.LBE686:
 228:Core/Src/lcd.c ****     ILI9341_Write_Data(0x0E);
 4938              		.loc 1 228 5 is_stmt 1 view .LVU1670
 4939              	.LBB690:
 4940              	.LBI690:
  79:Core/Src/lcd.c **** {
 4941              		.loc 1 79 20 view .LVU1671
 4942              	.LBB691:
  82:Core/Src/lcd.c ****     ILI9341_SetData(data);
 4943              		.loc 1 82 5 view .LVU1672
 4944 0bc2 0122     		movs	r2, #1
 4945 0bc4 4FF48071 		mov	r1, #256
 4946 0bc8 2046     		mov	r0, r4
 4947 0bca FFF7FEFF 		bl	HAL_GPIO_WritePin
 4948              	.LVL550:
  83:Core/Src/lcd.c ****     // ILI9341_Unselect();
 4949              		.loc 1 83 5 view .LVU1673
 4950              	.LBB692:
 4951              	.LBI692:
  46:Core/Src/lcd.c **** {
 4952              		.loc 1 46 20 view .LVU1674
 4953              	.LBB693:
  48:Core/Src/lcd.c ****     uint8_t temp_Bit3rd_Data = data & 0x04;
 4954              		.loc 1 48 5 view .LVU1675
  49:Core/Src/lcd.c ****     data &= ~0x06;
 4955              		.loc 1 49 5 view .LVU1676
  50:Core/Src/lcd.c ****     data |= (uint8_t)((temp_Bit2nd_Data << 1) | (temp_Bit3rd_Data >> 1));
 4956              		.loc 1 50 5 view .LVU1677
  51:Core/Src/lcd.c **** 
 4957              		.loc 1 51 5 view .LVU1678
  53:Core/Src/lcd.c ****     tempReg &= 0xFFFFFF00;
 4958              		.loc 1 53 5 view .LVU1679
  53:Core/Src/lcd.c ****     tempReg &= 0xFFFFFF00;
 4959              		.loc 1 53 14 is_stmt 0 view .LVU1680
 4960 0bce E368     		ldr	r3, [r4, #12]
 4961              	.LVL551:
  54:Core/Src/lcd.c ****     tempReg |= (uint32_t)data;
 4962              		.loc 1 54 5 is_stmt 1 view .LVU1681
  54:Core/Src/lcd.c ****     tempReg |= (uint32_t)data;
 4963              		.loc 1 54 13 is_stmt 0 view .LVU1682
ARM GAS  C:\Users\Vento\AppData\Local\Temp\ccDU9lzs.s 			page 127


 4964 0bd0 23F0FF03 		bic	r3, r3, #255
 4965              	.LVL552:
  55:Core/Src/lcd.c ****     DATA_PORT->ODR = tempReg;
 4966              		.loc 1 55 5 is_stmt 1 view .LVU1683
  55:Core/Src/lcd.c ****     DATA_PORT->ODR = tempReg;
 4967              		.loc 1 55 13 is_stmt 0 view .LVU1684
 4968 0bd4 43F00503 		orr	r3, r3, #5
 4969              	.LVL553:
  56:Core/Src/lcd.c **** 
 4970              		.loc 1 56 5 is_stmt 1 view .LVU1685
  56:Core/Src/lcd.c **** 
 4971              		.loc 1 56 20 is_stmt 0 view .LVU1686
 4972 0bd8 E360     		str	r3, [r4, #12]
  67:Core/Src/lcd.c ****     HAL_GPIO_WritePin(ILI9341_WR_GPIO_Port, ILI9341_WR_Pin, GPIO_PIN_SET);
 4973              		.loc 1 67 5 is_stmt 1 view .LVU1687
 4974 0bda 0022     		movs	r2, #0
 4975 0bdc 4FF48061 		mov	r1, #1024
 4976 0be0 2046     		mov	r0, r4
 4977 0be2 FFF7FEFF 		bl	HAL_GPIO_WritePin
 4978              	.LVL554:
  68:Core/Src/lcd.c **** }
 4979              		.loc 1 68 5 view .LVU1688
 4980 0be6 0122     		movs	r2, #1
 4981 0be8 4FF48061 		mov	r1, #1024
 4982 0bec 2046     		mov	r0, r4
 4983 0bee FFF7FEFF 		bl	HAL_GPIO_WritePin
 4984              	.LVL555:
  68:Core/Src/lcd.c **** }
 4985              		.loc 1 68 5 is_stmt 0 view .LVU1689
 4986              	.LBE693:
 4987              	.LBE692:
 4988              	.LBE691:
 4989              	.LBE690:
 229:Core/Src/lcd.c ****     ILI9341_Write_Data(0x09);
 4990              		.loc 1 229 5 is_stmt 1 view .LVU1690
 4991              	.LBB694:
 4992              	.LBI694:
  79:Core/Src/lcd.c **** {
 4993              		.loc 1 79 20 view .LVU1691
 4994              	.LBB695:
  82:Core/Src/lcd.c ****     ILI9341_SetData(data);
 4995              		.loc 1 82 5 view .LVU1692
 4996 0bf2 0122     		movs	r2, #1
 4997 0bf4 4FF48071 		mov	r1, #256
 4998 0bf8 2046     		mov	r0, r4
 4999 0bfa FFF7FEFF 		bl	HAL_GPIO_WritePin
 5000              	.LVL556:
  83:Core/Src/lcd.c ****     // ILI9341_Unselect();
 5001              		.loc 1 83 5 view .LVU1693
 5002              	.LBB696:
 5003              	.LBI696:
  46:Core/Src/lcd.c **** {
 5004              		.loc 1 46 20 view .LVU1694
 5005              	.LBB697:
  48:Core/Src/lcd.c ****     uint8_t temp_Bit3rd_Data = data & 0x04;
 5006              		.loc 1 48 5 view .LVU1695
  49:Core/Src/lcd.c ****     data &= ~0x06;
ARM GAS  C:\Users\Vento\AppData\Local\Temp\ccDU9lzs.s 			page 128


 5007              		.loc 1 49 5 view .LVU1696
  50:Core/Src/lcd.c ****     data |= (uint8_t)((temp_Bit2nd_Data << 1) | (temp_Bit3rd_Data >> 1));
 5008              		.loc 1 50 5 view .LVU1697
  51:Core/Src/lcd.c **** 
 5009              		.loc 1 51 5 view .LVU1698
  53:Core/Src/lcd.c ****     tempReg &= 0xFFFFFF00;
 5010              		.loc 1 53 5 view .LVU1699
  53:Core/Src/lcd.c ****     tempReg &= 0xFFFFFF00;
 5011              		.loc 1 53 14 is_stmt 0 view .LVU1700
 5012 0bfe E368     		ldr	r3, [r4, #12]
 5013              	.LVL557:
  54:Core/Src/lcd.c ****     tempReg |= (uint32_t)data;
 5014              		.loc 1 54 5 is_stmt 1 view .LVU1701
  54:Core/Src/lcd.c ****     tempReg |= (uint32_t)data;
 5015              		.loc 1 54 13 is_stmt 0 view .LVU1702
 5016 0c00 23F0FF03 		bic	r3, r3, #255
 5017              	.LVL558:
  55:Core/Src/lcd.c ****     DATA_PORT->ODR = tempReg;
 5018              		.loc 1 55 5 is_stmt 1 view .LVU1703
  55:Core/Src/lcd.c ****     DATA_PORT->ODR = tempReg;
 5019              		.loc 1 55 13 is_stmt 0 view .LVU1704
 5020 0c04 43F00E03 		orr	r3, r3, #14
 5021              	.LVL559:
  56:Core/Src/lcd.c **** 
 5022              		.loc 1 56 5 is_stmt 1 view .LVU1705
  56:Core/Src/lcd.c **** 
 5023              		.loc 1 56 20 is_stmt 0 view .LVU1706
 5024 0c08 E360     		str	r3, [r4, #12]
  67:Core/Src/lcd.c ****     HAL_GPIO_WritePin(ILI9341_WR_GPIO_Port, ILI9341_WR_Pin, GPIO_PIN_SET);
 5025              		.loc 1 67 5 is_stmt 1 view .LVU1707
 5026 0c0a 0022     		movs	r2, #0
 5027 0c0c 4FF48061 		mov	r1, #1024
 5028 0c10 2046     		mov	r0, r4
 5029 0c12 FFF7FEFF 		bl	HAL_GPIO_WritePin
 5030              	.LVL560:
  68:Core/Src/lcd.c **** }
 5031              		.loc 1 68 5 view .LVU1708
 5032 0c16 0122     		movs	r2, #1
 5033 0c18 4FF48061 		mov	r1, #1024
 5034 0c1c 2046     		mov	r0, r4
 5035 0c1e FFF7FEFF 		bl	HAL_GPIO_WritePin
 5036              	.LVL561:
  68:Core/Src/lcd.c **** }
 5037              		.loc 1 68 5 is_stmt 0 view .LVU1709
 5038              	.LBE697:
 5039              	.LBE696:
 5040              	.LBE695:
 5041              	.LBE694:
 230:Core/Src/lcd.c ****     ILI9341_Write_Data(0x00);
 5042              		.loc 1 230 5 is_stmt 1 view .LVU1710
 5043              	.LBB698:
 5044              	.LBI698:
  79:Core/Src/lcd.c **** {
 5045              		.loc 1 79 20 view .LVU1711
 5046              	.LBB699:
  82:Core/Src/lcd.c ****     ILI9341_SetData(data);
 5047              		.loc 1 82 5 view .LVU1712
ARM GAS  C:\Users\Vento\AppData\Local\Temp\ccDU9lzs.s 			page 129


 5048 0c22 0122     		movs	r2, #1
 5049 0c24 4FF48071 		mov	r1, #256
 5050 0c28 2046     		mov	r0, r4
 5051 0c2a FFF7FEFF 		bl	HAL_GPIO_WritePin
 5052              	.LVL562:
  83:Core/Src/lcd.c ****     // ILI9341_Unselect();
 5053              		.loc 1 83 5 view .LVU1713
 5054              	.LBB700:
 5055              	.LBI700:
  46:Core/Src/lcd.c **** {
 5056              		.loc 1 46 20 view .LVU1714
 5057              	.LBB701:
  48:Core/Src/lcd.c ****     uint8_t temp_Bit3rd_Data = data & 0x04;
 5058              		.loc 1 48 5 view .LVU1715
  49:Core/Src/lcd.c ****     data &= ~0x06;
 5059              		.loc 1 49 5 view .LVU1716
  50:Core/Src/lcd.c ****     data |= (uint8_t)((temp_Bit2nd_Data << 1) | (temp_Bit3rd_Data >> 1));
 5060              		.loc 1 50 5 view .LVU1717
  51:Core/Src/lcd.c **** 
 5061              		.loc 1 51 5 view .LVU1718
  53:Core/Src/lcd.c ****     tempReg &= 0xFFFFFF00;
 5062              		.loc 1 53 5 view .LVU1719
  53:Core/Src/lcd.c ****     tempReg &= 0xFFFFFF00;
 5063              		.loc 1 53 14 is_stmt 0 view .LVU1720
 5064 0c2e E368     		ldr	r3, [r4, #12]
 5065              	.LVL563:
  54:Core/Src/lcd.c ****     tempReg |= (uint32_t)data;
 5066              		.loc 1 54 5 is_stmt 1 view .LVU1721
  54:Core/Src/lcd.c ****     tempReg |= (uint32_t)data;
 5067              		.loc 1 54 13 is_stmt 0 view .LVU1722
 5068 0c30 23F0FF03 		bic	r3, r3, #255
 5069              	.LVL564:
  55:Core/Src/lcd.c ****     DATA_PORT->ODR = tempReg;
 5070              		.loc 1 55 5 is_stmt 1 view .LVU1723
  55:Core/Src/lcd.c ****     DATA_PORT->ODR = tempReg;
 5071              		.loc 1 55 13 is_stmt 0 view .LVU1724
 5072 0c34 43F00903 		orr	r3, r3, #9
 5073              	.LVL565:
  56:Core/Src/lcd.c **** 
 5074              		.loc 1 56 5 is_stmt 1 view .LVU1725
  56:Core/Src/lcd.c **** 
 5075              		.loc 1 56 20 is_stmt 0 view .LVU1726
 5076 0c38 E360     		str	r3, [r4, #12]
  67:Core/Src/lcd.c ****     HAL_GPIO_WritePin(ILI9341_WR_GPIO_Port, ILI9341_WR_Pin, GPIO_PIN_SET);
 5077              		.loc 1 67 5 is_stmt 1 view .LVU1727
 5078 0c3a 0022     		movs	r2, #0
 5079 0c3c 4FF48061 		mov	r1, #1024
 5080 0c40 2046     		mov	r0, r4
 5081 0c42 FFF7FEFF 		bl	HAL_GPIO_WritePin
 5082              	.LVL566:
  68:Core/Src/lcd.c **** }
 5083              		.loc 1 68 5 view .LVU1728
 5084 0c46 0122     		movs	r2, #1
 5085 0c48 4FF48061 		mov	r1, #1024
 5086 0c4c 2046     		mov	r0, r4
 5087 0c4e FFF7FEFF 		bl	HAL_GPIO_WritePin
 5088              	.LVL567:
ARM GAS  C:\Users\Vento\AppData\Local\Temp\ccDU9lzs.s 			page 130


  68:Core/Src/lcd.c **** }
 5089              		.loc 1 68 5 is_stmt 0 view .LVU1729
 5090              	.LBE701:
 5091              	.LBE700:
 5092              	.LBE699:
 5093              	.LBE698:
 231:Core/Src/lcd.c **** 
 5094              		.loc 1 231 5 is_stmt 1 view .LVU1730
 5095              	.LBB702:
 5096              	.LBI702:
  79:Core/Src/lcd.c **** {
 5097              		.loc 1 79 20 view .LVU1731
 5098              	.LBB703:
  82:Core/Src/lcd.c ****     ILI9341_SetData(data);
 5099              		.loc 1 82 5 view .LVU1732
 5100 0c52 0122     		movs	r2, #1
 5101 0c54 4FF48071 		mov	r1, #256
 5102 0c58 2046     		mov	r0, r4
 5103 0c5a FFF7FEFF 		bl	HAL_GPIO_WritePin
 5104              	.LVL568:
  83:Core/Src/lcd.c ****     // ILI9341_Unselect();
 5105              		.loc 1 83 5 view .LVU1733
 5106              	.LBB704:
 5107              	.LBI704:
  46:Core/Src/lcd.c **** {
 5108              		.loc 1 46 20 view .LVU1734
 5109              	.LBB705:
  48:Core/Src/lcd.c ****     uint8_t temp_Bit3rd_Data = data & 0x04;
 5110              		.loc 1 48 5 view .LVU1735
  49:Core/Src/lcd.c ****     data &= ~0x06;
 5111              		.loc 1 49 5 view .LVU1736
  50:Core/Src/lcd.c ****     data |= (uint8_t)((temp_Bit2nd_Data << 1) | (temp_Bit3rd_Data >> 1));
 5112              		.loc 1 50 5 view .LVU1737
  51:Core/Src/lcd.c **** 
 5113              		.loc 1 51 5 view .LVU1738
  53:Core/Src/lcd.c ****     tempReg &= 0xFFFFFF00;
 5114              		.loc 1 53 5 view .LVU1739
  53:Core/Src/lcd.c ****     tempReg &= 0xFFFFFF00;
 5115              		.loc 1 53 14 is_stmt 0 view .LVU1740
 5116 0c5e E368     		ldr	r3, [r4, #12]
 5117              	.LVL569:
  54:Core/Src/lcd.c ****     tempReg |= (uint32_t)data;
 5118              		.loc 1 54 5 is_stmt 1 view .LVU1741
  54:Core/Src/lcd.c ****     tempReg |= (uint32_t)data;
 5119              		.loc 1 54 13 is_stmt 0 view .LVU1742
 5120 0c60 23F0FF03 		bic	r3, r3, #255
 5121              	.LVL570:
  55:Core/Src/lcd.c ****     DATA_PORT->ODR = tempReg;
 5122              		.loc 1 55 5 is_stmt 1 view .LVU1743
  56:Core/Src/lcd.c **** 
 5123              		.loc 1 56 5 view .LVU1744
  56:Core/Src/lcd.c **** 
 5124              		.loc 1 56 20 is_stmt 0 view .LVU1745
 5125 0c64 E360     		str	r3, [r4, #12]
  67:Core/Src/lcd.c ****     HAL_GPIO_WritePin(ILI9341_WR_GPIO_Port, ILI9341_WR_Pin, GPIO_PIN_SET);
 5126              		.loc 1 67 5 is_stmt 1 view .LVU1746
 5127 0c66 0022     		movs	r2, #0
ARM GAS  C:\Users\Vento\AppData\Local\Temp\ccDU9lzs.s 			page 131


 5128 0c68 4FF48061 		mov	r1, #1024
 5129 0c6c 2046     		mov	r0, r4
 5130 0c6e FFF7FEFF 		bl	HAL_GPIO_WritePin
 5131              	.LVL571:
  68:Core/Src/lcd.c **** }
 5132              		.loc 1 68 5 view .LVU1747
 5133 0c72 0122     		movs	r2, #1
 5134 0c74 4FF48061 		mov	r1, #1024
 5135 0c78 2046     		mov	r0, r4
 5136 0c7a FFF7FEFF 		bl	HAL_GPIO_WritePin
 5137              	.LVL572:
  68:Core/Src/lcd.c **** }
 5138              		.loc 1 68 5 is_stmt 0 view .LVU1748
 5139              	.LBE705:
 5140              	.LBE704:
 5141              	.LBE703:
 5142              	.LBE702:
 234:Core/Src/lcd.c ****     ILI9341_Write_Data(0x00);
 5143              		.loc 1 234 5 is_stmt 1 view .LVU1749
 5144              	.LBB706:
 5145              	.LBI706:
  71:Core/Src/lcd.c **** {
 5146              		.loc 1 71 20 view .LVU1750
 5147              	.LBB707:
  74:Core/Src/lcd.c ****     ILI9341_SetData(cmd);
 5148              		.loc 1 74 5 view .LVU1751
 5149 0c7e 0022     		movs	r2, #0
 5150 0c80 4FF48071 		mov	r1, #256
 5151 0c84 2046     		mov	r0, r4
 5152 0c86 FFF7FEFF 		bl	HAL_GPIO_WritePin
 5153              	.LVL573:
  75:Core/Src/lcd.c ****     // ILI9341_Unselect();
 5154              		.loc 1 75 5 view .LVU1752
 5155              	.LBB708:
 5156              	.LBI708:
  46:Core/Src/lcd.c **** {
 5157              		.loc 1 46 20 view .LVU1753
 5158              	.LBB709:
  48:Core/Src/lcd.c ****     uint8_t temp_Bit3rd_Data = data & 0x04;
 5159              		.loc 1 48 5 view .LVU1754
  49:Core/Src/lcd.c ****     data &= ~0x06;
 5160              		.loc 1 49 5 view .LVU1755
  50:Core/Src/lcd.c ****     data |= (uint8_t)((temp_Bit2nd_Data << 1) | (temp_Bit3rd_Data >> 1));
 5161              		.loc 1 50 5 view .LVU1756
  51:Core/Src/lcd.c **** 
 5162              		.loc 1 51 5 view .LVU1757
  53:Core/Src/lcd.c ****     tempReg &= 0xFFFFFF00;
 5163              		.loc 1 53 5 view .LVU1758
  53:Core/Src/lcd.c ****     tempReg &= 0xFFFFFF00;
 5164              		.loc 1 53 14 is_stmt 0 view .LVU1759
 5165 0c8a E368     		ldr	r3, [r4, #12]
 5166              	.LVL574:
  54:Core/Src/lcd.c ****     tempReg |= (uint32_t)data;
 5167              		.loc 1 54 5 is_stmt 1 view .LVU1760
  54:Core/Src/lcd.c ****     tempReg |= (uint32_t)data;
 5168              		.loc 1 54 13 is_stmt 0 view .LVU1761
 5169 0c8c 23F0FF03 		bic	r3, r3, #255
ARM GAS  C:\Users\Vento\AppData\Local\Temp\ccDU9lzs.s 			page 132


 5170              	.LVL575:
  55:Core/Src/lcd.c ****     DATA_PORT->ODR = tempReg;
 5171              		.loc 1 55 5 is_stmt 1 view .LVU1762
  55:Core/Src/lcd.c ****     DATA_PORT->ODR = tempReg;
 5172              		.loc 1 55 13 is_stmt 0 view .LVU1763
 5173 0c90 43F0E103 		orr	r3, r3, #225
 5174              	.LVL576:
  56:Core/Src/lcd.c **** 
 5175              		.loc 1 56 5 is_stmt 1 view .LVU1764
  56:Core/Src/lcd.c **** 
 5176              		.loc 1 56 20 is_stmt 0 view .LVU1765
 5177 0c94 E360     		str	r3, [r4, #12]
  67:Core/Src/lcd.c ****     HAL_GPIO_WritePin(ILI9341_WR_GPIO_Port, ILI9341_WR_Pin, GPIO_PIN_SET);
 5178              		.loc 1 67 5 is_stmt 1 view .LVU1766
 5179 0c96 0022     		movs	r2, #0
 5180 0c98 4FF48061 		mov	r1, #1024
 5181 0c9c 2046     		mov	r0, r4
 5182 0c9e FFF7FEFF 		bl	HAL_GPIO_WritePin
 5183              	.LVL577:
  68:Core/Src/lcd.c **** }
 5184              		.loc 1 68 5 view .LVU1767
 5185 0ca2 0122     		movs	r2, #1
 5186 0ca4 4FF48061 		mov	r1, #1024
 5187 0ca8 2046     		mov	r0, r4
 5188 0caa FFF7FEFF 		bl	HAL_GPIO_WritePin
 5189              	.LVL578:
  68:Core/Src/lcd.c **** }
 5190              		.loc 1 68 5 is_stmt 0 view .LVU1768
 5191              	.LBE709:
 5192              	.LBE708:
 5193              	.LBE707:
 5194              	.LBE706:
 235:Core/Src/lcd.c ****     ILI9341_Write_Data(0x0E);
 5195              		.loc 1 235 5 is_stmt 1 view .LVU1769
 5196              	.LBB710:
 5197              	.LBI710:
  79:Core/Src/lcd.c **** {
 5198              		.loc 1 79 20 view .LVU1770
 5199              	.LBB711:
  82:Core/Src/lcd.c ****     ILI9341_SetData(data);
 5200              		.loc 1 82 5 view .LVU1771
 5201 0cae 0122     		movs	r2, #1
 5202 0cb0 4FF48071 		mov	r1, #256
 5203 0cb4 2046     		mov	r0, r4
 5204 0cb6 FFF7FEFF 		bl	HAL_GPIO_WritePin
 5205              	.LVL579:
  83:Core/Src/lcd.c ****     // ILI9341_Unselect();
 5206              		.loc 1 83 5 view .LVU1772
 5207              	.LBB712:
 5208              	.LBI712:
  46:Core/Src/lcd.c **** {
 5209              		.loc 1 46 20 view .LVU1773
 5210              	.LBB713:
  48:Core/Src/lcd.c ****     uint8_t temp_Bit3rd_Data = data & 0x04;
 5211              		.loc 1 48 5 view .LVU1774
  49:Core/Src/lcd.c ****     data &= ~0x06;
 5212              		.loc 1 49 5 view .LVU1775
ARM GAS  C:\Users\Vento\AppData\Local\Temp\ccDU9lzs.s 			page 133


  50:Core/Src/lcd.c ****     data |= (uint8_t)((temp_Bit2nd_Data << 1) | (temp_Bit3rd_Data >> 1));
 5213              		.loc 1 50 5 view .LVU1776
  51:Core/Src/lcd.c **** 
 5214              		.loc 1 51 5 view .LVU1777
  53:Core/Src/lcd.c ****     tempReg &= 0xFFFFFF00;
 5215              		.loc 1 53 5 view .LVU1778
  53:Core/Src/lcd.c ****     tempReg &= 0xFFFFFF00;
 5216              		.loc 1 53 14 is_stmt 0 view .LVU1779
 5217 0cba E368     		ldr	r3, [r4, #12]
 5218              	.LVL580:
  54:Core/Src/lcd.c ****     tempReg |= (uint32_t)data;
 5219              		.loc 1 54 5 is_stmt 1 view .LVU1780
  54:Core/Src/lcd.c ****     tempReg |= (uint32_t)data;
 5220              		.loc 1 54 13 is_stmt 0 view .LVU1781
 5221 0cbc 23F0FF03 		bic	r3, r3, #255
 5222              	.LVL581:
  55:Core/Src/lcd.c ****     DATA_PORT->ODR = tempReg;
 5223              		.loc 1 55 5 is_stmt 1 view .LVU1782
  56:Core/Src/lcd.c **** 
 5224              		.loc 1 56 5 view .LVU1783
  56:Core/Src/lcd.c **** 
 5225              		.loc 1 56 20 is_stmt 0 view .LVU1784
 5226 0cc0 E360     		str	r3, [r4, #12]
  67:Core/Src/lcd.c ****     HAL_GPIO_WritePin(ILI9341_WR_GPIO_Port, ILI9341_WR_Pin, GPIO_PIN_SET);
 5227              		.loc 1 67 5 is_stmt 1 view .LVU1785
 5228 0cc2 0022     		movs	r2, #0
 5229 0cc4 4FF48061 		mov	r1, #1024
 5230 0cc8 2046     		mov	r0, r4
 5231 0cca FFF7FEFF 		bl	HAL_GPIO_WritePin
 5232              	.LVL582:
  68:Core/Src/lcd.c **** }
 5233              		.loc 1 68 5 view .LVU1786
 5234 0cce 0122     		movs	r2, #1
 5235 0cd0 4FF48061 		mov	r1, #1024
 5236 0cd4 2046     		mov	r0, r4
 5237 0cd6 FFF7FEFF 		bl	HAL_GPIO_WritePin
 5238              	.LVL583:
  68:Core/Src/lcd.c **** }
 5239              		.loc 1 68 5 is_stmt 0 view .LVU1787
 5240              	.LBE713:
 5241              	.LBE712:
 5242              	.LBE711:
 5243              	.LBE710:
 236:Core/Src/lcd.c ****     ILI9341_Write_Data(0x14);
 5244              		.loc 1 236 5 is_stmt 1 view .LVU1788
 5245              	.LBB714:
 5246              	.LBI714:
  79:Core/Src/lcd.c **** {
 5247              		.loc 1 79 20 view .LVU1789
 5248              	.LBB715:
  82:Core/Src/lcd.c ****     ILI9341_SetData(data);
 5249              		.loc 1 82 5 view .LVU1790
 5250 0cda 0122     		movs	r2, #1
 5251 0cdc 4FF48071 		mov	r1, #256
 5252 0ce0 2046     		mov	r0, r4
 5253 0ce2 FFF7FEFF 		bl	HAL_GPIO_WritePin
 5254              	.LVL584:
ARM GAS  C:\Users\Vento\AppData\Local\Temp\ccDU9lzs.s 			page 134


  83:Core/Src/lcd.c ****     // ILI9341_Unselect();
 5255              		.loc 1 83 5 view .LVU1791
 5256              	.LBB716:
 5257              	.LBI716:
  46:Core/Src/lcd.c **** {
 5258              		.loc 1 46 20 view .LVU1792
 5259              	.LBB717:
  48:Core/Src/lcd.c ****     uint8_t temp_Bit3rd_Data = data & 0x04;
 5260              		.loc 1 48 5 view .LVU1793
  49:Core/Src/lcd.c ****     data &= ~0x06;
 5261              		.loc 1 49 5 view .LVU1794
  50:Core/Src/lcd.c ****     data |= (uint8_t)((temp_Bit2nd_Data << 1) | (temp_Bit3rd_Data >> 1));
 5262              		.loc 1 50 5 view .LVU1795
  51:Core/Src/lcd.c **** 
 5263              		.loc 1 51 5 view .LVU1796
  53:Core/Src/lcd.c ****     tempReg &= 0xFFFFFF00;
 5264              		.loc 1 53 5 view .LVU1797
  53:Core/Src/lcd.c ****     tempReg &= 0xFFFFFF00;
 5265              		.loc 1 53 14 is_stmt 0 view .LVU1798
 5266 0ce6 E368     		ldr	r3, [r4, #12]
 5267              	.LVL585:
  54:Core/Src/lcd.c ****     tempReg |= (uint32_t)data;
 5268              		.loc 1 54 5 is_stmt 1 view .LVU1799
  54:Core/Src/lcd.c ****     tempReg |= (uint32_t)data;
 5269              		.loc 1 54 13 is_stmt 0 view .LVU1800
 5270 0ce8 23F0FF03 		bic	r3, r3, #255
 5271              	.LVL586:
  55:Core/Src/lcd.c ****     DATA_PORT->ODR = tempReg;
 5272              		.loc 1 55 5 is_stmt 1 view .LVU1801
  55:Core/Src/lcd.c ****     DATA_PORT->ODR = tempReg;
 5273              		.loc 1 55 13 is_stmt 0 view .LVU1802
 5274 0cec 43F00E03 		orr	r3, r3, #14
 5275              	.LVL587:
  56:Core/Src/lcd.c **** 
 5276              		.loc 1 56 5 is_stmt 1 view .LVU1803
  56:Core/Src/lcd.c **** 
 5277              		.loc 1 56 20 is_stmt 0 view .LVU1804
 5278 0cf0 E360     		str	r3, [r4, #12]
  67:Core/Src/lcd.c ****     HAL_GPIO_WritePin(ILI9341_WR_GPIO_Port, ILI9341_WR_Pin, GPIO_PIN_SET);
 5279              		.loc 1 67 5 is_stmt 1 view .LVU1805
 5280 0cf2 0022     		movs	r2, #0
 5281 0cf4 4FF48061 		mov	r1, #1024
 5282 0cf8 2046     		mov	r0, r4
 5283 0cfa FFF7FEFF 		bl	HAL_GPIO_WritePin
 5284              	.LVL588:
  68:Core/Src/lcd.c **** }
 5285              		.loc 1 68 5 view .LVU1806
 5286 0cfe 0122     		movs	r2, #1
 5287 0d00 4FF48061 		mov	r1, #1024
 5288 0d04 2046     		mov	r0, r4
 5289 0d06 FFF7FEFF 		bl	HAL_GPIO_WritePin
 5290              	.LVL589:
  68:Core/Src/lcd.c **** }
 5291              		.loc 1 68 5 is_stmt 0 view .LVU1807
 5292              	.LBE717:
 5293              	.LBE716:
 5294              	.LBE715:
ARM GAS  C:\Users\Vento\AppData\Local\Temp\ccDU9lzs.s 			page 135


 5295              	.LBE714:
 237:Core/Src/lcd.c ****     ILI9341_Write_Data(0x03);
 5296              		.loc 1 237 5 is_stmt 1 view .LVU1808
 5297              	.LBB718:
 5298              	.LBI718:
  79:Core/Src/lcd.c **** {
 5299              		.loc 1 79 20 view .LVU1809
 5300              	.LBB719:
  82:Core/Src/lcd.c ****     ILI9341_SetData(data);
 5301              		.loc 1 82 5 view .LVU1810
 5302 0d0a 0122     		movs	r2, #1
 5303 0d0c 4FF48071 		mov	r1, #256
 5304 0d10 2046     		mov	r0, r4
 5305 0d12 FFF7FEFF 		bl	HAL_GPIO_WritePin
 5306              	.LVL590:
  83:Core/Src/lcd.c ****     // ILI9341_Unselect();
 5307              		.loc 1 83 5 view .LVU1811
 5308              	.LBB720:
 5309              	.LBI720:
  46:Core/Src/lcd.c **** {
 5310              		.loc 1 46 20 view .LVU1812
 5311              	.LBB721:
  48:Core/Src/lcd.c ****     uint8_t temp_Bit3rd_Data = data & 0x04;
 5312              		.loc 1 48 5 view .LVU1813
  49:Core/Src/lcd.c ****     data &= ~0x06;
 5313              		.loc 1 49 5 view .LVU1814
  50:Core/Src/lcd.c ****     data |= (uint8_t)((temp_Bit2nd_Data << 1) | (temp_Bit3rd_Data >> 1));
 5314              		.loc 1 50 5 view .LVU1815
  51:Core/Src/lcd.c **** 
 5315              		.loc 1 51 5 view .LVU1816
  53:Core/Src/lcd.c ****     tempReg &= 0xFFFFFF00;
 5316              		.loc 1 53 5 view .LVU1817
  53:Core/Src/lcd.c ****     tempReg &= 0xFFFFFF00;
 5317              		.loc 1 53 14 is_stmt 0 view .LVU1818
 5318 0d16 E368     		ldr	r3, [r4, #12]
 5319              	.LVL591:
  54:Core/Src/lcd.c ****     tempReg |= (uint32_t)data;
 5320              		.loc 1 54 5 is_stmt 1 view .LVU1819
  54:Core/Src/lcd.c ****     tempReg |= (uint32_t)data;
 5321              		.loc 1 54 13 is_stmt 0 view .LVU1820
 5322 0d18 23F0FF03 		bic	r3, r3, #255
 5323              	.LVL592:
  55:Core/Src/lcd.c ****     DATA_PORT->ODR = tempReg;
 5324              		.loc 1 55 5 is_stmt 1 view .LVU1821
  55:Core/Src/lcd.c ****     DATA_PORT->ODR = tempReg;
 5325              		.loc 1 55 13 is_stmt 0 view .LVU1822
 5326 0d1c 43F01203 		orr	r3, r3, #18
 5327              	.LVL593:
  56:Core/Src/lcd.c **** 
 5328              		.loc 1 56 5 is_stmt 1 view .LVU1823
  56:Core/Src/lcd.c **** 
 5329              		.loc 1 56 20 is_stmt 0 view .LVU1824
 5330 0d20 E360     		str	r3, [r4, #12]
  67:Core/Src/lcd.c ****     HAL_GPIO_WritePin(ILI9341_WR_GPIO_Port, ILI9341_WR_Pin, GPIO_PIN_SET);
 5331              		.loc 1 67 5 is_stmt 1 view .LVU1825
 5332 0d22 0022     		movs	r2, #0
 5333 0d24 4FF48061 		mov	r1, #1024
ARM GAS  C:\Users\Vento\AppData\Local\Temp\ccDU9lzs.s 			page 136


 5334 0d28 2046     		mov	r0, r4
 5335 0d2a FFF7FEFF 		bl	HAL_GPIO_WritePin
 5336              	.LVL594:
  68:Core/Src/lcd.c **** }
 5337              		.loc 1 68 5 view .LVU1826
 5338 0d2e 0122     		movs	r2, #1
 5339 0d30 4FF48061 		mov	r1, #1024
 5340 0d34 2046     		mov	r0, r4
 5341 0d36 FFF7FEFF 		bl	HAL_GPIO_WritePin
 5342              	.LVL595:
  68:Core/Src/lcd.c **** }
 5343              		.loc 1 68 5 is_stmt 0 view .LVU1827
 5344              	.LBE721:
 5345              	.LBE720:
 5346              	.LBE719:
 5347              	.LBE718:
 238:Core/Src/lcd.c ****     ILI9341_Write_Data(0x11);
 5348              		.loc 1 238 5 is_stmt 1 view .LVU1828
 5349              	.LBB722:
 5350              	.LBI722:
  79:Core/Src/lcd.c **** {
 5351              		.loc 1 79 20 view .LVU1829
 5352              	.LBB723:
  82:Core/Src/lcd.c ****     ILI9341_SetData(data);
 5353              		.loc 1 82 5 view .LVU1830
 5354 0d3a 0122     		movs	r2, #1
 5355 0d3c 4FF48071 		mov	r1, #256
 5356 0d40 2046     		mov	r0, r4
 5357 0d42 FFF7FEFF 		bl	HAL_GPIO_WritePin
 5358              	.LVL596:
  83:Core/Src/lcd.c ****     // ILI9341_Unselect();
 5359              		.loc 1 83 5 view .LVU1831
 5360              	.LBB724:
 5361              	.LBI724:
  46:Core/Src/lcd.c **** {
 5362              		.loc 1 46 20 view .LVU1832
 5363              	.LBB725:
  48:Core/Src/lcd.c ****     uint8_t temp_Bit3rd_Data = data & 0x04;
 5364              		.loc 1 48 5 view .LVU1833
  49:Core/Src/lcd.c ****     data &= ~0x06;
 5365              		.loc 1 49 5 view .LVU1834
  50:Core/Src/lcd.c ****     data |= (uint8_t)((temp_Bit2nd_Data << 1) | (temp_Bit3rd_Data >> 1));
 5366              		.loc 1 50 5 view .LVU1835
  51:Core/Src/lcd.c **** 
 5367              		.loc 1 51 5 view .LVU1836
  53:Core/Src/lcd.c ****     tempReg &= 0xFFFFFF00;
 5368              		.loc 1 53 5 view .LVU1837
  53:Core/Src/lcd.c ****     tempReg &= 0xFFFFFF00;
 5369              		.loc 1 53 14 is_stmt 0 view .LVU1838
 5370 0d46 E368     		ldr	r3, [r4, #12]
 5371              	.LVL597:
  54:Core/Src/lcd.c ****     tempReg |= (uint32_t)data;
 5372              		.loc 1 54 5 is_stmt 1 view .LVU1839
  54:Core/Src/lcd.c ****     tempReg |= (uint32_t)data;
 5373              		.loc 1 54 13 is_stmt 0 view .LVU1840
 5374 0d48 23F0FF03 		bic	r3, r3, #255
 5375              	.LVL598:
ARM GAS  C:\Users\Vento\AppData\Local\Temp\ccDU9lzs.s 			page 137


  55:Core/Src/lcd.c ****     DATA_PORT->ODR = tempReg;
 5376              		.loc 1 55 5 is_stmt 1 view .LVU1841
  55:Core/Src/lcd.c ****     DATA_PORT->ODR = tempReg;
 5377              		.loc 1 55 13 is_stmt 0 view .LVU1842
 5378 0d4c 43F00503 		orr	r3, r3, #5
 5379              	.LVL599:
  56:Core/Src/lcd.c **** 
 5380              		.loc 1 56 5 is_stmt 1 view .LVU1843
  56:Core/Src/lcd.c **** 
 5381              		.loc 1 56 20 is_stmt 0 view .LVU1844
 5382 0d50 E360     		str	r3, [r4, #12]
  67:Core/Src/lcd.c ****     HAL_GPIO_WritePin(ILI9341_WR_GPIO_Port, ILI9341_WR_Pin, GPIO_PIN_SET);
 5383              		.loc 1 67 5 is_stmt 1 view .LVU1845
 5384 0d52 0022     		movs	r2, #0
 5385 0d54 4FF48061 		mov	r1, #1024
 5386 0d58 2046     		mov	r0, r4
 5387 0d5a FFF7FEFF 		bl	HAL_GPIO_WritePin
 5388              	.LVL600:
  68:Core/Src/lcd.c **** }
 5389              		.loc 1 68 5 view .LVU1846
 5390 0d5e 0122     		movs	r2, #1
 5391 0d60 4FF48061 		mov	r1, #1024
 5392 0d64 2046     		mov	r0, r4
 5393 0d66 FFF7FEFF 		bl	HAL_GPIO_WritePin
 5394              	.LVL601:
  68:Core/Src/lcd.c **** }
 5395              		.loc 1 68 5 is_stmt 0 view .LVU1847
 5396              	.LBE725:
 5397              	.LBE724:
 5398              	.LBE723:
 5399              	.LBE722:
 239:Core/Src/lcd.c ****     ILI9341_Write_Data(0x07);
 5400              		.loc 1 239 5 is_stmt 1 view .LVU1848
 5401              	.LBB726:
 5402              	.LBI726:
  79:Core/Src/lcd.c **** {
 5403              		.loc 1 79 20 view .LVU1849
 5404              	.LBB727:
  82:Core/Src/lcd.c ****     ILI9341_SetData(data);
 5405              		.loc 1 82 5 view .LVU1850
 5406 0d6a 0122     		movs	r2, #1
 5407 0d6c 4FF48071 		mov	r1, #256
 5408 0d70 2046     		mov	r0, r4
 5409 0d72 FFF7FEFF 		bl	HAL_GPIO_WritePin
 5410              	.LVL602:
  83:Core/Src/lcd.c ****     // ILI9341_Unselect();
 5411              		.loc 1 83 5 view .LVU1851
 5412              	.LBB728:
 5413              	.LBI728:
  46:Core/Src/lcd.c **** {
 5414              		.loc 1 46 20 view .LVU1852
 5415              	.LBB729:
  48:Core/Src/lcd.c ****     uint8_t temp_Bit3rd_Data = data & 0x04;
 5416              		.loc 1 48 5 view .LVU1853
  49:Core/Src/lcd.c ****     data &= ~0x06;
 5417              		.loc 1 49 5 view .LVU1854
  50:Core/Src/lcd.c ****     data |= (uint8_t)((temp_Bit2nd_Data << 1) | (temp_Bit3rd_Data >> 1));
ARM GAS  C:\Users\Vento\AppData\Local\Temp\ccDU9lzs.s 			page 138


 5418              		.loc 1 50 5 view .LVU1855
  51:Core/Src/lcd.c **** 
 5419              		.loc 1 51 5 view .LVU1856
  53:Core/Src/lcd.c ****     tempReg &= 0xFFFFFF00;
 5420              		.loc 1 53 5 view .LVU1857
  53:Core/Src/lcd.c ****     tempReg &= 0xFFFFFF00;
 5421              		.loc 1 53 14 is_stmt 0 view .LVU1858
 5422 0d76 E368     		ldr	r3, [r4, #12]
 5423              	.LVL603:
  54:Core/Src/lcd.c ****     tempReg |= (uint32_t)data;
 5424              		.loc 1 54 5 is_stmt 1 view .LVU1859
  54:Core/Src/lcd.c ****     tempReg |= (uint32_t)data;
 5425              		.loc 1 54 13 is_stmt 0 view .LVU1860
 5426 0d78 23F0FF03 		bic	r3, r3, #255
 5427              	.LVL604:
  55:Core/Src/lcd.c ****     DATA_PORT->ODR = tempReg;
 5428              		.loc 1 55 5 is_stmt 1 view .LVU1861
  55:Core/Src/lcd.c ****     DATA_PORT->ODR = tempReg;
 5429              		.loc 1 55 13 is_stmt 0 view .LVU1862
 5430 0d7c 43F01103 		orr	r3, r3, #17
 5431              	.LVL605:
  56:Core/Src/lcd.c **** 
 5432              		.loc 1 56 5 is_stmt 1 view .LVU1863
  56:Core/Src/lcd.c **** 
 5433              		.loc 1 56 20 is_stmt 0 view .LVU1864
 5434 0d80 E360     		str	r3, [r4, #12]
  67:Core/Src/lcd.c ****     HAL_GPIO_WritePin(ILI9341_WR_GPIO_Port, ILI9341_WR_Pin, GPIO_PIN_SET);
 5435              		.loc 1 67 5 is_stmt 1 view .LVU1865
 5436 0d82 0022     		movs	r2, #0
 5437 0d84 4FF48061 		mov	r1, #1024
 5438 0d88 2046     		mov	r0, r4
 5439 0d8a FFF7FEFF 		bl	HAL_GPIO_WritePin
 5440              	.LVL606:
  68:Core/Src/lcd.c **** }
 5441              		.loc 1 68 5 view .LVU1866
 5442 0d8e 0122     		movs	r2, #1
 5443 0d90 4FF48061 		mov	r1, #1024
 5444 0d94 2046     		mov	r0, r4
 5445 0d96 FFF7FEFF 		bl	HAL_GPIO_WritePin
 5446              	.LVL607:
  68:Core/Src/lcd.c **** }
 5447              		.loc 1 68 5 is_stmt 0 view .LVU1867
 5448              	.LBE729:
 5449              	.LBE728:
 5450              	.LBE727:
 5451              	.LBE726:
 240:Core/Src/lcd.c ****     ILI9341_Write_Data(0x31);
 5452              		.loc 1 240 5 is_stmt 1 view .LVU1868
 5453              	.LBB730:
 5454              	.LBI730:
  79:Core/Src/lcd.c **** {
 5455              		.loc 1 79 20 view .LVU1869
 5456              	.LBB731:
  82:Core/Src/lcd.c ****     ILI9341_SetData(data);
 5457              		.loc 1 82 5 view .LVU1870
 5458 0d9a 0122     		movs	r2, #1
 5459 0d9c 4FF48071 		mov	r1, #256
ARM GAS  C:\Users\Vento\AppData\Local\Temp\ccDU9lzs.s 			page 139


 5460 0da0 2046     		mov	r0, r4
 5461 0da2 FFF7FEFF 		bl	HAL_GPIO_WritePin
 5462              	.LVL608:
  83:Core/Src/lcd.c ****     // ILI9341_Unselect();
 5463              		.loc 1 83 5 view .LVU1871
 5464              	.LBB732:
 5465              	.LBI732:
  46:Core/Src/lcd.c **** {
 5466              		.loc 1 46 20 view .LVU1872
 5467              	.LBB733:
  48:Core/Src/lcd.c ****     uint8_t temp_Bit3rd_Data = data & 0x04;
 5468              		.loc 1 48 5 view .LVU1873
  49:Core/Src/lcd.c ****     data &= ~0x06;
 5469              		.loc 1 49 5 view .LVU1874
  50:Core/Src/lcd.c ****     data |= (uint8_t)((temp_Bit2nd_Data << 1) | (temp_Bit3rd_Data >> 1));
 5470              		.loc 1 50 5 view .LVU1875
  51:Core/Src/lcd.c **** 
 5471              		.loc 1 51 5 view .LVU1876
  53:Core/Src/lcd.c ****     tempReg &= 0xFFFFFF00;
 5472              		.loc 1 53 5 view .LVU1877
  53:Core/Src/lcd.c ****     tempReg &= 0xFFFFFF00;
 5473              		.loc 1 53 14 is_stmt 0 view .LVU1878
 5474 0da6 E368     		ldr	r3, [r4, #12]
 5475              	.LVL609:
  54:Core/Src/lcd.c ****     tempReg |= (uint32_t)data;
 5476              		.loc 1 54 5 is_stmt 1 view .LVU1879
  54:Core/Src/lcd.c ****     tempReg |= (uint32_t)data;
 5477              		.loc 1 54 13 is_stmt 0 view .LVU1880
 5478 0da8 23F0FF03 		bic	r3, r3, #255
 5479              	.LVL610:
  55:Core/Src/lcd.c ****     DATA_PORT->ODR = tempReg;
 5480              		.loc 1 55 5 is_stmt 1 view .LVU1881
  55:Core/Src/lcd.c ****     DATA_PORT->ODR = tempReg;
 5481              		.loc 1 55 13 is_stmt 0 view .LVU1882
 5482 0dac 43F00703 		orr	r3, r3, #7
 5483              	.LVL611:
  56:Core/Src/lcd.c **** 
 5484              		.loc 1 56 5 is_stmt 1 view .LVU1883
  56:Core/Src/lcd.c **** 
 5485              		.loc 1 56 20 is_stmt 0 view .LVU1884
 5486 0db0 E360     		str	r3, [r4, #12]
  67:Core/Src/lcd.c ****     HAL_GPIO_WritePin(ILI9341_WR_GPIO_Port, ILI9341_WR_Pin, GPIO_PIN_SET);
 5487              		.loc 1 67 5 is_stmt 1 view .LVU1885
 5488 0db2 0022     		movs	r2, #0
 5489 0db4 4FF48061 		mov	r1, #1024
 5490 0db8 2046     		mov	r0, r4
 5491 0dba FFF7FEFF 		bl	HAL_GPIO_WritePin
 5492              	.LVL612:
  68:Core/Src/lcd.c **** }
 5493              		.loc 1 68 5 view .LVU1886
 5494 0dbe 0122     		movs	r2, #1
 5495 0dc0 4FF48061 		mov	r1, #1024
 5496 0dc4 2046     		mov	r0, r4
 5497 0dc6 FFF7FEFF 		bl	HAL_GPIO_WritePin
 5498              	.LVL613:
  68:Core/Src/lcd.c **** }
 5499              		.loc 1 68 5 is_stmt 0 view .LVU1887
ARM GAS  C:\Users\Vento\AppData\Local\Temp\ccDU9lzs.s 			page 140


 5500              	.LBE733:
 5501              	.LBE732:
 5502              	.LBE731:
 5503              	.LBE730:
 241:Core/Src/lcd.c ****     ILI9341_Write_Data(0xC1);
 5504              		.loc 1 241 5 is_stmt 1 view .LVU1888
 5505              	.LBB734:
 5506              	.LBI734:
  79:Core/Src/lcd.c **** {
 5507              		.loc 1 79 20 view .LVU1889
 5508              	.LBB735:
  82:Core/Src/lcd.c ****     ILI9341_SetData(data);
 5509              		.loc 1 82 5 view .LVU1890
 5510 0dca 0122     		movs	r2, #1
 5511 0dcc 4FF48071 		mov	r1, #256
 5512 0dd0 2046     		mov	r0, r4
 5513 0dd2 FFF7FEFF 		bl	HAL_GPIO_WritePin
 5514              	.LVL614:
  83:Core/Src/lcd.c ****     // ILI9341_Unselect();
 5515              		.loc 1 83 5 view .LVU1891
 5516              	.LBB736:
 5517              	.LBI736:
  46:Core/Src/lcd.c **** {
 5518              		.loc 1 46 20 view .LVU1892
 5519              	.LBB737:
  48:Core/Src/lcd.c ****     uint8_t temp_Bit3rd_Data = data & 0x04;
 5520              		.loc 1 48 5 view .LVU1893
  49:Core/Src/lcd.c ****     data &= ~0x06;
 5521              		.loc 1 49 5 view .LVU1894
  50:Core/Src/lcd.c ****     data |= (uint8_t)((temp_Bit2nd_Data << 1) | (temp_Bit3rd_Data >> 1));
 5522              		.loc 1 50 5 view .LVU1895
  51:Core/Src/lcd.c **** 
 5523              		.loc 1 51 5 view .LVU1896
  53:Core/Src/lcd.c ****     tempReg &= 0xFFFFFF00;
 5524              		.loc 1 53 5 view .LVU1897
  53:Core/Src/lcd.c ****     tempReg &= 0xFFFFFF00;
 5525              		.loc 1 53 14 is_stmt 0 view .LVU1898
 5526 0dd6 E368     		ldr	r3, [r4, #12]
 5527              	.LVL615:
  54:Core/Src/lcd.c ****     tempReg |= (uint32_t)data;
 5528              		.loc 1 54 5 is_stmt 1 view .LVU1899
  54:Core/Src/lcd.c ****     tempReg |= (uint32_t)data;
 5529              		.loc 1 54 13 is_stmt 0 view .LVU1900
 5530 0dd8 23F0FF03 		bic	r3, r3, #255
 5531              	.LVL616:
  55:Core/Src/lcd.c ****     DATA_PORT->ODR = tempReg;
 5532              		.loc 1 55 5 is_stmt 1 view .LVU1901
  55:Core/Src/lcd.c ****     DATA_PORT->ODR = tempReg;
 5533              		.loc 1 55 13 is_stmt 0 view .LVU1902
 5534 0ddc 43F03103 		orr	r3, r3, #49
 5535              	.LVL617:
  56:Core/Src/lcd.c **** 
 5536              		.loc 1 56 5 is_stmt 1 view .LVU1903
  56:Core/Src/lcd.c **** 
 5537              		.loc 1 56 20 is_stmt 0 view .LVU1904
 5538 0de0 E360     		str	r3, [r4, #12]
  67:Core/Src/lcd.c ****     HAL_GPIO_WritePin(ILI9341_WR_GPIO_Port, ILI9341_WR_Pin, GPIO_PIN_SET);
ARM GAS  C:\Users\Vento\AppData\Local\Temp\ccDU9lzs.s 			page 141


 5539              		.loc 1 67 5 is_stmt 1 view .LVU1905
 5540 0de2 0022     		movs	r2, #0
 5541 0de4 4FF48061 		mov	r1, #1024
 5542 0de8 2046     		mov	r0, r4
 5543 0dea FFF7FEFF 		bl	HAL_GPIO_WritePin
 5544              	.LVL618:
  68:Core/Src/lcd.c **** }
 5545              		.loc 1 68 5 view .LVU1906
 5546 0dee 0122     		movs	r2, #1
 5547 0df0 4FF48061 		mov	r1, #1024
 5548 0df4 2046     		mov	r0, r4
 5549 0df6 FFF7FEFF 		bl	HAL_GPIO_WritePin
 5550              	.LVL619:
  68:Core/Src/lcd.c **** }
 5551              		.loc 1 68 5 is_stmt 0 view .LVU1907
 5552              	.LBE737:
 5553              	.LBE736:
 5554              	.LBE735:
 5555              	.LBE734:
 242:Core/Src/lcd.c ****     ILI9341_Write_Data(0x48);
 5556              		.loc 1 242 5 is_stmt 1 view .LVU1908
 5557              	.LBB738:
 5558              	.LBI738:
  79:Core/Src/lcd.c **** {
 5559              		.loc 1 79 20 view .LVU1909
 5560              	.LBB739:
  82:Core/Src/lcd.c ****     ILI9341_SetData(data);
 5561              		.loc 1 82 5 view .LVU1910
 5562 0dfa 0122     		movs	r2, #1
 5563 0dfc 4FF48071 		mov	r1, #256
 5564 0e00 2046     		mov	r0, r4
 5565 0e02 FFF7FEFF 		bl	HAL_GPIO_WritePin
 5566              	.LVL620:
  83:Core/Src/lcd.c ****     // ILI9341_Unselect();
 5567              		.loc 1 83 5 view .LVU1911
 5568              	.LBB740:
 5569              	.LBI740:
  46:Core/Src/lcd.c **** {
 5570              		.loc 1 46 20 view .LVU1912
 5571              	.LBB741:
  48:Core/Src/lcd.c ****     uint8_t temp_Bit3rd_Data = data & 0x04;
 5572              		.loc 1 48 5 view .LVU1913
  49:Core/Src/lcd.c ****     data &= ~0x06;
 5573              		.loc 1 49 5 view .LVU1914
  50:Core/Src/lcd.c ****     data |= (uint8_t)((temp_Bit2nd_Data << 1) | (temp_Bit3rd_Data >> 1));
 5574              		.loc 1 50 5 view .LVU1915
  51:Core/Src/lcd.c **** 
 5575              		.loc 1 51 5 view .LVU1916
  53:Core/Src/lcd.c ****     tempReg &= 0xFFFFFF00;
 5576              		.loc 1 53 5 view .LVU1917
  53:Core/Src/lcd.c ****     tempReg &= 0xFFFFFF00;
 5577              		.loc 1 53 14 is_stmt 0 view .LVU1918
 5578 0e06 E368     		ldr	r3, [r4, #12]
 5579              	.LVL621:
  54:Core/Src/lcd.c ****     tempReg |= (uint32_t)data;
 5580              		.loc 1 54 5 is_stmt 1 view .LVU1919
  54:Core/Src/lcd.c ****     tempReg |= (uint32_t)data;
ARM GAS  C:\Users\Vento\AppData\Local\Temp\ccDU9lzs.s 			page 142


 5581              		.loc 1 54 13 is_stmt 0 view .LVU1920
 5582 0e08 23F0FF03 		bic	r3, r3, #255
 5583              	.LVL622:
  55:Core/Src/lcd.c ****     DATA_PORT->ODR = tempReg;
 5584              		.loc 1 55 5 is_stmt 1 view .LVU1921
  55:Core/Src/lcd.c ****     DATA_PORT->ODR = tempReg;
 5585              		.loc 1 55 13 is_stmt 0 view .LVU1922
 5586 0e0c 43F0C103 		orr	r3, r3, #193
 5587              	.LVL623:
  56:Core/Src/lcd.c **** 
 5588              		.loc 1 56 5 is_stmt 1 view .LVU1923
  56:Core/Src/lcd.c **** 
 5589              		.loc 1 56 20 is_stmt 0 view .LVU1924
 5590 0e10 E360     		str	r3, [r4, #12]
  67:Core/Src/lcd.c ****     HAL_GPIO_WritePin(ILI9341_WR_GPIO_Port, ILI9341_WR_Pin, GPIO_PIN_SET);
 5591              		.loc 1 67 5 is_stmt 1 view .LVU1925
 5592 0e12 0022     		movs	r2, #0
 5593 0e14 4FF48061 		mov	r1, #1024
 5594 0e18 2046     		mov	r0, r4
 5595 0e1a FFF7FEFF 		bl	HAL_GPIO_WritePin
 5596              	.LVL624:
  68:Core/Src/lcd.c **** }
 5597              		.loc 1 68 5 view .LVU1926
 5598 0e1e 0122     		movs	r2, #1
 5599 0e20 4FF48061 		mov	r1, #1024
 5600 0e24 2046     		mov	r0, r4
 5601 0e26 FFF7FEFF 		bl	HAL_GPIO_WritePin
 5602              	.LVL625:
  68:Core/Src/lcd.c **** }
 5603              		.loc 1 68 5 is_stmt 0 view .LVU1927
 5604              	.LBE741:
 5605              	.LBE740:
 5606              	.LBE739:
 5607              	.LBE738:
 243:Core/Src/lcd.c ****     ILI9341_Write_Data(0x08);
 5608              		.loc 1 243 5 is_stmt 1 view .LVU1928
 5609              	.LBB742:
 5610              	.LBI742:
  79:Core/Src/lcd.c **** {
 5611              		.loc 1 79 20 view .LVU1929
 5612              	.LBB743:
  82:Core/Src/lcd.c ****     ILI9341_SetData(data);
 5613              		.loc 1 82 5 view .LVU1930
 5614 0e2a 0122     		movs	r2, #1
 5615 0e2c 4FF48071 		mov	r1, #256
 5616 0e30 2046     		mov	r0, r4
 5617 0e32 FFF7FEFF 		bl	HAL_GPIO_WritePin
 5618              	.LVL626:
  83:Core/Src/lcd.c ****     // ILI9341_Unselect();
 5619              		.loc 1 83 5 view .LVU1931
 5620              	.LBB744:
 5621              	.LBI744:
  46:Core/Src/lcd.c **** {
 5622              		.loc 1 46 20 view .LVU1932
 5623              	.LBB745:
  48:Core/Src/lcd.c ****     uint8_t temp_Bit3rd_Data = data & 0x04;
 5624              		.loc 1 48 5 view .LVU1933
ARM GAS  C:\Users\Vento\AppData\Local\Temp\ccDU9lzs.s 			page 143


  49:Core/Src/lcd.c ****     data &= ~0x06;
 5625              		.loc 1 49 5 view .LVU1934
  50:Core/Src/lcd.c ****     data |= (uint8_t)((temp_Bit2nd_Data << 1) | (temp_Bit3rd_Data >> 1));
 5626              		.loc 1 50 5 view .LVU1935
  51:Core/Src/lcd.c **** 
 5627              		.loc 1 51 5 view .LVU1936
  53:Core/Src/lcd.c ****     tempReg &= 0xFFFFFF00;
 5628              		.loc 1 53 5 view .LVU1937
  53:Core/Src/lcd.c ****     tempReg &= 0xFFFFFF00;
 5629              		.loc 1 53 14 is_stmt 0 view .LVU1938
 5630 0e36 E368     		ldr	r3, [r4, #12]
 5631              	.LVL627:
  54:Core/Src/lcd.c ****     tempReg |= (uint32_t)data;
 5632              		.loc 1 54 5 is_stmt 1 view .LVU1939
  54:Core/Src/lcd.c ****     tempReg |= (uint32_t)data;
 5633              		.loc 1 54 13 is_stmt 0 view .LVU1940
 5634 0e38 23F0FF03 		bic	r3, r3, #255
 5635              	.LVL628:
  55:Core/Src/lcd.c ****     DATA_PORT->ODR = tempReg;
 5636              		.loc 1 55 5 is_stmt 1 view .LVU1941
  55:Core/Src/lcd.c ****     DATA_PORT->ODR = tempReg;
 5637              		.loc 1 55 13 is_stmt 0 view .LVU1942
 5638 0e3c 43F04803 		orr	r3, r3, #72
 5639              	.LVL629:
  56:Core/Src/lcd.c **** 
 5640              		.loc 1 56 5 is_stmt 1 view .LVU1943
  56:Core/Src/lcd.c **** 
 5641              		.loc 1 56 20 is_stmt 0 view .LVU1944
 5642 0e40 E360     		str	r3, [r4, #12]
  67:Core/Src/lcd.c ****     HAL_GPIO_WritePin(ILI9341_WR_GPIO_Port, ILI9341_WR_Pin, GPIO_PIN_SET);
 5643              		.loc 1 67 5 is_stmt 1 view .LVU1945
 5644 0e42 0022     		movs	r2, #0
 5645 0e44 4FF48061 		mov	r1, #1024
 5646 0e48 2046     		mov	r0, r4
 5647 0e4a FFF7FEFF 		bl	HAL_GPIO_WritePin
 5648              	.LVL630:
  68:Core/Src/lcd.c **** }
 5649              		.loc 1 68 5 view .LVU1946
 5650 0e4e 0122     		movs	r2, #1
 5651 0e50 4FF48061 		mov	r1, #1024
 5652 0e54 2046     		mov	r0, r4
 5653 0e56 FFF7FEFF 		bl	HAL_GPIO_WritePin
 5654              	.LVL631:
  68:Core/Src/lcd.c **** }
 5655              		.loc 1 68 5 is_stmt 0 view .LVU1947
 5656              	.LBE745:
 5657              	.LBE744:
 5658              	.LBE743:
 5659              	.LBE742:
 244:Core/Src/lcd.c ****     ILI9341_Write_Data(0x0F);
 5660              		.loc 1 244 5 is_stmt 1 view .LVU1948
 5661              	.LBB746:
 5662              	.LBI746:
  79:Core/Src/lcd.c **** {
 5663              		.loc 1 79 20 view .LVU1949
 5664              	.LBB747:
  82:Core/Src/lcd.c ****     ILI9341_SetData(data);
ARM GAS  C:\Users\Vento\AppData\Local\Temp\ccDU9lzs.s 			page 144


 5665              		.loc 1 82 5 view .LVU1950
 5666 0e5a 0122     		movs	r2, #1
 5667 0e5c 4FF48071 		mov	r1, #256
 5668 0e60 2046     		mov	r0, r4
 5669 0e62 FFF7FEFF 		bl	HAL_GPIO_WritePin
 5670              	.LVL632:
  83:Core/Src/lcd.c ****     // ILI9341_Unselect();
 5671              		.loc 1 83 5 view .LVU1951
 5672              	.LBB748:
 5673              	.LBI748:
  46:Core/Src/lcd.c **** {
 5674              		.loc 1 46 20 view .LVU1952
 5675              	.LBB749:
  48:Core/Src/lcd.c ****     uint8_t temp_Bit3rd_Data = data & 0x04;
 5676              		.loc 1 48 5 view .LVU1953
  49:Core/Src/lcd.c ****     data &= ~0x06;
 5677              		.loc 1 49 5 view .LVU1954
  50:Core/Src/lcd.c ****     data |= (uint8_t)((temp_Bit2nd_Data << 1) | (temp_Bit3rd_Data >> 1));
 5678              		.loc 1 50 5 view .LVU1955
  51:Core/Src/lcd.c **** 
 5679              		.loc 1 51 5 view .LVU1956
  53:Core/Src/lcd.c ****     tempReg &= 0xFFFFFF00;
 5680              		.loc 1 53 5 view .LVU1957
  53:Core/Src/lcd.c ****     tempReg &= 0xFFFFFF00;
 5681              		.loc 1 53 14 is_stmt 0 view .LVU1958
 5682 0e66 E368     		ldr	r3, [r4, #12]
 5683              	.LVL633:
  54:Core/Src/lcd.c ****     tempReg |= (uint32_t)data;
 5684              		.loc 1 54 5 is_stmt 1 view .LVU1959
  54:Core/Src/lcd.c ****     tempReg |= (uint32_t)data;
 5685              		.loc 1 54 13 is_stmt 0 view .LVU1960
 5686 0e68 23F0FF03 		bic	r3, r3, #255
 5687              	.LVL634:
  55:Core/Src/lcd.c ****     DATA_PORT->ODR = tempReg;
 5688              		.loc 1 55 5 is_stmt 1 view .LVU1961
  55:Core/Src/lcd.c ****     DATA_PORT->ODR = tempReg;
 5689              		.loc 1 55 13 is_stmt 0 view .LVU1962
 5690 0e6c 43F00803 		orr	r3, r3, #8
 5691              	.LVL635:
  56:Core/Src/lcd.c **** 
 5692              		.loc 1 56 5 is_stmt 1 view .LVU1963
  56:Core/Src/lcd.c **** 
 5693              		.loc 1 56 20 is_stmt 0 view .LVU1964
 5694 0e70 E360     		str	r3, [r4, #12]
  67:Core/Src/lcd.c ****     HAL_GPIO_WritePin(ILI9341_WR_GPIO_Port, ILI9341_WR_Pin, GPIO_PIN_SET);
 5695              		.loc 1 67 5 is_stmt 1 view .LVU1965
 5696 0e72 0022     		movs	r2, #0
 5697 0e74 4FF48061 		mov	r1, #1024
 5698 0e78 2046     		mov	r0, r4
 5699 0e7a FFF7FEFF 		bl	HAL_GPIO_WritePin
 5700              	.LVL636:
  68:Core/Src/lcd.c **** }
 5701              		.loc 1 68 5 view .LVU1966
 5702 0e7e 0122     		movs	r2, #1
 5703 0e80 4FF48061 		mov	r1, #1024
 5704 0e84 2046     		mov	r0, r4
 5705 0e86 FFF7FEFF 		bl	HAL_GPIO_WritePin
ARM GAS  C:\Users\Vento\AppData\Local\Temp\ccDU9lzs.s 			page 145


 5706              	.LVL637:
  68:Core/Src/lcd.c **** }
 5707              		.loc 1 68 5 is_stmt 0 view .LVU1967
 5708              	.LBE749:
 5709              	.LBE748:
 5710              	.LBE747:
 5711              	.LBE746:
 245:Core/Src/lcd.c ****     ILI9341_Write_Data(0x0C);
 5712              		.loc 1 245 5 is_stmt 1 view .LVU1968
 5713              	.LBB750:
 5714              	.LBI750:
  79:Core/Src/lcd.c **** {
 5715              		.loc 1 79 20 view .LVU1969
 5716              	.LBB751:
  82:Core/Src/lcd.c ****     ILI9341_SetData(data);
 5717              		.loc 1 82 5 view .LVU1970
 5718 0e8a 0122     		movs	r2, #1
 5719 0e8c 4FF48071 		mov	r1, #256
 5720 0e90 2046     		mov	r0, r4
 5721 0e92 FFF7FEFF 		bl	HAL_GPIO_WritePin
 5722              	.LVL638:
  83:Core/Src/lcd.c ****     // ILI9341_Unselect();
 5723              		.loc 1 83 5 view .LVU1971
 5724              	.LBB752:
 5725              	.LBI752:
  46:Core/Src/lcd.c **** {
 5726              		.loc 1 46 20 view .LVU1972
 5727              	.LBB753:
  48:Core/Src/lcd.c ****     uint8_t temp_Bit3rd_Data = data & 0x04;
 5728              		.loc 1 48 5 view .LVU1973
  49:Core/Src/lcd.c ****     data &= ~0x06;
 5729              		.loc 1 49 5 view .LVU1974
  50:Core/Src/lcd.c ****     data |= (uint8_t)((temp_Bit2nd_Data << 1) | (temp_Bit3rd_Data >> 1));
 5730              		.loc 1 50 5 view .LVU1975
  51:Core/Src/lcd.c **** 
 5731              		.loc 1 51 5 view .LVU1976
  53:Core/Src/lcd.c ****     tempReg &= 0xFFFFFF00;
 5732              		.loc 1 53 5 view .LVU1977
  53:Core/Src/lcd.c ****     tempReg &= 0xFFFFFF00;
 5733              		.loc 1 53 14 is_stmt 0 view .LVU1978
 5734 0e96 E368     		ldr	r3, [r4, #12]
 5735              	.LVL639:
  54:Core/Src/lcd.c ****     tempReg |= (uint32_t)data;
 5736              		.loc 1 54 5 is_stmt 1 view .LVU1979
  54:Core/Src/lcd.c ****     tempReg |= (uint32_t)data;
 5737              		.loc 1 54 13 is_stmt 0 view .LVU1980
 5738 0e98 23F0FF03 		bic	r3, r3, #255
 5739              	.LVL640:
  55:Core/Src/lcd.c ****     DATA_PORT->ODR = tempReg;
 5740              		.loc 1 55 5 is_stmt 1 view .LVU1981
  55:Core/Src/lcd.c ****     DATA_PORT->ODR = tempReg;
 5741              		.loc 1 55 13 is_stmt 0 view .LVU1982
 5742 0e9c 43F00F03 		orr	r3, r3, #15
 5743              	.LVL641:
  56:Core/Src/lcd.c **** 
 5744              		.loc 1 56 5 is_stmt 1 view .LVU1983
  56:Core/Src/lcd.c **** 
ARM GAS  C:\Users\Vento\AppData\Local\Temp\ccDU9lzs.s 			page 146


 5745              		.loc 1 56 20 is_stmt 0 view .LVU1984
 5746 0ea0 E360     		str	r3, [r4, #12]
  67:Core/Src/lcd.c ****     HAL_GPIO_WritePin(ILI9341_WR_GPIO_Port, ILI9341_WR_Pin, GPIO_PIN_SET);
 5747              		.loc 1 67 5 is_stmt 1 view .LVU1985
 5748 0ea2 0022     		movs	r2, #0
 5749 0ea4 4FF48061 		mov	r1, #1024
 5750 0ea8 2046     		mov	r0, r4
 5751 0eaa FFF7FEFF 		bl	HAL_GPIO_WritePin
 5752              	.LVL642:
  68:Core/Src/lcd.c **** }
 5753              		.loc 1 68 5 view .LVU1986
 5754 0eae 0122     		movs	r2, #1
 5755 0eb0 4FF48061 		mov	r1, #1024
 5756 0eb4 2046     		mov	r0, r4
 5757 0eb6 FFF7FEFF 		bl	HAL_GPIO_WritePin
 5758              	.LVL643:
  68:Core/Src/lcd.c **** }
 5759              		.loc 1 68 5 is_stmt 0 view .LVU1987
 5760              	.LBE753:
 5761              	.LBE752:
 5762              	.LBE751:
 5763              	.LBE750:
 246:Core/Src/lcd.c ****     ILI9341_Write_Data(0x31);
 5764              		.loc 1 246 5 is_stmt 1 view .LVU1988
 5765              	.LBB754:
 5766              	.LBI754:
  79:Core/Src/lcd.c **** {
 5767              		.loc 1 79 20 view .LVU1989
 5768              	.LBB755:
  82:Core/Src/lcd.c ****     ILI9341_SetData(data);
 5769              		.loc 1 82 5 view .LVU1990
 5770 0eba 0122     		movs	r2, #1
 5771 0ebc 4FF48071 		mov	r1, #256
 5772 0ec0 2046     		mov	r0, r4
 5773 0ec2 FFF7FEFF 		bl	HAL_GPIO_WritePin
 5774              	.LVL644:
  83:Core/Src/lcd.c ****     // ILI9341_Unselect();
 5775              		.loc 1 83 5 view .LVU1991
 5776              	.LBB756:
 5777              	.LBI756:
  46:Core/Src/lcd.c **** {
 5778              		.loc 1 46 20 view .LVU1992
 5779              	.LBB757:
  48:Core/Src/lcd.c ****     uint8_t temp_Bit3rd_Data = data & 0x04;
 5780              		.loc 1 48 5 view .LVU1993
  49:Core/Src/lcd.c ****     data &= ~0x06;
 5781              		.loc 1 49 5 view .LVU1994
  50:Core/Src/lcd.c ****     data |= (uint8_t)((temp_Bit2nd_Data << 1) | (temp_Bit3rd_Data >> 1));
 5782              		.loc 1 50 5 view .LVU1995
  51:Core/Src/lcd.c **** 
 5783              		.loc 1 51 5 view .LVU1996
  53:Core/Src/lcd.c ****     tempReg &= 0xFFFFFF00;
 5784              		.loc 1 53 5 view .LVU1997
  53:Core/Src/lcd.c ****     tempReg &= 0xFFFFFF00;
 5785              		.loc 1 53 14 is_stmt 0 view .LVU1998
 5786 0ec6 E368     		ldr	r3, [r4, #12]
 5787              	.LVL645:
ARM GAS  C:\Users\Vento\AppData\Local\Temp\ccDU9lzs.s 			page 147


  54:Core/Src/lcd.c ****     tempReg |= (uint32_t)data;
 5788              		.loc 1 54 5 is_stmt 1 view .LVU1999
  54:Core/Src/lcd.c ****     tempReg |= (uint32_t)data;
 5789              		.loc 1 54 13 is_stmt 0 view .LVU2000
 5790 0ec8 23F0FF03 		bic	r3, r3, #255
 5791              	.LVL646:
  55:Core/Src/lcd.c ****     DATA_PORT->ODR = tempReg;
 5792              		.loc 1 55 5 is_stmt 1 view .LVU2001
  55:Core/Src/lcd.c ****     DATA_PORT->ODR = tempReg;
 5793              		.loc 1 55 13 is_stmt 0 view .LVU2002
 5794 0ecc 43F00A03 		orr	r3, r3, #10
 5795              	.LVL647:
  56:Core/Src/lcd.c **** 
 5796              		.loc 1 56 5 is_stmt 1 view .LVU2003
  56:Core/Src/lcd.c **** 
 5797              		.loc 1 56 20 is_stmt 0 view .LVU2004
 5798 0ed0 E360     		str	r3, [r4, #12]
  67:Core/Src/lcd.c ****     HAL_GPIO_WritePin(ILI9341_WR_GPIO_Port, ILI9341_WR_Pin, GPIO_PIN_SET);
 5799              		.loc 1 67 5 is_stmt 1 view .LVU2005
 5800 0ed2 0022     		movs	r2, #0
 5801 0ed4 4FF48061 		mov	r1, #1024
 5802 0ed8 2046     		mov	r0, r4
 5803 0eda FFF7FEFF 		bl	HAL_GPIO_WritePin
 5804              	.LVL648:
  68:Core/Src/lcd.c **** }
 5805              		.loc 1 68 5 view .LVU2006
 5806 0ede 0122     		movs	r2, #1
 5807 0ee0 4FF48061 		mov	r1, #1024
 5808 0ee4 2046     		mov	r0, r4
 5809 0ee6 FFF7FEFF 		bl	HAL_GPIO_WritePin
 5810              	.LVL649:
  68:Core/Src/lcd.c **** }
 5811              		.loc 1 68 5 is_stmt 0 view .LVU2007
 5812              	.LBE757:
 5813              	.LBE756:
 5814              	.LBE755:
 5815              	.LBE754:
 247:Core/Src/lcd.c ****     ILI9341_Write_Data(0x36);
 5816              		.loc 1 247 5 is_stmt 1 view .LVU2008
 5817              	.LBB758:
 5818              	.LBI758:
  79:Core/Src/lcd.c **** {
 5819              		.loc 1 79 20 view .LVU2009
 5820              	.LBB759:
  82:Core/Src/lcd.c ****     ILI9341_SetData(data);
 5821              		.loc 1 82 5 view .LVU2010
 5822 0eea 0122     		movs	r2, #1
 5823 0eec 4FF48071 		mov	r1, #256
 5824 0ef0 2046     		mov	r0, r4
 5825 0ef2 FFF7FEFF 		bl	HAL_GPIO_WritePin
 5826              	.LVL650:
  83:Core/Src/lcd.c ****     // ILI9341_Unselect();
 5827              		.loc 1 83 5 view .LVU2011
 5828              	.LBB760:
 5829              	.LBI760:
  46:Core/Src/lcd.c **** {
 5830              		.loc 1 46 20 view .LVU2012
ARM GAS  C:\Users\Vento\AppData\Local\Temp\ccDU9lzs.s 			page 148


 5831              	.LBB761:
  48:Core/Src/lcd.c ****     uint8_t temp_Bit3rd_Data = data & 0x04;
 5832              		.loc 1 48 5 view .LVU2013
  49:Core/Src/lcd.c ****     data &= ~0x06;
 5833              		.loc 1 49 5 view .LVU2014
  50:Core/Src/lcd.c ****     data |= (uint8_t)((temp_Bit2nd_Data << 1) | (temp_Bit3rd_Data >> 1));
 5834              		.loc 1 50 5 view .LVU2015
  51:Core/Src/lcd.c **** 
 5835              		.loc 1 51 5 view .LVU2016
  53:Core/Src/lcd.c ****     tempReg &= 0xFFFFFF00;
 5836              		.loc 1 53 5 view .LVU2017
  53:Core/Src/lcd.c ****     tempReg &= 0xFFFFFF00;
 5837              		.loc 1 53 14 is_stmt 0 view .LVU2018
 5838 0ef6 E368     		ldr	r3, [r4, #12]
 5839              	.LVL651:
  54:Core/Src/lcd.c ****     tempReg |= (uint32_t)data;
 5840              		.loc 1 54 5 is_stmt 1 view .LVU2019
  54:Core/Src/lcd.c ****     tempReg |= (uint32_t)data;
 5841              		.loc 1 54 13 is_stmt 0 view .LVU2020
 5842 0ef8 23F0FF03 		bic	r3, r3, #255
 5843              	.LVL652:
  55:Core/Src/lcd.c ****     DATA_PORT->ODR = tempReg;
 5844              		.loc 1 55 5 is_stmt 1 view .LVU2021
  55:Core/Src/lcd.c ****     DATA_PORT->ODR = tempReg;
 5845              		.loc 1 55 13 is_stmt 0 view .LVU2022
 5846 0efc 43F03103 		orr	r3, r3, #49
 5847              	.LVL653:
  56:Core/Src/lcd.c **** 
 5848              		.loc 1 56 5 is_stmt 1 view .LVU2023
  56:Core/Src/lcd.c **** 
 5849              		.loc 1 56 20 is_stmt 0 view .LVU2024
 5850 0f00 E360     		str	r3, [r4, #12]
  67:Core/Src/lcd.c ****     HAL_GPIO_WritePin(ILI9341_WR_GPIO_Port, ILI9341_WR_Pin, GPIO_PIN_SET);
 5851              		.loc 1 67 5 is_stmt 1 view .LVU2025
 5852 0f02 0022     		movs	r2, #0
 5853 0f04 4FF48061 		mov	r1, #1024
 5854 0f08 2046     		mov	r0, r4
 5855 0f0a FFF7FEFF 		bl	HAL_GPIO_WritePin
 5856              	.LVL654:
  68:Core/Src/lcd.c **** }
 5857              		.loc 1 68 5 view .LVU2026
 5858 0f0e 0122     		movs	r2, #1
 5859 0f10 4FF48061 		mov	r1, #1024
 5860 0f14 2046     		mov	r0, r4
 5861 0f16 FFF7FEFF 		bl	HAL_GPIO_WritePin
 5862              	.LVL655:
  68:Core/Src/lcd.c **** }
 5863              		.loc 1 68 5 is_stmt 0 view .LVU2027
 5864              	.LBE761:
 5865              	.LBE760:
 5866              	.LBE759:
 5867              	.LBE758:
 248:Core/Src/lcd.c ****     ILI9341_Write_Data(0x0F);
 5868              		.loc 1 248 5 is_stmt 1 view .LVU2028
 5869              	.LBB762:
 5870              	.LBI762:
  79:Core/Src/lcd.c **** {
ARM GAS  C:\Users\Vento\AppData\Local\Temp\ccDU9lzs.s 			page 149


 5871              		.loc 1 79 20 view .LVU2029
 5872              	.LBB763:
  82:Core/Src/lcd.c ****     ILI9341_SetData(data);
 5873              		.loc 1 82 5 view .LVU2030
 5874 0f1a 0122     		movs	r2, #1
 5875 0f1c 4FF48071 		mov	r1, #256
 5876 0f20 2046     		mov	r0, r4
 5877 0f22 FFF7FEFF 		bl	HAL_GPIO_WritePin
 5878              	.LVL656:
  83:Core/Src/lcd.c ****     // ILI9341_Unselect();
 5879              		.loc 1 83 5 view .LVU2031
 5880              	.LBB764:
 5881              	.LBI764:
  46:Core/Src/lcd.c **** {
 5882              		.loc 1 46 20 view .LVU2032
 5883              	.LBB765:
  48:Core/Src/lcd.c ****     uint8_t temp_Bit3rd_Data = data & 0x04;
 5884              		.loc 1 48 5 view .LVU2033
  49:Core/Src/lcd.c ****     data &= ~0x06;
 5885              		.loc 1 49 5 view .LVU2034
  50:Core/Src/lcd.c ****     data |= (uint8_t)((temp_Bit2nd_Data << 1) | (temp_Bit3rd_Data >> 1));
 5886              		.loc 1 50 5 view .LVU2035
  51:Core/Src/lcd.c **** 
 5887              		.loc 1 51 5 view .LVU2036
  53:Core/Src/lcd.c ****     tempReg &= 0xFFFFFF00;
 5888              		.loc 1 53 5 view .LVU2037
  53:Core/Src/lcd.c ****     tempReg &= 0xFFFFFF00;
 5889              		.loc 1 53 14 is_stmt 0 view .LVU2038
 5890 0f26 E368     		ldr	r3, [r4, #12]
 5891              	.LVL657:
  54:Core/Src/lcd.c ****     tempReg |= (uint32_t)data;
 5892              		.loc 1 54 5 is_stmt 1 view .LVU2039
  54:Core/Src/lcd.c ****     tempReg |= (uint32_t)data;
 5893              		.loc 1 54 13 is_stmt 0 view .LVU2040
 5894 0f28 23F0FF03 		bic	r3, r3, #255
 5895              	.LVL658:
  55:Core/Src/lcd.c ****     DATA_PORT->ODR = tempReg;
 5896              		.loc 1 55 5 is_stmt 1 view .LVU2041
  55:Core/Src/lcd.c ****     DATA_PORT->ODR = tempReg;
 5897              		.loc 1 55 13 is_stmt 0 view .LVU2042
 5898 0f2c 43F03603 		orr	r3, r3, #54
 5899              	.LVL659:
  56:Core/Src/lcd.c **** 
 5900              		.loc 1 56 5 is_stmt 1 view .LVU2043
  56:Core/Src/lcd.c **** 
 5901              		.loc 1 56 20 is_stmt 0 view .LVU2044
 5902 0f30 E360     		str	r3, [r4, #12]
  67:Core/Src/lcd.c ****     HAL_GPIO_WritePin(ILI9341_WR_GPIO_Port, ILI9341_WR_Pin, GPIO_PIN_SET);
 5903              		.loc 1 67 5 is_stmt 1 view .LVU2045
 5904 0f32 0022     		movs	r2, #0
 5905 0f34 4FF48061 		mov	r1, #1024
 5906 0f38 2046     		mov	r0, r4
 5907 0f3a FFF7FEFF 		bl	HAL_GPIO_WritePin
 5908              	.LVL660:
  68:Core/Src/lcd.c **** }
 5909              		.loc 1 68 5 view .LVU2046
 5910 0f3e 0122     		movs	r2, #1
ARM GAS  C:\Users\Vento\AppData\Local\Temp\ccDU9lzs.s 			page 150


 5911 0f40 4FF48061 		mov	r1, #1024
 5912 0f44 2046     		mov	r0, r4
 5913 0f46 FFF7FEFF 		bl	HAL_GPIO_WritePin
 5914              	.LVL661:
  68:Core/Src/lcd.c **** }
 5915              		.loc 1 68 5 is_stmt 0 view .LVU2047
 5916              	.LBE765:
 5917              	.LBE764:
 5918              	.LBE763:
 5919              	.LBE762:
 249:Core/Src/lcd.c **** 
 5920              		.loc 1 249 5 is_stmt 1 view .LVU2048
 5921              	.LBB766:
 5922              	.LBI766:
  79:Core/Src/lcd.c **** {
 5923              		.loc 1 79 20 view .LVU2049
 5924              	.LBB767:
  82:Core/Src/lcd.c ****     ILI9341_SetData(data);
 5925              		.loc 1 82 5 view .LVU2050
 5926 0f4a 0122     		movs	r2, #1
 5927 0f4c 4FF48071 		mov	r1, #256
 5928 0f50 2046     		mov	r0, r4
 5929 0f52 FFF7FEFF 		bl	HAL_GPIO_WritePin
 5930              	.LVL662:
  83:Core/Src/lcd.c ****     // ILI9341_Unselect();
 5931              		.loc 1 83 5 view .LVU2051
 5932              	.LBB768:
 5933              	.LBI768:
  46:Core/Src/lcd.c **** {
 5934              		.loc 1 46 20 view .LVU2052
 5935              	.LBB769:
  48:Core/Src/lcd.c ****     uint8_t temp_Bit3rd_Data = data & 0x04;
 5936              		.loc 1 48 5 view .LVU2053
  49:Core/Src/lcd.c ****     data &= ~0x06;
 5937              		.loc 1 49 5 view .LVU2054
  50:Core/Src/lcd.c ****     data |= (uint8_t)((temp_Bit2nd_Data << 1) | (temp_Bit3rd_Data >> 1));
 5938              		.loc 1 50 5 view .LVU2055
  51:Core/Src/lcd.c **** 
 5939              		.loc 1 51 5 view .LVU2056
  53:Core/Src/lcd.c ****     tempReg &= 0xFFFFFF00;
 5940              		.loc 1 53 5 view .LVU2057
  53:Core/Src/lcd.c ****     tempReg &= 0xFFFFFF00;
 5941              		.loc 1 53 14 is_stmt 0 view .LVU2058
 5942 0f56 E368     		ldr	r3, [r4, #12]
 5943              	.LVL663:
  54:Core/Src/lcd.c ****     tempReg |= (uint32_t)data;
 5944              		.loc 1 54 5 is_stmt 1 view .LVU2059
  54:Core/Src/lcd.c ****     tempReg |= (uint32_t)data;
 5945              		.loc 1 54 13 is_stmt 0 view .LVU2060
 5946 0f58 23F0FF03 		bic	r3, r3, #255
 5947              	.LVL664:
  55:Core/Src/lcd.c ****     DATA_PORT->ODR = tempReg;
 5948              		.loc 1 55 5 is_stmt 1 view .LVU2061
  55:Core/Src/lcd.c ****     DATA_PORT->ODR = tempReg;
 5949              		.loc 1 55 13 is_stmt 0 view .LVU2062
 5950 0f5c 43F00F03 		orr	r3, r3, #15
 5951              	.LVL665:
ARM GAS  C:\Users\Vento\AppData\Local\Temp\ccDU9lzs.s 			page 151


  56:Core/Src/lcd.c **** 
 5952              		.loc 1 56 5 is_stmt 1 view .LVU2063
  56:Core/Src/lcd.c **** 
 5953              		.loc 1 56 20 is_stmt 0 view .LVU2064
 5954 0f60 E360     		str	r3, [r4, #12]
  67:Core/Src/lcd.c ****     HAL_GPIO_WritePin(ILI9341_WR_GPIO_Port, ILI9341_WR_Pin, GPIO_PIN_SET);
 5955              		.loc 1 67 5 is_stmt 1 view .LVU2065
 5956 0f62 0022     		movs	r2, #0
 5957 0f64 4FF48061 		mov	r1, #1024
 5958 0f68 2046     		mov	r0, r4
 5959 0f6a FFF7FEFF 		bl	HAL_GPIO_WritePin
 5960              	.LVL666:
  68:Core/Src/lcd.c **** }
 5961              		.loc 1 68 5 view .LVU2066
 5962 0f6e 0122     		movs	r2, #1
 5963 0f70 4FF48061 		mov	r1, #1024
 5964 0f74 2046     		mov	r0, r4
 5965 0f76 FFF7FEFF 		bl	HAL_GPIO_WritePin
 5966              	.LVL667:
  68:Core/Src/lcd.c **** }
 5967              		.loc 1 68 5 is_stmt 0 view .LVU2067
 5968              	.LBE769:
 5969              	.LBE768:
 5970              	.LBE767:
 5971              	.LBE766:
 252:Core/Src/lcd.c ****     HAL_Delay(120);
 5972              		.loc 1 252 5 is_stmt 1 view .LVU2068
 5973              	.LBB770:
 5974              	.LBI770:
  71:Core/Src/lcd.c **** {
 5975              		.loc 1 71 20 view .LVU2069
 5976              	.LBB771:
  74:Core/Src/lcd.c ****     ILI9341_SetData(cmd);
 5977              		.loc 1 74 5 view .LVU2070
 5978 0f7a 0022     		movs	r2, #0
 5979 0f7c 4FF48071 		mov	r1, #256
 5980 0f80 2046     		mov	r0, r4
 5981 0f82 FFF7FEFF 		bl	HAL_GPIO_WritePin
 5982              	.LVL668:
  75:Core/Src/lcd.c ****     // ILI9341_Unselect();
 5983              		.loc 1 75 5 view .LVU2071
 5984              	.LBB772:
 5985              	.LBI772:
  46:Core/Src/lcd.c **** {
 5986              		.loc 1 46 20 view .LVU2072
 5987              	.LBB773:
  48:Core/Src/lcd.c ****     uint8_t temp_Bit3rd_Data = data & 0x04;
 5988              		.loc 1 48 5 view .LVU2073
  49:Core/Src/lcd.c ****     data &= ~0x06;
 5989              		.loc 1 49 5 view .LVU2074
  50:Core/Src/lcd.c ****     data |= (uint8_t)((temp_Bit2nd_Data << 1) | (temp_Bit3rd_Data >> 1));
 5990              		.loc 1 50 5 view .LVU2075
  51:Core/Src/lcd.c **** 
 5991              		.loc 1 51 5 view .LVU2076
  53:Core/Src/lcd.c ****     tempReg &= 0xFFFFFF00;
 5992              		.loc 1 53 5 view .LVU2077
  53:Core/Src/lcd.c ****     tempReg &= 0xFFFFFF00;
ARM GAS  C:\Users\Vento\AppData\Local\Temp\ccDU9lzs.s 			page 152


 5993              		.loc 1 53 14 is_stmt 0 view .LVU2078
 5994 0f86 E368     		ldr	r3, [r4, #12]
 5995              	.LVL669:
  54:Core/Src/lcd.c ****     tempReg |= (uint32_t)data;
 5996              		.loc 1 54 5 is_stmt 1 view .LVU2079
  54:Core/Src/lcd.c ****     tempReg |= (uint32_t)data;
 5997              		.loc 1 54 13 is_stmt 0 view .LVU2080
 5998 0f88 23F0FF03 		bic	r3, r3, #255
 5999              	.LVL670:
  55:Core/Src/lcd.c ****     DATA_PORT->ODR = tempReg;
 6000              		.loc 1 55 5 is_stmt 1 view .LVU2081
  55:Core/Src/lcd.c ****     DATA_PORT->ODR = tempReg;
 6001              		.loc 1 55 13 is_stmt 0 view .LVU2082
 6002 0f8c 43F01103 		orr	r3, r3, #17
 6003              	.LVL671:
  56:Core/Src/lcd.c **** 
 6004              		.loc 1 56 5 is_stmt 1 view .LVU2083
  56:Core/Src/lcd.c **** 
 6005              		.loc 1 56 20 is_stmt 0 view .LVU2084
 6006 0f90 E360     		str	r3, [r4, #12]
  67:Core/Src/lcd.c ****     HAL_GPIO_WritePin(ILI9341_WR_GPIO_Port, ILI9341_WR_Pin, GPIO_PIN_SET);
 6007              		.loc 1 67 5 is_stmt 1 view .LVU2085
 6008 0f92 0022     		movs	r2, #0
 6009 0f94 4FF48061 		mov	r1, #1024
 6010 0f98 2046     		mov	r0, r4
 6011 0f9a FFF7FEFF 		bl	HAL_GPIO_WritePin
 6012              	.LVL672:
  68:Core/Src/lcd.c **** }
 6013              		.loc 1 68 5 view .LVU2086
 6014 0f9e 0122     		movs	r2, #1
 6015 0fa0 4FF48061 		mov	r1, #1024
 6016 0fa4 2046     		mov	r0, r4
 6017 0fa6 FFF7FEFF 		bl	HAL_GPIO_WritePin
 6018              	.LVL673:
  68:Core/Src/lcd.c **** }
 6019              		.loc 1 68 5 is_stmt 0 view .LVU2087
 6020              	.LBE773:
 6021              	.LBE772:
 6022              	.LBE771:
 6023              	.LBE770:
 253:Core/Src/lcd.c **** 
 6024              		.loc 1 253 5 is_stmt 1 view .LVU2088
 6025 0faa 7820     		movs	r0, #120
 6026 0fac FFF7FEFF 		bl	HAL_Delay
 6027              	.LVL674:
 256:Core/Src/lcd.c **** 
 6028              		.loc 1 256 5 view .LVU2089
 6029              	.LBB774:
 6030              	.LBI774:
  71:Core/Src/lcd.c **** {
 6031              		.loc 1 71 20 view .LVU2090
 6032              	.LBB775:
  74:Core/Src/lcd.c ****     ILI9341_SetData(cmd);
 6033              		.loc 1 74 5 view .LVU2091
 6034 0fb0 0022     		movs	r2, #0
 6035 0fb2 4FF48071 		mov	r1, #256
 6036 0fb6 2046     		mov	r0, r4
ARM GAS  C:\Users\Vento\AppData\Local\Temp\ccDU9lzs.s 			page 153


 6037 0fb8 FFF7FEFF 		bl	HAL_GPIO_WritePin
 6038              	.LVL675:
  75:Core/Src/lcd.c ****     // ILI9341_Unselect();
 6039              		.loc 1 75 5 view .LVU2092
 6040              	.LBB776:
 6041              	.LBI776:
  46:Core/Src/lcd.c **** {
 6042              		.loc 1 46 20 view .LVU2093
 6043              	.LBB777:
  48:Core/Src/lcd.c ****     uint8_t temp_Bit3rd_Data = data & 0x04;
 6044              		.loc 1 48 5 view .LVU2094
  49:Core/Src/lcd.c ****     data &= ~0x06;
 6045              		.loc 1 49 5 view .LVU2095
  50:Core/Src/lcd.c ****     data |= (uint8_t)((temp_Bit2nd_Data << 1) | (temp_Bit3rd_Data >> 1));
 6046              		.loc 1 50 5 view .LVU2096
  51:Core/Src/lcd.c **** 
 6047              		.loc 1 51 5 view .LVU2097
  53:Core/Src/lcd.c ****     tempReg &= 0xFFFFFF00;
 6048              		.loc 1 53 5 view .LVU2098
  53:Core/Src/lcd.c ****     tempReg &= 0xFFFFFF00;
 6049              		.loc 1 53 14 is_stmt 0 view .LVU2099
 6050 0fbc E368     		ldr	r3, [r4, #12]
 6051              	.LVL676:
  54:Core/Src/lcd.c ****     tempReg |= (uint32_t)data;
 6052              		.loc 1 54 5 is_stmt 1 view .LVU2100
  54:Core/Src/lcd.c ****     tempReg |= (uint32_t)data;
 6053              		.loc 1 54 13 is_stmt 0 view .LVU2101
 6054 0fbe 23F0FF03 		bic	r3, r3, #255
 6055              	.LVL677:
  55:Core/Src/lcd.c ****     DATA_PORT->ODR = tempReg;
 6056              		.loc 1 55 5 is_stmt 1 view .LVU2102
  55:Core/Src/lcd.c ****     DATA_PORT->ODR = tempReg;
 6057              		.loc 1 55 13 is_stmt 0 view .LVU2103
 6058 0fc2 43F02903 		orr	r3, r3, #41
 6059              	.LVL678:
  56:Core/Src/lcd.c **** 
 6060              		.loc 1 56 5 is_stmt 1 view .LVU2104
  56:Core/Src/lcd.c **** 
 6061              		.loc 1 56 20 is_stmt 0 view .LVU2105
 6062 0fc6 E360     		str	r3, [r4, #12]
  67:Core/Src/lcd.c ****     HAL_GPIO_WritePin(ILI9341_WR_GPIO_Port, ILI9341_WR_Pin, GPIO_PIN_SET);
 6063              		.loc 1 67 5 is_stmt 1 view .LVU2106
 6064 0fc8 0022     		movs	r2, #0
 6065 0fca 4FF48061 		mov	r1, #1024
 6066 0fce 2046     		mov	r0, r4
 6067 0fd0 FFF7FEFF 		bl	HAL_GPIO_WritePin
 6068              	.LVL679:
  68:Core/Src/lcd.c **** }
 6069              		.loc 1 68 5 view .LVU2107
 6070 0fd4 0122     		movs	r2, #1
 6071 0fd6 4FF48061 		mov	r1, #1024
 6072 0fda 2046     		mov	r0, r4
 6073 0fdc FFF7FEFF 		bl	HAL_GPIO_WritePin
 6074              	.LVL680:
  68:Core/Src/lcd.c **** }
 6075              		.loc 1 68 5 is_stmt 0 view .LVU2108
 6076              	.LBE777:
ARM GAS  C:\Users\Vento\AppData\Local\Temp\ccDU9lzs.s 			page 154


 6077              	.LBE776:
 6078              	.LBE775:
 6079              	.LBE774:
 259:Core/Src/lcd.c ****     ILI9341_Write_Data(ILI9341_ROTATION);
 6080              		.loc 1 259 5 is_stmt 1 view .LVU2109
 6081              	.LBB778:
 6082              	.LBI778:
  71:Core/Src/lcd.c **** {
 6083              		.loc 1 71 20 view .LVU2110
 6084              	.LBB779:
  74:Core/Src/lcd.c ****     ILI9341_SetData(cmd);
 6085              		.loc 1 74 5 view .LVU2111
 6086 0fe0 0022     		movs	r2, #0
 6087 0fe2 4FF48071 		mov	r1, #256
 6088 0fe6 2046     		mov	r0, r4
 6089 0fe8 FFF7FEFF 		bl	HAL_GPIO_WritePin
 6090              	.LVL681:
  75:Core/Src/lcd.c ****     // ILI9341_Unselect();
 6091              		.loc 1 75 5 view .LVU2112
 6092              	.LBB780:
 6093              	.LBI780:
  46:Core/Src/lcd.c **** {
 6094              		.loc 1 46 20 view .LVU2113
 6095              	.LBB781:
  48:Core/Src/lcd.c ****     uint8_t temp_Bit3rd_Data = data & 0x04;
 6096              		.loc 1 48 5 view .LVU2114
  49:Core/Src/lcd.c ****     data &= ~0x06;
 6097              		.loc 1 49 5 view .LVU2115
  50:Core/Src/lcd.c ****     data |= (uint8_t)((temp_Bit2nd_Data << 1) | (temp_Bit3rd_Data >> 1));
 6098              		.loc 1 50 5 view .LVU2116
  51:Core/Src/lcd.c **** 
 6099              		.loc 1 51 5 view .LVU2117
  53:Core/Src/lcd.c ****     tempReg &= 0xFFFFFF00;
 6100              		.loc 1 53 5 view .LVU2118
  53:Core/Src/lcd.c ****     tempReg &= 0xFFFFFF00;
 6101              		.loc 1 53 14 is_stmt 0 view .LVU2119
 6102 0fec E368     		ldr	r3, [r4, #12]
 6103              	.LVL682:
  54:Core/Src/lcd.c ****     tempReg |= (uint32_t)data;
 6104              		.loc 1 54 5 is_stmt 1 view .LVU2120
  54:Core/Src/lcd.c ****     tempReg |= (uint32_t)data;
 6105              		.loc 1 54 13 is_stmt 0 view .LVU2121
 6106 0fee 23F0FF03 		bic	r3, r3, #255
 6107              	.LVL683:
  55:Core/Src/lcd.c ****     DATA_PORT->ODR = tempReg;
 6108              		.loc 1 55 5 is_stmt 1 view .LVU2122
  55:Core/Src/lcd.c ****     DATA_PORT->ODR = tempReg;
 6109              		.loc 1 55 13 is_stmt 0 view .LVU2123
 6110 0ff2 43F03603 		orr	r3, r3, #54
 6111              	.LVL684:
  56:Core/Src/lcd.c **** 
 6112              		.loc 1 56 5 is_stmt 1 view .LVU2124
  56:Core/Src/lcd.c **** 
 6113              		.loc 1 56 20 is_stmt 0 view .LVU2125
 6114 0ff6 E360     		str	r3, [r4, #12]
  67:Core/Src/lcd.c ****     HAL_GPIO_WritePin(ILI9341_WR_GPIO_Port, ILI9341_WR_Pin, GPIO_PIN_SET);
 6115              		.loc 1 67 5 is_stmt 1 view .LVU2126
ARM GAS  C:\Users\Vento\AppData\Local\Temp\ccDU9lzs.s 			page 155


 6116 0ff8 0022     		movs	r2, #0
 6117 0ffa 4FF48061 		mov	r1, #1024
 6118 0ffe 2046     		mov	r0, r4
 6119 1000 FFF7FEFF 		bl	HAL_GPIO_WritePin
 6120              	.LVL685:
  68:Core/Src/lcd.c **** }
 6121              		.loc 1 68 5 view .LVU2127
 6122 1004 0122     		movs	r2, #1
 6123 1006 4FF48061 		mov	r1, #1024
 6124 100a 2046     		mov	r0, r4
 6125 100c FFF7FEFF 		bl	HAL_GPIO_WritePin
 6126              	.LVL686:
  68:Core/Src/lcd.c **** }
 6127              		.loc 1 68 5 is_stmt 0 view .LVU2128
 6128              	.LBE781:
 6129              	.LBE780:
 6130              	.LBE779:
 6131              	.LBE778:
 260:Core/Src/lcd.c **** 
 6132              		.loc 1 260 5 is_stmt 1 view .LVU2129
 6133              	.LBB782:
 6134              	.LBI782:
  79:Core/Src/lcd.c **** {
 6135              		.loc 1 79 20 view .LVU2130
 6136              	.LBB783:
  82:Core/Src/lcd.c ****     ILI9341_SetData(data);
 6137              		.loc 1 82 5 view .LVU2131
 6138 1010 0122     		movs	r2, #1
 6139 1012 4FF48071 		mov	r1, #256
 6140 1016 2046     		mov	r0, r4
 6141 1018 FFF7FEFF 		bl	HAL_GPIO_WritePin
 6142              	.LVL687:
  83:Core/Src/lcd.c ****     // ILI9341_Unselect();
 6143              		.loc 1 83 5 view .LVU2132
 6144              	.LBB784:
 6145              	.LBI784:
  46:Core/Src/lcd.c **** {
 6146              		.loc 1 46 20 view .LVU2133
 6147              	.LBB785:
  48:Core/Src/lcd.c ****     uint8_t temp_Bit3rd_Data = data & 0x04;
 6148              		.loc 1 48 5 view .LVU2134
  49:Core/Src/lcd.c ****     data &= ~0x06;
 6149              		.loc 1 49 5 view .LVU2135
  50:Core/Src/lcd.c ****     data |= (uint8_t)((temp_Bit2nd_Data << 1) | (temp_Bit3rd_Data >> 1));
 6150              		.loc 1 50 5 view .LVU2136
  51:Core/Src/lcd.c **** 
 6151              		.loc 1 51 5 view .LVU2137
  53:Core/Src/lcd.c ****     tempReg &= 0xFFFFFF00;
 6152              		.loc 1 53 5 view .LVU2138
  53:Core/Src/lcd.c ****     tempReg &= 0xFFFFFF00;
 6153              		.loc 1 53 14 is_stmt 0 view .LVU2139
 6154 101c E368     		ldr	r3, [r4, #12]
 6155              	.LVL688:
  54:Core/Src/lcd.c ****     tempReg |= (uint32_t)data;
 6156              		.loc 1 54 5 is_stmt 1 view .LVU2140
  54:Core/Src/lcd.c ****     tempReg |= (uint32_t)data;
 6157              		.loc 1 54 13 is_stmt 0 view .LVU2141
ARM GAS  C:\Users\Vento\AppData\Local\Temp\ccDU9lzs.s 			page 156


 6158 101e 23F0FF03 		bic	r3, r3, #255
 6159              	.LVL689:
  55:Core/Src/lcd.c ****     DATA_PORT->ODR = tempReg;
 6160              		.loc 1 55 5 is_stmt 1 view .LVU2142
  55:Core/Src/lcd.c ****     DATA_PORT->ODR = tempReg;
 6161              		.loc 1 55 13 is_stmt 0 view .LVU2143
 6162 1022 43F02803 		orr	r3, r3, #40
 6163              	.LVL690:
  56:Core/Src/lcd.c **** 
 6164              		.loc 1 56 5 is_stmt 1 view .LVU2144
  56:Core/Src/lcd.c **** 
 6165              		.loc 1 56 20 is_stmt 0 view .LVU2145
 6166 1026 E360     		str	r3, [r4, #12]
  67:Core/Src/lcd.c ****     HAL_GPIO_WritePin(ILI9341_WR_GPIO_Port, ILI9341_WR_Pin, GPIO_PIN_SET);
 6167              		.loc 1 67 5 is_stmt 1 view .LVU2146
 6168 1028 0022     		movs	r2, #0
 6169 102a 4FF48061 		mov	r1, #1024
 6170 102e 2046     		mov	r0, r4
 6171 1030 FFF7FEFF 		bl	HAL_GPIO_WritePin
 6172              	.LVL691:
  68:Core/Src/lcd.c **** }
 6173              		.loc 1 68 5 view .LVU2147
 6174 1034 0122     		movs	r2, #1
 6175 1036 4FF48061 		mov	r1, #1024
 6176 103a 2046     		mov	r0, r4
 6177 103c FFF7FEFF 		bl	HAL_GPIO_WritePin
 6178              	.LVL692:
  68:Core/Src/lcd.c **** }
 6179              		.loc 1 68 5 is_stmt 0 view .LVU2148
 6180              	.LBE785:
 6181              	.LBE784:
 6182              	.LBE783:
 6183              	.LBE782:
 262:Core/Src/lcd.c **** 
 6184              		.loc 1 262 5 is_stmt 1 view .LVU2149
 6185              	.LBB786:
 6186              	.LBI786:
  33:Core/Src/lcd.c **** {
 6187              		.loc 1 33 13 view .LVU2150
 6188              	.LBB787:
  35:Core/Src/lcd.c **** }
 6189              		.loc 1 35 5 view .LVU2151
 6190 1040 0122     		movs	r2, #1
 6191 1042 4FF40071 		mov	r1, #512
 6192 1046 2046     		mov	r0, r4
 6193 1048 FFF7FEFF 		bl	HAL_GPIO_WritePin
 6194              	.LVL693:
 6195              	.LBE787:
 6196              	.LBE786:
 265:Core/Src/lcd.c ****     ILI9341_LCD_LED(true);
 6197              		.loc 1 265 5 view .LVU2152
 6198 104c 0020     		movs	r0, #0
 6199 104e FFF7FEFF 		bl	ILI9341_FillScreen
 6200              	.LVL694:
 266:Core/Src/lcd.c **** }
 6201              		.loc 1 266 5 view .LVU2153
 6202              	.LBB788:
ARM GAS  C:\Users\Vento\AppData\Local\Temp\ccDU9lzs.s 			page 157


 6203              	.LBI788:
  20:Core/Src/lcd.c **** {
 6204              		.loc 1 20 13 view .LVU2154
 6205              	.LBB789:
  22:Core/Src/lcd.c ****         HAL_GPIO_WritePin(ILI9341_LED_GPIO_Port, ILI9341_LED_Pin, SET);
 6206              		.loc 1 22 5 view .LVU2155
  23:Core/Src/lcd.c ****     else
 6207              		.loc 1 23 9 view .LVU2156
 6208 1052 0122     		movs	r2, #1
 6209 1054 0421     		movs	r1, #4
 6210 1056 0248     		ldr	r0, .L102
 6211 1058 FFF7FEFF 		bl	HAL_GPIO_WritePin
 6212              	.LVL695:
  23:Core/Src/lcd.c ****     else
 6213              		.loc 1 23 9 is_stmt 0 view .LVU2157
 6214              	.LBE789:
 6215              	.LBE788:
 267:Core/Src/lcd.c **** 
 6216              		.loc 1 267 1 view .LVU2158
 6217 105c 38BD     		pop	{r3, r4, r5, pc}
 6218              	.L103:
 6219 105e 00BF     		.align	2
 6220              	.L102:
 6221 1060 00140140 		.word	1073812480
 6222              		.cfi_endproc
 6223              	.LFE74:
 6225              		.section	.text.ILI9341_DrawImage,"ax",%progbits
 6226              		.align	1
 6227              		.global	ILI9341_DrawImage
 6228              		.syntax unified
 6229              		.thumb
 6230              		.thumb_func
 6231              		.fpu softvfp
 6233              	ILI9341_DrawImage:
 6234              	.LVL696:
 6235              	.LFB82:
 449:Core/Src/lcd.c ****     if((x >= ILI9341_WIDTH) || (y >= ILI9341_HEIGHT)) return;
 6236              		.loc 1 449 1 is_stmt 1 view -0
 6237              		.cfi_startproc
 6238              		@ args = 4, pretend = 0, frame = 0
 6239              		@ frame_needed = 0, uses_anonymous_args = 0
 450:Core/Src/lcd.c ****     if((x + w - 1) >= ILI9341_WIDTH) return;
 6240              		.loc 1 450 5 view .LVU2160
 450:Core/Src/lcd.c ****     if((x + w - 1) >= ILI9341_WIDTH) return;
 6241              		.loc 1 450 7 is_stmt 0 view .LVU2161
 6242 0000 B0F5A07F 		cmp	r0, #320
 6243 0004 31D2     		bcs	.L107
 449:Core/Src/lcd.c ****     if((x >= ILI9341_WIDTH) || (y >= ILI9341_HEIGHT)) return;
 6244              		.loc 1 449 1 discriminator 2 view .LVU2162
 6245 0006 2DE9F041 		push	{r4, r5, r6, r7, r8, lr}
 6246              	.LCFI37:
 6247              		.cfi_def_cfa_offset 24
 6248              		.cfi_offset 4, -24
 6249              		.cfi_offset 5, -20
 6250              		.cfi_offset 6, -16
 6251              		.cfi_offset 7, -12
 6252              		.cfi_offset 8, -8
ARM GAS  C:\Users\Vento\AppData\Local\Temp\ccDU9lzs.s 			page 158


 6253              		.cfi_offset 14, -4
 6254 000a 0446     		mov	r4, r0
 6255 000c 0D46     		mov	r5, r1
 6256 000e 1746     		mov	r7, r2
 6257 0010 1E46     		mov	r6, r3
 450:Core/Src/lcd.c ****     if((x + w - 1) >= ILI9341_WIDTH) return;
 6258              		.loc 1 450 29 discriminator 2 view .LVU2163
 6259 0012 EF29     		cmp	r1, #239
 6260 0014 06D8     		bhi	.L104
 451:Core/Src/lcd.c ****     if((y + h - 1) >= ILI9341_HEIGHT) return;
 6261              		.loc 1 451 5 is_stmt 1 view .LVU2164
 451:Core/Src/lcd.c ****     if((y + h - 1) >= ILI9341_HEIGHT) return;
 6262              		.loc 1 451 11 is_stmt 0 view .LVU2165
 6263 0016 8318     		adds	r3, r0, r2
 6264              	.LVL697:
 451:Core/Src/lcd.c ****     if((y + h - 1) >= ILI9341_HEIGHT) return;
 6265              		.loc 1 451 7 view .LVU2166
 6266 0018 B3F5A07F 		cmp	r3, #320
 6267 001c 02DC     		bgt	.L104
 452:Core/Src/lcd.c **** 
 6268              		.loc 1 452 5 is_stmt 1 view .LVU2167
 452:Core/Src/lcd.c **** 
 6269              		.loc 1 452 11 is_stmt 0 view .LVU2168
 6270 001e 8B19     		adds	r3, r1, r6
 452:Core/Src/lcd.c **** 
 6271              		.loc 1 452 7 view .LVU2169
 6272 0020 F02B     		cmp	r3, #240
 6273 0022 01DD     		ble	.L110
 6274              	.LVL698:
 6275              	.L104:
 458:Core/Src/lcd.c **** 
 6276              		.loc 1 458 1 view .LVU2170
 6277 0024 BDE8F081 		pop	{r4, r5, r6, r7, r8, pc}
 6278              	.LVL699:
 6279              	.L110:
 454:Core/Src/lcd.c ****     ILI9341_SetAddressWindow(x, y, x+w-1, y+h-1);
 6280              		.loc 1 454 5 is_stmt 1 view .LVU2171
 6281              	.LBB790:
 6282              	.LBI790:
  28:Core/Src/lcd.c **** {
 6283              		.loc 1 28 20 view .LVU2172
 6284              	.LBB791:
  30:Core/Src/lcd.c **** }
 6285              		.loc 1 30 5 view .LVU2173
 6286 0028 DFF84080 		ldr	r8, .L111
 6287 002c 0022     		movs	r2, #0
 6288              	.LVL700:
  30:Core/Src/lcd.c **** }
 6289              		.loc 1 30 5 is_stmt 0 view .LVU2174
 6290 002e 4FF40071 		mov	r1, #512
 6291              	.LVL701:
  30:Core/Src/lcd.c **** }
 6292              		.loc 1 30 5 view .LVU2175
 6293 0032 4046     		mov	r0, r8
 6294              	.LVL702:
  30:Core/Src/lcd.c **** }
 6295              		.loc 1 30 5 view .LVU2176
ARM GAS  C:\Users\Vento\AppData\Local\Temp\ccDU9lzs.s 			page 159


 6296 0034 FFF7FEFF 		bl	HAL_GPIO_WritePin
 6297              	.LVL703:
 6298              	.LBE791:
 6299              	.LBE790:
 455:Core/Src/lcd.c ****     ILI9341_WriteData((uint8_t*)data, sizeof(uint16_t)*w*h);
 6300              		.loc 1 455 5 is_stmt 1 view .LVU2177
 455:Core/Src/lcd.c ****     ILI9341_WriteData((uint8_t*)data, sizeof(uint16_t)*w*h);
 6301              		.loc 1 455 37 is_stmt 0 view .LVU2178
 6302 0038 E219     		adds	r2, r4, r7
 6303 003a 92B2     		uxth	r2, r2
 455:Core/Src/lcd.c ****     ILI9341_WriteData((uint8_t*)data, sizeof(uint16_t)*w*h);
 6304              		.loc 1 455 44 view .LVU2179
 6305 003c AB19     		adds	r3, r5, r6
 6306 003e 9BB2     		uxth	r3, r3
 455:Core/Src/lcd.c ****     ILI9341_WriteData((uint8_t*)data, sizeof(uint16_t)*w*h);
 6307              		.loc 1 455 5 view .LVU2180
 6308 0040 013B     		subs	r3, r3, #1
 6309 0042 013A     		subs	r2, r2, #1
 6310 0044 9BB2     		uxth	r3, r3
 6311 0046 92B2     		uxth	r2, r2
 6312 0048 2946     		mov	r1, r5
 6313 004a 2046     		mov	r0, r4
 6314 004c FFF7FEFF 		bl	ILI9341_SetAddressWindow
 6315              	.LVL704:
 456:Core/Src/lcd.c ****     ILI9341_Unselect();
 6316              		.loc 1 456 5 is_stmt 1 view .LVU2181
 456:Core/Src/lcd.c ****     ILI9341_Unselect();
 6317              		.loc 1 456 57 is_stmt 0 view .LVU2182
 6318 0050 06FB07F1 		mul	r1, r6, r7
 456:Core/Src/lcd.c ****     ILI9341_Unselect();
 6319              		.loc 1 456 5 view .LVU2183
 6320 0054 4900     		lsls	r1, r1, #1
 6321 0056 0698     		ldr	r0, [sp, #24]
 6322 0058 FFF7FEFF 		bl	ILI9341_WriteData
 6323              	.LVL705:
 457:Core/Src/lcd.c **** }
 6324              		.loc 1 457 5 is_stmt 1 view .LVU2184
 6325              	.LBB792:
 6326              	.LBI792:
  33:Core/Src/lcd.c **** {
 6327              		.loc 1 33 13 view .LVU2185
 6328              	.LBB793:
  35:Core/Src/lcd.c **** }
 6329              		.loc 1 35 5 view .LVU2186
 6330 005c 0122     		movs	r2, #1
 6331 005e 4FF40071 		mov	r1, #512
 6332 0062 4046     		mov	r0, r8
 6333 0064 FFF7FEFF 		bl	HAL_GPIO_WritePin
 6334              	.LVL706:
  36:Core/Src/lcd.c **** 
 6335              		.loc 1 36 1 is_stmt 0 view .LVU2187
 6336 0068 DCE7     		b	.L104
 6337              	.LVL707:
 6338              	.L107:
 6339              	.LCFI38:
 6340              		.cfi_def_cfa_offset 0
 6341              		.cfi_restore 4
ARM GAS  C:\Users\Vento\AppData\Local\Temp\ccDU9lzs.s 			page 160


 6342              		.cfi_restore 5
 6343              		.cfi_restore 6
 6344              		.cfi_restore 7
 6345              		.cfi_restore 8
 6346              		.cfi_restore 14
  36:Core/Src/lcd.c **** 
 6347              		.loc 1 36 1 view .LVU2188
 6348 006a 7047     		bx	lr
 6349              	.L112:
 6350              		.align	2
 6351              	.L111:
 6352 006c 000C0140 		.word	1073810432
 6353              	.LBE793:
 6354              	.LBE792:
 6355              		.cfi_endproc
 6356              	.LFE82:
 6358              		.section	.text.ILI9341_InvertColors,"ax",%progbits
 6359              		.align	1
 6360              		.global	ILI9341_InvertColors
 6361              		.syntax unified
 6362              		.thumb
 6363              		.thumb_func
 6364              		.fpu softvfp
 6366              	ILI9341_InvertColors:
 6367              	.LVL708:
 6368              	.LFB83:
 461:Core/Src/lcd.c ****     ILI9341_Select();
 6369              		.loc 1 461 1 is_stmt 1 view -0
 6370              		.cfi_startproc
 6371              		@ args = 0, pretend = 0, frame = 0
 6372              		@ frame_needed = 0, uses_anonymous_args = 0
 461:Core/Src/lcd.c ****     ILI9341_Select();
 6373              		.loc 1 461 1 is_stmt 0 view .LVU2190
 6374 0000 38B5     		push	{r3, r4, r5, lr}
 6375              	.LCFI39:
 6376              		.cfi_def_cfa_offset 16
 6377              		.cfi_offset 3, -16
 6378              		.cfi_offset 4, -12
 6379              		.cfi_offset 5, -8
 6380              		.cfi_offset 14, -4
 6381 0002 0446     		mov	r4, r0
 462:Core/Src/lcd.c ****     ILI9341_WriteCommand(invert ? 0x21 /* INVON */ : 0x20 /* INVOFF */);
 6382              		.loc 1 462 5 is_stmt 1 view .LVU2191
 6383              	.LBB802:
 6384              	.LBI802:
  28:Core/Src/lcd.c **** {
 6385              		.loc 1 28 20 view .LVU2192
 6386              	.LBB803:
  30:Core/Src/lcd.c **** }
 6387              		.loc 1 30 5 view .LVU2193
 6388 0004 0022     		movs	r2, #0
 6389 0006 4FF40071 		mov	r1, #512
 6390 000a 1348     		ldr	r0, .L117
 6391              	.LVL709:
  30:Core/Src/lcd.c **** }
 6392              		.loc 1 30 5 is_stmt 0 view .LVU2194
 6393 000c FFF7FEFF 		bl	HAL_GPIO_WritePin
ARM GAS  C:\Users\Vento\AppData\Local\Temp\ccDU9lzs.s 			page 161


 6394              	.LVL710:
 6395              	.LBE803:
 6396              	.LBE802:
 463:Core/Src/lcd.c ****     ILI9341_Unselect();
 6397              		.loc 1 463 5 is_stmt 1 view .LVU2195
 6398 0010 FCB1     		cbz	r4, .L115
 6399 0012 2125     		movs	r5, #33
 6400              	.L114:
 6401              	.LVL711:
 6402              	.LBB804:
 6403              	.LBI804:
  71:Core/Src/lcd.c **** {
 6404              		.loc 1 71 20 discriminator 4 view .LVU2196
 6405              	.LBB805:
  74:Core/Src/lcd.c ****     ILI9341_SetData(cmd);
 6406              		.loc 1 74 5 discriminator 4 view .LVU2197
 6407 0014 104C     		ldr	r4, .L117
 6408 0016 0022     		movs	r2, #0
 6409 0018 4FF48071 		mov	r1, #256
 6410 001c 2046     		mov	r0, r4
 6411 001e FFF7FEFF 		bl	HAL_GPIO_WritePin
 6412              	.LVL712:
  75:Core/Src/lcd.c ****     // ILI9341_Unselect();
 6413              		.loc 1 75 5 discriminator 4 view .LVU2198
 6414              	.LBB806:
 6415              	.LBI806:
  46:Core/Src/lcd.c **** {
 6416              		.loc 1 46 20 discriminator 4 view .LVU2199
 6417              	.LBB807:
  48:Core/Src/lcd.c ****     uint8_t temp_Bit3rd_Data = data & 0x04;
 6418              		.loc 1 48 5 discriminator 4 view .LVU2200
  49:Core/Src/lcd.c ****     data &= ~0x06;
 6419              		.loc 1 49 5 discriminator 4 view .LVU2201
  50:Core/Src/lcd.c ****     data |= (uint8_t)((temp_Bit2nd_Data << 1) | (temp_Bit3rd_Data >> 1));
 6420              		.loc 1 50 5 discriminator 4 view .LVU2202
  51:Core/Src/lcd.c **** 
 6421              		.loc 1 51 5 discriminator 4 view .LVU2203
  53:Core/Src/lcd.c ****     tempReg &= 0xFFFFFF00;
 6422              		.loc 1 53 5 discriminator 4 view .LVU2204
  53:Core/Src/lcd.c ****     tempReg &= 0xFFFFFF00;
 6423              		.loc 1 53 14 is_stmt 0 discriminator 4 view .LVU2205
 6424 0022 E368     		ldr	r3, [r4, #12]
 6425              	.LVL713:
  54:Core/Src/lcd.c ****     tempReg |= (uint32_t)data;
 6426              		.loc 1 54 5 is_stmt 1 discriminator 4 view .LVU2206
  54:Core/Src/lcd.c ****     tempReg |= (uint32_t)data;
 6427              		.loc 1 54 13 is_stmt 0 discriminator 4 view .LVU2207
 6428 0024 23F0FF03 		bic	r3, r3, #255
 6429              	.LVL714:
  55:Core/Src/lcd.c ****     DATA_PORT->ODR = tempReg;
 6430              		.loc 1 55 5 is_stmt 1 discriminator 4 view .LVU2208
  55:Core/Src/lcd.c ****     DATA_PORT->ODR = tempReg;
 6431              		.loc 1 55 13 is_stmt 0 discriminator 4 view .LVU2209
 6432 0028 2B43     		orrs	r3, r3, r5
 6433              	.LVL715:
  56:Core/Src/lcd.c **** 
 6434              		.loc 1 56 5 is_stmt 1 discriminator 4 view .LVU2210
ARM GAS  C:\Users\Vento\AppData\Local\Temp\ccDU9lzs.s 			page 162


  56:Core/Src/lcd.c **** 
 6435              		.loc 1 56 20 is_stmt 0 discriminator 4 view .LVU2211
 6436 002a E360     		str	r3, [r4, #12]
  67:Core/Src/lcd.c ****     HAL_GPIO_WritePin(ILI9341_WR_GPIO_Port, ILI9341_WR_Pin, GPIO_PIN_SET);
 6437              		.loc 1 67 5 is_stmt 1 discriminator 4 view .LVU2212
 6438 002c 0022     		movs	r2, #0
 6439 002e 4FF48061 		mov	r1, #1024
 6440 0032 2046     		mov	r0, r4
 6441 0034 FFF7FEFF 		bl	HAL_GPIO_WritePin
 6442              	.LVL716:
  68:Core/Src/lcd.c **** }
 6443              		.loc 1 68 5 discriminator 4 view .LVU2213
 6444 0038 0122     		movs	r2, #1
 6445 003a 4FF48061 		mov	r1, #1024
 6446 003e 2046     		mov	r0, r4
 6447 0040 FFF7FEFF 		bl	HAL_GPIO_WritePin
 6448              	.LVL717:
  68:Core/Src/lcd.c **** }
 6449              		.loc 1 68 5 is_stmt 0 discriminator 4 view .LVU2214
 6450              	.LBE807:
 6451              	.LBE806:
 6452              	.LBE805:
 6453              	.LBE804:
 464:Core/Src/lcd.c **** }
 6454              		.loc 1 464 5 is_stmt 1 discriminator 4 view .LVU2215
 6455              	.LBB808:
 6456              	.LBI808:
  33:Core/Src/lcd.c **** {
 6457              		.loc 1 33 13 discriminator 4 view .LVU2216
 6458              	.LBB809:
  35:Core/Src/lcd.c **** }
 6459              		.loc 1 35 5 discriminator 4 view .LVU2217
 6460 0044 0122     		movs	r2, #1
 6461 0046 4FF40071 		mov	r1, #512
 6462 004a 2046     		mov	r0, r4
 6463 004c FFF7FEFF 		bl	HAL_GPIO_WritePin
 6464              	.LVL718:
 6465              	.LBE809:
 6466              	.LBE808:
 465:Core/Src/lcd.c **** 
 6467              		.loc 1 465 1 is_stmt 0 discriminator 4 view .LVU2218
 6468 0050 38BD     		pop	{r3, r4, r5, pc}
 6469              	.LVL719:
 6470              	.L115:
 463:Core/Src/lcd.c ****     ILI9341_Unselect();
 6471              		.loc 1 463 5 view .LVU2219
 6472 0052 2025     		movs	r5, #32
 6473 0054 DEE7     		b	.L114
 6474              	.L118:
 6475 0056 00BF     		.align	2
 6476              	.L117:
 6477 0058 000C0140 		.word	1073810432
 6478              		.cfi_endproc
 6479              	.LFE83:
 6481              		.section	.text.ILI9341_DrawTriangle,"ax",%progbits
 6482              		.align	1
 6483              		.global	ILI9341_DrawTriangle
ARM GAS  C:\Users\Vento\AppData\Local\Temp\ccDU9lzs.s 			page 163


 6484              		.syntax unified
 6485              		.thumb
 6486              		.thumb_func
 6487              		.fpu softvfp
 6489              	ILI9341_DrawTriangle:
 6490              	.LVL720:
 6491              	.LFB84:
 468:Core/Src/lcd.c ****     ILI9341_DrawLine(x1, y1, x2, y2, color);
 6492              		.loc 1 468 1 is_stmt 1 view -0
 6493              		.cfi_startproc
 6494              		@ args = 12, pretend = 0, frame = 0
 6495              		@ frame_needed = 0, uses_anonymous_args = 0
 468:Core/Src/lcd.c ****     ILI9341_DrawLine(x1, y1, x2, y2, color);
 6496              		.loc 1 468 1 is_stmt 0 view .LVU2221
 6497 0000 2DE9F047 		push	{r4, r5, r6, r7, r8, r9, r10, lr}
 6498              	.LCFI40:
 6499              		.cfi_def_cfa_offset 32
 6500              		.cfi_offset 4, -32
 6501              		.cfi_offset 5, -28
 6502              		.cfi_offset 6, -24
 6503              		.cfi_offset 7, -20
 6504              		.cfi_offset 8, -16
 6505              		.cfi_offset 9, -12
 6506              		.cfi_offset 10, -8
 6507              		.cfi_offset 14, -4
 6508 0004 82B0     		sub	sp, sp, #8
 6509              	.LCFI41:
 6510              		.cfi_def_cfa_offset 40
 6511 0006 0446     		mov	r4, r0
 6512 0008 0D46     		mov	r5, r1
 6513 000a 1746     		mov	r7, r2
 6514 000c 9846     		mov	r8, r3
 6515 000e BDF82890 		ldrh	r9, [sp, #40]
 6516 0012 BDF82CA0 		ldrh	r10, [sp, #44]
 6517 0016 BDF83060 		ldrh	r6, [sp, #48]
 469:Core/Src/lcd.c ****     ILI9341_DrawLine(x2, y2, x3, y3, color);
 6518              		.loc 1 469 5 is_stmt 1 view .LVU2222
 6519 001a 0096     		str	r6, [sp]
 6520 001c FFF7FEFF 		bl	ILI9341_DrawLine
 6521              	.LVL721:
 470:Core/Src/lcd.c ****     ILI9341_DrawLine(x3, y3, x1, y1, color);
 6522              		.loc 1 470 5 view .LVU2223
 6523 0020 0096     		str	r6, [sp]
 6524 0022 5346     		mov	r3, r10
 6525 0024 4A46     		mov	r2, r9
 6526 0026 4146     		mov	r1, r8
 6527 0028 3846     		mov	r0, r7
 6528 002a FFF7FEFF 		bl	ILI9341_DrawLine
 6529              	.LVL722:
 471:Core/Src/lcd.c **** }
 6530              		.loc 1 471 5 view .LVU2224
 6531 002e 0096     		str	r6, [sp]
 6532 0030 2B46     		mov	r3, r5
 6533 0032 2246     		mov	r2, r4
 6534 0034 5146     		mov	r1, r10
 6535 0036 4846     		mov	r0, r9
 6536 0038 FFF7FEFF 		bl	ILI9341_DrawLine
ARM GAS  C:\Users\Vento\AppData\Local\Temp\ccDU9lzs.s 			page 164


 6537              	.LVL723:
 472:Core/Src/lcd.c **** 
 6538              		.loc 1 472 1 is_stmt 0 view .LVU2225
 6539 003c 02B0     		add	sp, sp, #8
 6540              	.LCFI42:
 6541              		.cfi_def_cfa_offset 32
 6542              		@ sp needed
 6543 003e BDE8F087 		pop	{r4, r5, r6, r7, r8, r9, r10, pc}
 472:Core/Src/lcd.c **** 
 6544              		.loc 1 472 1 view .LVU2226
 6545              		.cfi_endproc
 6546              	.LFE84:
 6548              		.section	.text.ILI9341_FillTriangle,"ax",%progbits
 6549              		.align	1
 6550              		.global	ILI9341_FillTriangle
 6551              		.syntax unified
 6552              		.thumb
 6553              		.thumb_func
 6554              		.fpu softvfp
 6556              	ILI9341_FillTriangle:
 6557              	.LVL724:
 6558              	.LFB86:
 483:Core/Src/lcd.c ****     uint16_t a, b, y, last;
 6559              		.loc 1 483 1 is_stmt 1 view -0
 6560              		.cfi_startproc
 6561              		@ args = 12, pretend = 0, frame = 32
 6562              		@ frame_needed = 0, uses_anonymous_args = 0
 483:Core/Src/lcd.c ****     uint16_t a, b, y, last;
 6563              		.loc 1 483 1 is_stmt 0 view .LVU2228
 6564 0000 2DE9F04F 		push	{r4, r5, r6, r7, r8, r9, r10, fp, lr}
 6565              	.LCFI43:
 6566              		.cfi_def_cfa_offset 36
 6567              		.cfi_offset 4, -36
 6568              		.cfi_offset 5, -32
 6569              		.cfi_offset 6, -28
 6570              		.cfi_offset 7, -24
 6571              		.cfi_offset 8, -20
 6572              		.cfi_offset 9, -16
 6573              		.cfi_offset 10, -12
 6574              		.cfi_offset 11, -8
 6575              		.cfi_offset 14, -4
 6576 0004 8BB0     		sub	sp, sp, #44
 6577              	.LCFI44:
 6578              		.cfi_def_cfa_offset 80
 6579 0006 BDF85880 		ldrh	r8, [sp, #88]
 6580 000a ADF81E00 		strh	r0, [sp, #30]	@ movhi
 6581 000e ADF81C10 		strh	r1, [sp, #28]	@ movhi
 6582 0012 ADF81A20 		strh	r2, [sp, #26]	@ movhi
 6583 0016 ADF81830 		strh	r3, [sp, #24]	@ movhi
 484:Core/Src/lcd.c **** 	int dx01, dy01, dx02, dy02, dx12, dy12;
 6584              		.loc 1 484 5 is_stmt 1 view .LVU2229
 485:Core/Src/lcd.c **** 	long sa = 0;
 6585              		.loc 1 485 2 view .LVU2230
 486:Core/Src/lcd.c **** 	long sb = 0;
 6586              		.loc 1 486 2 view .LVU2231
 6587              	.LVL725:
 487:Core/Src/lcd.c **** 
ARM GAS  C:\Users\Vento\AppData\Local\Temp\ccDU9lzs.s 			page 165


 6588              		.loc 1 487 2 view .LVU2232
 489:Core/Src/lcd.c **** 	{
 6589              		.loc 1 489 5 view .LVU2233
 489:Core/Src/lcd.c **** 	{
 6590              		.loc 1 489 12 is_stmt 0 view .LVU2234
 6591 001a 8AB2     		uxth	r2, r1
 6592              	.LVL726:
 489:Core/Src/lcd.c **** 	{
 6593              		.loc 1 489 12 view .LVU2235
 6594 001c 9BB2     		uxth	r3, r3
 6595              	.LVL727:
 489:Core/Src/lcd.c **** 	{
 6596              		.loc 1 489 8 view .LVU2236
 6597 001e 9A42     		cmp	r2, r3
 6598 0020 32D8     		bhi	.L139
 6599              	.LVL728:
 6600              	.L122:
 494:Core/Src/lcd.c **** 	{
 6601              		.loc 1 494 5 is_stmt 1 view .LVU2237
 494:Core/Src/lcd.c **** 	{
 6602              		.loc 1 494 12 is_stmt 0 view .LVU2238
 6603 0022 BDF81820 		ldrh	r2, [sp, #24]
 6604 0026 BDF85430 		ldrh	r3, [sp, #84]
 494:Core/Src/lcd.c **** 	{
 6605              		.loc 1 494 8 view .LVU2239
 6606 002a 9A42     		cmp	r2, r3
 6607 002c 37D8     		bhi	.L140
 6608              	.L123:
 499:Core/Src/lcd.c **** 	{
 6609              		.loc 1 499 5 is_stmt 1 view .LVU2240
 499:Core/Src/lcd.c **** 	{
 6610              		.loc 1 499 12 is_stmt 0 view .LVU2241
 6611 002e BDF81C20 		ldrh	r2, [sp, #28]
 6612 0032 BDF81830 		ldrh	r3, [sp, #24]
 499:Core/Src/lcd.c **** 	{
 6613              		.loc 1 499 8 view .LVU2242
 6614 0036 9A42     		cmp	r2, r3
 6615 0038 3BD8     		bhi	.L141
 6616              	.L124:
 505:Core/Src/lcd.c **** 	{ 
 6617              		.loc 1 505 5 is_stmt 1 view .LVU2243
 505:Core/Src/lcd.c **** 	{ 
 6618              		.loc 1 505 12 is_stmt 0 view .LVU2244
 6619 003a BDF81C40 		ldrh	r4, [sp, #28]
 6620 003e BDF85430 		ldrh	r3, [sp, #84]
 505:Core/Src/lcd.c **** 	{ 
 6621              		.loc 1 505 8 view .LVU2245
 6622 0042 9C42     		cmp	r4, r3
 6623 0044 40D0     		beq	.L142
 531:Core/Src/lcd.c **** 	dy01 = y1 - y0;
 6624              		.loc 1 531 2 is_stmt 1 view .LVU2246
 531:Core/Src/lcd.c **** 	dy01 = y1 - y0;
 6625              		.loc 1 531 12 is_stmt 0 view .LVU2247
 6626 0046 BDF81A20 		ldrh	r2, [sp, #26]
 6627 004a BDF81E70 		ldrh	r7, [sp, #30]
 531:Core/Src/lcd.c **** 	dy01 = y1 - y0;
 6628              		.loc 1 531 7 view .LVU2248
ARM GAS  C:\Users\Vento\AppData\Local\Temp\ccDU9lzs.s 			page 166


 6629 004e D11B     		subs	r1, r2, r7
 6630 0050 0391     		str	r1, [sp, #12]
 6631              	.LVL729:
 532:Core/Src/lcd.c **** 	dx02 = x2 - x0;
 6632              		.loc 1 532 2 is_stmt 1 view .LVU2249
 532:Core/Src/lcd.c **** 	dx02 = x2 - x0;
 6633              		.loc 1 532 12 is_stmt 0 view .LVU2250
 6634 0052 BDF818A0 		ldrh	r10, [sp, #24]
 532:Core/Src/lcd.c **** 	dx02 = x2 - x0;
 6635              		.loc 1 532 7 view .LVU2251
 6636 0056 AAEB0401 		sub	r1, r10, r4
 6637              	.LVL730:
 533:Core/Src/lcd.c **** 	dy02 = y2 - y0;
 6638              		.loc 1 533 2 is_stmt 1 view .LVU2252
 533:Core/Src/lcd.c **** 	dy02 = y2 - y0;
 6639              		.loc 1 533 12 is_stmt 0 view .LVU2253
 6640 005a BDF850B0 		ldrh	fp, [sp, #80]
 533:Core/Src/lcd.c **** 	dy02 = y2 - y0;
 6641              		.loc 1 533 7 view .LVU2254
 6642 005e ABEB0707 		sub	r7, fp, r7
 6643              	.LVL731:
 534:Core/Src/lcd.c **** 	dx12 = x2 - x1;
 6644              		.loc 1 534 2 is_stmt 1 view .LVU2255
 534:Core/Src/lcd.c **** 	dx12 = x2 - x1;
 6645              		.loc 1 534 7 is_stmt 0 view .LVU2256
 6646 0062 A3EB0409 		sub	r9, r3, r4
 6647              	.LVL732:
 535:Core/Src/lcd.c **** 	dy12 = y2 - y1;
 6648              		.loc 1 535 2 is_stmt 1 view .LVU2257
 535:Core/Src/lcd.c **** 	dy12 = y2 - y1;
 6649              		.loc 1 535 7 is_stmt 0 view .LVU2258
 6650 0066 ABEB020B 		sub	fp, fp, r2
 6651              	.LVL733:
 536:Core/Src/lcd.c **** 	
 6652              		.loc 1 536 2 is_stmt 1 view .LVU2259
 536:Core/Src/lcd.c **** 	
 6653              		.loc 1 536 7 is_stmt 0 view .LVU2260
 6654 006a A3EB0A02 		sub	r2, r3, r10
 6655 006e 0492     		str	r2, [sp, #16]
 6656              	.LVL734:
 538:Core/Src/lcd.c **** 	{
 6657              		.loc 1 538 2 is_stmt 1 view .LVU2261
 538:Core/Src/lcd.c **** 	{
 6658              		.loc 1 538 4 is_stmt 0 view .LVU2262
 6659 0070 5345     		cmp	r3, r10
 6660 0072 03D0     		beq	.L131
 544:Core/Src/lcd.c **** 	}
 6661              		.loc 1 544 3 is_stmt 1 view .LVU2263
 544:Core/Src/lcd.c **** 	}
 6662              		.loc 1 544 8 is_stmt 0 view .LVU2264
 6663 0074 0AF1FF3A 		add	r10, r10, #-1
 6664 0078 1FFA8AFA 		uxth	r10, r10
 6665              	.LVL735:
 6666              	.L131:
 547:Core/Src/lcd.c **** 	{
 6667              		.loc 1 547 2 is_stmt 1 view .LVU2265
 487:Core/Src/lcd.c **** 
ARM GAS  C:\Users\Vento\AppData\Local\Temp\ccDU9lzs.s 			page 167


 6668              		.loc 1 487 7 is_stmt 0 view .LVU2266
 6669 007c 0025     		movs	r5, #0
 486:Core/Src/lcd.c **** 	long sb = 0;
 6670              		.loc 1 486 7 view .LVU2267
 6671 007e 2E46     		mov	r6, r5
 6672 0080 CDF814B0 		str	fp, [sp, #20]
 6673 0084 8B46     		mov	fp, r1
 6674              	.LVL736:
 547:Core/Src/lcd.c **** 	{
 6675              		.loc 1 547 2 view .LVU2268
 6676 0086 60E0     		b	.L132
 6677              	.LVL737:
 6678              	.L139:
 491:Core/Src/lcd.c **** 		_swap(&x0,&x1);
 6679              		.loc 1 491 9 is_stmt 1 view .LVU2269
 6680 0088 06A9     		add	r1, sp, #24
 6681              	.LVL738:
 491:Core/Src/lcd.c **** 		_swap(&x0,&x1);
 6682              		.loc 1 491 9 is_stmt 0 view .LVU2270
 6683 008a 07A8     		add	r0, sp, #28
 6684              	.LVL739:
 491:Core/Src/lcd.c **** 		_swap(&x0,&x1);
 6685              		.loc 1 491 9 view .LVU2271
 6686 008c FFF7FEFF 		bl	_swap
 6687              	.LVL740:
 492:Core/Src/lcd.c ****     }
 6688              		.loc 1 492 3 is_stmt 1 view .LVU2272
 6689 0090 0DF11A01 		add	r1, sp, #26
 6690 0094 0DF11E00 		add	r0, sp, #30
 6691 0098 FFF7FEFF 		bl	_swap
 6692              	.LVL741:
 6693 009c C1E7     		b	.L122
 6694              	.L140:
 496:Core/Src/lcd.c **** 		_swap(&x2,&x1);
 6695              		.loc 1 496 9 view .LVU2273
 6696 009e 06A9     		add	r1, sp, #24
 6697 00a0 15A8     		add	r0, sp, #84
 6698 00a2 FFF7FEFF 		bl	_swap
 6699              	.LVL742:
 497:Core/Src/lcd.c ****     }
 6700              		.loc 1 497 3 view .LVU2274
 6701 00a6 0DF11A01 		add	r1, sp, #26
 6702 00aa 14A8     		add	r0, sp, #80
 6703              	.LVL743:
 497:Core/Src/lcd.c ****     }
 6704              		.loc 1 497 3 is_stmt 0 view .LVU2275
 6705 00ac FFF7FEFF 		bl	_swap
 6706              	.LVL744:
 497:Core/Src/lcd.c ****     }
 6707              		.loc 1 497 3 view .LVU2276
 6708 00b0 BDE7     		b	.L123
 6709              	.L141:
 501:Core/Src/lcd.c **** 		_swap(&x0,&x1);
 6710              		.loc 1 501 9 is_stmt 1 view .LVU2277
 6711 00b2 06A9     		add	r1, sp, #24
 6712 00b4 07A8     		add	r0, sp, #28
 6713 00b6 FFF7FEFF 		bl	_swap
ARM GAS  C:\Users\Vento\AppData\Local\Temp\ccDU9lzs.s 			page 168


 6714              	.LVL745:
 502:Core/Src/lcd.c ****     }
 6715              		.loc 1 502 3 view .LVU2278
 6716 00ba 0DF11A01 		add	r1, sp, #26
 6717 00be 0DF11E00 		add	r0, sp, #30
 6718 00c2 FFF7FEFF 		bl	_swap
 6719              	.LVL746:
 6720 00c6 B8E7     		b	.L124
 6721              	.L142:
 507:Core/Src/lcd.c **** 		if(x1 < a)
 6722              		.loc 1 507 3 view .LVU2279
 507:Core/Src/lcd.c **** 		if(x1 < a)
 6723              		.loc 1 507 9 is_stmt 0 view .LVU2280
 6724 00c8 BDF81E30 		ldrh	r3, [sp, #30]
 6725 00cc ADF82430 		strh	r3, [sp, #36]	@ movhi
 507:Core/Src/lcd.c **** 		if(x1 < a)
 6726              		.loc 1 507 5 view .LVU2281
 6727 00d0 ADF82630 		strh	r3, [sp, #38]	@ movhi
 508:Core/Src/lcd.c ****         {
 6728              		.loc 1 508 3 is_stmt 1 view .LVU2282
 508:Core/Src/lcd.c ****         {
 6729              		.loc 1 508 9 is_stmt 0 view .LVU2283
 6730 00d4 BDF81A20 		ldrh	r2, [sp, #26]
 508:Core/Src/lcd.c ****         {
 6731              		.loc 1 508 5 view .LVU2284
 6732 00d8 9342     		cmp	r3, r2
 6733 00da 1AD9     		bls	.L126
 510:Core/Src/lcd.c ****         }
 6734              		.loc 1 510 4 is_stmt 1 view .LVU2285
 510:Core/Src/lcd.c ****         }
 6735              		.loc 1 510 6 is_stmt 0 view .LVU2286
 6736 00dc ADF82620 		strh	r2, [sp, #38]	@ movhi
 6737              	.L127:
 517:Core/Src/lcd.c ****         {
 6738              		.loc 1 517 9 is_stmt 1 view .LVU2287
 517:Core/Src/lcd.c ****         {
 6739              		.loc 1 517 16 is_stmt 0 view .LVU2288
 6740 00e0 BDF85030 		ldrh	r3, [sp, #80]
 6741 00e4 BDF82620 		ldrh	r2, [sp, #38]
 517:Core/Src/lcd.c ****         {
 6742              		.loc 1 517 12 view .LVU2289
 6743 00e8 9342     		cmp	r3, r2
 6744 00ea 17D2     		bcs	.L128
 519:Core/Src/lcd.c ****         }
 6745              		.loc 1 519 13 is_stmt 1 view .LVU2290
 519:Core/Src/lcd.c ****         }
 6746              		.loc 1 519 15 is_stmt 0 view .LVU2291
 6747 00ec ADF82630 		strh	r3, [sp, #38]	@ movhi
 6748              	.L129:
 526:Core/Src/lcd.c **** 
 6749              		.loc 1 526 3 is_stmt 1 view .LVU2292
 6750 00f0 BDF82600 		ldrh	r0, [sp, #38]
 526:Core/Src/lcd.c **** 
 6751              		.loc 1 526 34 is_stmt 0 view .LVU2293
 6752 00f4 BDF82420 		ldrh	r2, [sp, #36]
 6753 00f8 121A     		subs	r2, r2, r0
 6754 00fa 92B2     		uxth	r2, r2
ARM GAS  C:\Users\Vento\AppData\Local\Temp\ccDU9lzs.s 			page 169


 526:Core/Src/lcd.c **** 
 6755              		.loc 1 526 3 view .LVU2294
 6756 00fc 0132     		adds	r2, r2, #1
 6757 00fe CDF80080 		str	r8, [sp]
 6758 0102 0123     		movs	r3, #1
 6759 0104 92B2     		uxth	r2, r2
 6760 0106 2146     		mov	r1, r4
 6761 0108 FFF7FEFF 		bl	ILI9341_FillRectangle
 6762              	.LVL747:
 528:Core/Src/lcd.c **** 	}
 6763              		.loc 1 528 9 is_stmt 1 view .LVU2295
 6764              	.L121:
 575:Core/Src/lcd.c **** 
 6765              		.loc 1 575 1 is_stmt 0 view .LVU2296
 6766 010c 0BB0     		add	sp, sp, #44
 6767              	.LCFI45:
 6768              		.cfi_remember_state
 6769              		.cfi_def_cfa_offset 36
 6770              		@ sp needed
 6771 010e BDE8F08F 		pop	{r4, r5, r6, r7, r8, r9, r10, fp, pc}
 6772              	.LVL748:
 6773              	.L126:
 6774              	.LCFI46:
 6775              		.cfi_restore_state
 512:Core/Src/lcd.c ****         {
 6776              		.loc 1 512 14 is_stmt 1 view .LVU2297
 512:Core/Src/lcd.c ****         {
 6777              		.loc 1 512 17 is_stmt 0 view .LVU2298
 6778 0112 9342     		cmp	r3, r2
 6779 0114 E4D2     		bcs	.L127
 514:Core/Src/lcd.c ****         }
 6780              		.loc 1 514 13 is_stmt 1 view .LVU2299
 514:Core/Src/lcd.c ****         }
 6781              		.loc 1 514 15 is_stmt 0 view .LVU2300
 6782 0116 ADF82420 		strh	r2, [sp, #36]	@ movhi
 6783 011a E1E7     		b	.L127
 6784              	.L128:
 521:Core/Src/lcd.c ****         {
 6785              		.loc 1 521 14 is_stmt 1 view .LVU2301
 521:Core/Src/lcd.c ****         {
 6786              		.loc 1 521 21 is_stmt 0 view .LVU2302
 6787 011c BDF82420 		ldrh	r2, [sp, #36]
 521:Core/Src/lcd.c ****         {
 6788              		.loc 1 521 17 view .LVU2303
 6789 0120 9342     		cmp	r3, r2
 6790 0122 E5D9     		bls	.L129
 523:Core/Src/lcd.c ****         }
 6791              		.loc 1 523 13 is_stmt 1 view .LVU2304
 523:Core/Src/lcd.c ****         }
 6792              		.loc 1 523 15 is_stmt 0 view .LVU2305
 6793 0124 ADF82430 		strh	r3, [sp, #36]	@ movhi
 6794 0128 E2E7     		b	.L129
 6795              	.LVL749:
 6796              	.L133:
 557:Core/Src/lcd.c **** 	}
 6797              		.loc 1 557 3 is_stmt 1 discriminator 2 view .LVU2306
 6798 012a BDF82600 		ldrh	r0, [sp, #38]
ARM GAS  C:\Users\Vento\AppData\Local\Temp\ccDU9lzs.s 			page 170


 557:Core/Src/lcd.c **** 	}
 6799              		.loc 1 557 33 is_stmt 0 discriminator 2 view .LVU2307
 6800 012e BDF82420 		ldrh	r2, [sp, #36]
 6801 0132 121A     		subs	r2, r2, r0
 6802 0134 92B2     		uxth	r2, r2
 557:Core/Src/lcd.c **** 	}
 6803              		.loc 1 557 3 discriminator 2 view .LVU2308
 6804 0136 0132     		adds	r2, r2, #1
 6805 0138 CDF80080 		str	r8, [sp]
 6806 013c 0123     		movs	r3, #1
 6807 013e 92B2     		uxth	r2, r2
 6808 0140 2146     		mov	r1, r4
 6809 0142 FFF7FEFF 		bl	ILI9341_FillRectangle
 6810              	.LVL750:
 547:Core/Src/lcd.c **** 	{
 6811              		.loc 1 547 25 is_stmt 1 discriminator 2 view .LVU2309
 547:Core/Src/lcd.c **** 	{
 6812              		.loc 1 547 26 is_stmt 0 discriminator 2 view .LVU2310
 6813 0146 0134     		adds	r4, r4, #1
 6814              	.LVL751:
 547:Core/Src/lcd.c **** 	{
 6815              		.loc 1 547 26 discriminator 2 view .LVU2311
 6816 0148 A4B2     		uxth	r4, r4
 6817              	.LVL752:
 6818              	.L132:
 547:Core/Src/lcd.c **** 	{
 6819              		.loc 1 547 14 is_stmt 1 discriminator 1 view .LVU2312
 547:Core/Src/lcd.c **** 	{
 6820              		.loc 1 547 2 is_stmt 0 discriminator 1 view .LVU2313
 6821 014a 5445     		cmp	r4, r10
 6822 014c 18D8     		bhi	.L143
 549:Core/Src/lcd.c **** 		b = x0 + sb / dy02;
 6823              		.loc 1 549 3 is_stmt 1 view .LVU2314
 549:Core/Src/lcd.c **** 		b = x0 + sb / dy02;
 6824              		.loc 1 549 15 is_stmt 0 view .LVU2315
 6825 014e 96FBFBF2 		sdiv	r2, r6, fp
 549:Core/Src/lcd.c **** 		b = x0 + sb / dy02;
 6826              		.loc 1 549 10 view .LVU2316
 6827 0152 BDF81E30 		ldrh	r3, [sp, #30]
 6828 0156 1A44     		add	r2, r2, r3
 6829 0158 92B2     		uxth	r2, r2
 549:Core/Src/lcd.c **** 		b = x0 + sb / dy02;
 6830              		.loc 1 549 5 view .LVU2317
 6831 015a ADF82620 		strh	r2, [sp, #38]	@ movhi
 550:Core/Src/lcd.c **** 		sa += dx01;
 6832              		.loc 1 550 3 is_stmt 1 view .LVU2318
 550:Core/Src/lcd.c **** 		sa += dx01;
 6833              		.loc 1 550 15 is_stmt 0 view .LVU2319
 6834 015e 95FBF9F1 		sdiv	r1, r5, r9
 550:Core/Src/lcd.c **** 		sa += dx01;
 6835              		.loc 1 550 10 view .LVU2320
 6836 0162 0B44     		add	r3, r3, r1
 6837 0164 9BB2     		uxth	r3, r3
 550:Core/Src/lcd.c **** 		sa += dx01;
 6838              		.loc 1 550 5 view .LVU2321
 6839 0166 ADF82430 		strh	r3, [sp, #36]	@ movhi
 551:Core/Src/lcd.c ****         sb += dx02;
ARM GAS  C:\Users\Vento\AppData\Local\Temp\ccDU9lzs.s 			page 171


 6840              		.loc 1 551 3 is_stmt 1 view .LVU2322
 551:Core/Src/lcd.c ****         sb += dx02;
 6841              		.loc 1 551 6 is_stmt 0 view .LVU2323
 6842 016a 0399     		ldr	r1, [sp, #12]
 6843 016c 0E44     		add	r6, r6, r1
 6844              	.LVL753:
 552:Core/Src/lcd.c ****         if(a > b)
 6845              		.loc 1 552 9 is_stmt 1 view .LVU2324
 552:Core/Src/lcd.c ****         if(a > b)
 6846              		.loc 1 552 12 is_stmt 0 view .LVU2325
 6847 016e 3D44     		add	r5, r5, r7
 6848              	.LVL754:
 553:Core/Src/lcd.c ****         {
 6849              		.loc 1 553 9 is_stmt 1 view .LVU2326
 553:Core/Src/lcd.c ****         {
 6850              		.loc 1 553 11 is_stmt 0 view .LVU2327
 6851 0170 9A42     		cmp	r2, r3
 6852 0172 DAD9     		bls	.L133
 555:Core/Src/lcd.c **** 		}
 6853              		.loc 1 555 4 is_stmt 1 view .LVU2328
 6854 0174 09A9     		add	r1, sp, #36
 6855 0176 0DF12600 		add	r0, sp, #38
 6856 017a FFF7FEFF 		bl	_swap
 6857              	.LVL755:
 6858 017e D4E7     		b	.L133
 6859              	.L143:
 560:Core/Src/lcd.c **** 	sb = dx02 * (y - y0);
 6860              		.loc 1 560 17 is_stmt 0 view .LVU2329
 6861 0180 DDF814B0 		ldr	fp, [sp, #20]
 6862              	.LVL756:
 560:Core/Src/lcd.c **** 	sb = dx02 * (y - y0);
 6863              		.loc 1 560 2 is_stmt 1 view .LVU2330
 560:Core/Src/lcd.c **** 	sb = dx02 * (y - y0);
 6864              		.loc 1 560 17 is_stmt 0 view .LVU2331
 6865 0184 BDF81860 		ldrh	r6, [sp, #24]
 6866              	.LVL757:
 560:Core/Src/lcd.c **** 	sb = dx02 * (y - y0);
 6867              		.loc 1 560 17 view .LVU2332
 6868 0188 A61B     		subs	r6, r4, r6
 560:Core/Src/lcd.c **** 	sb = dx02 * (y - y0);
 6869              		.loc 1 560 5 view .LVU2333
 6870 018a 0BFB06F6 		mul	r6, fp, r6
 6871              	.LVL758:
 561:Core/Src/lcd.c **** 
 6872              		.loc 1 561 2 is_stmt 1 view .LVU2334
 561:Core/Src/lcd.c **** 
 6873              		.loc 1 561 17 is_stmt 0 view .LVU2335
 6874 018e BDF81C50 		ldrh	r5, [sp, #28]
 6875              	.LVL759:
 561:Core/Src/lcd.c **** 
 6876              		.loc 1 561 17 view .LVU2336
 6877 0192 651B     		subs	r5, r4, r5
 561:Core/Src/lcd.c **** 
 6878              		.loc 1 561 5 view .LVU2337
 6879 0194 07FB05F5 		mul	r5, r7, r5
 6880              	.LVL760:
 563:Core/Src/lcd.c **** 	{
ARM GAS  C:\Users\Vento\AppData\Local\Temp\ccDU9lzs.s 			page 172


 6881              		.loc 1 563 2 is_stmt 1 view .LVU2338
 6882 0198 DDF810A0 		ldr	r10, [sp, #16]
 6883              	.LVL761:
 563:Core/Src/lcd.c **** 	{
 6884              		.loc 1 563 2 is_stmt 0 view .LVU2339
 6885 019c 0FE0     		b	.L135
 6886              	.L136:
 573:Core/Src/lcd.c **** 	}
 6887              		.loc 1 573 3 is_stmt 1 view .LVU2340
 6888 019e BDF82600 		ldrh	r0, [sp, #38]
 573:Core/Src/lcd.c **** 	}
 6889              		.loc 1 573 33 is_stmt 0 view .LVU2341
 6890 01a2 BDF82420 		ldrh	r2, [sp, #36]
 6891 01a6 121A     		subs	r2, r2, r0
 6892 01a8 92B2     		uxth	r2, r2
 573:Core/Src/lcd.c **** 	}
 6893              		.loc 1 573 3 view .LVU2342
 6894 01aa 0132     		adds	r2, r2, #1
 6895 01ac CDF80080 		str	r8, [sp]
 6896 01b0 0123     		movs	r3, #1
 6897 01b2 92B2     		uxth	r2, r2
 6898 01b4 2146     		mov	r1, r4
 6899 01b6 FFF7FEFF 		bl	ILI9341_FillRectangle
 6900              	.LVL762:
 563:Core/Src/lcd.c **** 	{
 6901              		.loc 1 563 17 is_stmt 1 view .LVU2343
 563:Core/Src/lcd.c **** 	{
 6902              		.loc 1 563 18 is_stmt 0 view .LVU2344
 6903 01ba 0134     		adds	r4, r4, #1
 6904              	.LVL763:
 563:Core/Src/lcd.c **** 	{
 6905              		.loc 1 563 18 view .LVU2345
 6906 01bc A4B2     		uxth	r4, r4
 6907              	.LVL764:
 6908              	.L135:
 563:Core/Src/lcd.c **** 	{
 6909              		.loc 1 563 8 is_stmt 1 discriminator 1 view .LVU2346
 563:Core/Src/lcd.c **** 	{
 6910              		.loc 1 563 10 is_stmt 0 discriminator 1 view .LVU2347
 6911 01be BDF85430 		ldrh	r3, [sp, #84]
 563:Core/Src/lcd.c **** 	{
 6912              		.loc 1 563 2 discriminator 1 view .LVU2348
 6913 01c2 A342     		cmp	r3, r4
 6914 01c4 A2D3     		bcc	.L121
 565:Core/Src/lcd.c **** 		b = x0 + sb / dy02;
 6915              		.loc 1 565 3 is_stmt 1 view .LVU2349
 565:Core/Src/lcd.c **** 		b = x0 + sb / dy02;
 6916              		.loc 1 565 15 is_stmt 0 view .LVU2350
 6917 01c6 96FBFAF2 		sdiv	r2, r6, r10
 565:Core/Src/lcd.c **** 		b = x0 + sb / dy02;
 6918              		.loc 1 565 10 view .LVU2351
 6919 01ca BDF81A30 		ldrh	r3, [sp, #26]
 6920 01ce 1A44     		add	r2, r2, r3
 6921 01d0 92B2     		uxth	r2, r2
 565:Core/Src/lcd.c **** 		b = x0 + sb / dy02;
 6922              		.loc 1 565 5 view .LVU2352
 6923 01d2 ADF82620 		strh	r2, [sp, #38]	@ movhi
ARM GAS  C:\Users\Vento\AppData\Local\Temp\ccDU9lzs.s 			page 173


 566:Core/Src/lcd.c **** 		sa += dx12;
 6924              		.loc 1 566 3 is_stmt 1 view .LVU2353
 566:Core/Src/lcd.c **** 		sa += dx12;
 6925              		.loc 1 566 15 is_stmt 0 view .LVU2354
 6926 01d6 95FBF9F3 		sdiv	r3, r5, r9
 566:Core/Src/lcd.c **** 		sa += dx12;
 6927              		.loc 1 566 10 view .LVU2355
 6928 01da BDF81E10 		ldrh	r1, [sp, #30]
 6929 01de 0B44     		add	r3, r3, r1
 6930 01e0 9BB2     		uxth	r3, r3
 566:Core/Src/lcd.c **** 		sa += dx12;
 6931              		.loc 1 566 5 view .LVU2356
 6932 01e2 ADF82430 		strh	r3, [sp, #36]	@ movhi
 567:Core/Src/lcd.c **** 		sb += dx02;
 6933              		.loc 1 567 3 is_stmt 1 view .LVU2357
 567:Core/Src/lcd.c **** 		sb += dx02;
 6934              		.loc 1 567 6 is_stmt 0 view .LVU2358
 6935 01e6 5E44     		add	r6, r6, fp
 6936              	.LVL765:
 568:Core/Src/lcd.c **** 		if(a > b)
 6937              		.loc 1 568 3 is_stmt 1 view .LVU2359
 568:Core/Src/lcd.c **** 		if(a > b)
 6938              		.loc 1 568 6 is_stmt 0 view .LVU2360
 6939 01e8 3D44     		add	r5, r5, r7
 6940              	.LVL766:
 569:Core/Src/lcd.c **** 		{
 6941              		.loc 1 569 3 is_stmt 1 view .LVU2361
 569:Core/Src/lcd.c **** 		{
 6942              		.loc 1 569 5 is_stmt 0 view .LVU2362
 6943 01ea 9A42     		cmp	r2, r3
 6944 01ec D7D9     		bls	.L136
 571:Core/Src/lcd.c **** 		}
 6945              		.loc 1 571 4 is_stmt 1 view .LVU2363
 6946 01ee 09A9     		add	r1, sp, #36
 6947 01f0 0DF12600 		add	r0, sp, #38
 6948 01f4 FFF7FEFF 		bl	_swap
 6949              	.LVL767:
 6950 01f8 D1E7     		b	.L136
 6951              		.cfi_endproc
 6952              	.LFE86:
 6954              		.section	.text.ILI9341_DrawCircle,"ax",%progbits
 6955              		.align	1
 6956              		.global	ILI9341_DrawCircle
 6957              		.syntax unified
 6958              		.thumb
 6959              		.thumb_func
 6960              		.fpu softvfp
 6962              	ILI9341_DrawCircle:
 6963              	.LVL768:
 6964              	.LFB88:
 590:Core/Src/lcd.c **** 
 591:Core/Src/lcd.c **** void ILI9341_DrawCircle(uint16_t x, uint16_t y, uint16_t r, uint16_t color)
 592:Core/Src/lcd.c **** {
 6965              		.loc 1 592 1 view -0
 6966              		.cfi_startproc
 6967              		@ args = 0, pretend = 0, frame = 8
 6968              		@ frame_needed = 0, uses_anonymous_args = 0
ARM GAS  C:\Users\Vento\AppData\Local\Temp\ccDU9lzs.s 			page 174


 6969              		.loc 1 592 1 is_stmt 0 view .LVU2365
 6970 0000 2DE9F04F 		push	{r4, r5, r6, r7, r8, r9, r10, fp, lr}
 6971              	.LCFI47:
 6972              		.cfi_def_cfa_offset 36
 6973              		.cfi_offset 4, -36
 6974              		.cfi_offset 5, -32
 6975              		.cfi_offset 6, -28
 6976              		.cfi_offset 7, -24
 6977              		.cfi_offset 8, -20
 6978              		.cfi_offset 9, -16
 6979              		.cfi_offset 10, -12
 6980              		.cfi_offset 11, -8
 6981              		.cfi_offset 14, -4
 6982 0004 85B0     		sub	sp, sp, #20
 6983              	.LCFI48:
 6984              		.cfi_def_cfa_offset 56
 6985 0006 8246     		mov	r10, r0
 6986 0008 0291     		str	r1, [sp, #8]
 6987 000a 9146     		mov	r9, r2
 6988 000c 9B46     		mov	fp, r3
 593:Core/Src/lcd.c ****     int a, b, pre_b;
 6989              		.loc 1 593 5 is_stmt 1 view .LVU2366
 594:Core/Src/lcd.c ****     a = r-1;
 6990              		.loc 1 594 5 view .LVU2367
 6991              		.loc 1 594 7 is_stmt 0 view .LVU2368
 6992 000e 531E     		subs	r3, r2, #1
 6993              	.LVL769:
 6994              		.loc 1 594 7 view .LVU2369
 6995 0010 0393     		str	r3, [sp, #12]
 6996              	.LVL770:
 595:Core/Src/lcd.c ****     b = 0;
 6997              		.loc 1 595 5 is_stmt 1 view .LVU2370
 596:Core/Src/lcd.c ****     pre_b = 0;
 6998              		.loc 1 596 5 view .LVU2371
 597:Core/Src/lcd.c **** 
 598:Core/Src/lcd.c ****     for(; a >= -r; a--)
 6999              		.loc 1 598 5 view .LVU2372
 594:Core/Src/lcd.c ****     b = 0;
 7000              		.loc 1 594 7 is_stmt 0 view .LVU2373
 7001 0012 1E46     		mov	r6, r3
 596:Core/Src/lcd.c ****     pre_b = 0;
 7002              		.loc 1 596 11 view .LVU2374
 7003 0014 4FF00008 		mov	r8, #0
 7004              		.loc 1 598 5 view .LVU2375
 7005 0018 1FE0     		b	.L145
 7006              	.LVL771:
 7007              	.L146:
 599:Core/Src/lcd.c ****     {   
 600:Core/Src/lcd.c ****         b = sqrt_t(r*r - a*a);
 601:Core/Src/lcd.c ****         b = (b > (r-1))? (r-1) : b;
 602:Core/Src/lcd.c ****         ILI9341_DrawLine(x + b, y - a, x + pre_b, y - a, color);
 7008              		.loc 1 602 9 is_stmt 1 discriminator 4 view .LVU2376
 7009 001a AFB2     		uxth	r7, r5
 7010 001c 029B     		ldr	r3, [sp, #8]
 7011 001e 9C1B     		subs	r4, r3, r6
 7012 0020 A4B2     		uxth	r4, r4
 7013 0022 1FFA88F8 		uxth	r8, r8
ARM GAS  C:\Users\Vento\AppData\Local\Temp\ccDU9lzs.s 			page 175


 7014              	.LVL772:
 7015              		.loc 1 602 9 is_stmt 0 discriminator 4 view .LVU2377
 7016 0026 08EB0A02 		add	r2, r8, r10
 7017 002a 07EB0A00 		add	r0, r7, r10
 7018 002e CDF800B0 		str	fp, [sp]
 7019 0032 2346     		mov	r3, r4
 7020 0034 92B2     		uxth	r2, r2
 7021 0036 2146     		mov	r1, r4
 7022 0038 80B2     		uxth	r0, r0
 7023 003a FFF7FEFF 		bl	ILI9341_DrawLine
 7024              	.LVL773:
 603:Core/Src/lcd.c ****         ILI9341_DrawLine(x - b, y - a, x - pre_b, y - a, color);
 7025              		.loc 1 603 9 is_stmt 1 discriminator 4 view .LVU2378
 7026 003e AAEB0802 		sub	r2, r10, r8
 7027 0042 AAEB0700 		sub	r0, r10, r7
 7028 0046 CDF800B0 		str	fp, [sp]
 7029 004a 2346     		mov	r3, r4
 7030 004c 92B2     		uxth	r2, r2
 7031 004e 2146     		mov	r1, r4
 7032 0050 80B2     		uxth	r0, r0
 7033 0052 FFF7FEFF 		bl	ILI9341_DrawLine
 7034              	.LVL774:
 604:Core/Src/lcd.c ****         pre_b = b;
 7035              		.loc 1 604 9 discriminator 4 view .LVU2379
 598:Core/Src/lcd.c ****     {   
 7036              		.loc 1 598 20 discriminator 4 view .LVU2380
 598:Core/Src/lcd.c ****     {   
 7037              		.loc 1 598 21 is_stmt 0 discriminator 4 view .LVU2381
 7038 0056 013E     		subs	r6, r6, #1
 7039              	.LVL775:
 7040              		.loc 1 604 15 discriminator 4 view .LVU2382
 7041 0058 A846     		mov	r8, r5
 7042              	.LVL776:
 7043              	.L145:
 598:Core/Src/lcd.c ****     {   
 7044              		.loc 1 598 11 is_stmt 1 discriminator 1 view .LVU2383
 598:Core/Src/lcd.c ****     {   
 7045              		.loc 1 598 16 is_stmt 0 discriminator 1 view .LVU2384
 7046 005a C9F10003 		rsb	r3, r9, #0
 598:Core/Src/lcd.c ****     {   
 7047              		.loc 1 598 5 discriminator 1 view .LVU2385
 7048 005e B342     		cmp	r3, r6
 7049 0060 0ADC     		bgt	.L150
 600:Core/Src/lcd.c ****         b = (b > (r-1))? (r-1) : b;
 7050              		.loc 1 600 9 is_stmt 1 view .LVU2386
 600:Core/Src/lcd.c ****         b = (b > (r-1))? (r-1) : b;
 7051              		.loc 1 600 21 is_stmt 0 view .LVU2387
 7052 0062 09FB09F0 		mul	r0, r9, r9
 600:Core/Src/lcd.c ****         b = (b > (r-1))? (r-1) : b;
 7053              		.loc 1 600 13 view .LVU2388
 7054 0066 06FB1600 		mls	r0, r6, r6, r0
 7055 006a FFF7FEFF 		bl	sqrt_t
 7056              	.LVL777:
 7057 006e 0546     		mov	r5, r0
 7058              	.LVL778:
 601:Core/Src/lcd.c ****         ILI9341_DrawLine(x + b, y - a, x + pre_b, y - a, color);
 7059              		.loc 1 601 9 is_stmt 1 view .LVU2389
ARM GAS  C:\Users\Vento\AppData\Local\Temp\ccDU9lzs.s 			page 176


 601:Core/Src/lcd.c ****         ILI9341_DrawLine(x + b, y - a, x + pre_b, y - a, color);
 7060              		.loc 1 601 32 is_stmt 0 view .LVU2390
 7061 0070 8145     		cmp	r9, r0
 7062 0072 D2DC     		bgt	.L146
 7063 0074 039D     		ldr	r5, [sp, #12]
 7064 0076 D0E7     		b	.L146
 7065              	.LVL779:
 7066              	.L150:
 605:Core/Src/lcd.c ****     }
 606:Core/Src/lcd.c **** }
 7067              		.loc 1 606 1 view .LVU2391
 7068 0078 05B0     		add	sp, sp, #20
 7069              	.LCFI49:
 7070              		.cfi_def_cfa_offset 36
 7071              		@ sp needed
 7072 007a BDE8F08F 		pop	{r4, r5, r6, r7, r8, r9, r10, fp, pc}
 7073              		.loc 1 606 1 view .LVU2392
 7074              		.cfi_endproc
 7075              	.LFE88:
 7077              		.section	.text.ILI9341_FillCircle,"ax",%progbits
 7078              		.align	1
 7079              		.global	ILI9341_FillCircle
 7080              		.syntax unified
 7081              		.thumb
 7082              		.thumb_func
 7083              		.fpu softvfp
 7085              	ILI9341_FillCircle:
 7086              	.LVL780:
 7087              	.LFB89:
 607:Core/Src/lcd.c **** 
 608:Core/Src/lcd.c **** void ILI9341_FillCircle(uint16_t x, uint16_t y, uint16_t r, uint16_t color)
 609:Core/Src/lcd.c **** {
 7088              		.loc 1 609 1 is_stmt 1 view -0
 7089              		.cfi_startproc
 7090              		@ args = 0, pretend = 0, frame = 0
 7091              		@ frame_needed = 0, uses_anonymous_args = 0
 7092              		.loc 1 609 1 is_stmt 0 view .LVU2394
 7093 0000 2DE9F043 		push	{r4, r5, r6, r7, r8, r9, lr}
 7094              	.LCFI50:
 7095              		.cfi_def_cfa_offset 28
 7096              		.cfi_offset 4, -28
 7097              		.cfi_offset 5, -24
 7098              		.cfi_offset 6, -20
 7099              		.cfi_offset 7, -16
 7100              		.cfi_offset 8, -12
 7101              		.cfi_offset 9, -8
 7102              		.cfi_offset 14, -4
 7103 0004 83B0     		sub	sp, sp, #12
 7104              	.LCFI51:
 7105              		.cfi_def_cfa_offset 40
 7106 0006 0646     		mov	r6, r0
 7107 0008 8846     		mov	r8, r1
 7108 000a 1546     		mov	r5, r2
 7109 000c 1F46     		mov	r7, r3
 610:Core/Src/lcd.c ****     int a, b;
 7110              		.loc 1 610 5 is_stmt 1 view .LVU2395
 611:Core/Src/lcd.c ****     a = r-1;
ARM GAS  C:\Users\Vento\AppData\Local\Temp\ccDU9lzs.s 			page 177


 7111              		.loc 1 611 5 view .LVU2396
 7112              		.loc 1 611 7 is_stmt 0 view .LVU2397
 7113 000e 02F1FF39 		add	r9, r2, #-1
 7114              	.LVL781:
 612:Core/Src/lcd.c ****     b = 0;
 7115              		.loc 1 612 5 is_stmt 1 view .LVU2398
 613:Core/Src/lcd.c **** 
 614:Core/Src/lcd.c ****     for(; a > -r; a--)
 7116              		.loc 1 614 5 view .LVU2399
 611:Core/Src/lcd.c ****     b = 0;
 7117              		.loc 1 611 7 is_stmt 0 view .LVU2400
 7118 0012 4C46     		mov	r4, r9
 7119              		.loc 1 614 5 view .LVU2401
 7120 0014 0CE0     		b	.L152
 7121              	.LVL782:
 7122              	.L153:
 615:Core/Src/lcd.c ****     {   
 616:Core/Src/lcd.c ****         b = sqrt_t(r*r - a*a);
 617:Core/Src/lcd.c ****         b = (b > (r-1))? (r-1) : b;
 618:Core/Src/lcd.c ****         ILI9341_DrawLine(x + b, y - a, x - b, y - a, color);
 7123              		.loc 1 618 9 is_stmt 1 discriminator 4 view .LVU2402
 7124 0016 80B2     		uxth	r0, r0
 7125              	.LVL783:
 7126              		.loc 1 618 9 is_stmt 0 discriminator 4 view .LVU2403
 7127 0018 A8EB0401 		sub	r1, r8, r4
 7128 001c 89B2     		uxth	r1, r1
 7129 001e 321A     		subs	r2, r6, r0
 7130 0020 3044     		add	r0, r0, r6
 7131 0022 0097     		str	r7, [sp]
 7132 0024 0B46     		mov	r3, r1
 7133 0026 92B2     		uxth	r2, r2
 7134 0028 80B2     		uxth	r0, r0
 7135 002a FFF7FEFF 		bl	ILI9341_DrawLine
 7136              	.LVL784:
 614:Core/Src/lcd.c ****     {   
 7137              		.loc 1 614 19 is_stmt 1 discriminator 4 view .LVU2404
 614:Core/Src/lcd.c ****     {   
 7138              		.loc 1 614 20 is_stmt 0 discriminator 4 view .LVU2405
 7139 002e 013C     		subs	r4, r4, #1
 7140              	.LVL785:
 7141              	.L152:
 614:Core/Src/lcd.c ****     {   
 7142              		.loc 1 614 11 is_stmt 1 discriminator 1 view .LVU2406
 614:Core/Src/lcd.c ****     {   
 7143              		.loc 1 614 15 is_stmt 0 discriminator 1 view .LVU2407
 7144 0030 6B42     		rsbs	r3, r5, #0
 614:Core/Src/lcd.c ****     {   
 7145              		.loc 1 614 5 discriminator 1 view .LVU2408
 7146 0032 A342     		cmp	r3, r4
 7147 0034 09DA     		bge	.L157
 616:Core/Src/lcd.c ****         b = (b > (r-1))? (r-1) : b;
 7148              		.loc 1 616 9 is_stmt 1 view .LVU2409
 616:Core/Src/lcd.c ****         b = (b > (r-1))? (r-1) : b;
 7149              		.loc 1 616 21 is_stmt 0 view .LVU2410
 7150 0036 05FB05F0 		mul	r0, r5, r5
 616:Core/Src/lcd.c ****         b = (b > (r-1))? (r-1) : b;
 7151              		.loc 1 616 13 view .LVU2411
ARM GAS  C:\Users\Vento\AppData\Local\Temp\ccDU9lzs.s 			page 178


 7152 003a 04FB1400 		mls	r0, r4, r4, r0
 7153 003e FFF7FEFF 		bl	sqrt_t
 7154              	.LVL786:
 617:Core/Src/lcd.c ****         ILI9341_DrawLine(x + b, y - a, x - b, y - a, color);
 7155              		.loc 1 617 9 is_stmt 1 view .LVU2412
 617:Core/Src/lcd.c ****         ILI9341_DrawLine(x + b, y - a, x - b, y - a, color);
 7156              		.loc 1 617 32 is_stmt 0 view .LVU2413
 7157 0042 8542     		cmp	r5, r0
 7158 0044 E7DC     		bgt	.L153
 7159 0046 4846     		mov	r0, r9
 7160              	.LVL787:
 617:Core/Src/lcd.c ****         ILI9341_DrawLine(x + b, y - a, x - b, y - a, color);
 7161              		.loc 1 617 32 view .LVU2414
 7162 0048 E5E7     		b	.L153
 7163              	.L157:
 619:Core/Src/lcd.c ****     }
 620:Core/Src/lcd.c **** }
 7164              		.loc 1 620 1 view .LVU2415
 7165 004a 03B0     		add	sp, sp, #12
 7166              	.LCFI52:
 7167              		.cfi_def_cfa_offset 28
 7168              		@ sp needed
 7169 004c BDE8F083 		pop	{r4, r5, r6, r7, r8, r9, pc}
 7170              		.loc 1 620 1 view .LVU2416
 7171              		.cfi_endproc
 7172              	.LFE89:
 7174              		.section	.text.ILI9341_PlotTimeGraph32,"ax",%progbits
 7175              		.align	1
 7176              		.global	ILI9341_PlotTimeGraph32
 7177              		.syntax unified
 7178              		.thumb
 7179              		.thumb_func
 7180              		.fpu softvfp
 7182              	ILI9341_PlotTimeGraph32:
 7183              	.LVL788:
 7184              	.LFB90:
 621:Core/Src/lcd.c **** 
 622:Core/Src/lcd.c **** void ILI9341_PlotTimeGraph32(   uint16_t x0, uint16_t y0, uint8_t graphSizeX, 
 623:Core/Src/lcd.c ****                                 uint32_t* Ydata, uint8_t graphSizeY, uint8_t Ymin, uint8_t DataToPi
 624:Core/Src/lcd.c ****                                 uint16_t YlabelMin, uint16_t YlabelMid, uint16_t YlabelMax, 
 625:Core/Src/lcd.c ****                                 uint16_t XlabelMin, uint16_t XlabelMid, uint16_t XlabelMax, 
 626:Core/Src/lcd.c ****                                 char* Xunit, char* Yunit, uint16_t color)
 627:Core/Src/lcd.c **** {
 7185              		.loc 1 627 1 is_stmt 1 view -0
 7186              		.cfi_startproc
 7187              		@ args = 48, pretend = 0, frame = 56
 7188              		@ frame_needed = 0, uses_anonymous_args = 0
 7189              		.loc 1 627 1 is_stmt 0 view .LVU2418
 7190 0000 2DE9F04F 		push	{r4, r5, r6, r7, r8, r9, r10, fp, lr}
 7191              	.LCFI53:
 7192              		.cfi_def_cfa_offset 36
 7193              		.cfi_offset 4, -36
 7194              		.cfi_offset 5, -32
 7195              		.cfi_offset 6, -28
 7196              		.cfi_offset 7, -24
 7197              		.cfi_offset 8, -20
 7198              		.cfi_offset 9, -16
ARM GAS  C:\Users\Vento\AppData\Local\Temp\ccDU9lzs.s 			page 179


 7199              		.cfi_offset 10, -12
 7200              		.cfi_offset 11, -8
 7201              		.cfi_offset 14, -4
 7202 0004 93B0     		sub	sp, sp, #76
 7203              	.LCFI54:
 7204              		.cfi_def_cfa_offset 112
 7205 0006 0546     		mov	r5, r0
 7206 0008 0E46     		mov	r6, r1
 7207 000a 0692     		str	r2, [sp, #24]
 7208 000c 0E93     		str	r3, [sp, #56]
 7209 000e 9DF87070 		ldrb	r7, [sp, #112]	@ zero_extendqisi2
 7210 0012 9DF87440 		ldrb	r4, [sp, #116]	@ zero_extendqisi2
 7211 0016 0A94     		str	r4, [sp, #40]
 7212 0018 9DF87840 		ldrb	r4, [sp, #120]	@ zero_extendqisi2
 7213 001c 0B94     		str	r4, [sp, #44]
 7214 001e BDF87CB0 		ldrh	fp, [sp, #124]
 7215 0022 BDF88440 		ldrh	r4, [sp, #132]
 7216 0026 0894     		str	r4, [sp, #32]
 7217 0028 BDF89CE0 		ldrh	lr, [sp, #156]
 7218 002c CDF83CE0 		str	lr, [sp, #60]
 628:Core/Src/lcd.c ****     char temp[5] = {0};
 7219              		.loc 1 628 5 is_stmt 1 view .LVU2419
 7220              		.loc 1 628 10 is_stmt 0 view .LVU2420
 7221 0030 0024     		movs	r4, #0
 7222 0032 1094     		str	r4, [sp, #64]
 7223 0034 8DF84440 		strb	r4, [sp, #68]
 629:Core/Src/lcd.c ****     
 630:Core/Src/lcd.c ****     //================================================= Y Axis ====================================
 631:Core/Src/lcd.c ****     ILI9341_DrawLine(x0, y0, x0, y0 - graphSizeY, ILI9341_WHITE);
 7224              		.loc 1 631 5 is_stmt 1 view .LVU2421
 7225 0038 1FFA87F8 		uxth	r8, r7
 7226 003c CDF82480 		str	r8, [sp, #36]
 7227 0040 0797     		str	r7, [sp, #28]
 7228 0042 A1EB0709 		sub	r9, r1, r7
 7229 0046 1FFA89F9 		uxth	r9, r9
 7230 004a 4FF6FF77 		movw	r7, #65535
 7231 004e 0097     		str	r7, [sp]
 7232 0050 4B46     		mov	r3, r9
 7233              	.LVL789:
 7234              		.loc 1 631 5 is_stmt 0 view .LVU2422
 7235 0052 0246     		mov	r2, r0
 7236              	.LVL790:
 7237              		.loc 1 631 5 view .LVU2423
 7238 0054 FFF7FEFF 		bl	ILI9341_DrawLine
 7239              	.LVL791:
 632:Core/Src/lcd.c ****     ILI9341_DrawLine(x0, y0 - graphSizeY, x0, y0 - graphSizeY - 10, ILI9341_WHITE);
 7240              		.loc 1 632 5 is_stmt 1 view .LVU2424
 7241 0058 A9F10A08 		sub	r8, r9, #10
 7242 005c 1FFA88F8 		uxth	r8, r8
 7243 0060 0097     		str	r7, [sp]
 7244 0062 4346     		mov	r3, r8
 7245 0064 2A46     		mov	r2, r5
 7246 0066 4946     		mov	r1, r9
 7247 0068 2846     		mov	r0, r5
 7248 006a FFF7FEFF 		bl	ILI9341_DrawLine
 7249              	.LVL792:
 633:Core/Src/lcd.c ****     ILI9341_DrawLine(x0 - 4, y0 - graphSizeY - 6, x0, y0 - graphSizeY - 10, ILI9341_WHITE);
ARM GAS  C:\Users\Vento\AppData\Local\Temp\ccDU9lzs.s 			page 180


 7250              		.loc 1 633 5 view .LVU2425
 7251 006e A9F1060A 		sub	r10, r9, #6
 7252 0072 1FFA8AFA 		uxth	r10, r10
 7253 0076 281F     		subs	r0, r5, #4
 7254 0078 0097     		str	r7, [sp]
 7255 007a 4346     		mov	r3, r8
 7256 007c 2A46     		mov	r2, r5
 7257 007e 5146     		mov	r1, r10
 7258 0080 80B2     		uxth	r0, r0
 7259 0082 FFF7FEFF 		bl	ILI9341_DrawLine
 7260              	.LVL793:
 634:Core/Src/lcd.c ****     ILI9341_DrawLine(x0 + 4, y0 - graphSizeY - 6, x0, y0 - graphSizeY - 10, ILI9341_WHITE);
 7261              		.loc 1 634 5 view .LVU2426
 7262 0086 281D     		adds	r0, r5, #4
 7263 0088 0097     		str	r7, [sp]
 7264 008a 4346     		mov	r3, r8
 7265 008c 2A46     		mov	r2, r5
 7266 008e 5146     		mov	r1, r10
 7267 0090 80B2     		uxth	r0, r0
 7268 0092 FFF7FEFF 		bl	ILI9341_DrawLine
 7269              	.LVL794:
 635:Core/Src/lcd.c **** 
 636:Core/Src/lcd.c ****     memset(temp, '\0', sizeof(temp));
 7270              		.loc 1 636 5 view .LVU2427
 7271 0096 1094     		str	r4, [sp, #64]
 7272 0098 8DF84440 		strb	r4, [sp, #68]
 637:Core/Src/lcd.c ****     intToStr(YlabelMin, temp, 3);
 7273              		.loc 1 637 5 view .LVU2428
 7274 009c 0322     		movs	r2, #3
 7275 009e 10A9     		add	r1, sp, #64
 7276 00a0 5846     		mov	r0, fp
 7277 00a2 FFF7FEFF 		bl	intToStr
 7278              	.LVL795:
 638:Core/Src/lcd.c ****     ILI9341_DrawLine(x0, y0, x0 - 3, y0, ILI9341_WHITE);
 7279              		.loc 1 638 5 view .LVU2429
 7280 00a6 EB1E     		subs	r3, r5, #3
 7281 00a8 99B2     		uxth	r1, r3
 7282 00aa 0097     		str	r7, [sp]
 7283 00ac 3346     		mov	r3, r6
 7284 00ae 0591     		str	r1, [sp, #20]
 7285 00b0 0A46     		mov	r2, r1
 7286 00b2 3146     		mov	r1, r6
 7287 00b4 2846     		mov	r0, r5
 7288 00b6 FFF7FEFF 		bl	ILI9341_DrawLine
 7289              	.LVL796:
 639:Core/Src/lcd.c ****     ILI9341_WriteString(x0 - 5 - 21, y0 - 5, temp, Font_7x10, ILI9341_WHITE, ILI9341_BLACK);
 7290              		.loc 1 639 5 view .LVU2430
 7291 00ba 731F     		subs	r3, r6, #5
 7292 00bc 1FFA83FE 		uxth	lr, r3
 7293 00c0 DFF89482 		ldr	r8, .L168
 7294 00c4 A5F11A00 		sub	r0, r5, #26
 7295 00c8 0294     		str	r4, [sp, #8]
 7296 00ca 0197     		str	r7, [sp, #4]
 7297 00cc D8F80430 		ldr	r3, [r8, #4]
 7298 00d0 0093     		str	r3, [sp]
 7299 00d2 D8F80030 		ldr	r3, [r8]
 7300 00d6 0DF1400C 		add	ip, sp, #64
ARM GAS  C:\Users\Vento\AppData\Local\Temp\ccDU9lzs.s 			page 181


 7301 00da 6246     		mov	r2, ip
 7302 00dc CDF830E0 		str	lr, [sp, #48]
 7303 00e0 7146     		mov	r1, lr
 7304 00e2 80B2     		uxth	r0, r0
 7305 00e4 FFF7FEFF 		bl	ILI9341_WriteString
 7306              	.LVL797:
 640:Core/Src/lcd.c ****     memset(temp, '\0', sizeof(temp));
 7307              		.loc 1 640 5 view .LVU2431
 7308 00e8 1094     		str	r4, [sp, #64]
 7309 00ea 8DF84440 		strb	r4, [sp, #68]
 641:Core/Src/lcd.c ****     intToStr(YlabelMid, temp, 4);
 7310              		.loc 1 641 5 view .LVU2432
 7311 00ee 0422     		movs	r2, #4
 7312 00f0 0DF1400C 		add	ip, sp, #64
 7313 00f4 6146     		mov	r1, ip
 7314 00f6 BDF88000 		ldrh	r0, [sp, #128]
 7315 00fa FFF7FEFF 		bl	intToStr
 7316              	.LVL798:
 642:Core/Src/lcd.c ****     ILI9341_DrawLine(x0, y0 - graphSizeY/2, x0 - 3, y0 - graphSizeY/2, ILI9341_WHITE);
 7317              		.loc 1 642 5 view .LVU2433
 7318 00fe 0798     		ldr	r0, [sp, #28]
 7319 0100 A6EB500A 		sub	r10, r6, r0, lsr #1
 7320 0104 1FFA8AFA 		uxth	r10, r10
 7321 0108 0097     		str	r7, [sp]
 7322 010a 5346     		mov	r3, r10
 7323 010c 059A     		ldr	r2, [sp, #20]
 7324 010e 5146     		mov	r1, r10
 7325 0110 2846     		mov	r0, r5
 7326 0112 FFF7FEFF 		bl	ILI9341_DrawLine
 7327              	.LVL799:
 643:Core/Src/lcd.c ****     ILI9341_WriteString(x0 - 5 - 28, y0 - graphSizeY/2 - 5, temp, Font_7x10, ILI9341_WHITE, ILI9341
 7328              		.loc 1 643 5 view .LVU2434
 7329 0116 AAF10501 		sub	r1, r10, #5
 7330 011a A5F12100 		sub	r0, r5, #33
 7331 011e 0294     		str	r4, [sp, #8]
 7332 0120 0197     		str	r7, [sp, #4]
 7333 0122 D8F80430 		ldr	r3, [r8, #4]
 7334 0126 0093     		str	r3, [sp]
 7335 0128 D8F80030 		ldr	r3, [r8]
 7336 012c 0DF1400C 		add	ip, sp, #64
 7337 0130 6246     		mov	r2, ip
 7338 0132 89B2     		uxth	r1, r1
 7339 0134 80B2     		uxth	r0, r0
 7340 0136 FFF7FEFF 		bl	ILI9341_WriteString
 7341              	.LVL800:
 644:Core/Src/lcd.c ****     memset(temp, '\0', sizeof(temp));
 7342              		.loc 1 644 5 view .LVU2435
 7343 013a 1094     		str	r4, [sp, #64]
 7344 013c 8DF84440 		strb	r4, [sp, #68]
 645:Core/Src/lcd.c ****     intToStr(YlabelMax, temp, 5);
 7345              		.loc 1 645 5 view .LVU2436
 7346 0140 0522     		movs	r2, #5
 7347 0142 10A8     		add	r0, sp, #64
 7348 0144 0146     		mov	r1, r0
 7349 0146 0898     		ldr	r0, [sp, #32]
 7350 0148 FFF7FEFF 		bl	intToStr
 7351              	.LVL801:
ARM GAS  C:\Users\Vento\AppData\Local\Temp\ccDU9lzs.s 			page 182


 646:Core/Src/lcd.c ****     ILI9341_DrawLine(x0, y0 - graphSizeY, x0 - 3, y0 - graphSizeY, ILI9341_WHITE);
 7352              		.loc 1 646 5 view .LVU2437
 7353 014c 0097     		str	r7, [sp]
 7354 014e 4B46     		mov	r3, r9
 7355 0150 059A     		ldr	r2, [sp, #20]
 7356 0152 4946     		mov	r1, r9
 7357 0154 2846     		mov	r0, r5
 7358 0156 FFF7FEFF 		bl	ILI9341_DrawLine
 7359              	.LVL802:
 647:Core/Src/lcd.c ****     ILI9341_WriteString(x0 - 5 - 35, y0 - graphSizeY - 5, temp, Font_7x10, ILI9341_WHITE, ILI9341_B
 7360              		.loc 1 647 5 view .LVU2438
 7361 015a A9F10501 		sub	r1, r9, #5
 7362 015e A5F12800 		sub	r0, r5, #40
 7363 0162 0294     		str	r4, [sp, #8]
 7364 0164 0197     		str	r7, [sp, #4]
 7365 0166 D8F80430 		ldr	r3, [r8, #4]
 7366 016a 0093     		str	r3, [sp]
 7367 016c D8F80030 		ldr	r3, [r8]
 7368 0170 0DF1400C 		add	ip, sp, #64
 7369 0174 6246     		mov	r2, ip
 7370 0176 89B2     		uxth	r1, r1
 7371 0178 80B2     		uxth	r0, r0
 7372 017a FFF7FEFF 		bl	ILI9341_WriteString
 7373              	.LVL803:
 648:Core/Src/lcd.c **** 
 649:Core/Src/lcd.c ****     ILI9341_WriteString(x0, y0 - graphSizeY - 5 - 20, Yunit, Font_7x10, ILI9341_WHITE, ILI9341_BLAC
 7374              		.loc 1 649 5 view .LVU2439
 7375 017e A9F11901 		sub	r1, r9, #25
 7376 0182 0294     		str	r4, [sp, #8]
 7377 0184 0197     		str	r7, [sp, #4]
 7378 0186 D8F80430 		ldr	r3, [r8, #4]
 7379 018a 0093     		str	r3, [sp]
 7380 018c D8F80030 		ldr	r3, [r8]
 7381 0190 269A     		ldr	r2, [sp, #152]
 7382 0192 89B2     		uxth	r1, r1
 7383 0194 2846     		mov	r0, r5
 7384 0196 FFF7FEFF 		bl	ILI9341_WriteString
 7385              	.LVL804:
 650:Core/Src/lcd.c **** 
 651:Core/Src/lcd.c **** 
 652:Core/Src/lcd.c ****     //================================================= X Axis ====================================
 653:Core/Src/lcd.c ****     ILI9341_DrawLine(x0, y0, x0 + graphSizeX, y0, ILI9341_WHITE);
 7386              		.loc 1 653 5 view .LVU2440
 7387 019a DDF818C0 		ldr	ip, [sp, #24]
 7388 019e 05EB0C09 		add	r9, r5, ip
 7389 01a2 1FFA89F9 		uxth	r9, r9
 7390 01a6 0097     		str	r7, [sp]
 7391 01a8 3346     		mov	r3, r6
 7392 01aa 4A46     		mov	r2, r9
 7393 01ac 3146     		mov	r1, r6
 7394 01ae 2846     		mov	r0, r5
 7395 01b0 FFF7FEFF 		bl	ILI9341_DrawLine
 7396              	.LVL805:
 654:Core/Src/lcd.c ****     ILI9341_DrawLine(x0 + graphSizeX, y0, x0 + graphSizeX + 10, y0, ILI9341_WHITE);
 7397              		.loc 1 654 5 view .LVU2441
 7398 01b4 09F10A0A 		add	r10, r9, #10
 7399 01b8 1FFA8AFA 		uxth	r10, r10
ARM GAS  C:\Users\Vento\AppData\Local\Temp\ccDU9lzs.s 			page 183


 7400 01bc 0097     		str	r7, [sp]
 7401 01be 3346     		mov	r3, r6
 7402 01c0 5246     		mov	r2, r10
 7403 01c2 3146     		mov	r1, r6
 7404 01c4 4846     		mov	r0, r9
 7405 01c6 FFF7FEFF 		bl	ILI9341_DrawLine
 7406              	.LVL806:
 655:Core/Src/lcd.c ****     ILI9341_DrawLine(x0 + graphSizeX + 6, y0 - 4, x0 + graphSizeX + 10, y0, ILI9341_WHITE);
 7407              		.loc 1 655 5 view .LVU2442
 7408 01ca 09F10603 		add	r3, r9, #6
 7409 01ce 9BB2     		uxth	r3, r3
 7410 01d0 9E46     		mov	lr, r3
 7411 01d2 311F     		subs	r1, r6, #4
 7412 01d4 0097     		str	r7, [sp]
 7413 01d6 3346     		mov	r3, r6
 7414 01d8 5246     		mov	r2, r10
 7415 01da 89B2     		uxth	r1, r1
 7416 01dc CDF81CE0 		str	lr, [sp, #28]
 7417 01e0 7046     		mov	r0, lr
 7418 01e2 FFF7FEFF 		bl	ILI9341_DrawLine
 7419              	.LVL807:
 656:Core/Src/lcd.c ****     ILI9341_DrawLine(x0 + graphSizeX + 6, y0 + 4, x0 + graphSizeX + 10, y0, ILI9341_WHITE);
 7420              		.loc 1 656 5 view .LVU2443
 7421 01e6 311D     		adds	r1, r6, #4
 7422 01e8 0097     		str	r7, [sp]
 7423 01ea 3346     		mov	r3, r6
 7424 01ec 5246     		mov	r2, r10
 7425 01ee 89B2     		uxth	r1, r1
 7426 01f0 0798     		ldr	r0, [sp, #28]
 7427 01f2 FFF7FEFF 		bl	ILI9341_DrawLine
 7428              	.LVL808:
 657:Core/Src/lcd.c **** 
 658:Core/Src/lcd.c ****     memset(temp, '\0', sizeof(temp));
 7429              		.loc 1 658 5 view .LVU2444
 7430 01f6 1094     		str	r4, [sp, #64]
 7431 01f8 8DF84440 		strb	r4, [sp, #68]
 659:Core/Src/lcd.c ****     intToStr(XlabelMin, temp, 1);
 7432              		.loc 1 659 5 view .LVU2445
 7433 01fc 0122     		movs	r2, #1
 7434 01fe 10AB     		add	r3, sp, #64
 7435 0200 1946     		mov	r1, r3
 7436 0202 BDF88800 		ldrh	r0, [sp, #136]
 7437 0206 FFF7FEFF 		bl	intToStr
 7438              	.LVL809:
 660:Core/Src/lcd.c ****     ILI9341_DrawLine(x0, y0, x0, y0 + 3, ILI9341_WHITE);
 7439              		.loc 1 660 5 view .LVU2446
 7440 020a F31C     		adds	r3, r6, #3
 7441 020c 1FFA83FE 		uxth	lr, r3
 7442 0210 0097     		str	r7, [sp]
 7443 0212 CDF81CE0 		str	lr, [sp, #28]
 7444 0216 7346     		mov	r3, lr
 7445 0218 2A46     		mov	r2, r5
 7446 021a 3146     		mov	r1, r6
 7447 021c 2846     		mov	r0, r5
 7448 021e FFF7FEFF 		bl	ILI9341_DrawLine
 7449              	.LVL810:
 661:Core/Src/lcd.c ****     ILI9341_WriteString(x0 - 3, y0 + 10, temp, Font_7x10, ILI9341_WHITE, ILI9341_BLACK);
ARM GAS  C:\Users\Vento\AppData\Local\Temp\ccDU9lzs.s 			page 184


 7450              		.loc 1 661 5 view .LVU2447
 7451 0222 06F10A03 		add	r3, r6, #10
 7452 0226 1FFA83FA 		uxth	r10, r3
 7453 022a 0294     		str	r4, [sp, #8]
 7454 022c 0197     		str	r7, [sp, #4]
 7455 022e D8F80430 		ldr	r3, [r8, #4]
 7456 0232 0093     		str	r3, [sp]
 7457 0234 D8F80030 		ldr	r3, [r8]
 7458 0238 10AA     		add	r2, sp, #64
 7459 023a CDF834A0 		str	r10, [sp, #52]
 7460 023e 5146     		mov	r1, r10
 7461 0240 0598     		ldr	r0, [sp, #20]
 7462 0242 FFF7FEFF 		bl	ILI9341_WriteString
 7463              	.LVL811:
 662:Core/Src/lcd.c ****     memset(temp, '\0', sizeof(temp));
 7464              		.loc 1 662 5 view .LVU2448
 7465 0246 1094     		str	r4, [sp, #64]
 7466 0248 8DF84440 		strb	r4, [sp, #68]
 663:Core/Src/lcd.c ****     intToStr(XlabelMid, temp, 3);
 7467              		.loc 1 663 5 view .LVU2449
 7468 024c 0322     		movs	r2, #3
 7469 024e 10A8     		add	r0, sp, #64
 7470 0250 0146     		mov	r1, r0
 7471 0252 BDF88C00 		ldrh	r0, [sp, #140]
 7472 0256 FFF7FEFF 		bl	intToStr
 7473              	.LVL812:
 664:Core/Src/lcd.c ****     ILI9341_DrawLine(x0 + graphSizeX/2, y0, x0 + graphSizeX/2, y0 + 3, ILI9341_WHITE);
 7474              		.loc 1 664 5 view .LVU2450
 7475 025a DDF818C0 		ldr	ip, [sp, #24]
 7476 025e 05EB5C0A 		add	r10, r5, ip, lsr #1
 7477 0262 1FFA8AFA 		uxth	r10, r10
 7478 0266 0097     		str	r7, [sp]
 7479 0268 079B     		ldr	r3, [sp, #28]
 7480 026a 5246     		mov	r2, r10
 7481 026c 3146     		mov	r1, r6
 7482 026e 5046     		mov	r0, r10
 7483 0270 FFF7FEFF 		bl	ILI9341_DrawLine
 7484              	.LVL813:
 665:Core/Src/lcd.c ****     ILI9341_WriteString(x0 + graphSizeX/2 - 10, y0 + 10, temp, Font_7x10, ILI9341_WHITE, ILI9341_BL
 7485              		.loc 1 665 5 view .LVU2451
 7486 0274 AAF10A00 		sub	r0, r10, #10
 7487 0278 0294     		str	r4, [sp, #8]
 7488 027a 0197     		str	r7, [sp, #4]
 7489 027c D8F80430 		ldr	r3, [r8, #4]
 7490 0280 0093     		str	r3, [sp]
 7491 0282 D8F80030 		ldr	r3, [r8]
 7492 0286 10AA     		add	r2, sp, #64
 7493 0288 DDF834A0 		ldr	r10, [sp, #52]
 7494 028c 5146     		mov	r1, r10
 7495 028e 80B2     		uxth	r0, r0
 7496 0290 FFF7FEFF 		bl	ILI9341_WriteString
 7497              	.LVL814:
 666:Core/Src/lcd.c ****     memset(temp, '\0', sizeof(temp));
 7498              		.loc 1 666 5 view .LVU2452
 7499 0294 1094     		str	r4, [sp, #64]
 7500 0296 8DF84440 		strb	r4, [sp, #68]
 667:Core/Src/lcd.c ****     intToStr(XlabelMax, temp, 4);
ARM GAS  C:\Users\Vento\AppData\Local\Temp\ccDU9lzs.s 			page 185


 7501              		.loc 1 667 5 view .LVU2453
 7502 029a 0422     		movs	r2, #4
 7503 029c 10A9     		add	r1, sp, #64
 7504 029e BDF89000 		ldrh	r0, [sp, #144]
 7505 02a2 FFF7FEFF 		bl	intToStr
 7506              	.LVL815:
 668:Core/Src/lcd.c ****     ILI9341_DrawLine(x0 + graphSizeX, y0, x0 + graphSizeX, y0 + 3, ILI9341_WHITE);
 7507              		.loc 1 668 5 view .LVU2454
 7508 02a6 0097     		str	r7, [sp]
 7509 02a8 079B     		ldr	r3, [sp, #28]
 7510 02aa 4A46     		mov	r2, r9
 7511 02ac 3146     		mov	r1, r6
 7512 02ae 4846     		mov	r0, r9
 7513 02b0 FFF7FEFF 		bl	ILI9341_DrawLine
 7514              	.LVL816:
 669:Core/Src/lcd.c ****     ILI9341_WriteString(x0 + graphSizeX - 14, y0 + 10, temp, Font_7x10, ILI9341_WHITE, ILI9341_BLAC
 7515              		.loc 1 669 5 view .LVU2455
 7516 02b4 A9F10E00 		sub	r0, r9, #14
 7517 02b8 0294     		str	r4, [sp, #8]
 7518 02ba 0197     		str	r7, [sp, #4]
 7519 02bc D8F80430 		ldr	r3, [r8, #4]
 7520 02c0 0093     		str	r3, [sp]
 7521 02c2 D8F80030 		ldr	r3, [r8]
 7522 02c6 10AA     		add	r2, sp, #64
 7523 02c8 5146     		mov	r1, r10
 7524 02ca 80B2     		uxth	r0, r0
 7525 02cc FFF7FEFF 		bl	ILI9341_WriteString
 7526              	.LVL817:
 670:Core/Src/lcd.c **** 
 671:Core/Src/lcd.c ****     ILI9341_WriteString(x0 + graphSizeX + 5 + 10, y0 - 5, Xunit, Font_7x10, ILI9341_WHITE, ILI9341_
 7527              		.loc 1 671 5 view .LVU2456
 7528 02d0 09F10F00 		add	r0, r9, #15
 7529 02d4 0294     		str	r4, [sp, #8]
 7530 02d6 0197     		str	r7, [sp, #4]
 7531 02d8 D8F80430 		ldr	r3, [r8, #4]
 7532 02dc 0093     		str	r3, [sp]
 7533 02de D8F80030 		ldr	r3, [r8]
 7534 02e2 259A     		ldr	r2, [sp, #148]
 7535 02e4 0C99     		ldr	r1, [sp, #48]
 7536 02e6 80B2     		uxth	r0, r0
 7537 02e8 FFF7FEFF 		bl	ILI9341_WriteString
 7538              	.LVL818:
 672:Core/Src/lcd.c **** 
 673:Core/Src/lcd.c ****     //================================================= Plot Data =================================
 674:Core/Src/lcd.c ****     for (uint8_t i = 0; i < graphSizeX; i++)
 7539              		.loc 1 674 5 view .LVU2457
 7540              	.LBB810:
 7541              		.loc 1 674 10 view .LVU2458
 7542              		.loc 1 674 10 is_stmt 0 view .LVU2459
 7543 02ec 069F     		ldr	r7, [sp, #24]
 7544 02ee DDF83890 		ldr	r9, [sp, #56]
 7545 02f2 DDF82080 		ldr	r8, [sp, #32]
 7546 02f6 DDF83CA0 		ldr	r10, [sp, #60]
 7547              		.loc 1 674 5 view .LVU2460
 7548 02fa 05E0     		b	.L159
 7549              	.LVL819:
 7550              	.L160:
ARM GAS  C:\Users\Vento\AppData\Local\Temp\ccDU9lzs.s 			page 186


 675:Core/Src/lcd.c ****     {
 676:Core/Src/lcd.c ****         if ((Ydata[i] >= YlabelMin) && (Ydata[i] <= YlabelMax))
 677:Core/Src/lcd.c ****         {ILI9341_DrawPixel(x0 + i, y0 - (Ydata[i] - Ymin)/DataToPixelRatio, color);}
 678:Core/Src/lcd.c ****         else if (Ydata[i] < YlabelMin)
 7551              		.loc 1 678 14 is_stmt 1 view .LVU2461
 7552              		.loc 1 678 17 is_stmt 0 view .LVU2462
 7553 02fc 5945     		cmp	r1, fp
 7554 02fe 18D3     		bcc	.L165
 679:Core/Src/lcd.c ****         {ILI9341_DrawPixel(x0 + i, y0, color);}
 680:Core/Src/lcd.c ****         else if (Ydata[i] > YlabelMax)
 7555              		.loc 1 680 14 is_stmt 1 view .LVU2463
 7556              		.loc 1 680 17 is_stmt 0 view .LVU2464
 7557 0300 4145     		cmp	r1, r8
 7558 0302 1DD8     		bhi	.L166
 7559              	.L161:
 674:Core/Src/lcd.c ****     {
 7560              		.loc 1 674 41 is_stmt 1 discriminator 2 view .LVU2465
 674:Core/Src/lcd.c ****     {
 7561              		.loc 1 674 42 is_stmt 0 discriminator 2 view .LVU2466
 7562 0304 0134     		adds	r4, r4, #1
 7563              	.LVL820:
 674:Core/Src/lcd.c ****     {
 7564              		.loc 1 674 42 discriminator 2 view .LVU2467
 7565 0306 E4B2     		uxtb	r4, r4
 7566              	.LVL821:
 7567              	.L159:
 674:Core/Src/lcd.c ****     {
 7568              		.loc 1 674 25 is_stmt 1 discriminator 1 view .LVU2468
 674:Core/Src/lcd.c ****     {
 7569              		.loc 1 674 5 is_stmt 0 discriminator 1 view .LVU2469
 7570 0308 BC42     		cmp	r4, r7
 7571 030a 22D2     		bcs	.L167
 676:Core/Src/lcd.c ****         {ILI9341_DrawPixel(x0 + i, y0 - (Ydata[i] - Ymin)/DataToPixelRatio, color);}
 7572              		.loc 1 676 9 is_stmt 1 view .LVU2470
 676:Core/Src/lcd.c ****         {ILI9341_DrawPixel(x0 + i, y0 - (Ydata[i] - Ymin)/DataToPixelRatio, color);}
 7573              		.loc 1 676 19 is_stmt 0 view .LVU2471
 7574 030c 59F82410 		ldr	r1, [r9, r4, lsl #2]
 676:Core/Src/lcd.c ****         {ILI9341_DrawPixel(x0 + i, y0 - (Ydata[i] - Ymin)/DataToPixelRatio, color);}
 7575              		.loc 1 676 12 view .LVU2472
 7576 0310 5945     		cmp	r1, fp
 7577 0312 F3D3     		bcc	.L160
 676:Core/Src/lcd.c ****         {ILI9341_DrawPixel(x0 + i, y0 - (Ydata[i] - Ymin)/DataToPixelRatio, color);}
 7578              		.loc 1 676 37 discriminator 1 view .LVU2473
 7579 0314 4145     		cmp	r1, r8
 7580 0316 F1D8     		bhi	.L160
 677:Core/Src/lcd.c ****         else if (Ydata[i] < YlabelMin)
 7581              		.loc 1 677 10 is_stmt 1 view .LVU2474
 677:Core/Src/lcd.c ****         else if (Ydata[i] < YlabelMin)
 7582              		.loc 1 677 51 is_stmt 0 view .LVU2475
 7583 0318 0A9B     		ldr	r3, [sp, #40]
 7584 031a C91A     		subs	r1, r1, r3
 677:Core/Src/lcd.c ****         else if (Ydata[i] < YlabelMin)
 7585              		.loc 1 677 58 view .LVU2476
 7586 031c 0B9B     		ldr	r3, [sp, #44]
 7587 031e B1FBF3F1 		udiv	r1, r1, r3
 677:Core/Src/lcd.c ****         else if (Ydata[i] < YlabelMin)
 7588              		.loc 1 677 10 view .LVU2477
ARM GAS  C:\Users\Vento\AppData\Local\Temp\ccDU9lzs.s 			page 187


 7589 0322 711A     		subs	r1, r6, r1
 7590 0324 2819     		adds	r0, r5, r4
 7591 0326 5246     		mov	r2, r10
 7592 0328 89B2     		uxth	r1, r1
 7593 032a 80B2     		uxth	r0, r0
 7594 032c FFF7FEFF 		bl	ILI9341_DrawPixel
 7595              	.LVL822:
 7596 0330 E8E7     		b	.L161
 7597              	.L165:
 679:Core/Src/lcd.c ****         else if (Ydata[i] > YlabelMax)
 7598              		.loc 1 679 10 is_stmt 1 view .LVU2478
 7599 0332 2819     		adds	r0, r5, r4
 7600 0334 5246     		mov	r2, r10
 7601 0336 3146     		mov	r1, r6
 7602 0338 80B2     		uxth	r0, r0
 7603 033a FFF7FEFF 		bl	ILI9341_DrawPixel
 7604              	.LVL823:
 7605 033e E1E7     		b	.L161
 7606              	.L166:
 681:Core/Src/lcd.c ****         {ILI9341_DrawPixel(x0 + i, y0 + graphSizeY, color);}
 7607              		.loc 1 681 10 view .LVU2479
 7608 0340 099B     		ldr	r3, [sp, #36]
 7609 0342 9919     		adds	r1, r3, r6
 7610 0344 2819     		adds	r0, r5, r4
 7611 0346 5246     		mov	r2, r10
 7612 0348 89B2     		uxth	r1, r1
 7613 034a 80B2     		uxth	r0, r0
 7614 034c FFF7FEFF 		bl	ILI9341_DrawPixel
 7615              	.LVL824:
 7616 0350 D8E7     		b	.L161
 7617              	.L167:
 7618              	.LBE810:
 682:Core/Src/lcd.c ****         
 683:Core/Src/lcd.c ****     }
 684:Core/Src/lcd.c **** }
 7619              		.loc 1 684 1 is_stmt 0 view .LVU2480
 7620 0352 13B0     		add	sp, sp, #76
 7621              	.LCFI55:
 7622              		.cfi_def_cfa_offset 36
 7623              		@ sp needed
 7624 0354 BDE8F08F 		pop	{r4, r5, r6, r7, r8, r9, r10, fp, pc}
 7625              	.LVL825:
 7626              	.L169:
 7627              		.loc 1 684 1 view .LVU2481
 7628              		.align	2
 7629              	.L168:
 7630 0358 00000000 		.word	Font_7x10
 7631              		.cfi_endproc
 7632              	.LFE90:
 7634              		.section	.text.ILI9341_PlotTimeGraph8,"ax",%progbits
 7635              		.align	1
 7636              		.global	ILI9341_PlotTimeGraph8
 7637              		.syntax unified
 7638              		.thumb
 7639              		.thumb_func
 7640              		.fpu softvfp
 7642              	ILI9341_PlotTimeGraph8:
ARM GAS  C:\Users\Vento\AppData\Local\Temp\ccDU9lzs.s 			page 188


 7643              	.LVL826:
 7644              	.LFB91:
 685:Core/Src/lcd.c **** 
 686:Core/Src/lcd.c **** void ILI9341_PlotTimeGraph8(    uint16_t x0, uint16_t y0, uint8_t graphSizeX, 
 687:Core/Src/lcd.c ****                                 uint8_t* Ydata, uint8_t graphSizeY, uint8_t Ymin, uint8_t DataToPix
 688:Core/Src/lcd.c ****                                 uint16_t YlabelMin, uint16_t YlabelMid, uint16_t YlabelMax, 
 689:Core/Src/lcd.c ****                                 uint16_t XlabelMin, uint16_t XlabelMid, uint16_t XlabelMax, 
 690:Core/Src/lcd.c ****                                 char* Xunit, char* Yunit, uint16_t color)
 691:Core/Src/lcd.c **** {
 7645              		.loc 1 691 1 is_stmt 1 view -0
 7646              		.cfi_startproc
 7647              		@ args = 48, pretend = 0, frame = 56
 7648              		@ frame_needed = 0, uses_anonymous_args = 0
 7649              		.loc 1 691 1 is_stmt 0 view .LVU2483
 7650 0000 2DE9F04F 		push	{r4, r5, r6, r7, r8, r9, r10, fp, lr}
 7651              	.LCFI56:
 7652              		.cfi_def_cfa_offset 36
 7653              		.cfi_offset 4, -36
 7654              		.cfi_offset 5, -32
 7655              		.cfi_offset 6, -28
 7656              		.cfi_offset 7, -24
 7657              		.cfi_offset 8, -20
 7658              		.cfi_offset 9, -16
 7659              		.cfi_offset 10, -12
 7660              		.cfi_offset 11, -8
 7661              		.cfi_offset 14, -4
 7662 0004 93B0     		sub	sp, sp, #76
 7663              	.LCFI57:
 7664              		.cfi_def_cfa_offset 112
 7665 0006 0546     		mov	r5, r0
 7666 0008 0E46     		mov	r6, r1
 7667 000a 0692     		str	r2, [sp, #24]
 7668 000c 0E93     		str	r3, [sp, #56]
 7669 000e 9DF87070 		ldrb	r7, [sp, #112]	@ zero_extendqisi2
 7670 0012 9DF87440 		ldrb	r4, [sp, #116]	@ zero_extendqisi2
 7671 0016 0A94     		str	r4, [sp, #40]
 7672 0018 9DF87840 		ldrb	r4, [sp, #120]	@ zero_extendqisi2
 7673 001c 0B94     		str	r4, [sp, #44]
 7674 001e BDF87CB0 		ldrh	fp, [sp, #124]
 7675 0022 BDF88440 		ldrh	r4, [sp, #132]
 7676 0026 0894     		str	r4, [sp, #32]
 7677 0028 BDF89CE0 		ldrh	lr, [sp, #156]
 7678 002c CDF83CE0 		str	lr, [sp, #60]
 692:Core/Src/lcd.c ****     char temp[5] = {0};
 7679              		.loc 1 692 5 is_stmt 1 view .LVU2484
 7680              		.loc 1 692 10 is_stmt 0 view .LVU2485
 7681 0030 0024     		movs	r4, #0
 7682 0032 1094     		str	r4, [sp, #64]
 7683 0034 8DF84440 		strb	r4, [sp, #68]
 693:Core/Src/lcd.c ****     
 694:Core/Src/lcd.c ****     //================================================= Y Axis ====================================
 695:Core/Src/lcd.c ****     ILI9341_DrawLine(x0, y0, x0, y0 - graphSizeY, ILI9341_WHITE);
 7684              		.loc 1 695 5 is_stmt 1 view .LVU2486
 7685 0038 1FFA87F8 		uxth	r8, r7
 7686 003c CDF82480 		str	r8, [sp, #36]
 7687 0040 0797     		str	r7, [sp, #28]
 7688 0042 A1EB0709 		sub	r9, r1, r7
ARM GAS  C:\Users\Vento\AppData\Local\Temp\ccDU9lzs.s 			page 189


 7689 0046 1FFA89F9 		uxth	r9, r9
 7690 004a 4FF6FF77 		movw	r7, #65535
 7691 004e 0097     		str	r7, [sp]
 7692 0050 4B46     		mov	r3, r9
 7693              	.LVL827:
 7694              		.loc 1 695 5 is_stmt 0 view .LVU2487
 7695 0052 0246     		mov	r2, r0
 7696              	.LVL828:
 7697              		.loc 1 695 5 view .LVU2488
 7698 0054 FFF7FEFF 		bl	ILI9341_DrawLine
 7699              	.LVL829:
 696:Core/Src/lcd.c ****     ILI9341_DrawLine(x0, y0 - graphSizeY, x0, y0 - graphSizeY - 10, ILI9341_WHITE);
 7700              		.loc 1 696 5 is_stmt 1 view .LVU2489
 7701 0058 A9F10A08 		sub	r8, r9, #10
 7702 005c 1FFA88F8 		uxth	r8, r8
 7703 0060 0097     		str	r7, [sp]
 7704 0062 4346     		mov	r3, r8
 7705 0064 2A46     		mov	r2, r5
 7706 0066 4946     		mov	r1, r9
 7707 0068 2846     		mov	r0, r5
 7708 006a FFF7FEFF 		bl	ILI9341_DrawLine
 7709              	.LVL830:
 697:Core/Src/lcd.c ****     ILI9341_DrawLine(x0 - 4, y0 - graphSizeY - 6, x0, y0 - graphSizeY - 10, ILI9341_WHITE);
 7710              		.loc 1 697 5 view .LVU2490
 7711 006e A9F1060A 		sub	r10, r9, #6
 7712 0072 1FFA8AFA 		uxth	r10, r10
 7713 0076 281F     		subs	r0, r5, #4
 7714 0078 0097     		str	r7, [sp]
 7715 007a 4346     		mov	r3, r8
 7716 007c 2A46     		mov	r2, r5
 7717 007e 5146     		mov	r1, r10
 7718 0080 80B2     		uxth	r0, r0
 7719 0082 FFF7FEFF 		bl	ILI9341_DrawLine
 7720              	.LVL831:
 698:Core/Src/lcd.c ****     ILI9341_DrawLine(x0 + 4, y0 - graphSizeY - 6, x0, y0 - graphSizeY - 10, ILI9341_WHITE);
 7721              		.loc 1 698 5 view .LVU2491
 7722 0086 281D     		adds	r0, r5, #4
 7723 0088 0097     		str	r7, [sp]
 7724 008a 4346     		mov	r3, r8
 7725 008c 2A46     		mov	r2, r5
 7726 008e 5146     		mov	r1, r10
 7727 0090 80B2     		uxth	r0, r0
 7728 0092 FFF7FEFF 		bl	ILI9341_DrawLine
 7729              	.LVL832:
 699:Core/Src/lcd.c **** 
 700:Core/Src/lcd.c ****     memset(temp, '\0', sizeof(temp));
 7730              		.loc 1 700 5 view .LVU2492
 7731 0096 1094     		str	r4, [sp, #64]
 7732 0098 8DF84440 		strb	r4, [sp, #68]
 701:Core/Src/lcd.c ****     intToStr(YlabelMin, temp, 3);
 7733              		.loc 1 701 5 view .LVU2493
 7734 009c 0322     		movs	r2, #3
 7735 009e 10A9     		add	r1, sp, #64
 7736 00a0 5846     		mov	r0, fp
 7737 00a2 FFF7FEFF 		bl	intToStr
 7738              	.LVL833:
 702:Core/Src/lcd.c ****     ILI9341_DrawLine(x0, y0, x0 - 3, y0, ILI9341_WHITE);
ARM GAS  C:\Users\Vento\AppData\Local\Temp\ccDU9lzs.s 			page 190


 7739              		.loc 1 702 5 view .LVU2494
 7740 00a6 EB1E     		subs	r3, r5, #3
 7741 00a8 99B2     		uxth	r1, r3
 7742 00aa 0097     		str	r7, [sp]
 7743 00ac 3346     		mov	r3, r6
 7744 00ae 0591     		str	r1, [sp, #20]
 7745 00b0 0A46     		mov	r2, r1
 7746 00b2 3146     		mov	r1, r6
 7747 00b4 2846     		mov	r0, r5
 7748 00b6 FFF7FEFF 		bl	ILI9341_DrawLine
 7749              	.LVL834:
 703:Core/Src/lcd.c ****     ILI9341_WriteString(x0 - 5 - 21, y0 - 5, temp, Font_7x10, ILI9341_WHITE, ILI9341_BLACK);
 7750              		.loc 1 703 5 view .LVU2495
 7751 00ba 731F     		subs	r3, r6, #5
 7752 00bc 1FFA83FE 		uxth	lr, r3
 7753 00c0 DFF89882 		ldr	r8, .L180
 7754 00c4 A5F11A00 		sub	r0, r5, #26
 7755 00c8 0294     		str	r4, [sp, #8]
 7756 00ca 0197     		str	r7, [sp, #4]
 7757 00cc D8F80430 		ldr	r3, [r8, #4]
 7758 00d0 0093     		str	r3, [sp]
 7759 00d2 D8F80030 		ldr	r3, [r8]
 7760 00d6 0DF1400C 		add	ip, sp, #64
 7761 00da 6246     		mov	r2, ip
 7762 00dc CDF830E0 		str	lr, [sp, #48]
 7763 00e0 7146     		mov	r1, lr
 7764 00e2 80B2     		uxth	r0, r0
 7765 00e4 FFF7FEFF 		bl	ILI9341_WriteString
 7766              	.LVL835:
 704:Core/Src/lcd.c ****     memset(temp, '\0', sizeof(temp));
 7767              		.loc 1 704 5 view .LVU2496
 7768 00e8 1094     		str	r4, [sp, #64]
 7769 00ea 8DF84440 		strb	r4, [sp, #68]
 705:Core/Src/lcd.c ****     intToStr(YlabelMid, temp, 4);
 7770              		.loc 1 705 5 view .LVU2497
 7771 00ee 0422     		movs	r2, #4
 7772 00f0 0DF1400C 		add	ip, sp, #64
 7773 00f4 6146     		mov	r1, ip
 7774 00f6 BDF88000 		ldrh	r0, [sp, #128]
 7775 00fa FFF7FEFF 		bl	intToStr
 7776              	.LVL836:
 706:Core/Src/lcd.c ****     ILI9341_DrawLine(x0, y0 - graphSizeY/2, x0 - 3, y0 - graphSizeY/2, ILI9341_WHITE);
 7777              		.loc 1 706 5 view .LVU2498
 7778 00fe 0798     		ldr	r0, [sp, #28]
 7779 0100 A6EB500A 		sub	r10, r6, r0, lsr #1
 7780 0104 1FFA8AFA 		uxth	r10, r10
 7781 0108 0097     		str	r7, [sp]
 7782 010a 5346     		mov	r3, r10
 7783 010c 059A     		ldr	r2, [sp, #20]
 7784 010e 5146     		mov	r1, r10
 7785 0110 2846     		mov	r0, r5
 7786 0112 FFF7FEFF 		bl	ILI9341_DrawLine
 7787              	.LVL837:
 707:Core/Src/lcd.c ****     ILI9341_WriteString(x0 - 5 - 28, y0 - graphSizeY/2 - 5, temp, Font_7x10, ILI9341_WHITE, ILI9341
 7788              		.loc 1 707 5 view .LVU2499
 7789 0116 AAF10501 		sub	r1, r10, #5
 7790 011a A5F12100 		sub	r0, r5, #33
ARM GAS  C:\Users\Vento\AppData\Local\Temp\ccDU9lzs.s 			page 191


 7791 011e 0294     		str	r4, [sp, #8]
 7792 0120 0197     		str	r7, [sp, #4]
 7793 0122 D8F80430 		ldr	r3, [r8, #4]
 7794 0126 0093     		str	r3, [sp]
 7795 0128 D8F80030 		ldr	r3, [r8]
 7796 012c 0DF1400C 		add	ip, sp, #64
 7797 0130 6246     		mov	r2, ip
 7798 0132 89B2     		uxth	r1, r1
 7799 0134 80B2     		uxth	r0, r0
 7800 0136 FFF7FEFF 		bl	ILI9341_WriteString
 7801              	.LVL838:
 708:Core/Src/lcd.c ****     memset(temp, '\0', sizeof(temp));
 7802              		.loc 1 708 5 view .LVU2500
 7803 013a 1094     		str	r4, [sp, #64]
 7804 013c 8DF84440 		strb	r4, [sp, #68]
 709:Core/Src/lcd.c ****     intToStr(YlabelMax, temp, 5);
 7805              		.loc 1 709 5 view .LVU2501
 7806 0140 0522     		movs	r2, #5
 7807 0142 10A8     		add	r0, sp, #64
 7808 0144 0146     		mov	r1, r0
 7809 0146 0898     		ldr	r0, [sp, #32]
 7810 0148 FFF7FEFF 		bl	intToStr
 7811              	.LVL839:
 710:Core/Src/lcd.c ****     ILI9341_DrawLine(x0, y0 - graphSizeY, x0 - 3, y0 - graphSizeY, ILI9341_WHITE);
 7812              		.loc 1 710 5 view .LVU2502
 7813 014c 0097     		str	r7, [sp]
 7814 014e 4B46     		mov	r3, r9
 7815 0150 059A     		ldr	r2, [sp, #20]
 7816 0152 4946     		mov	r1, r9
 7817 0154 2846     		mov	r0, r5
 7818 0156 FFF7FEFF 		bl	ILI9341_DrawLine
 7819              	.LVL840:
 711:Core/Src/lcd.c ****     ILI9341_WriteString(x0 - 5 - 35, y0 - graphSizeY - 5, temp, Font_7x10, ILI9341_WHITE, ILI9341_B
 7820              		.loc 1 711 5 view .LVU2503
 7821 015a A9F10501 		sub	r1, r9, #5
 7822 015e A5F12800 		sub	r0, r5, #40
 7823 0162 0294     		str	r4, [sp, #8]
 7824 0164 0197     		str	r7, [sp, #4]
 7825 0166 D8F80430 		ldr	r3, [r8, #4]
 7826 016a 0093     		str	r3, [sp]
 7827 016c D8F80030 		ldr	r3, [r8]
 7828 0170 0DF1400C 		add	ip, sp, #64
 7829 0174 6246     		mov	r2, ip
 7830 0176 89B2     		uxth	r1, r1
 7831 0178 80B2     		uxth	r0, r0
 7832 017a FFF7FEFF 		bl	ILI9341_WriteString
 7833              	.LVL841:
 712:Core/Src/lcd.c **** 
 713:Core/Src/lcd.c ****     ILI9341_WriteString(x0, y0 - graphSizeY - 5 - 20, Yunit, Font_7x10, ILI9341_WHITE, ILI9341_BLAC
 7834              		.loc 1 713 5 view .LVU2504
 7835 017e A9F11901 		sub	r1, r9, #25
 7836 0182 0294     		str	r4, [sp, #8]
 7837 0184 0197     		str	r7, [sp, #4]
 7838 0186 D8F80430 		ldr	r3, [r8, #4]
 7839 018a 0093     		str	r3, [sp]
 7840 018c D8F80030 		ldr	r3, [r8]
 7841 0190 269A     		ldr	r2, [sp, #152]
ARM GAS  C:\Users\Vento\AppData\Local\Temp\ccDU9lzs.s 			page 192


 7842 0192 89B2     		uxth	r1, r1
 7843 0194 2846     		mov	r0, r5
 7844 0196 FFF7FEFF 		bl	ILI9341_WriteString
 7845              	.LVL842:
 714:Core/Src/lcd.c **** 
 715:Core/Src/lcd.c **** 
 716:Core/Src/lcd.c ****     //================================================= X Axis ====================================
 717:Core/Src/lcd.c ****     ILI9341_DrawLine(x0, y0, x0 + graphSizeX, y0, ILI9341_WHITE);
 7846              		.loc 1 717 5 view .LVU2505
 7847 019a DDF818C0 		ldr	ip, [sp, #24]
 7848 019e 05EB0C09 		add	r9, r5, ip
 7849 01a2 1FFA89F9 		uxth	r9, r9
 7850 01a6 0097     		str	r7, [sp]
 7851 01a8 3346     		mov	r3, r6
 7852 01aa 4A46     		mov	r2, r9
 7853 01ac 3146     		mov	r1, r6
 7854 01ae 2846     		mov	r0, r5
 7855 01b0 FFF7FEFF 		bl	ILI9341_DrawLine
 7856              	.LVL843:
 718:Core/Src/lcd.c ****     ILI9341_DrawLine(x0 + graphSizeX, y0, x0 + graphSizeX + 10, y0, ILI9341_WHITE);
 7857              		.loc 1 718 5 view .LVU2506
 7858 01b4 09F10A0A 		add	r10, r9, #10
 7859 01b8 1FFA8AFA 		uxth	r10, r10
 7860 01bc 0097     		str	r7, [sp]
 7861 01be 3346     		mov	r3, r6
 7862 01c0 5246     		mov	r2, r10
 7863 01c2 3146     		mov	r1, r6
 7864 01c4 4846     		mov	r0, r9
 7865 01c6 FFF7FEFF 		bl	ILI9341_DrawLine
 7866              	.LVL844:
 719:Core/Src/lcd.c ****     ILI9341_DrawLine(x0 + graphSizeX + 6, y0 - 4, x0 + graphSizeX + 10, y0, ILI9341_WHITE);
 7867              		.loc 1 719 5 view .LVU2507
 7868 01ca 09F10603 		add	r3, r9, #6
 7869 01ce 9BB2     		uxth	r3, r3
 7870 01d0 9E46     		mov	lr, r3
 7871 01d2 311F     		subs	r1, r6, #4
 7872 01d4 0097     		str	r7, [sp]
 7873 01d6 3346     		mov	r3, r6
 7874 01d8 5246     		mov	r2, r10
 7875 01da 89B2     		uxth	r1, r1
 7876 01dc CDF81CE0 		str	lr, [sp, #28]
 7877 01e0 7046     		mov	r0, lr
 7878 01e2 FFF7FEFF 		bl	ILI9341_DrawLine
 7879              	.LVL845:
 720:Core/Src/lcd.c ****     ILI9341_DrawLine(x0 + graphSizeX + 6, y0 + 4, x0 + graphSizeX + 10, y0, ILI9341_WHITE);
 7880              		.loc 1 720 5 view .LVU2508
 7881 01e6 311D     		adds	r1, r6, #4
 7882 01e8 0097     		str	r7, [sp]
 7883 01ea 3346     		mov	r3, r6
 7884 01ec 5246     		mov	r2, r10
 7885 01ee 89B2     		uxth	r1, r1
 7886 01f0 0798     		ldr	r0, [sp, #28]
 7887 01f2 FFF7FEFF 		bl	ILI9341_DrawLine
 7888              	.LVL846:
 721:Core/Src/lcd.c **** 
 722:Core/Src/lcd.c ****     memset(temp, '\0', sizeof(temp));
 7889              		.loc 1 722 5 view .LVU2509
ARM GAS  C:\Users\Vento\AppData\Local\Temp\ccDU9lzs.s 			page 193


 7890 01f6 1094     		str	r4, [sp, #64]
 7891 01f8 8DF84440 		strb	r4, [sp, #68]
 723:Core/Src/lcd.c ****     intToStr(XlabelMin, temp, 1);
 7892              		.loc 1 723 5 view .LVU2510
 7893 01fc 0122     		movs	r2, #1
 7894 01fe 10AB     		add	r3, sp, #64
 7895 0200 1946     		mov	r1, r3
 7896 0202 BDF88800 		ldrh	r0, [sp, #136]
 7897 0206 FFF7FEFF 		bl	intToStr
 7898              	.LVL847:
 724:Core/Src/lcd.c ****     ILI9341_DrawLine(x0, y0, x0, y0 + 3, ILI9341_WHITE);
 7899              		.loc 1 724 5 view .LVU2511
 7900 020a F31C     		adds	r3, r6, #3
 7901 020c 1FFA83FE 		uxth	lr, r3
 7902 0210 0097     		str	r7, [sp]
 7903 0212 CDF81CE0 		str	lr, [sp, #28]
 7904 0216 7346     		mov	r3, lr
 7905 0218 2A46     		mov	r2, r5
 7906 021a 3146     		mov	r1, r6
 7907 021c 2846     		mov	r0, r5
 7908 021e FFF7FEFF 		bl	ILI9341_DrawLine
 7909              	.LVL848:
 725:Core/Src/lcd.c ****     ILI9341_WriteString(x0 - 3, y0 + 10, temp, Font_7x10, ILI9341_WHITE, ILI9341_BLACK);
 7910              		.loc 1 725 5 view .LVU2512
 7911 0222 06F10A03 		add	r3, r6, #10
 7912 0226 1FFA83FA 		uxth	r10, r3
 7913 022a 0294     		str	r4, [sp, #8]
 7914 022c 0197     		str	r7, [sp, #4]
 7915 022e D8F80430 		ldr	r3, [r8, #4]
 7916 0232 0093     		str	r3, [sp]
 7917 0234 D8F80030 		ldr	r3, [r8]
 7918 0238 10AA     		add	r2, sp, #64
 7919 023a CDF834A0 		str	r10, [sp, #52]
 7920 023e 5146     		mov	r1, r10
 7921 0240 0598     		ldr	r0, [sp, #20]
 7922 0242 FFF7FEFF 		bl	ILI9341_WriteString
 7923              	.LVL849:
 726:Core/Src/lcd.c ****     memset(temp, '\0', sizeof(temp));
 7924              		.loc 1 726 5 view .LVU2513
 7925 0246 1094     		str	r4, [sp, #64]
 7926 0248 8DF84440 		strb	r4, [sp, #68]
 727:Core/Src/lcd.c ****     intToStr(XlabelMid, temp, 3);
 7927              		.loc 1 727 5 view .LVU2514
 7928 024c 0322     		movs	r2, #3
 7929 024e 10A8     		add	r0, sp, #64
 7930 0250 0146     		mov	r1, r0
 7931 0252 BDF88C00 		ldrh	r0, [sp, #140]
 7932 0256 FFF7FEFF 		bl	intToStr
 7933              	.LVL850:
 728:Core/Src/lcd.c ****     ILI9341_DrawLine(x0 + graphSizeX/2, y0, x0 + graphSizeX/2, y0 + 3, ILI9341_WHITE);
 7934              		.loc 1 728 5 view .LVU2515
 7935 025a DDF818C0 		ldr	ip, [sp, #24]
 7936 025e 05EB5C0A 		add	r10, r5, ip, lsr #1
 7937 0262 1FFA8AFA 		uxth	r10, r10
 7938 0266 0097     		str	r7, [sp]
 7939 0268 079B     		ldr	r3, [sp, #28]
 7940 026a 5246     		mov	r2, r10
ARM GAS  C:\Users\Vento\AppData\Local\Temp\ccDU9lzs.s 			page 194


 7941 026c 3146     		mov	r1, r6
 7942 026e 5046     		mov	r0, r10
 7943 0270 FFF7FEFF 		bl	ILI9341_DrawLine
 7944              	.LVL851:
 729:Core/Src/lcd.c ****     ILI9341_WriteString(x0 + graphSizeX/2 - 10, y0 + 10, temp, Font_7x10, ILI9341_WHITE, ILI9341_BL
 7945              		.loc 1 729 5 view .LVU2516
 7946 0274 AAF10A00 		sub	r0, r10, #10
 7947 0278 0294     		str	r4, [sp, #8]
 7948 027a 0197     		str	r7, [sp, #4]
 7949 027c D8F80430 		ldr	r3, [r8, #4]
 7950 0280 0093     		str	r3, [sp]
 7951 0282 D8F80030 		ldr	r3, [r8]
 7952 0286 10AA     		add	r2, sp, #64
 7953 0288 DDF834A0 		ldr	r10, [sp, #52]
 7954 028c 5146     		mov	r1, r10
 7955 028e 80B2     		uxth	r0, r0
 7956 0290 FFF7FEFF 		bl	ILI9341_WriteString
 7957              	.LVL852:
 730:Core/Src/lcd.c ****     memset(temp, '\0', sizeof(temp));
 7958              		.loc 1 730 5 view .LVU2517
 7959 0294 1094     		str	r4, [sp, #64]
 7960 0296 8DF84440 		strb	r4, [sp, #68]
 731:Core/Src/lcd.c ****     intToStr(XlabelMax, temp, 4);
 7961              		.loc 1 731 5 view .LVU2518
 7962 029a 0422     		movs	r2, #4
 7963 029c 10A9     		add	r1, sp, #64
 7964 029e BDF89000 		ldrh	r0, [sp, #144]
 7965 02a2 FFF7FEFF 		bl	intToStr
 7966              	.LVL853:
 732:Core/Src/lcd.c ****     ILI9341_DrawLine(x0 + graphSizeX, y0, x0 + graphSizeX, y0 + 3, ILI9341_WHITE);
 7967              		.loc 1 732 5 view .LVU2519
 7968 02a6 0097     		str	r7, [sp]
 7969 02a8 079B     		ldr	r3, [sp, #28]
 7970 02aa 4A46     		mov	r2, r9
 7971 02ac 3146     		mov	r1, r6
 7972 02ae 4846     		mov	r0, r9
 7973 02b0 FFF7FEFF 		bl	ILI9341_DrawLine
 7974              	.LVL854:
 733:Core/Src/lcd.c ****     ILI9341_WriteString(x0 + graphSizeX - 14, y0 + 10, temp, Font_7x10, ILI9341_WHITE, ILI9341_BLAC
 7975              		.loc 1 733 5 view .LVU2520
 7976 02b4 A9F10E00 		sub	r0, r9, #14
 7977 02b8 0294     		str	r4, [sp, #8]
 7978 02ba 0197     		str	r7, [sp, #4]
 7979 02bc D8F80430 		ldr	r3, [r8, #4]
 7980 02c0 0093     		str	r3, [sp]
 7981 02c2 D8F80030 		ldr	r3, [r8]
 7982 02c6 10AA     		add	r2, sp, #64
 7983 02c8 5146     		mov	r1, r10
 7984 02ca 80B2     		uxth	r0, r0
 7985 02cc FFF7FEFF 		bl	ILI9341_WriteString
 7986              	.LVL855:
 734:Core/Src/lcd.c **** 
 735:Core/Src/lcd.c ****     ILI9341_WriteString(x0 + graphSizeX + 5 + 10, y0 - 5, Xunit, Font_7x10, ILI9341_WHITE, ILI9341_
 7987              		.loc 1 735 5 view .LVU2521
 7988 02d0 09F10F00 		add	r0, r9, #15
 7989 02d4 0294     		str	r4, [sp, #8]
 7990 02d6 0197     		str	r7, [sp, #4]
ARM GAS  C:\Users\Vento\AppData\Local\Temp\ccDU9lzs.s 			page 195


 7991 02d8 D8F80430 		ldr	r3, [r8, #4]
 7992 02dc 0093     		str	r3, [sp]
 7993 02de D8F80030 		ldr	r3, [r8]
 7994 02e2 259A     		ldr	r2, [sp, #148]
 7995 02e4 0C99     		ldr	r1, [sp, #48]
 7996 02e6 80B2     		uxth	r0, r0
 7997 02e8 FFF7FEFF 		bl	ILI9341_WriteString
 7998              	.LVL856:
 736:Core/Src/lcd.c **** 
 737:Core/Src/lcd.c ****     //================================================= Plot Data =================================
 738:Core/Src/lcd.c ****     for (uint8_t i = 0; i < graphSizeX; i++)
 7999              		.loc 1 738 5 view .LVU2522
 8000              	.LBB811:
 8001              		.loc 1 738 10 view .LVU2523
 8002              		.loc 1 738 10 is_stmt 0 view .LVU2524
 8003 02ec 069F     		ldr	r7, [sp, #24]
 8004 02ee DDF83890 		ldr	r9, [sp, #56]
 8005 02f2 DDF82080 		ldr	r8, [sp, #32]
 8006 02f6 DDF83CA0 		ldr	r10, [sp, #60]
 8007              		.loc 1 738 5 view .LVU2525
 8008 02fa 05E0     		b	.L171
 8009              	.LVL857:
 8010              	.L172:
 739:Core/Src/lcd.c ****     {
 740:Core/Src/lcd.c ****         if ((Ydata[i] >= YlabelMin) && (Ydata[i] <= YlabelMax))
 741:Core/Src/lcd.c ****         {ILI9341_DrawPixel(x0 + i, y0 - (Ydata[i] - Ymin)/DataToPixelRatio, color);}
 742:Core/Src/lcd.c ****         else if (Ydata[i] < YlabelMin)
 8011              		.loc 1 742 14 is_stmt 1 view .LVU2526
 8012              		.loc 1 742 17 is_stmt 0 view .LVU2527
 8013 02fc 5B45     		cmp	r3, fp
 8014 02fe 19D3     		bcc	.L177
 743:Core/Src/lcd.c ****         {ILI9341_DrawPixel(x0 + i, y0, color);}
 744:Core/Src/lcd.c ****         else if (Ydata[i] > YlabelMax)
 8015              		.loc 1 744 14 is_stmt 1 view .LVU2528
 8016              		.loc 1 744 17 is_stmt 0 view .LVU2529
 8017 0300 4345     		cmp	r3, r8
 8018 0302 1ED8     		bhi	.L178
 8019              	.L173:
 738:Core/Src/lcd.c ****     {
 8020              		.loc 1 738 41 is_stmt 1 discriminator 2 view .LVU2530
 738:Core/Src/lcd.c ****     {
 8021              		.loc 1 738 42 is_stmt 0 discriminator 2 view .LVU2531
 8022 0304 0134     		adds	r4, r4, #1
 8023              	.LVL858:
 738:Core/Src/lcd.c ****     {
 8024              		.loc 1 738 42 discriminator 2 view .LVU2532
 8025 0306 E4B2     		uxtb	r4, r4
 8026              	.LVL859:
 8027              	.L171:
 738:Core/Src/lcd.c ****     {
 8028              		.loc 1 738 25 is_stmt 1 discriminator 1 view .LVU2533
 738:Core/Src/lcd.c ****     {
 8029              		.loc 1 738 5 is_stmt 0 discriminator 1 view .LVU2534
 8030 0308 BC42     		cmp	r4, r7
 8031 030a 23D2     		bcs	.L179
 740:Core/Src/lcd.c ****         {ILI9341_DrawPixel(x0 + i, y0 - (Ydata[i] - Ymin)/DataToPixelRatio, color);}
 8032              		.loc 1 740 9 is_stmt 1 view .LVU2535
ARM GAS  C:\Users\Vento\AppData\Local\Temp\ccDU9lzs.s 			page 196


 740:Core/Src/lcd.c ****         {ILI9341_DrawPixel(x0 + i, y0 - (Ydata[i] - Ymin)/DataToPixelRatio, color);}
 8033              		.loc 1 740 19 is_stmt 0 view .LVU2536
 8034 030c 19F80420 		ldrb	r2, [r9, r4]	@ zero_extendqisi2
 8035 0310 93B2     		uxth	r3, r2
 740:Core/Src/lcd.c ****         {ILI9341_DrawPixel(x0 + i, y0 - (Ydata[i] - Ymin)/DataToPixelRatio, color);}
 8036              		.loc 1 740 12 view .LVU2537
 8037 0312 5B45     		cmp	r3, fp
 8038 0314 F2D3     		bcc	.L172
 740:Core/Src/lcd.c ****         {ILI9341_DrawPixel(x0 + i, y0 - (Ydata[i] - Ymin)/DataToPixelRatio, color);}
 8039              		.loc 1 740 37 discriminator 1 view .LVU2538
 8040 0316 4345     		cmp	r3, r8
 8041 0318 F0D8     		bhi	.L172
 741:Core/Src/lcd.c ****         else if (Ydata[i] < YlabelMin)
 8042              		.loc 1 741 10 is_stmt 1 view .LVU2539
 741:Core/Src/lcd.c ****         else if (Ydata[i] < YlabelMin)
 8043              		.loc 1 741 51 is_stmt 0 view .LVU2540
 8044 031a 0A9B     		ldr	r3, [sp, #40]
 8045 031c D11A     		subs	r1, r2, r3
 741:Core/Src/lcd.c ****         else if (Ydata[i] < YlabelMin)
 8046              		.loc 1 741 58 view .LVU2541
 8047 031e 0B9B     		ldr	r3, [sp, #44]
 8048 0320 91FBF3F1 		sdiv	r1, r1, r3
 741:Core/Src/lcd.c ****         else if (Ydata[i] < YlabelMin)
 8049              		.loc 1 741 10 view .LVU2542
 8050 0324 711A     		subs	r1, r6, r1
 8051 0326 2819     		adds	r0, r5, r4
 8052 0328 5246     		mov	r2, r10
 8053 032a 89B2     		uxth	r1, r1
 8054 032c 80B2     		uxth	r0, r0
 8055 032e FFF7FEFF 		bl	ILI9341_DrawPixel
 8056              	.LVL860:
 8057 0332 E7E7     		b	.L173
 8058              	.L177:
 743:Core/Src/lcd.c ****         else if (Ydata[i] > YlabelMax)
 8059              		.loc 1 743 10 is_stmt 1 view .LVU2543
 8060 0334 2819     		adds	r0, r5, r4
 8061 0336 5246     		mov	r2, r10
 8062 0338 3146     		mov	r1, r6
 8063 033a 80B2     		uxth	r0, r0
 8064 033c FFF7FEFF 		bl	ILI9341_DrawPixel
 8065              	.LVL861:
 8066 0340 E0E7     		b	.L173
 8067              	.L178:
 745:Core/Src/lcd.c ****         {ILI9341_DrawPixel(x0 + i, y0 + graphSizeY, color);}
 8068              		.loc 1 745 10 view .LVU2544
 8069 0342 099B     		ldr	r3, [sp, #36]
 8070 0344 9919     		adds	r1, r3, r6
 8071 0346 2819     		adds	r0, r5, r4
 8072 0348 5246     		mov	r2, r10
 8073 034a 89B2     		uxth	r1, r1
 8074 034c 80B2     		uxth	r0, r0
 8075 034e FFF7FEFF 		bl	ILI9341_DrawPixel
 8076              	.LVL862:
 8077 0352 D7E7     		b	.L173
 8078              	.L179:
 8079              	.LBE811:
 746:Core/Src/lcd.c ****         
ARM GAS  C:\Users\Vento\AppData\Local\Temp\ccDU9lzs.s 			page 197


 747:Core/Src/lcd.c ****     }
 748:Core/Src/lcd.c **** }
 8080              		.loc 1 748 1 is_stmt 0 view .LVU2545
 8081 0354 13B0     		add	sp, sp, #76
 8082              	.LCFI58:
 8083              		.cfi_def_cfa_offset 36
 8084              		@ sp needed
 8085 0356 BDE8F08F 		pop	{r4, r5, r6, r7, r8, r9, r10, fp, pc}
 8086              	.LVL863:
 8087              	.L181:
 8088              		.loc 1 748 1 view .LVU2546
 8089 035a 00BF     		.align	2
 8090              	.L180:
 8091 035c 00000000 		.word	Font_7x10
 8092              		.cfi_endproc
 8093              	.LFE91:
 8095              		.text
 8096              	.Letext0:
 8097              		.file 2 "d:\\tools\\gcc-arm-none-eabi-10.3-2021.07\\arm-none-eabi\\include\\machine\\_default_type
 8098              		.file 3 "d:\\tools\\gcc-arm-none-eabi-10.3-2021.07\\arm-none-eabi\\include\\sys\\_stdint.h"
 8099              		.file 4 "Core/Inc/font.h"
 8100              		.file 5 "Drivers/CMSIS/Device/ST/STM32F1xx/Include/stm32f103xe.h"
 8101              		.file 6 "d:\\tools\\gcc-arm-none-eabi-10.3-2021.07\\lib\\gcc\\arm-none-eabi\\10.3.1\\include\\stdd
 8102              		.file 7 "Drivers/CMSIS/Device/ST/STM32F1xx/Include/stm32f1xx.h"
 8103              		.file 8 "Drivers/STM32F1xx_HAL_Driver/Inc/stm32f1xx_hal_gpio.h"
 8104              		.file 9 "Core/Inc/common.h"
 8105              		.file 10 "Drivers/STM32F1xx_HAL_Driver/Inc/stm32f1xx_hal.h"
ARM GAS  C:\Users\Vento\AppData\Local\Temp\ccDU9lzs.s 			page 198


DEFINED SYMBOLS
                            *ABS*:00000000 lcd.c
C:\Users\Vento\AppData\Local\Temp\ccDU9lzs.s:16     .text._swap:00000000 $t
C:\Users\Vento\AppData\Local\Temp\ccDU9lzs.s:23     .text._swap:00000000 _swap
C:\Users\Vento\AppData\Local\Temp\ccDU9lzs.s:57     .text.sqrt_t:00000000 $t
C:\Users\Vento\AppData\Local\Temp\ccDU9lzs.s:63     .text.sqrt_t:00000000 sqrt_t
C:\Users\Vento\AppData\Local\Temp\ccDU9lzs.s:148    .text.sqrt_t:00000050 $d
C:\Users\Vento\AppData\Local\Temp\ccDU9lzs.s:154    .text.ILI9341_WriteData:00000000 $t
C:\Users\Vento\AppData\Local\Temp\ccDU9lzs.s:160    .text.ILI9341_WriteData:00000000 ILI9341_WriteData
C:\Users\Vento\AppData\Local\Temp\ccDU9lzs.s:278    .text.ILI9341_WriteData:00000058 $d
C:\Users\Vento\AppData\Local\Temp\ccDU9lzs.s:283    .text.ILI9341_SetAddressWindow:00000000 $t
C:\Users\Vento\AppData\Local\Temp\ccDU9lzs.s:289    .text.ILI9341_SetAddressWindow:00000000 ILI9341_SetAddressWindow
C:\Users\Vento\AppData\Local\Temp\ccDU9lzs.s:519    .text.ILI9341_SetAddressWindow:000000e8 $d
C:\Users\Vento\AppData\Local\Temp\ccDU9lzs.s:524    .text.ILI9341_WriteChar:00000000 $t
C:\Users\Vento\AppData\Local\Temp\ccDU9lzs.s:530    .text.ILI9341_WriteChar:00000000 ILI9341_WriteChar
C:\Users\Vento\AppData\Local\Temp\ccDU9lzs.s:683    .text.ILI9341_LCD_LED:00000000 $t
C:\Users\Vento\AppData\Local\Temp\ccDU9lzs.s:690    .text.ILI9341_LCD_LED:00000000 ILI9341_LCD_LED
C:\Users\Vento\AppData\Local\Temp\ccDU9lzs.s:732    .text.ILI9341_LCD_LED:0000001c $d
C:\Users\Vento\AppData\Local\Temp\ccDU9lzs.s:737    .text.ILI9341_Unselect:00000000 $t
C:\Users\Vento\AppData\Local\Temp\ccDU9lzs.s:744    .text.ILI9341_Unselect:00000000 ILI9341_Unselect
C:\Users\Vento\AppData\Local\Temp\ccDU9lzs.s:766    .text.ILI9341_Unselect:00000010 $d
C:\Users\Vento\AppData\Local\Temp\ccDU9lzs.s:771    .text.ILI9341_DrawPixel:00000000 $t
C:\Users\Vento\AppData\Local\Temp\ccDU9lzs.s:778    .text.ILI9341_DrawPixel:00000000 ILI9341_DrawPixel
C:\Users\Vento\AppData\Local\Temp\ccDU9lzs.s:887    .text.ILI9341_DrawPixel:00000058 $d
C:\Users\Vento\AppData\Local\Temp\ccDU9lzs.s:892    .text.ILI9341_DrawLine:00000000 $t
C:\Users\Vento\AppData\Local\Temp\ccDU9lzs.s:899    .text.ILI9341_DrawLine:00000000 ILI9341_DrawLine
C:\Users\Vento\AppData\Local\Temp\ccDU9lzs.s:1103   .text.ILI9341_WriteString:00000000 $t
C:\Users\Vento\AppData\Local\Temp\ccDU9lzs.s:1110   .text.ILI9341_WriteString:00000000 ILI9341_WriteString
C:\Users\Vento\AppData\Local\Temp\ccDU9lzs.s:1271   .text.ILI9341_WriteString:00000084 $d
C:\Users\Vento\AppData\Local\Temp\ccDU9lzs.s:1276   .text.ILI9341_DrawRectangle:00000000 $t
C:\Users\Vento\AppData\Local\Temp\ccDU9lzs.s:1283   .text.ILI9341_DrawRectangle:00000000 ILI9341_DrawRectangle
C:\Users\Vento\AppData\Local\Temp\ccDU9lzs.s:1356   .text.ILI9341_FillRectangle:00000000 $t
C:\Users\Vento\AppData\Local\Temp\ccDU9lzs.s:1363   .text.ILI9341_FillRectangle:00000000 ILI9341_FillRectangle
C:\Users\Vento\AppData\Local\Temp\ccDU9lzs.s:1638   .text.ILI9341_FillRectangle:00000120 $d
C:\Users\Vento\AppData\Local\Temp\ccDU9lzs.s:1643   .text.ILI9341_FillScreen:00000000 $t
C:\Users\Vento\AppData\Local\Temp\ccDU9lzs.s:1650   .text.ILI9341_FillScreen:00000000 ILI9341_FillScreen
C:\Users\Vento\AppData\Local\Temp\ccDU9lzs.s:1685   .text.ILI9341_Init:00000000 $t
C:\Users\Vento\AppData\Local\Temp\ccDU9lzs.s:1692   .text.ILI9341_Init:00000000 ILI9341_Init
C:\Users\Vento\AppData\Local\Temp\ccDU9lzs.s:2712   .text.ILI9341_Init:000003b4 $d
C:\Users\Vento\AppData\Local\Temp\ccDU9lzs.s:2716   .text.ILI9341_Init:000003c0 $t
C:\Users\Vento\AppData\Local\Temp\ccDU9lzs.s:6221   .text.ILI9341_Init:00001060 $d
C:\Users\Vento\AppData\Local\Temp\ccDU9lzs.s:6226   .text.ILI9341_DrawImage:00000000 $t
C:\Users\Vento\AppData\Local\Temp\ccDU9lzs.s:6233   .text.ILI9341_DrawImage:00000000 ILI9341_DrawImage
C:\Users\Vento\AppData\Local\Temp\ccDU9lzs.s:6352   .text.ILI9341_DrawImage:0000006c $d
C:\Users\Vento\AppData\Local\Temp\ccDU9lzs.s:6359   .text.ILI9341_InvertColors:00000000 $t
C:\Users\Vento\AppData\Local\Temp\ccDU9lzs.s:6366   .text.ILI9341_InvertColors:00000000 ILI9341_InvertColors
C:\Users\Vento\AppData\Local\Temp\ccDU9lzs.s:6477   .text.ILI9341_InvertColors:00000058 $d
C:\Users\Vento\AppData\Local\Temp\ccDU9lzs.s:6482   .text.ILI9341_DrawTriangle:00000000 $t
C:\Users\Vento\AppData\Local\Temp\ccDU9lzs.s:6489   .text.ILI9341_DrawTriangle:00000000 ILI9341_DrawTriangle
C:\Users\Vento\AppData\Local\Temp\ccDU9lzs.s:6549   .text.ILI9341_FillTriangle:00000000 $t
C:\Users\Vento\AppData\Local\Temp\ccDU9lzs.s:6556   .text.ILI9341_FillTriangle:00000000 ILI9341_FillTriangle
C:\Users\Vento\AppData\Local\Temp\ccDU9lzs.s:6955   .text.ILI9341_DrawCircle:00000000 $t
C:\Users\Vento\AppData\Local\Temp\ccDU9lzs.s:6962   .text.ILI9341_DrawCircle:00000000 ILI9341_DrawCircle
C:\Users\Vento\AppData\Local\Temp\ccDU9lzs.s:7078   .text.ILI9341_FillCircle:00000000 $t
C:\Users\Vento\AppData\Local\Temp\ccDU9lzs.s:7085   .text.ILI9341_FillCircle:00000000 ILI9341_FillCircle
C:\Users\Vento\AppData\Local\Temp\ccDU9lzs.s:7175   .text.ILI9341_PlotTimeGraph32:00000000 $t
C:\Users\Vento\AppData\Local\Temp\ccDU9lzs.s:7182   .text.ILI9341_PlotTimeGraph32:00000000 ILI9341_PlotTimeGraph32
ARM GAS  C:\Users\Vento\AppData\Local\Temp\ccDU9lzs.s 			page 199


C:\Users\Vento\AppData\Local\Temp\ccDU9lzs.s:7630   .text.ILI9341_PlotTimeGraph32:00000358 $d
C:\Users\Vento\AppData\Local\Temp\ccDU9lzs.s:7635   .text.ILI9341_PlotTimeGraph8:00000000 $t
C:\Users\Vento\AppData\Local\Temp\ccDU9lzs.s:7642   .text.ILI9341_PlotTimeGraph8:00000000 ILI9341_PlotTimeGraph8
C:\Users\Vento\AppData\Local\Temp\ccDU9lzs.s:8091   .text.ILI9341_PlotTimeGraph8:0000035c $d

UNDEFINED SYMBOLS
__aeabi_i2d
__aeabi_ddiv
__aeabi_dadd
__aeabi_dmul
__aeabi_dcmpeq
__aeabi_d2iz
HAL_GPIO_WritePin
HAL_Delay
intToStr
Font_7x10
