ARM GAS  C:\Users\Vento\AppData\Local\Temp\ccDU9lzs.s 			page 1


   1              		.cpu cortex-m3
   2              		.eabi_attribute 20, 1
   3              		.eabi_attribute 21, 1
   4              		.eabi_attribute 23, 3
   5              		.eabi_attribute 24, 1
   6              		.eabi_attribute 25, 1
   7              		.eabi_attribute 26, 1
   8              		.eabi_attribute 30, 1
   9              		.eabi_attribute 34, 1
  10              		.eabi_attribute 18, 4
  11              		.file	"lcd.c"
  12              		.text
  13              	.Ltext0:
  14              		.cfi_sections	.debug_frame
  15              		.section	.text._swap,"ax",%progbits
  16              		.align	1
  17              		.arch armv7-m
  18              		.syntax unified
  19              		.thumb
  20              		.thumb_func
  21              		.fpu softvfp
  23              	_swap:
  24              	.LVL0:
  25              	.LFB85:
  26              		.file 1 "Core/Src/lcd.c"
   1:Core/Src/lcd.c **** /**
   2:Core/Src/lcd.c ****  * @file lcd.c
   3:Core/Src/lcd.c ****  * @author Vento (zseefvhu12345@gmail.com)
   4:Core/Src/lcd.c ****  * @brief 
   5:Core/Src/lcd.c ****  * @version 1.0
   6:Core/Src/lcd.c ****  * @date 17-07_2023
   7:Core/Src/lcd.c ****  * 
   8:Core/Src/lcd.c ****  * @copyright Copyright (c) 2023
   9:Core/Src/lcd.c ****  * 
  10:Core/Src/lcd.c ****  */
  11:Core/Src/lcd.c **** 
  12:Core/Src/lcd.c **** 
  13:Core/Src/lcd.c **** #include "lcd.h"
  14:Core/Src/lcd.c **** 
  15:Core/Src/lcd.c **** #include "common.h"
  16:Core/Src/lcd.c **** #include "string.h"
  17:Core/Src/lcd.c **** 
  18:Core/Src/lcd.c **** 
  19:Core/Src/lcd.c **** 
  20:Core/Src/lcd.c **** inline void ILI9341_LCD_LED(bool state)
  21:Core/Src/lcd.c **** {
  22:Core/Src/lcd.c ****     if (state == true)
  23:Core/Src/lcd.c ****         HAL_GPIO_WritePin(ILI9341_LED_GPIO_Port, ILI9341_LED_Pin, SET);
  24:Core/Src/lcd.c ****     else
  25:Core/Src/lcd.c ****         HAL_GPIO_WritePin(ILI9341_LED_GPIO_Port, ILI9341_LED_Pin, RESET);
  26:Core/Src/lcd.c **** }
  27:Core/Src/lcd.c **** 
  28:Core/Src/lcd.c **** inline static void ILI9341_Select()
  29:Core/Src/lcd.c **** {
  30:Core/Src/lcd.c ****     HAL_GPIO_WritePin(ILI9341_CS_GPIO_Port, ILI9341_CS_Pin, GPIO_PIN_RESET);
  31:Core/Src/lcd.c **** }
  32:Core/Src/lcd.c **** 
ARM GAS  C:\Users\Vento\AppData\Local\Temp\ccDU9lzs.s 			page 2


  33:Core/Src/lcd.c **** inline void ILI9341_Unselect()
  34:Core/Src/lcd.c **** {
  35:Core/Src/lcd.c ****     HAL_GPIO_WritePin(ILI9341_CS_GPIO_Port, ILI9341_CS_Pin, GPIO_PIN_SET);
  36:Core/Src/lcd.c **** }
  37:Core/Src/lcd.c **** 
  38:Core/Src/lcd.c **** inline static void ILI9341_Reset()
  39:Core/Src/lcd.c **** {
  40:Core/Src/lcd.c ****     HAL_GPIO_WritePin(ILI9341_RES_GPIO_Port, ILI9341_RES_Pin, GPIO_PIN_RESET);
  41:Core/Src/lcd.c ****     HAL_Delay(200);
  42:Core/Src/lcd.c ****     HAL_GPIO_WritePin(ILI9341_RES_GPIO_Port, ILI9341_RES_Pin, GPIO_PIN_SET);
  43:Core/Src/lcd.c ****     HAL_Delay(200);
  44:Core/Src/lcd.c **** }
  45:Core/Src/lcd.c **** 
  46:Core/Src/lcd.c **** inline static void ILI9341_SetData(uint8_t data)
  47:Core/Src/lcd.c **** {
  48:Core/Src/lcd.c ****     uint8_t temp_Bit2nd_Data = data & 0x02;
  49:Core/Src/lcd.c ****     uint8_t temp_Bit3rd_Data = data & 0x04;
  50:Core/Src/lcd.c ****     data &= ~0x06;
  51:Core/Src/lcd.c ****     data |= (uint8_t)((temp_Bit2nd_Data << 1) | (temp_Bit3rd_Data >> 1));
  52:Core/Src/lcd.c **** 
  53:Core/Src/lcd.c ****     uint32_t tempReg =  (uint32_t)DATA_PORT->ODR;
  54:Core/Src/lcd.c ****     tempReg &= 0xFFFFFF00;
  55:Core/Src/lcd.c ****     tempReg |= (uint32_t)data;
  56:Core/Src/lcd.c ****     DATA_PORT->ODR = tempReg;
  57:Core/Src/lcd.c **** 
  58:Core/Src/lcd.c ****     // HAL_GPIO_WritePin(DB8_PORT,  DB8,  (data >> 0x00U) & 0x01U);
  59:Core/Src/lcd.c ****     // HAL_GPIO_WritePin(DB9_PORT,  DB9,  (data >> 0x01U) & 0x01U);
  60:Core/Src/lcd.c ****     // HAL_GPIO_WritePin(DB10_PORT, DB10, (data >> 0x02U) & 0x01U);
  61:Core/Src/lcd.c ****     // HAL_GPIO_WritePin(DB11_PORT, DB11, (data >> 0x03U) & 0x01U);
  62:Core/Src/lcd.c ****     // HAL_GPIO_WritePin(DB12_PORT, DB12, (data >> 0x04U) & 0x01U);
  63:Core/Src/lcd.c ****     // HAL_GPIO_WritePin(DB13_PORT, DB13, (data >> 0x05U) & 0x01U);
  64:Core/Src/lcd.c ****     // HAL_GPIO_WritePin(DB14_PORT, DB14, (data >> 0x06U) & 0x01U);
  65:Core/Src/lcd.c ****     // HAL_GPIO_WritePin(DB15_PORT, DB15, (data >> 0x07U) & 0x01U);
  66:Core/Src/lcd.c **** 
  67:Core/Src/lcd.c ****     HAL_GPIO_WritePin(ILI9341_WR_GPIO_Port, ILI9341_WR_Pin, GPIO_PIN_RESET);
  68:Core/Src/lcd.c ****     HAL_GPIO_WritePin(ILI9341_WR_GPIO_Port, ILI9341_WR_Pin, GPIO_PIN_SET);
  69:Core/Src/lcd.c **** }
  70:Core/Src/lcd.c **** 
  71:Core/Src/lcd.c **** inline static void ILI9341_WriteCommand(uint8_t cmd)
  72:Core/Src/lcd.c **** {
  73:Core/Src/lcd.c ****     // ILI9341_Select();
  74:Core/Src/lcd.c ****     HAL_GPIO_WritePin(ILI9341_DC_GPIO_Port, ILI9341_DC_Pin, GPIO_PIN_RESET);
  75:Core/Src/lcd.c ****     ILI9341_SetData(cmd);
  76:Core/Src/lcd.c ****     // ILI9341_Unselect();
  77:Core/Src/lcd.c **** }
  78:Core/Src/lcd.c **** 
  79:Core/Src/lcd.c **** inline static void ILI9341_Write_Data(uint8_t data)
  80:Core/Src/lcd.c **** {
  81:Core/Src/lcd.c ****     // ILI9341_Select();
  82:Core/Src/lcd.c ****     HAL_GPIO_WritePin(ILI9341_DC_GPIO_Port, ILI9341_DC_Pin, GPIO_PIN_SET);
  83:Core/Src/lcd.c ****     ILI9341_SetData(data);
  84:Core/Src/lcd.c ****     // ILI9341_Unselect();
  85:Core/Src/lcd.c **** }
  86:Core/Src/lcd.c **** 
  87:Core/Src/lcd.c **** static void ILI9341_WriteData(uint8_t* buff, size_t buff_size)
  88:Core/Src/lcd.c **** {
  89:Core/Src/lcd.c ****     // ILI9341_Select();
ARM GAS  C:\Users\Vento\AppData\Local\Temp\ccDU9lzs.s 			page 3


  90:Core/Src/lcd.c ****     HAL_GPIO_WritePin(ILI9341_DC_GPIO_Port, ILI9341_DC_Pin, GPIO_PIN_SET);
  91:Core/Src/lcd.c **** 
  92:Core/Src/lcd.c ****     for (int i = 0; i < buff_size; i++)
  93:Core/Src/lcd.c ****     {
  94:Core/Src/lcd.c ****         ILI9341_SetData(buff[i]);
  95:Core/Src/lcd.c ****     }
  96:Core/Src/lcd.c ****     // ILI9341_Unselect();
  97:Core/Src/lcd.c **** }
  98:Core/Src/lcd.c **** 
  99:Core/Src/lcd.c **** static void ILI9341_SetAddressWindow(uint16_t x0, uint16_t y0, uint16_t x1, uint16_t y1)
 100:Core/Src/lcd.c **** {
 101:Core/Src/lcd.c ****     // column address set
 102:Core/Src/lcd.c ****     ILI9341_WriteCommand(0x2A); // CASET
 103:Core/Src/lcd.c ****     {
 104:Core/Src/lcd.c ****         uint8_t data[] = { (x0 >> 8) & 0xFF, x0 & 0xFF, (x1 >> 8) & 0xFF, x1 & 0xFF };
 105:Core/Src/lcd.c ****         ILI9341_WriteData(data, sizeof(data));
 106:Core/Src/lcd.c ****     }
 107:Core/Src/lcd.c **** 
 108:Core/Src/lcd.c ****     // row address set
 109:Core/Src/lcd.c ****     ILI9341_WriteCommand(0x2B); // RASET
 110:Core/Src/lcd.c ****     {
 111:Core/Src/lcd.c ****         uint8_t data[] = { (y0 >> 8) & 0xFF, y0 & 0xFF, (y1 >> 8) & 0xFF, y1 & 0xFF };
 112:Core/Src/lcd.c ****         ILI9341_WriteData(data, sizeof(data));
 113:Core/Src/lcd.c ****     }
 114:Core/Src/lcd.c **** 
 115:Core/Src/lcd.c ****     // write to RAM
 116:Core/Src/lcd.c ****     ILI9341_WriteCommand(0x2C); // RAMWR
 117:Core/Src/lcd.c **** }
 118:Core/Src/lcd.c **** 
 119:Core/Src/lcd.c **** void ILI9341_Init()
 120:Core/Src/lcd.c **** {
 121:Core/Src/lcd.c ****     ILI9341_LCD_LED(false);
 122:Core/Src/lcd.c ****     HAL_GPIO_WritePin(ILI9341_WR_GPIO_Port, ILI9341_WR_Pin, GPIO_PIN_SET);
 123:Core/Src/lcd.c ****     HAL_GPIO_WritePin(ILI9341_RD_GPIO_Port, ILI9341_RD_Pin, GPIO_PIN_SET);
 124:Core/Src/lcd.c **** 
 125:Core/Src/lcd.c ****     ILI9341_Select();
 126:Core/Src/lcd.c **** 
 127:Core/Src/lcd.c ****     ILI9341_Reset();
 128:Core/Src/lcd.c **** 
 129:Core/Src/lcd.c ****     // SOFTWARE RESET
 130:Core/Src/lcd.c ****     ILI9341_WriteCommand(0x01);
 131:Core/Src/lcd.c ****     HAL_Delay(200);
 132:Core/Src/lcd.c ****     
 133:Core/Src/lcd.c ****     // command list is based on https://github.com/martnak/STM32-ILI9341
 134:Core/Src/lcd.c **** 	
 135:Core/Src/lcd.c ****     //POWER CONTROL A
 136:Core/Src/lcd.c ****     ILI9341_WriteCommand(0xCB);
 137:Core/Src/lcd.c ****     ILI9341_Write_Data(0x39);
 138:Core/Src/lcd.c ****     ILI9341_Write_Data(0x2C);
 139:Core/Src/lcd.c ****     ILI9341_Write_Data(0x00);
 140:Core/Src/lcd.c ****     ILI9341_Write_Data(0x34);
 141:Core/Src/lcd.c ****     ILI9341_Write_Data(0x02);
 142:Core/Src/lcd.c **** 
 143:Core/Src/lcd.c ****     //POWER CONTROL B
 144:Core/Src/lcd.c ****     ILI9341_WriteCommand(0xCF);
 145:Core/Src/lcd.c ****     ILI9341_Write_Data(0x00);
 146:Core/Src/lcd.c ****     ILI9341_Write_Data(0xC1);
ARM GAS  C:\Users\Vento\AppData\Local\Temp\ccDU9lzs.s 			page 4


 147:Core/Src/lcd.c ****     ILI9341_Write_Data(0x30);
 148:Core/Src/lcd.c **** 
 149:Core/Src/lcd.c ****     //DRIVER TIMING CONTROL A
 150:Core/Src/lcd.c ****     ILI9341_WriteCommand(0xE8);
 151:Core/Src/lcd.c ****     ILI9341_Write_Data(0x85);
 152:Core/Src/lcd.c ****     ILI9341_Write_Data(0x00);
 153:Core/Src/lcd.c ****     ILI9341_Write_Data(0x78);
 154:Core/Src/lcd.c **** 
 155:Core/Src/lcd.c ****     //DRIVER TIMING CONTROL B
 156:Core/Src/lcd.c ****     ILI9341_WriteCommand(0xEA);
 157:Core/Src/lcd.c ****     ILI9341_Write_Data(0x00);
 158:Core/Src/lcd.c ****     ILI9341_Write_Data(0x00);
 159:Core/Src/lcd.c **** 
 160:Core/Src/lcd.c ****     //POWER ON SEQUENCE CONTROL
 161:Core/Src/lcd.c ****     ILI9341_WriteCommand(0xED);
 162:Core/Src/lcd.c ****     ILI9341_Write_Data(0x64);
 163:Core/Src/lcd.c ****     ILI9341_Write_Data(0x03);
 164:Core/Src/lcd.c ****     ILI9341_Write_Data(0x12);
 165:Core/Src/lcd.c ****     ILI9341_Write_Data(0x81);
 166:Core/Src/lcd.c **** 
 167:Core/Src/lcd.c ****     //PUMP RATIO CONTROL
 168:Core/Src/lcd.c ****     ILI9341_WriteCommand(0xF7);
 169:Core/Src/lcd.c ****     ILI9341_Write_Data(0x20);
 170:Core/Src/lcd.c **** 
 171:Core/Src/lcd.c ****     //POWER CONTROL,VRH[5:0]
 172:Core/Src/lcd.c ****     ILI9341_WriteCommand(0xC0);
 173:Core/Src/lcd.c ****     ILI9341_Write_Data(0x23);
 174:Core/Src/lcd.c **** 
 175:Core/Src/lcd.c ****     //POWER CONTROL,SAP[2:0];BT[3:0]
 176:Core/Src/lcd.c ****     ILI9341_WriteCommand(0xC1);
 177:Core/Src/lcd.c ****     ILI9341_Write_Data(0x10);
 178:Core/Src/lcd.c **** 
 179:Core/Src/lcd.c ****     //VCM CONTROL
 180:Core/Src/lcd.c ****     ILI9341_WriteCommand(0xC5);
 181:Core/Src/lcd.c ****     ILI9341_Write_Data(0x3E);
 182:Core/Src/lcd.c ****     ILI9341_Write_Data(0x28);
 183:Core/Src/lcd.c **** 
 184:Core/Src/lcd.c ****     //VCM CONTROL 2
 185:Core/Src/lcd.c ****     ILI9341_WriteCommand(0xC7);
 186:Core/Src/lcd.c ****     ILI9341_Write_Data(0x86);
 187:Core/Src/lcd.c **** 
 188:Core/Src/lcd.c ****     //MEMORY ACCESS CONTROL
 189:Core/Src/lcd.c ****     ILI9341_WriteCommand(0x36);
 190:Core/Src/lcd.c ****     ILI9341_Write_Data(0x48);
 191:Core/Src/lcd.c **** 
 192:Core/Src/lcd.c ****     //PIXEL FORMAT
 193:Core/Src/lcd.c ****     ILI9341_WriteCommand(0x3A);
 194:Core/Src/lcd.c ****     ILI9341_Write_Data(0x55);
 195:Core/Src/lcd.c **** 
 196:Core/Src/lcd.c ****     //FRAME RATIO CONTROL, STANDARD RGB COLOR
 197:Core/Src/lcd.c ****     ILI9341_WriteCommand(0xB1);
 198:Core/Src/lcd.c ****     ILI9341_Write_Data(0x00);
 199:Core/Src/lcd.c ****     ILI9341_Write_Data(0x18);
 200:Core/Src/lcd.c **** 
 201:Core/Src/lcd.c ****     //DISPLAY FUNCTION CONTROL
 202:Core/Src/lcd.c ****     ILI9341_WriteCommand(0xB6);
 203:Core/Src/lcd.c ****     ILI9341_Write_Data(0x08);
ARM GAS  C:\Users\Vento\AppData\Local\Temp\ccDU9lzs.s 			page 5


 204:Core/Src/lcd.c ****     ILI9341_Write_Data(0x82);
 205:Core/Src/lcd.c ****     ILI9341_Write_Data(0x27);
 206:Core/Src/lcd.c **** 
 207:Core/Src/lcd.c ****     //3GAMMA FUNCTION DISABLE
 208:Core/Src/lcd.c ****     ILI9341_WriteCommand(0xF2);
 209:Core/Src/lcd.c ****     ILI9341_Write_Data(0x00);
 210:Core/Src/lcd.c **** 
 211:Core/Src/lcd.c ****     //GAMMA CURVE SELECTED
 212:Core/Src/lcd.c ****     ILI9341_WriteCommand(0x26);
 213:Core/Src/lcd.c ****     ILI9341_Write_Data(0x01);
 214:Core/Src/lcd.c **** 
 215:Core/Src/lcd.c ****     //POSITIVE GAMMA CORRECTION
 216:Core/Src/lcd.c ****     ILI9341_WriteCommand(0xE0);
 217:Core/Src/lcd.c ****     ILI9341_Write_Data(0x0F);
 218:Core/Src/lcd.c ****     ILI9341_Write_Data(0x31);
 219:Core/Src/lcd.c ****     ILI9341_Write_Data(0x2B);
 220:Core/Src/lcd.c ****     ILI9341_Write_Data(0x0C);
 221:Core/Src/lcd.c ****     ILI9341_Write_Data(0x0E);
 222:Core/Src/lcd.c ****     ILI9341_Write_Data(0x08);
 223:Core/Src/lcd.c ****     ILI9341_Write_Data(0x4E);
 224:Core/Src/lcd.c ****     ILI9341_Write_Data(0xF1);
 225:Core/Src/lcd.c ****     ILI9341_Write_Data(0x37);
 226:Core/Src/lcd.c ****     ILI9341_Write_Data(0x07);
 227:Core/Src/lcd.c ****     ILI9341_Write_Data(0x10);
 228:Core/Src/lcd.c ****     ILI9341_Write_Data(0x03);
 229:Core/Src/lcd.c ****     ILI9341_Write_Data(0x0E);
 230:Core/Src/lcd.c ****     ILI9341_Write_Data(0x09);
 231:Core/Src/lcd.c ****     ILI9341_Write_Data(0x00);
 232:Core/Src/lcd.c **** 
 233:Core/Src/lcd.c ****     //NEGATIVE GAMMA CORRECTION
 234:Core/Src/lcd.c ****     ILI9341_WriteCommand(0xE1);
 235:Core/Src/lcd.c ****     ILI9341_Write_Data(0x00);
 236:Core/Src/lcd.c ****     ILI9341_Write_Data(0x0E);
 237:Core/Src/lcd.c ****     ILI9341_Write_Data(0x14);
 238:Core/Src/lcd.c ****     ILI9341_Write_Data(0x03);
 239:Core/Src/lcd.c ****     ILI9341_Write_Data(0x11);
 240:Core/Src/lcd.c ****     ILI9341_Write_Data(0x07);
 241:Core/Src/lcd.c ****     ILI9341_Write_Data(0x31);
 242:Core/Src/lcd.c ****     ILI9341_Write_Data(0xC1);
 243:Core/Src/lcd.c ****     ILI9341_Write_Data(0x48);
 244:Core/Src/lcd.c ****     ILI9341_Write_Data(0x08);
 245:Core/Src/lcd.c ****     ILI9341_Write_Data(0x0F);
 246:Core/Src/lcd.c ****     ILI9341_Write_Data(0x0C);
 247:Core/Src/lcd.c ****     ILI9341_Write_Data(0x31);
 248:Core/Src/lcd.c ****     ILI9341_Write_Data(0x36);
 249:Core/Src/lcd.c ****     ILI9341_Write_Data(0x0F);
 250:Core/Src/lcd.c **** 
 251:Core/Src/lcd.c ****     //EXIT SLEEP
 252:Core/Src/lcd.c ****     ILI9341_WriteCommand(0x11);
 253:Core/Src/lcd.c ****     HAL_Delay(120);
 254:Core/Src/lcd.c **** 
 255:Core/Src/lcd.c ****     //TURN ON DISPLAY
 256:Core/Src/lcd.c ****     ILI9341_WriteCommand(0x29);
 257:Core/Src/lcd.c **** 
 258:Core/Src/lcd.c ****     // DIRECTION
 259:Core/Src/lcd.c ****     ILI9341_WriteCommand(0x36);
 260:Core/Src/lcd.c ****     ILI9341_Write_Data(ILI9341_ROTATION);
ARM GAS  C:\Users\Vento\AppData\Local\Temp\ccDU9lzs.s 			page 6


 261:Core/Src/lcd.c **** 
 262:Core/Src/lcd.c ****     ILI9341_Unselect();
 263:Core/Src/lcd.c **** 
 264:Core/Src/lcd.c ****     // ILI9341_FillScreen(ILI9341_WHITE);
 265:Core/Src/lcd.c ****     ILI9341_FillScreen(ILI9341_BLACK);
 266:Core/Src/lcd.c ****     ILI9341_LCD_LED(true);
 267:Core/Src/lcd.c **** }
 268:Core/Src/lcd.c **** 
 269:Core/Src/lcd.c **** void ILI9341_DrawPixel(uint16_t x, uint16_t y, uint16_t color)
 270:Core/Src/lcd.c **** {
 271:Core/Src/lcd.c ****     if((x >= ILI9341_WIDTH) || (y >= ILI9341_HEIGHT))
 272:Core/Src/lcd.c ****         return;
 273:Core/Src/lcd.c **** 
 274:Core/Src/lcd.c ****     ILI9341_Select();
 275:Core/Src/lcd.c **** 
 276:Core/Src/lcd.c ****     ILI9341_SetAddressWindow(x, y, x+1, y+1);
 277:Core/Src/lcd.c ****     uint8_t data[] = { color >> 8, color & 0xFF };
 278:Core/Src/lcd.c ****     ILI9341_WriteData(data, sizeof(data));
 279:Core/Src/lcd.c **** 
 280:Core/Src/lcd.c ****     ILI9341_Unselect();
 281:Core/Src/lcd.c **** }
 282:Core/Src/lcd.c **** 
 283:Core/Src/lcd.c **** void ILI9341_DrawLine(uint16_t x1, uint16_t y1, uint16_t x2, uint16_t y2, uint16_t color)
 284:Core/Src/lcd.c **** {
 285:Core/Src/lcd.c ****     uint16_t t; 
 286:Core/Src/lcd.c **** 	int xerr = 0, yerr = 0, delta_x, delta_y, distance; 
 287:Core/Src/lcd.c **** 	int incx, incy, uRow, uCol;
 288:Core/Src/lcd.c **** 
 289:Core/Src/lcd.c **** 	delta_x = x2 - x1;
 290:Core/Src/lcd.c **** 	delta_y = y2 - y1; 
 291:Core/Src/lcd.c **** 	uRow = x1; 
 292:Core/Src/lcd.c **** 	uCol = y1;
 293:Core/Src/lcd.c **** 
 294:Core/Src/lcd.c **** 	if (delta_x > 0)
 295:Core/Src/lcd.c ****         incx = 1;
 296:Core/Src/lcd.c **** 	else if (delta_x == 0)
 297:Core/Src/lcd.c ****         incx = 0;
 298:Core/Src/lcd.c **** 	else 
 299:Core/Src/lcd.c ****     {
 300:Core/Src/lcd.c ****         incx = -1;
 301:Core/Src/lcd.c ****         delta_x = -delta_x;
 302:Core/Src/lcd.c ****     } 
 303:Core/Src/lcd.c **** 	
 304:Core/Src/lcd.c ****     if (delta_y > 0)
 305:Core/Src/lcd.c ****         incy = 1; 
 306:Core/Src/lcd.c **** 	else if (delta_y==0)
 307:Core/Src/lcd.c ****         incy = 0;
 308:Core/Src/lcd.c **** 	else
 309:Core/Src/lcd.c ****     {
 310:Core/Src/lcd.c ****         incy = -1;
 311:Core/Src/lcd.c ****         delta_y = -delta_y;
 312:Core/Src/lcd.c ****     } 
 313:Core/Src/lcd.c **** 
 314:Core/Src/lcd.c **** 	if (delta_x > delta_y)
 315:Core/Src/lcd.c ****         distance = delta_x;
 316:Core/Src/lcd.c **** 	else 
 317:Core/Src/lcd.c ****         distance = delta_y; 
ARM GAS  C:\Users\Vento\AppData\Local\Temp\ccDU9lzs.s 			page 7


 318:Core/Src/lcd.c ****     
 319:Core/Src/lcd.c **** 	for(t = 0; t <= distance + 1; t++)
 320:Core/Src/lcd.c **** 	{  
 321:Core/Src/lcd.c **** 		ILI9341_DrawPixel(uRow, uCol, color);
 322:Core/Src/lcd.c **** 
 323:Core/Src/lcd.c **** 		xerr += delta_x; 
 324:Core/Src/lcd.c **** 		yerr += delta_y; 
 325:Core/Src/lcd.c **** 
 326:Core/Src/lcd.c **** 		if (xerr > distance) 
 327:Core/Src/lcd.c **** 		{ 
 328:Core/Src/lcd.c **** 			xerr -= distance; 
 329:Core/Src/lcd.c **** 			uRow += incx; 
 330:Core/Src/lcd.c **** 		} 
 331:Core/Src/lcd.c **** 		if (yerr > distance) 
 332:Core/Src/lcd.c **** 		{ 
 333:Core/Src/lcd.c **** 			yerr -= distance; 
 334:Core/Src/lcd.c **** 			uCol += incy; 
 335:Core/Src/lcd.c **** 		} 
 336:Core/Src/lcd.c **** 	}  
 337:Core/Src/lcd.c **** }
 338:Core/Src/lcd.c **** 
 339:Core/Src/lcd.c **** static void ILI9341_WriteChar(uint16_t x, uint16_t y, char ch, FontDef font, uint16_t color, uint16
 340:Core/Src/lcd.c **** {
 341:Core/Src/lcd.c ****     uint32_t i, b, j;
 342:Core/Src/lcd.c **** 
 343:Core/Src/lcd.c ****     ILI9341_SetAddressWindow(x, y, x+font.width-1, y+font.height-1);
 344:Core/Src/lcd.c **** 
 345:Core/Src/lcd.c ****     for(i = 0; i < font.height; i++) {
 346:Core/Src/lcd.c ****         b = font.data[(ch - 32) * font.height + i];
 347:Core/Src/lcd.c ****         for(j = 0; j < font.width; j++) {
 348:Core/Src/lcd.c ****             if((b << j) & 0x8000)  {
 349:Core/Src/lcd.c ****                 uint8_t data[] = { color >> 8, color & 0xFF };
 350:Core/Src/lcd.c ****                 ILI9341_WriteData(data, sizeof(data));
 351:Core/Src/lcd.c ****             } else {
 352:Core/Src/lcd.c ****                 uint8_t data[] = { bgcolor >> 8, bgcolor & 0xFF };
 353:Core/Src/lcd.c ****                 ILI9341_WriteData(data, sizeof(data));
 354:Core/Src/lcd.c ****             }
 355:Core/Src/lcd.c ****         }
 356:Core/Src/lcd.c ****     }
 357:Core/Src/lcd.c **** }
 358:Core/Src/lcd.c **** 
 359:Core/Src/lcd.c **** void ILI9341_WriteString(uint16_t x, uint16_t y, const char* str, FontDef font, uint16_t color, uin
 360:Core/Src/lcd.c **** {
 361:Core/Src/lcd.c ****     ILI9341_Select();
 362:Core/Src/lcd.c **** 
 363:Core/Src/lcd.c ****     while(*str) {
 364:Core/Src/lcd.c ****         if(x + font.width >= ILI9341_WIDTH) {
 365:Core/Src/lcd.c ****             x = 0;
 366:Core/Src/lcd.c ****             y += font.height;
 367:Core/Src/lcd.c ****             if(y + font.height >= ILI9341_HEIGHT) {
 368:Core/Src/lcd.c ****                 break;
 369:Core/Src/lcd.c ****             }
 370:Core/Src/lcd.c **** 
 371:Core/Src/lcd.c ****             if(*str == ' ') {
 372:Core/Src/lcd.c ****                 // skip spaces in the beginning of the new line
 373:Core/Src/lcd.c ****                 str++;
 374:Core/Src/lcd.c ****                 continue;
ARM GAS  C:\Users\Vento\AppData\Local\Temp\ccDU9lzs.s 			page 8


 375:Core/Src/lcd.c ****             }
 376:Core/Src/lcd.c ****         }
 377:Core/Src/lcd.c **** 
 378:Core/Src/lcd.c ****         ILI9341_WriteChar(x, y, *str, font, color, bgcolor);
 379:Core/Src/lcd.c ****         x += font.width;
 380:Core/Src/lcd.c ****         str++;
 381:Core/Src/lcd.c ****     }
 382:Core/Src/lcd.c **** 
 383:Core/Src/lcd.c ****     ILI9341_Unselect();
 384:Core/Src/lcd.c **** }
 385:Core/Src/lcd.c **** 
 386:Core/Src/lcd.c **** void ILI9341_DrawRectangle(uint16_t x, uint16_t y, uint16_t w, uint16_t h, uint16_t color)
 387:Core/Src/lcd.c **** {
 388:Core/Src/lcd.c ****     ILI9341_DrawLine(x, y, x + w, y, color);
 389:Core/Src/lcd.c ****     ILI9341_DrawLine(x + w, y, x + w, y + h, color);
 390:Core/Src/lcd.c ****     ILI9341_DrawLine(x, y, x, y + h, color);
 391:Core/Src/lcd.c ****     ILI9341_DrawLine(x, y + h, x + w, y + h, color);
 392:Core/Src/lcd.c **** }
 393:Core/Src/lcd.c **** 
 394:Core/Src/lcd.c **** void ILI9341_FillRectangle(uint16_t x, uint16_t y, uint16_t w, uint16_t h, uint16_t color)
 395:Core/Src/lcd.c **** {
 396:Core/Src/lcd.c ****     // clipping
 397:Core/Src/lcd.c ****     if((x >= ILI9341_WIDTH) || (y >= ILI9341_HEIGHT)) return;
 398:Core/Src/lcd.c ****     if((x + w - 1) >= ILI9341_WIDTH) w = ILI9341_WIDTH - x;
 399:Core/Src/lcd.c ****     if((y + h - 1) >= ILI9341_HEIGHT) h = ILI9341_HEIGHT - y;
 400:Core/Src/lcd.c **** 
 401:Core/Src/lcd.c ****     ILI9341_Select();
 402:Core/Src/lcd.c ****     ILI9341_SetAddressWindow(x, y, x+w-1, y+h-1);
 403:Core/Src/lcd.c **** 
 404:Core/Src/lcd.c ****     uint8_t data[] = { color >> 8, color & 0xFF };
 405:Core/Src/lcd.c ****     HAL_GPIO_WritePin(ILI9341_DC_GPIO_Port, ILI9341_DC_Pin, GPIO_PIN_SET);
 406:Core/Src/lcd.c ****     for(y = h; y > 0; y--) 
 407:Core/Src/lcd.c ****     {
 408:Core/Src/lcd.c ****         for(x = w; x > 0; x--) 
 409:Core/Src/lcd.c ****         {
 410:Core/Src/lcd.c ****             ILI9341_SetData(data[0]);
 411:Core/Src/lcd.c ****             // HAL_GPIO_WritePin(DB8_PORT,  DB8,  (data[0] >> 0x00U) & 0x01U);
 412:Core/Src/lcd.c ****             // HAL_GPIO_WritePin(DB9_PORT,  DB9,  (data[0] >> 0x01U) & 0x01U);
 413:Core/Src/lcd.c ****             // HAL_GPIO_WritePin(DB10_PORT, DB10, (data[0] >> 0x02U) & 0x01U);
 414:Core/Src/lcd.c ****             // HAL_GPIO_WritePin(DB11_PORT, DB11, (data[0] >> 0x03U) & 0x01U);
 415:Core/Src/lcd.c ****             // HAL_GPIO_WritePin(DB12_PORT, DB12, (data[0] >> 0x04U) & 0x01U);
 416:Core/Src/lcd.c ****             // HAL_GPIO_WritePin(DB13_PORT, DB13, (data[0] >> 0x05U) & 0x01U);
 417:Core/Src/lcd.c ****             // HAL_GPIO_WritePin(DB14_PORT, DB14, (data[0] >> 0x06U) & 0x01U);
 418:Core/Src/lcd.c ****             // HAL_GPIO_WritePin(DB15_PORT, DB15, (data[0] >> 0x07U) & 0x01U);
 419:Core/Src/lcd.c **** 
 420:Core/Src/lcd.c ****             // HAL_GPIO_WritePin(ILI9341_WR_GPIO_Port, ILI9341_WR_Pin, GPIO_PIN_RESET);
 421:Core/Src/lcd.c ****             // HAL_GPIO_WritePin(ILI9341_WR_GPIO_Port, ILI9341_WR_Pin, GPIO_PIN_SET);
 422:Core/Src/lcd.c **** 
 423:Core/Src/lcd.c ****             ILI9341_SetData(data[1]);
 424:Core/Src/lcd.c ****             // HAL_GPIO_WritePin(DB8_PORT,  DB8,  (data[1] >> 0x00U) & 0x01U);
 425:Core/Src/lcd.c ****             // HAL_GPIO_WritePin(DB9_PORT,  DB9,  (data[1] >> 0x01U) & 0x01U);
 426:Core/Src/lcd.c ****             // HAL_GPIO_WritePin(DB10_PORT, DB10, (data[1] >> 0x02U) & 0x01U);
 427:Core/Src/lcd.c ****             // HAL_GPIO_WritePin(DB11_PORT, DB11, (data[1] >> 0x03U) & 0x01U);
 428:Core/Src/lcd.c ****             // HAL_GPIO_WritePin(DB12_PORT, DB12, (data[1] >> 0x04U) & 0x01U);
 429:Core/Src/lcd.c ****             // HAL_GPIO_WritePin(DB13_PORT, DB13, (data[1] >> 0x05U) & 0x01U);
 430:Core/Src/lcd.c ****             // HAL_GPIO_WritePin(DB14_PORT, DB14, (data[1] >> 0x06U) & 0x01U);
 431:Core/Src/lcd.c ****             // HAL_GPIO_WritePin(DB15_PORT, DB15, (data[1] >> 0x07U) & 0x01U);
ARM GAS  C:\Users\Vento\AppData\Local\Temp\ccDU9lzs.s 			page 9


 432:Core/Src/lcd.c **** 
 433:Core/Src/lcd.c ****             // HAL_GPIO_WritePin(ILI9341_WR_GPIO_Port, ILI9341_WR_Pin, GPIO_PIN_RESET);
 434:Core/Src/lcd.c ****             // HAL_GPIO_WritePin(ILI9341_WR_GPIO_Port, ILI9341_WR_Pin, GPIO_PIN_SET);
 435:Core/Src/lcd.c **** 
 436:Core/Src/lcd.c ****             // HAL_SPI_Transmit(&ILI9341_SPI_PORT, data, sizeof(data), HAL_MAX_DELAY);
 437:Core/Src/lcd.c ****         }
 438:Core/Src/lcd.c ****     }
 439:Core/Src/lcd.c **** 
 440:Core/Src/lcd.c ****     ILI9341_Unselect();
 441:Core/Src/lcd.c **** }
 442:Core/Src/lcd.c **** 
 443:Core/Src/lcd.c **** void ILI9341_FillScreen(uint16_t color)
 444:Core/Src/lcd.c **** {
 445:Core/Src/lcd.c ****     ILI9341_FillRectangle(0, 0, ILI9341_WIDTH, ILI9341_HEIGHT, color);
 446:Core/Src/lcd.c **** }
 447:Core/Src/lcd.c **** 
 448:Core/Src/lcd.c **** void ILI9341_DrawImage(uint16_t x, uint16_t y, uint16_t w, uint16_t h, const uint16_t* data)
 449:Core/Src/lcd.c **** {
 450:Core/Src/lcd.c ****     if((x >= ILI9341_WIDTH) || (y >= ILI9341_HEIGHT)) return;
 451:Core/Src/lcd.c ****     if((x + w - 1) >= ILI9341_WIDTH) return;
 452:Core/Src/lcd.c ****     if((y + h - 1) >= ILI9341_HEIGHT) return;
 453:Core/Src/lcd.c **** 
 454:Core/Src/lcd.c ****     ILI9341_Select();
 455:Core/Src/lcd.c ****     ILI9341_SetAddressWindow(x, y, x+w-1, y+h-1);
 456:Core/Src/lcd.c ****     ILI9341_WriteData((uint8_t*)data, sizeof(uint16_t)*w*h);
 457:Core/Src/lcd.c ****     ILI9341_Unselect();
 458:Core/Src/lcd.c **** }
 459:Core/Src/lcd.c **** 
 460:Core/Src/lcd.c **** void ILI9341_InvertColors(bool invert)
 461:Core/Src/lcd.c **** {
 462:Core/Src/lcd.c ****     ILI9341_Select();
 463:Core/Src/lcd.c ****     ILI9341_WriteCommand(invert ? 0x21 /* INVON */ : 0x20 /* INVOFF */);
 464:Core/Src/lcd.c ****     ILI9341_Unselect();
 465:Core/Src/lcd.c **** }
 466:Core/Src/lcd.c **** 
 467:Core/Src/lcd.c **** void ILI9341_DrawTriangle(uint16_t x1, uint16_t y1, uint16_t x2, uint16_t y2, uint16_t x3, uint16_t
 468:Core/Src/lcd.c **** {
 469:Core/Src/lcd.c ****     ILI9341_DrawLine(x1, y1, x2, y2, color);
 470:Core/Src/lcd.c ****     ILI9341_DrawLine(x2, y2, x3, y3, color);
 471:Core/Src/lcd.c ****     ILI9341_DrawLine(x3, y3, x1, y1, color);
 472:Core/Src/lcd.c **** }
 473:Core/Src/lcd.c **** 
 474:Core/Src/lcd.c **** static void _swap(uint16_t *a, uint16_t *b)
 475:Core/Src/lcd.c **** {
  27              		.loc 1 475 1 view -0
  28              		.cfi_startproc
  29              		@ args = 0, pretend = 0, frame = 0
  30              		@ frame_needed = 0, uses_anonymous_args = 0
  31              		@ link register save eliminated.
 476:Core/Src/lcd.c **** 	uint16_t tmp;
  32              		.loc 1 476 2 view .LVU1
 477:Core/Src/lcd.c ****     tmp = *a;
  33              		.loc 1 477 5 view .LVU2
  34              		.loc 1 477 9 is_stmt 0 view .LVU3
  35 0000 0388     		ldrh	r3, [r0]
  36              	.LVL1:
 478:Core/Src/lcd.c **** 	*a = *b;
ARM GAS  C:\Users\Vento\AppData\Local\Temp\ccDU9lzs.s 			page 10


  37              		.loc 1 478 2 is_stmt 1 view .LVU4
  38              		.loc 1 478 7 is_stmt 0 view .LVU5
  39 0002 0A88     		ldrh	r2, [r1]
  40              		.loc 1 478 5 view .LVU6
  41 0004 0280     		strh	r2, [r0]	@ movhi
 479:Core/Src/lcd.c **** 	*b = tmp;
  42              		.loc 1 479 2 is_stmt 1 view .LVU7
  43              		.loc 1 479 5 is_stmt 0 view .LVU8
  44 0006 0B80     		strh	r3, [r1]	@ movhi
 480:Core/Src/lcd.c **** }
  45              		.loc 1 480 1 view .LVU9
  46 0008 7047     		bx	lr
  47              		.cfi_endproc
  48              	.LFE85:
  50              		.global	__aeabi_i2d
  51              		.global	__aeabi_ddiv
  52              		.global	__aeabi_dadd
  53              		.global	__aeabi_dmul
  54              		.global	__aeabi_dcmpeq
  55              		.global	__aeabi_d2iz
  56              		.section	.text.sqrt_t,"ax",%progbits
  57              		.align	1
  58              		.syntax unified
  59              		.thumb
  60              		.thumb_func
  61              		.fpu softvfp
  63              	sqrt_t:
  64              	.LVL2:
  65              	.LFB87:
 481:Core/Src/lcd.c **** 
 482:Core/Src/lcd.c **** void ILI9341_FillTriangle(uint16_t x0, uint16_t y0, uint16_t x1, uint16_t y1, uint16_t x2, uint16_t
 483:Core/Src/lcd.c **** {
 484:Core/Src/lcd.c ****     uint16_t a, b, y, last;
 485:Core/Src/lcd.c **** 	int dx01, dy01, dx02, dy02, dx12, dy12;
 486:Core/Src/lcd.c **** 	long sa = 0;
 487:Core/Src/lcd.c **** 	long sb = 0;
 488:Core/Src/lcd.c **** 
 489:Core/Src/lcd.c ****     if (y0 > y1) 
 490:Core/Src/lcd.c **** 	{
 491:Core/Src/lcd.c ****         _swap(&y0,&y1); 
 492:Core/Src/lcd.c **** 		_swap(&x0,&x1);
 493:Core/Src/lcd.c ****     }
 494:Core/Src/lcd.c ****     if (y1 > y2) 
 495:Core/Src/lcd.c **** 	{
 496:Core/Src/lcd.c ****         _swap(&y2,&y1); 
 497:Core/Src/lcd.c **** 		_swap(&x2,&x1);
 498:Core/Src/lcd.c ****     }
 499:Core/Src/lcd.c ****     if (y0 > y1) 
 500:Core/Src/lcd.c **** 	{
 501:Core/Src/lcd.c ****         _swap(&y0,&y1); 
 502:Core/Src/lcd.c **** 		_swap(&x0,&x1);
 503:Core/Src/lcd.c ****     }
 504:Core/Src/lcd.c **** 	
 505:Core/Src/lcd.c ****     if (y0 == y2) 
 506:Core/Src/lcd.c **** 	{ 
 507:Core/Src/lcd.c **** 		a = b = x0;
 508:Core/Src/lcd.c **** 		if(x1 < a)
ARM GAS  C:\Users\Vento\AppData\Local\Temp\ccDU9lzs.s 			page 11


 509:Core/Src/lcd.c ****         {
 510:Core/Src/lcd.c **** 			a = x1;
 511:Core/Src/lcd.c ****         }
 512:Core/Src/lcd.c ****         else if (x1 > b)
 513:Core/Src/lcd.c ****         {
 514:Core/Src/lcd.c ****             b = x1;
 515:Core/Src/lcd.c ****         }
 516:Core/Src/lcd.c **** 
 517:Core/Src/lcd.c ****         if (x2 < a)
 518:Core/Src/lcd.c ****         {
 519:Core/Src/lcd.c ****             a = x2;
 520:Core/Src/lcd.c ****         }
 521:Core/Src/lcd.c ****         else if (x2 > b)
 522:Core/Src/lcd.c ****         {
 523:Core/Src/lcd.c ****             b = x2;
 524:Core/Src/lcd.c ****         }
 525:Core/Src/lcd.c **** 
 526:Core/Src/lcd.c **** 		ILI9341_FillRectangle(a, y0, b - a + 1, y0 - y0 + 1, color);
 527:Core/Src/lcd.c **** 
 528:Core/Src/lcd.c ****         return;
 529:Core/Src/lcd.c **** 	}
 530:Core/Src/lcd.c **** 
 531:Core/Src/lcd.c **** 	dx01 = x1 - x0;
 532:Core/Src/lcd.c **** 	dy01 = y1 - y0;
 533:Core/Src/lcd.c **** 	dx02 = x2 - x0;
 534:Core/Src/lcd.c **** 	dy02 = y2 - y0;
 535:Core/Src/lcd.c **** 	dx12 = x2 - x1;
 536:Core/Src/lcd.c **** 	dy12 = y2 - y1;
 537:Core/Src/lcd.c **** 	
 538:Core/Src/lcd.c **** 	if(y1 == y2)
 539:Core/Src/lcd.c **** 	{
 540:Core/Src/lcd.c **** 		last = y1; 
 541:Core/Src/lcd.c **** 	}
 542:Core/Src/lcd.c ****     else
 543:Core/Src/lcd.c **** 	{
 544:Core/Src/lcd.c **** 		last = y1 - 1; 
 545:Core/Src/lcd.c **** 	}
 546:Core/Src/lcd.c **** 
 547:Core/Src/lcd.c **** 	for(y = y0; y <= last; y++) 
 548:Core/Src/lcd.c **** 	{
 549:Core/Src/lcd.c **** 		a = x0 + sa / dy01;
 550:Core/Src/lcd.c **** 		b = x0 + sb / dy02;
 551:Core/Src/lcd.c **** 		sa += dx01;
 552:Core/Src/lcd.c ****         sb += dx02;
 553:Core/Src/lcd.c ****         if(a > b)
 554:Core/Src/lcd.c ****         {
 555:Core/Src/lcd.c **** 			_swap(&a,&b);
 556:Core/Src/lcd.c **** 		}
 557:Core/Src/lcd.c **** 		ILI9341_FillRectangle(a, y, b - a + 1, y - y + 1, color);
 558:Core/Src/lcd.c **** 	}
 559:Core/Src/lcd.c **** 
 560:Core/Src/lcd.c **** 	sa = dx12 * (y - y1);
 561:Core/Src/lcd.c **** 	sb = dx02 * (y - y0);
 562:Core/Src/lcd.c **** 
 563:Core/Src/lcd.c **** 	for(; y <=y2 ; y++) 
 564:Core/Src/lcd.c **** 	{
 565:Core/Src/lcd.c **** 		a = x1 + sa / dy12;
ARM GAS  C:\Users\Vento\AppData\Local\Temp\ccDU9lzs.s 			page 12


 566:Core/Src/lcd.c **** 		b = x0 + sb / dy02;
 567:Core/Src/lcd.c **** 		sa += dx12;
 568:Core/Src/lcd.c **** 		sb += dx02;
 569:Core/Src/lcd.c **** 		if(a > b)
 570:Core/Src/lcd.c **** 		{
 571:Core/Src/lcd.c **** 			_swap(&a,&b);
 572:Core/Src/lcd.c **** 		}
 573:Core/Src/lcd.c **** 		ILI9341_FillRectangle(a, y, b - a + 1, y - y + 1, color);
 574:Core/Src/lcd.c **** 	}
 575:Core/Src/lcd.c **** }
 576:Core/Src/lcd.c **** 
 577:Core/Src/lcd.c **** static int sqrt_t(int x)
 578:Core/Src/lcd.c **** {
  66              		.loc 1 578 1 is_stmt 1 view -0
  67              		.cfi_startproc
  68              		@ args = 0, pretend = 0, frame = 0
  69              		@ frame_needed = 0, uses_anonymous_args = 0
  70              		.loc 1 578 1 is_stmt 0 view .LVU11
  71 0000 70B5     		push	{r4, r5, r6, lr}
  72              	.LCFI0:
  73              		.cfi_def_cfa_offset 16
  74              		.cfi_offset 4, -16
  75              		.cfi_offset 5, -12
  76              		.cfi_offset 6, -8
  77              		.cfi_offset 14, -4
 579:Core/Src/lcd.c ****     if (x == 0)
  78              		.loc 1 579 5 is_stmt 1 view .LVU12
  79              		.loc 1 579 8 is_stmt 0 view .LVU13
  80 0002 0646     		mov	r6, r0
  81 0004 18B3     		cbz	r0, .L2
 580:Core/Src/lcd.c ****         return 0;
 581:Core/Src/lcd.c ****     double last = 0;
 582:Core/Src/lcd.c ****     double res = 1;
  82              		.loc 1 582 12 view .LVU14
  83 0006 0024     		movs	r4, #0
  84 0008 114D     		ldr	r5, .L8
 581:Core/Src/lcd.c ****     double res = 1;
  85              		.loc 1 581 12 view .LVU15
  86 000a 0020     		movs	r0, #0
  87              	.LVL3:
 581:Core/Src/lcd.c ****     double res = 1;
  88              		.loc 1 581 12 view .LVU16
  89 000c 0021     		movs	r1, #0
  90 000e 14E0     		b	.L4
  91              	.LVL4:
  92              	.L5:
 583:Core/Src/lcd.c ****     while (res != last)
 584:Core/Src/lcd.c ****     {
 585:Core/Src/lcd.c ****         last = res;
  93              		.loc 1 585 9 is_stmt 1 view .LVU17
 586:Core/Src/lcd.c ****         res = (res + x / res) / 2;
  94              		.loc 1 586 9 view .LVU18
  95              		.loc 1 586 24 is_stmt 0 view .LVU19
  96 0010 3046     		mov	r0, r6
  97 0012 FFF7FEFF 		bl	__aeabi_i2d
  98              	.LVL5:
  99 0016 2246     		mov	r2, r4
ARM GAS  C:\Users\Vento\AppData\Local\Temp\ccDU9lzs.s 			page 13


 100 0018 2B46     		mov	r3, r5
 101 001a FFF7FEFF 		bl	__aeabi_ddiv
 102              	.LVL6:
 103              		.loc 1 586 20 view .LVU20
 104 001e 2246     		mov	r2, r4
 105 0020 2B46     		mov	r3, r5
 106 0022 FFF7FEFF 		bl	__aeabi_dadd
 107              	.LVL7:
 108              		.loc 1 586 13 view .LVU21
 109 0026 0022     		movs	r2, #0
 110 0028 0A4B     		ldr	r3, .L8+4
 111 002a FFF7FEFF 		bl	__aeabi_dmul
 112              	.LVL8:
 113 002e 0246     		mov	r2, r0
 114 0030 0B46     		mov	r3, r1
 115              	.LVL9:
 585:Core/Src/lcd.c ****         res = (res + x / res) / 2;
 116              		.loc 1 585 14 view .LVU22
 117 0032 2046     		mov	r0, r4
 118 0034 2946     		mov	r1, r5
 119              		.loc 1 586 13 view .LVU23
 120 0036 1446     		mov	r4, r2
 121              	.LVL10:
 122              		.loc 1 586 13 view .LVU24
 123 0038 1D46     		mov	r5, r3
 124              	.LVL11:
 125              	.L4:
 583:Core/Src/lcd.c ****     while (res != last)
 126              		.loc 1 583 11 is_stmt 1 view .LVU25
 127 003a 2246     		mov	r2, r4
 128 003c 2B46     		mov	r3, r5
 129 003e FFF7FEFF 		bl	__aeabi_dcmpeq
 130              	.LVL12:
 583:Core/Src/lcd.c ****     while (res != last)
 131              		.loc 1 583 11 is_stmt 0 view .LVU26
 132 0042 0028     		cmp	r0, #0
 133 0044 E4D0     		beq	.L5
 587:Core/Src/lcd.c ****     }
 588:Core/Src/lcd.c ****     return (int)res;
 134              		.loc 1 588 5 is_stmt 1 view .LVU27
 135              		.loc 1 588 12 is_stmt 0 view .LVU28
 136 0046 2046     		mov	r0, r4
 137 0048 2946     		mov	r1, r5
 138 004a FFF7FEFF 		bl	__aeabi_d2iz
 139              	.LVL13:
 140              	.L2:
 589:Core/Src/lcd.c **** }
 141              		.loc 1 589 1 view .LVU29
 142 004e 70BD     		pop	{r4, r5, r6, pc}
 143              	.LVL14:
 144              	.L9:
 145              		.loc 1 589 1 view .LVU30
 146              		.align	2
 147              	.L8:
 148 0050 0000F03F 		.word	1072693248
 149 0054 0000E03F 		.word	1071644672
 150              		.cfi_endproc
ARM GAS  C:\Users\Vento\AppData\Local\Temp\ccDU9lzs.s 			page 14


 151              	.LFE87:
 153              		.section	.text.ILI9341_WriteData,"ax",%progbits
 154              		.align	1
 155              		.syntax unified
 156              		.thumb
 157              		.thumb_func
 158              		.fpu softvfp
 160              	ILI9341_WriteData:
 161              	.LVL15:
 162              	.LFB72:
  88:Core/Src/lcd.c ****     // ILI9341_Select();
 163              		.loc 1 88 1 is_stmt 1 view -0
 164              		.cfi_startproc
 165              		@ args = 0, pretend = 0, frame = 0
 166              		@ frame_needed = 0, uses_anonymous_args = 0
  88:Core/Src/lcd.c ****     // ILI9341_Select();
 167              		.loc 1 88 1 is_stmt 0 view .LVU32
 168 0000 F8B5     		push	{r3, r4, r5, r6, r7, lr}
 169              	.LCFI1:
 170              		.cfi_def_cfa_offset 24
 171              		.cfi_offset 3, -24
 172              		.cfi_offset 4, -20
 173              		.cfi_offset 5, -16
 174              		.cfi_offset 6, -12
 175              		.cfi_offset 7, -8
 176              		.cfi_offset 14, -4
 177 0002 0646     		mov	r6, r0
 178 0004 0D46     		mov	r5, r1
  90:Core/Src/lcd.c **** 
 179              		.loc 1 90 5 is_stmt 1 view .LVU33
 180 0006 0122     		movs	r2, #1
 181 0008 4FF48071 		mov	r1, #256
 182              	.LVL16:
  90:Core/Src/lcd.c **** 
 183              		.loc 1 90 5 is_stmt 0 view .LVU34
 184 000c 1248     		ldr	r0, .L14
 185              	.LVL17:
  90:Core/Src/lcd.c **** 
 186              		.loc 1 90 5 view .LVU35
 187 000e FFF7FEFF 		bl	HAL_GPIO_WritePin
 188              	.LVL18:
  92:Core/Src/lcd.c ****     {
 189              		.loc 1 92 5 is_stmt 1 view .LVU36
 190              	.LBB33:
  92:Core/Src/lcd.c ****     {
 191              		.loc 1 92 10 view .LVU37
  92:Core/Src/lcd.c ****     {
 192              		.loc 1 92 14 is_stmt 0 view .LVU38
 193 0012 0024     		movs	r4, #0
  92:Core/Src/lcd.c ****     {
 194              		.loc 1 92 5 view .LVU39
 195 0014 1DE0     		b	.L11
 196              	.LVL19:
 197              	.L12:
  94:Core/Src/lcd.c ****     }
 198              		.loc 1 94 9 is_stmt 1 discriminator 3 view .LVU40
 199 0016 335D     		ldrb	r3, [r6, r4]	@ zero_extendqisi2
ARM GAS  C:\Users\Vento\AppData\Local\Temp\ccDU9lzs.s 			page 15


 200              	.LVL20:
 201              	.LBB34:
 202              	.LBI34:
  46:Core/Src/lcd.c **** {
 203              		.loc 1 46 20 discriminator 3 view .LVU41
 204              	.LBB35:
  48:Core/Src/lcd.c ****     uint8_t temp_Bit3rd_Data = data & 0x04;
 205              		.loc 1 48 5 discriminator 3 view .LVU42
  48:Core/Src/lcd.c ****     uint8_t temp_Bit3rd_Data = data & 0x04;
 206              		.loc 1 48 13 is_stmt 0 discriminator 3 view .LVU43
 207 0018 03F00201 		and	r1, r3, #2
 208              	.LVL21:
  49:Core/Src/lcd.c ****     data &= ~0x06;
 209              		.loc 1 49 5 is_stmt 1 discriminator 3 view .LVU44
  50:Core/Src/lcd.c ****     data |= (uint8_t)((temp_Bit2nd_Data << 1) | (temp_Bit3rd_Data >> 1));
 210              		.loc 1 50 5 discriminator 3 view .LVU45
  50:Core/Src/lcd.c ****     data |= (uint8_t)((temp_Bit2nd_Data << 1) | (temp_Bit3rd_Data >> 1));
 211              		.loc 1 50 10 is_stmt 0 discriminator 3 view .LVU46
 212 001c 03F0F902 		and	r2, r3, #249
 213              	.LVL22:
  51:Core/Src/lcd.c **** 
 214              		.loc 1 51 5 is_stmt 1 discriminator 3 view .LVU47
  51:Core/Src/lcd.c **** 
 215              		.loc 1 51 47 is_stmt 0 discriminator 3 view .LVU48
 216 0020 5B08     		lsrs	r3, r3, #1
 217              	.LVL23:
  51:Core/Src/lcd.c **** 
 218              		.loc 1 51 47 discriminator 3 view .LVU49
 219 0022 03F00203 		and	r3, r3, #2
  51:Core/Src/lcd.c **** 
 220              		.loc 1 51 13 discriminator 3 view .LVU50
 221 0026 43EA4103 		orr	r3, r3, r1, lsl #1
  51:Core/Src/lcd.c **** 
 222              		.loc 1 51 10 discriminator 3 view .LVU51
 223 002a 1A43     		orrs	r2, r2, r3
 224              	.LVL24:
  53:Core/Src/lcd.c ****     tempReg &= 0xFFFFFF00;
 225              		.loc 1 53 5 is_stmt 1 discriminator 3 view .LVU52
  53:Core/Src/lcd.c ****     tempReg &= 0xFFFFFF00;
 226              		.loc 1 53 14 is_stmt 0 discriminator 3 view .LVU53
 227 002c 0A4F     		ldr	r7, .L14
 228 002e FB68     		ldr	r3, [r7, #12]
 229              	.LVL25:
  54:Core/Src/lcd.c ****     tempReg |= (uint32_t)data;
 230              		.loc 1 54 5 is_stmt 1 discriminator 3 view .LVU54
  54:Core/Src/lcd.c ****     tempReg |= (uint32_t)data;
 231              		.loc 1 54 13 is_stmt 0 discriminator 3 view .LVU55
 232 0030 23F0FF03 		bic	r3, r3, #255
 233              	.LVL26:
  55:Core/Src/lcd.c ****     DATA_PORT->ODR = tempReg;
 234              		.loc 1 55 5 is_stmt 1 discriminator 3 view .LVU56
  55:Core/Src/lcd.c ****     DATA_PORT->ODR = tempReg;
 235              		.loc 1 55 13 is_stmt 0 discriminator 3 view .LVU57
 236 0034 1343     		orrs	r3, r3, r2
 237              	.LVL27:
  56:Core/Src/lcd.c **** 
 238              		.loc 1 56 5 is_stmt 1 discriminator 3 view .LVU58
ARM GAS  C:\Users\Vento\AppData\Local\Temp\ccDU9lzs.s 			page 16


  56:Core/Src/lcd.c **** 
 239              		.loc 1 56 20 is_stmt 0 discriminator 3 view .LVU59
 240 0036 FB60     		str	r3, [r7, #12]
 241              	.LVL28:
  67:Core/Src/lcd.c ****     HAL_GPIO_WritePin(ILI9341_WR_GPIO_Port, ILI9341_WR_Pin, GPIO_PIN_SET);
 242              		.loc 1 67 5 is_stmt 1 discriminator 3 view .LVU60
 243 0038 0022     		movs	r2, #0
 244              	.LVL29:
  67:Core/Src/lcd.c ****     HAL_GPIO_WritePin(ILI9341_WR_GPIO_Port, ILI9341_WR_Pin, GPIO_PIN_SET);
 245              		.loc 1 67 5 is_stmt 0 discriminator 3 view .LVU61
 246 003a 4FF48061 		mov	r1, #1024
 247              	.LVL30:
  67:Core/Src/lcd.c ****     HAL_GPIO_WritePin(ILI9341_WR_GPIO_Port, ILI9341_WR_Pin, GPIO_PIN_SET);
 248              		.loc 1 67 5 discriminator 3 view .LVU62
 249 003e 3846     		mov	r0, r7
 250 0040 FFF7FEFF 		bl	HAL_GPIO_WritePin
 251              	.LVL31:
  68:Core/Src/lcd.c **** }
 252              		.loc 1 68 5 is_stmt 1 discriminator 3 view .LVU63
 253 0044 0122     		movs	r2, #1
 254 0046 4FF48061 		mov	r1, #1024
 255 004a 3846     		mov	r0, r7
 256 004c FFF7FEFF 		bl	HAL_GPIO_WritePin
 257              	.LVL32:
  68:Core/Src/lcd.c **** }
 258              		.loc 1 68 5 is_stmt 0 discriminator 3 view .LVU64
 259              	.LBE35:
 260              	.LBE34:
  92:Core/Src/lcd.c ****     {
 261              		.loc 1 92 36 is_stmt 1 discriminator 3 view .LVU65
  92:Core/Src/lcd.c ****     {
 262              		.loc 1 92 37 is_stmt 0 discriminator 3 view .LVU66
 263 0050 0134     		adds	r4, r4, #1
 264              	.LVL33:
 265              	.L11:
  92:Core/Src/lcd.c ****     {
 266              		.loc 1 92 21 is_stmt 1 discriminator 1 view .LVU67
  92:Core/Src/lcd.c ****     {
 267              		.loc 1 92 5 is_stmt 0 discriminator 1 view .LVU68
 268 0052 AC42     		cmp	r4, r5
 269 0054 DFD3     		bcc	.L12
 270              	.LBE33:
  97:Core/Src/lcd.c **** 
 271              		.loc 1 97 1 view .LVU69
 272 0056 F8BD     		pop	{r3, r4, r5, r6, r7, pc}
 273              	.LVL34:
 274              	.L15:
  97:Core/Src/lcd.c **** 
 275              		.loc 1 97 1 view .LVU70
 276              		.align	2
 277              	.L14:
 278 0058 000C0140 		.word	1073810432
 279              		.cfi_endproc
 280              	.LFE72:
 282              		.section	.text.ILI9341_SetAddressWindow,"ax",%progbits
 283              		.align	1
 284              		.syntax unified
ARM GAS  C:\Users\Vento\AppData\Local\Temp\ccDU9lzs.s 			page 17


 285              		.thumb
 286              		.thumb_func
 287              		.fpu softvfp
 289              	ILI9341_SetAddressWindow:
 290              	.LVL35:
 291              	.LFB73:
 100:Core/Src/lcd.c ****     // column address set
 292              		.loc 1 100 1 is_stmt 1 view -0
 293              		.cfi_startproc
 294              		@ args = 0, pretend = 0, frame = 8
 295              		@ frame_needed = 0, uses_anonymous_args = 0
 100:Core/Src/lcd.c ****     // column address set
 296              		.loc 1 100 1 is_stmt 0 view .LVU72
 297 0000 2DE9F043 		push	{r4, r5, r6, r7, r8, r9, lr}
 298              	.LCFI2:
 299              		.cfi_def_cfa_offset 28
 300              		.cfi_offset 4, -28
 301              		.cfi_offset 5, -24
 302              		.cfi_offset 6, -20
 303              		.cfi_offset 7, -16
 304              		.cfi_offset 8, -12
 305              		.cfi_offset 9, -8
 306              		.cfi_offset 14, -4
 307 0004 83B0     		sub	sp, sp, #12
 308              	.LCFI3:
 309              		.cfi_def_cfa_offset 40
 310 0006 8146     		mov	r9, r0
 311 0008 0F46     		mov	r7, r1
 312 000a 9046     		mov	r8, r2
 313 000c 1E46     		mov	r6, r3
 102:Core/Src/lcd.c ****     {
 314              		.loc 1 102 5 is_stmt 1 view .LVU73
 315              	.LVL36:
 316              	.LBB50:
 317              	.LBI50:
  71:Core/Src/lcd.c **** {
 318              		.loc 1 71 20 view .LVU74
 319              	.LBB51:
  74:Core/Src/lcd.c ****     ILI9341_SetData(cmd);
 320              		.loc 1 74 5 view .LVU75
 321 000e 364C     		ldr	r4, .L18
 322 0010 0022     		movs	r2, #0
 323              	.LVL37:
  74:Core/Src/lcd.c ****     ILI9341_SetData(cmd);
 324              		.loc 1 74 5 is_stmt 0 view .LVU76
 325 0012 4FF48071 		mov	r1, #256
 326              	.LVL38:
  74:Core/Src/lcd.c ****     ILI9341_SetData(cmd);
 327              		.loc 1 74 5 view .LVU77
 328 0016 2046     		mov	r0, r4
 329              	.LVL39:
  74:Core/Src/lcd.c ****     ILI9341_SetData(cmd);
 330              		.loc 1 74 5 view .LVU78
 331 0018 FFF7FEFF 		bl	HAL_GPIO_WritePin
 332              	.LVL40:
  75:Core/Src/lcd.c ****     // ILI9341_Unselect();
 333              		.loc 1 75 5 is_stmt 1 view .LVU79
ARM GAS  C:\Users\Vento\AppData\Local\Temp\ccDU9lzs.s 			page 18


 334              	.LBB52:
 335              	.LBI52:
  46:Core/Src/lcd.c **** {
 336              		.loc 1 46 20 view .LVU80
 337              	.LBB53:
  48:Core/Src/lcd.c ****     uint8_t temp_Bit3rd_Data = data & 0x04;
 338              		.loc 1 48 5 view .LVU81
  49:Core/Src/lcd.c ****     data &= ~0x06;
 339              		.loc 1 49 5 view .LVU82
  50:Core/Src/lcd.c ****     data |= (uint8_t)((temp_Bit2nd_Data << 1) | (temp_Bit3rd_Data >> 1));
 340              		.loc 1 50 5 view .LVU83
  51:Core/Src/lcd.c **** 
 341              		.loc 1 51 5 view .LVU84
  53:Core/Src/lcd.c ****     tempReg &= 0xFFFFFF00;
 342              		.loc 1 53 5 view .LVU85
  53:Core/Src/lcd.c ****     tempReg &= 0xFFFFFF00;
 343              		.loc 1 53 14 is_stmt 0 view .LVU86
 344 001c E568     		ldr	r5, [r4, #12]
 345              	.LVL41:
  54:Core/Src/lcd.c ****     tempReg |= (uint32_t)data;
 346              		.loc 1 54 5 is_stmt 1 view .LVU87
  54:Core/Src/lcd.c ****     tempReg |= (uint32_t)data;
 347              		.loc 1 54 13 is_stmt 0 view .LVU88
 348 001e 25F0FF05 		bic	r5, r5, #255
 349              	.LVL42:
  55:Core/Src/lcd.c ****     DATA_PORT->ODR = tempReg;
 350              		.loc 1 55 5 is_stmt 1 view .LVU89
  55:Core/Src/lcd.c ****     DATA_PORT->ODR = tempReg;
 351              		.loc 1 55 13 is_stmt 0 view .LVU90
 352 0022 45F02C05 		orr	r5, r5, #44
 353              	.LVL43:
  56:Core/Src/lcd.c **** 
 354              		.loc 1 56 5 is_stmt 1 view .LVU91
  56:Core/Src/lcd.c **** 
 355              		.loc 1 56 20 is_stmt 0 view .LVU92
 356 0026 E560     		str	r5, [r4, #12]
  67:Core/Src/lcd.c ****     HAL_GPIO_WritePin(ILI9341_WR_GPIO_Port, ILI9341_WR_Pin, GPIO_PIN_SET);
 357              		.loc 1 67 5 is_stmt 1 view .LVU93
 358 0028 0022     		movs	r2, #0
 359 002a 4FF48061 		mov	r1, #1024
 360 002e 2046     		mov	r0, r4
 361 0030 FFF7FEFF 		bl	HAL_GPIO_WritePin
 362              	.LVL44:
  68:Core/Src/lcd.c **** }
 363              		.loc 1 68 5 view .LVU94
 364 0034 0122     		movs	r2, #1
 365 0036 4FF48061 		mov	r1, #1024
 366 003a 2046     		mov	r0, r4
 367 003c FFF7FEFF 		bl	HAL_GPIO_WritePin
 368              	.LVL45:
  68:Core/Src/lcd.c **** }
 369              		.loc 1 68 5 is_stmt 0 view .LVU95
 370              	.LBE53:
 371              	.LBE52:
 372              	.LBE51:
 373              	.LBE50:
 374              	.LBB54:
ARM GAS  C:\Users\Vento\AppData\Local\Temp\ccDU9lzs.s 			page 19


 104:Core/Src/lcd.c ****         ILI9341_WriteData(data, sizeof(data));
 375              		.loc 1 104 9 is_stmt 1 view .LVU96
 104:Core/Src/lcd.c ****         ILI9341_WriteData(data, sizeof(data));
 376              		.loc 1 104 17 is_stmt 0 view .LVU97
 377 0040 4FEA1923 		lsr	r3, r9, #8
 378 0044 8DF80430 		strb	r3, [sp, #4]
 379 0048 8DF80590 		strb	r9, [sp, #5]
 380 004c 4FEA1823 		lsr	r3, r8, #8
 381 0050 8DF80630 		strb	r3, [sp, #6]
 382 0054 8DF80780 		strb	r8, [sp, #7]
 105:Core/Src/lcd.c ****     }
 383              		.loc 1 105 9 is_stmt 1 view .LVU98
 384 0058 0421     		movs	r1, #4
 385 005a 0DEB0100 		add	r0, sp, r1
 386 005e FFF7FEFF 		bl	ILI9341_WriteData
 387              	.LVL46:
 388              	.LBE54:
 109:Core/Src/lcd.c ****     {
 389              		.loc 1 109 5 view .LVU99
 390              	.LBB55:
 391              	.LBI55:
  71:Core/Src/lcd.c **** {
 392              		.loc 1 71 20 view .LVU100
 393              	.LBB56:
  74:Core/Src/lcd.c ****     ILI9341_SetData(cmd);
 394              		.loc 1 74 5 view .LVU101
 395 0062 0022     		movs	r2, #0
 396 0064 4FF48071 		mov	r1, #256
 397 0068 2046     		mov	r0, r4
 398 006a FFF7FEFF 		bl	HAL_GPIO_WritePin
 399              	.LVL47:
  75:Core/Src/lcd.c ****     // ILI9341_Unselect();
 400              		.loc 1 75 5 view .LVU102
 401              	.LBB57:
 402              	.LBI57:
  46:Core/Src/lcd.c **** {
 403              		.loc 1 46 20 view .LVU103
 404              	.LBB58:
  48:Core/Src/lcd.c ****     uint8_t temp_Bit3rd_Data = data & 0x04;
 405              		.loc 1 48 5 view .LVU104
  49:Core/Src/lcd.c ****     data &= ~0x06;
 406              		.loc 1 49 5 view .LVU105
  50:Core/Src/lcd.c ****     data |= (uint8_t)((temp_Bit2nd_Data << 1) | (temp_Bit3rd_Data >> 1));
 407              		.loc 1 50 5 view .LVU106
  51:Core/Src/lcd.c **** 
 408              		.loc 1 51 5 view .LVU107
  53:Core/Src/lcd.c ****     tempReg &= 0xFFFFFF00;
 409              		.loc 1 53 5 view .LVU108
  53:Core/Src/lcd.c ****     tempReg &= 0xFFFFFF00;
 410              		.loc 1 53 14 is_stmt 0 view .LVU109
 411 006e E268     		ldr	r2, [r4, #12]
 412              	.LVL48:
  54:Core/Src/lcd.c ****     tempReg |= (uint32_t)data;
 413              		.loc 1 54 5 is_stmt 1 view .LVU110
  54:Core/Src/lcd.c ****     tempReg |= (uint32_t)data;
 414              		.loc 1 54 13 is_stmt 0 view .LVU111
 415 0070 22F0FF02 		bic	r2, r2, #255
ARM GAS  C:\Users\Vento\AppData\Local\Temp\ccDU9lzs.s 			page 20


 416              	.LVL49:
  55:Core/Src/lcd.c ****     DATA_PORT->ODR = tempReg;
 417              		.loc 1 55 5 is_stmt 1 view .LVU112
  55:Core/Src/lcd.c ****     DATA_PORT->ODR = tempReg;
 418              		.loc 1 55 13 is_stmt 0 view .LVU113
 419 0074 42F02D02 		orr	r2, r2, #45
 420              	.LVL50:
  56:Core/Src/lcd.c **** 
 421              		.loc 1 56 5 is_stmt 1 view .LVU114
  56:Core/Src/lcd.c **** 
 422              		.loc 1 56 20 is_stmt 0 view .LVU115
 423 0078 E260     		str	r2, [r4, #12]
  67:Core/Src/lcd.c ****     HAL_GPIO_WritePin(ILI9341_WR_GPIO_Port, ILI9341_WR_Pin, GPIO_PIN_SET);
 424              		.loc 1 67 5 is_stmt 1 view .LVU116
 425 007a 0022     		movs	r2, #0
 426              	.LVL51:
  67:Core/Src/lcd.c ****     HAL_GPIO_WritePin(ILI9341_WR_GPIO_Port, ILI9341_WR_Pin, GPIO_PIN_SET);
 427              		.loc 1 67 5 is_stmt 0 view .LVU117
 428 007c 4FF48061 		mov	r1, #1024
 429 0080 2046     		mov	r0, r4
 430 0082 FFF7FEFF 		bl	HAL_GPIO_WritePin
 431              	.LVL52:
  68:Core/Src/lcd.c **** }
 432              		.loc 1 68 5 is_stmt 1 view .LVU118
 433 0086 0122     		movs	r2, #1
 434 0088 4FF48061 		mov	r1, #1024
 435 008c 2046     		mov	r0, r4
 436 008e FFF7FEFF 		bl	HAL_GPIO_WritePin
 437              	.LVL53:
  68:Core/Src/lcd.c **** }
 438              		.loc 1 68 5 is_stmt 0 view .LVU119
 439              	.LBE58:
 440              	.LBE57:
 441              	.LBE56:
 442              	.LBE55:
 443              	.LBB59:
 111:Core/Src/lcd.c ****         ILI9341_WriteData(data, sizeof(data));
 444              		.loc 1 111 9 is_stmt 1 view .LVU120
 111:Core/Src/lcd.c ****         ILI9341_WriteData(data, sizeof(data));
 445              		.loc 1 111 17 is_stmt 0 view .LVU121
 446 0092 3B0A     		lsrs	r3, r7, #8
 447 0094 8DF80430 		strb	r3, [sp, #4]
 448 0098 8DF80570 		strb	r7, [sp, #5]
 449 009c 330A     		lsrs	r3, r6, #8
 450 009e 8DF80630 		strb	r3, [sp, #6]
 451 00a2 8DF80760 		strb	r6, [sp, #7]
 112:Core/Src/lcd.c ****     }
 452              		.loc 1 112 9 is_stmt 1 view .LVU122
 453 00a6 0421     		movs	r1, #4
 454 00a8 0DEB0100 		add	r0, sp, r1
 455 00ac FFF7FEFF 		bl	ILI9341_WriteData
 456              	.LVL54:
 457              	.LBE59:
 116:Core/Src/lcd.c **** }
 458              		.loc 1 116 5 view .LVU123
 459              	.LBB60:
 460              	.LBI60:
ARM GAS  C:\Users\Vento\AppData\Local\Temp\ccDU9lzs.s 			page 21


  71:Core/Src/lcd.c **** {
 461              		.loc 1 71 20 view .LVU124
 462              	.LBB61:
  74:Core/Src/lcd.c ****     ILI9341_SetData(cmd);
 463              		.loc 1 74 5 view .LVU125
 464 00b0 0022     		movs	r2, #0
 465 00b2 4FF48071 		mov	r1, #256
 466 00b6 2046     		mov	r0, r4
 467 00b8 FFF7FEFF 		bl	HAL_GPIO_WritePin
 468              	.LVL55:
  75:Core/Src/lcd.c ****     // ILI9341_Unselect();
 469              		.loc 1 75 5 view .LVU126
 470              	.LBB62:
 471              	.LBI62:
  46:Core/Src/lcd.c **** {
 472              		.loc 1 46 20 view .LVU127
 473              	.LBB63:
  48:Core/Src/lcd.c ****     uint8_t temp_Bit3rd_Data = data & 0x04;
 474              		.loc 1 48 5 view .LVU128
  49:Core/Src/lcd.c ****     data &= ~0x06;
 475              		.loc 1 49 5 view .LVU129
  50:Core/Src/lcd.c ****     data |= (uint8_t)((temp_Bit2nd_Data << 1) | (temp_Bit3rd_Data >> 1));
 476              		.loc 1 50 5 view .LVU130
  51:Core/Src/lcd.c **** 
 477              		.loc 1 51 5 view .LVU131
  53:Core/Src/lcd.c ****     tempReg &= 0xFFFFFF00;
 478              		.loc 1 53 5 view .LVU132
  53:Core/Src/lcd.c ****     tempReg &= 0xFFFFFF00;
 479              		.loc 1 53 14 is_stmt 0 view .LVU133
 480 00bc E368     		ldr	r3, [r4, #12]
 481              	.LVL56:
  54:Core/Src/lcd.c ****     tempReg |= (uint32_t)data;
 482              		.loc 1 54 5 is_stmt 1 view .LVU134
  54:Core/Src/lcd.c ****     tempReg |= (uint32_t)data;
 483              		.loc 1 54 13 is_stmt 0 view .LVU135
 484 00be 23F0FF03 		bic	r3, r3, #255
 485              	.LVL57:
  55:Core/Src/lcd.c ****     DATA_PORT->ODR = tempReg;
 486              		.loc 1 55 5 is_stmt 1 view .LVU136
  55:Core/Src/lcd.c ****     DATA_PORT->ODR = tempReg;
 487              		.loc 1 55 13 is_stmt 0 view .LVU137
 488 00c2 43F02A03 		orr	r3, r3, #42
 489              	.LVL58:
  56:Core/Src/lcd.c **** 
 490              		.loc 1 56 5 is_stmt 1 view .LVU138
  56:Core/Src/lcd.c **** 
 491              		.loc 1 56 20 is_stmt 0 view .LVU139
 492 00c6 E360     		str	r3, [r4, #12]
  67:Core/Src/lcd.c ****     HAL_GPIO_WritePin(ILI9341_WR_GPIO_Port, ILI9341_WR_Pin, GPIO_PIN_SET);
 493              		.loc 1 67 5 is_stmt 1 view .LVU140
 494 00c8 0022     		movs	r2, #0
 495 00ca 4FF48061 		mov	r1, #1024
 496 00ce 2046     		mov	r0, r4
 497 00d0 FFF7FEFF 		bl	HAL_GPIO_WritePin
 498              	.LVL59:
  68:Core/Src/lcd.c **** }
 499              		.loc 1 68 5 view .LVU141
ARM GAS  C:\Users\Vento\AppData\Local\Temp\ccDU9lzs.s 			page 22


 500 00d4 0122     		movs	r2, #1
 501 00d6 4FF48061 		mov	r1, #1024
 502 00da 2046     		mov	r0, r4
 503 00dc FFF7FEFF 		bl	HAL_GPIO_WritePin
 504              	.LVL60:
  68:Core/Src/lcd.c **** }
 505              		.loc 1 68 5 is_stmt 0 view .LVU142
 506              	.LBE63:
 507              	.LBE62:
 508              	.LBE61:
 509              	.LBE60:
 117:Core/Src/lcd.c **** 
 510              		.loc 1 117 1 view .LVU143
 511 00e0 03B0     		add	sp, sp, #12
 512              	.LCFI4:
 513              		.cfi_def_cfa_offset 28
 514              		@ sp needed
 515 00e2 BDE8F083 		pop	{r4, r5, r6, r7, r8, r9, pc}
 516              	.L19:
 517 00e6 00BF     		.align	2
 518              	.L18:
 519 00e8 000C0140 		.word	1073810432
 520              		.cfi_endproc
 521              	.LFE73:
 523              		.section	.text.ILI9341_WriteChar,"ax",%progbits
 524              		.align	1
 525              		.syntax unified
 526              		.thumb
 527              		.thumb_func
 528              		.fpu softvfp
 530              	ILI9341_WriteChar:
 531              	.LVL61:
 532              	.LFB77:
 340:Core/Src/lcd.c ****     uint32_t i, b, j;
 533              		.loc 1 340 1 is_stmt 1 view -0
 534              		.cfi_startproc
 535              		@ args = 20, pretend = 8, frame = 8
 536              		@ frame_needed = 0, uses_anonymous_args = 0
 340:Core/Src/lcd.c ****     uint32_t i, b, j;
 537              		.loc 1 340 1 is_stmt 0 view .LVU145
 538 0000 82B0     		sub	sp, sp, #8
 539              	.LCFI5:
 540              		.cfi_def_cfa_offset 8
 541 0002 2DE9F04F 		push	{r4, r5, r6, r7, r8, r9, r10, fp, lr}
 542              	.LCFI6:
 543              		.cfi_def_cfa_offset 44
 544              		.cfi_offset 4, -44
 545              		.cfi_offset 5, -40
 546              		.cfi_offset 6, -36
 547              		.cfi_offset 7, -32
 548              		.cfi_offset 8, -28
 549              		.cfi_offset 9, -24
 550              		.cfi_offset 10, -20
 551              		.cfi_offset 11, -16
 552              		.cfi_offset 14, -12
 553 0006 83B0     		sub	sp, sp, #12
 554              	.LCFI7:
ARM GAS  C:\Users\Vento\AppData\Local\Temp\ccDU9lzs.s 			page 23


 555              		.cfi_def_cfa_offset 56
 556 0008 9346     		mov	fp, r2
 557 000a 0D93     		str	r3, [sp, #52]
 558 000c BDF83C80 		ldrh	r8, [sp, #60]
 559 0010 BDF84070 		ldrh	r7, [sp, #64]
 341:Core/Src/lcd.c **** 
 560              		.loc 1 341 5 is_stmt 1 view .LVU146
 343:Core/Src/lcd.c **** 
 561              		.loc 1 343 5 view .LVU147
 343:Core/Src/lcd.c **** 
 562              		.loc 1 343 42 is_stmt 0 view .LVU148
 563 0014 9DF83450 		ldrb	r5, [sp, #52]	@ zero_extendqisi2
 343:Core/Src/lcd.c **** 
 564              		.loc 1 343 37 view .LVU149
 565 0018 2A18     		adds	r2, r5, r0
 566              	.LVL62:
 343:Core/Src/lcd.c **** 
 567              		.loc 1 343 37 view .LVU150
 568 001a 92B2     		uxth	r2, r2
 343:Core/Src/lcd.c **** 
 569              		.loc 1 343 58 view .LVU151
 570 001c 9DF835A0 		ldrb	r10, [sp, #53]	@ zero_extendqisi2
 343:Core/Src/lcd.c **** 
 571              		.loc 1 343 53 view .LVU152
 572 0020 0AEB0103 		add	r3, r10, r1
 573 0024 9BB2     		uxth	r3, r3
 343:Core/Src/lcd.c **** 
 574              		.loc 1 343 5 view .LVU153
 575 0026 013B     		subs	r3, r3, #1
 576 0028 013A     		subs	r2, r2, #1
 577 002a 9BB2     		uxth	r3, r3
 578 002c 92B2     		uxth	r2, r2
 579 002e FFF7FEFF 		bl	ILI9341_SetAddressWindow
 580              	.LVL63:
 345:Core/Src/lcd.c ****         b = font.data[(ch - 32) * font.height + i];
 581              		.loc 1 345 5 is_stmt 1 view .LVU154
 345:Core/Src/lcd.c ****         b = font.data[(ch - 32) * font.height + i];
 582              		.loc 1 345 11 is_stmt 0 view .LVU155
 583 0032 4FF00009 		mov	r9, #0
 345:Core/Src/lcd.c ****         b = font.data[(ch - 32) * font.height + i];
 584              		.loc 1 345 5 view .LVU156
 585 0036 1DE0     		b	.L21
 586              	.LVL64:
 587              	.L23:
 588              	.LBB64:
 352:Core/Src/lcd.c ****                 ILI9341_WriteData(data, sizeof(data));
 589              		.loc 1 352 17 is_stmt 1 view .LVU157
 352:Core/Src/lcd.c ****                 ILI9341_WriteData(data, sizeof(data));
 590              		.loc 1 352 25 is_stmt 0 view .LVU158
 591 0038 3B0A     		lsrs	r3, r7, #8
 592 003a 8DF80430 		strb	r3, [sp, #4]
 593 003e 8DF80570 		strb	r7, [sp, #5]
 353:Core/Src/lcd.c ****             }
 594              		.loc 1 353 17 is_stmt 1 view .LVU159
 595 0042 0221     		movs	r1, #2
 596 0044 01A8     		add	r0, sp, #4
 597 0046 FFF7FEFF 		bl	ILI9341_WriteData
ARM GAS  C:\Users\Vento\AppData\Local\Temp\ccDU9lzs.s 			page 24


 598              	.LVL65:
 599              	.L24:
 353:Core/Src/lcd.c ****             }
 600              		.loc 1 353 17 is_stmt 0 view .LVU160
 601              	.LBE64:
 347:Core/Src/lcd.c ****             if((b << j) & 0x8000)  {
 602              		.loc 1 347 36 is_stmt 1 discriminator 2 view .LVU161
 347:Core/Src/lcd.c ****             if((b << j) & 0x8000)  {
 603              		.loc 1 347 37 is_stmt 0 discriminator 2 view .LVU162
 604 004a 0134     		adds	r4, r4, #1
 605              	.LVL66:
 606              	.L22:
 347:Core/Src/lcd.c ****             if((b << j) & 0x8000)  {
 607              		.loc 1 347 20 is_stmt 1 discriminator 1 view .LVU163
 347:Core/Src/lcd.c ****             if((b << j) & 0x8000)  {
 608              		.loc 1 347 9 is_stmt 0 discriminator 1 view .LVU164
 609 004c A542     		cmp	r5, r4
 610 004e 0FD9     		bls	.L28
 348:Core/Src/lcd.c ****                 uint8_t data[] = { color >> 8, color & 0xFF };
 611              		.loc 1 348 13 is_stmt 1 view .LVU165
 348:Core/Src/lcd.c ****                 uint8_t data[] = { color >> 8, color & 0xFF };
 612              		.loc 1 348 19 is_stmt 0 view .LVU166
 613 0050 06FA04F3 		lsl	r3, r6, r4
 348:Core/Src/lcd.c ****                 uint8_t data[] = { color >> 8, color & 0xFF };
 614              		.loc 1 348 15 view .LVU167
 615 0054 13F4004F 		tst	r3, #32768
 616 0058 EED0     		beq	.L23
 617              	.LBB65:
 349:Core/Src/lcd.c ****                 ILI9341_WriteData(data, sizeof(data));
 618              		.loc 1 349 17 is_stmt 1 view .LVU168
 349:Core/Src/lcd.c ****                 ILI9341_WriteData(data, sizeof(data));
 619              		.loc 1 349 25 is_stmt 0 view .LVU169
 620 005a 4FEA1823 		lsr	r3, r8, #8
 621 005e 8DF80430 		strb	r3, [sp, #4]
 622 0062 8DF80580 		strb	r8, [sp, #5]
 350:Core/Src/lcd.c ****             } else {
 623              		.loc 1 350 17 is_stmt 1 view .LVU170
 624 0066 0221     		movs	r1, #2
 625 0068 01A8     		add	r0, sp, #4
 626 006a FFF7FEFF 		bl	ILI9341_WriteData
 627              	.LVL67:
 628              	.LBE65:
 629 006e ECE7     		b	.L24
 630              	.L28:
 345:Core/Src/lcd.c ****         b = font.data[(ch - 32) * font.height + i];
 631              		.loc 1 345 33 discriminator 2 view .LVU171
 345:Core/Src/lcd.c ****         b = font.data[(ch - 32) * font.height + i];
 632              		.loc 1 345 34 is_stmt 0 discriminator 2 view .LVU172
 633 0070 09F10109 		add	r9, r9, #1
 634              	.LVL68:
 635              	.L21:
 345:Core/Src/lcd.c ****         b = font.data[(ch - 32) * font.height + i];
 636              		.loc 1 345 16 is_stmt 1 discriminator 1 view .LVU173
 345:Core/Src/lcd.c ****         b = font.data[(ch - 32) * font.height + i];
 637              		.loc 1 345 5 is_stmt 0 discriminator 1 view .LVU174
 638 0074 CA45     		cmp	r10, r9
 639 0076 08D9     		bls	.L29
ARM GAS  C:\Users\Vento\AppData\Local\Temp\ccDU9lzs.s 			page 25


 346:Core/Src/lcd.c ****         for(j = 0; j < font.width; j++) {
 640              		.loc 1 346 9 is_stmt 1 view .LVU175
 346:Core/Src/lcd.c ****         for(j = 0; j < font.width; j++) {
 641              		.loc 1 346 27 is_stmt 0 view .LVU176
 642 0078 ABF12003 		sub	r3, fp, #32
 346:Core/Src/lcd.c ****         for(j = 0; j < font.width; j++) {
 643              		.loc 1 346 47 view .LVU177
 644 007c 0AFB0393 		mla	r3, r10, r3, r9
 346:Core/Src/lcd.c ****         for(j = 0; j < font.width; j++) {
 645              		.loc 1 346 22 view .LVU178
 646 0080 0E9A     		ldr	r2, [sp, #56]
 647 0082 32F81360 		ldrh	r6, [r2, r3, lsl #1]
 648              	.LVL69:
 347:Core/Src/lcd.c ****             if((b << j) & 0x8000)  {
 649              		.loc 1 347 9 is_stmt 1 view .LVU179
 347:Core/Src/lcd.c ****             if((b << j) & 0x8000)  {
 650              		.loc 1 347 15 is_stmt 0 view .LVU180
 651 0086 0024     		movs	r4, #0
 347:Core/Src/lcd.c ****             if((b << j) & 0x8000)  {
 652              		.loc 1 347 9 view .LVU181
 653 0088 E0E7     		b	.L22
 654              	.LVL70:
 655              	.L29:
 357:Core/Src/lcd.c **** 
 656              		.loc 1 357 1 view .LVU182
 657 008a 03B0     		add	sp, sp, #12
 658              	.LCFI8:
 659              		.cfi_def_cfa_offset 44
 660              		@ sp needed
 661 008c BDE8F04F 		pop	{r4, r5, r6, r7, r8, r9, r10, fp, lr}
 662              	.LCFI9:
 663              		.cfi_restore 14
 664              		.cfi_restore 11
 665              		.cfi_restore 10
 666              		.cfi_restore 9
 667              		.cfi_restore 8
 668              		.cfi_restore 7
 669              		.cfi_restore 6
 670              		.cfi_restore 5
 671              		.cfi_restore 4
 672              		.cfi_def_cfa_offset 8
 673              	.LVL71:
 357:Core/Src/lcd.c **** 
 674              		.loc 1 357 1 view .LVU183
 675 0090 02B0     		add	sp, sp, #8
 676              	.LCFI10:
 677              		.cfi_def_cfa_offset 0
 678 0092 7047     		bx	lr
 679              		.cfi_endproc
 680              	.LFE77:
 682              		.section	.text.ILI9341_LCD_LED,"ax",%progbits
 683              		.align	1
 684              		.global	ILI9341_LCD_LED
 685              		.syntax unified
 686              		.thumb
 687              		.thumb_func
 688              		.fpu softvfp
ARM GAS  C:\Users\Vento\AppData\Local\Temp\ccDU9lzs.s 			page 26


 690              	ILI9341_LCD_LED:
 691              	.LVL72:
 692              	.LFB65:
  21:Core/Src/lcd.c ****     if (state == true)
 693              		.loc 1 21 1 is_stmt 1 view -0
 694              		.cfi_startproc
 695              		@ args = 0, pretend = 0, frame = 0
 696              		@ frame_needed = 0, uses_anonymous_args = 0
  21:Core/Src/lcd.c ****     if (state == true)
 697              		.loc 1 21 1 is_stmt 0 view .LVU185
 698 0000 08B5     		push	{r3, lr}
 699              	.LCFI11:
 700              		.cfi_def_cfa_offset 8
 701              		.cfi_offset 3, -8
 702              		.cfi_offset 14, -4
  22:Core/Src/lcd.c ****         HAL_GPIO_WritePin(ILI9341_LED_GPIO_Port, ILI9341_LED_Pin, SET);
 703              		.loc 1 22 5 is_stmt 1 view .LVU186
  22:Core/Src/lcd.c ****         HAL_GPIO_WritePin(ILI9341_LED_GPIO_Port, ILI9341_LED_Pin, SET);
 704              		.loc 1 22 8 is_stmt 0 view .LVU187
 705 0002 28B1     		cbz	r0, .L31
  23:Core/Src/lcd.c ****     else
 706              		.loc 1 23 9 is_stmt 1 view .LVU188
 707 0004 0122     		movs	r2, #1
 708 0006 0421     		movs	r1, #4
 709 0008 0448     		ldr	r0, .L34
 710              	.LVL73:
  23:Core/Src/lcd.c ****     else
 711              		.loc 1 23 9 is_stmt 0 view .LVU189
 712 000a FFF7FEFF 		bl	HAL_GPIO_WritePin
 713              	.LVL74:
 714              	.L30:
  26:Core/Src/lcd.c **** 
 715              		.loc 1 26 1 view .LVU190
 716 000e 08BD     		pop	{r3, pc}
 717              	.LVL75:
 718              	.L31:
  25:Core/Src/lcd.c **** }
 719              		.loc 1 25 9 is_stmt 1 view .LVU191
 720 0010 0022     		movs	r2, #0
 721 0012 0421     		movs	r1, #4
 722 0014 0148     		ldr	r0, .L34
 723              	.LVL76:
  25:Core/Src/lcd.c **** }
 724              		.loc 1 25 9 is_stmt 0 view .LVU192
 725 0016 FFF7FEFF 		bl	HAL_GPIO_WritePin
 726              	.LVL77:
  26:Core/Src/lcd.c **** 
 727              		.loc 1 26 1 view .LVU193
 728 001a F8E7     		b	.L30
 729              	.L35:
 730              		.align	2
 731              	.L34:
 732 001c 00140140 		.word	1073812480
 733              		.cfi_endproc
 734              	.LFE65:
 736              		.section	.text.ILI9341_Unselect,"ax",%progbits
 737              		.align	1
ARM GAS  C:\Users\Vento\AppData\Local\Temp\ccDU9lzs.s 			page 27


 738              		.global	ILI9341_Unselect
 739              		.syntax unified
 740              		.thumb
 741              		.thumb_func
 742              		.fpu softvfp
 744              	ILI9341_Unselect:
 745              	.LFB67:
  34:Core/Src/lcd.c ****     HAL_GPIO_WritePin(ILI9341_CS_GPIO_Port, ILI9341_CS_Pin, GPIO_PIN_SET);
 746              		.loc 1 34 1 is_stmt 1 view -0
 747              		.cfi_startproc
 748              		@ args = 0, pretend = 0, frame = 0
 749              		@ frame_needed = 0, uses_anonymous_args = 0
 750 0000 08B5     		push	{r3, lr}
 751              	.LCFI12:
 752              		.cfi_def_cfa_offset 8
 753              		.cfi_offset 3, -8
 754              		.cfi_offset 14, -4
  35:Core/Src/lcd.c **** }
 755              		.loc 1 35 5 view .LVU195
 756 0002 0122     		movs	r2, #1
 757 0004 4FF40071 		mov	r1, #512
 758 0008 0148     		ldr	r0, .L38
 759 000a FFF7FEFF 		bl	HAL_GPIO_WritePin
 760              	.LVL78:
  36:Core/Src/lcd.c **** 
 761              		.loc 1 36 1 is_stmt 0 view .LVU196
 762 000e 08BD     		pop	{r3, pc}
 763              	.L39:
 764              		.align	2
 765              	.L38:
 766 0010 000C0140 		.word	1073810432
 767              		.cfi_endproc
 768              	.LFE67:
 770              		.section	.text.ILI9341_DrawPixel,"ax",%progbits
 771              		.align	1
 772              		.global	ILI9341_DrawPixel
 773              		.syntax unified
 774              		.thumb
 775              		.thumb_func
 776              		.fpu softvfp
 778              	ILI9341_DrawPixel:
 779              	.LVL79:
 780              	.LFB75:
 270:Core/Src/lcd.c ****     if((x >= ILI9341_WIDTH) || (y >= ILI9341_HEIGHT))
 781              		.loc 1 270 1 is_stmt 1 view -0
 782              		.cfi_startproc
 783              		@ args = 0, pretend = 0, frame = 8
 784              		@ frame_needed = 0, uses_anonymous_args = 0
 271:Core/Src/lcd.c ****         return;
 785              		.loc 1 271 5 view .LVU198
 271:Core/Src/lcd.c ****         return;
 786              		.loc 1 271 7 is_stmt 0 view .LVU199
 787 0000 B0F5A07F 		cmp	r0, #320
 788 0004 27D2     		bcs	.L45
 270:Core/Src/lcd.c ****     if((x >= ILI9341_WIDTH) || (y >= ILI9341_HEIGHT))
 789              		.loc 1 270 1 discriminator 1 view .LVU200
 790 0006 F0B5     		push	{r4, r5, r6, r7, lr}
ARM GAS  C:\Users\Vento\AppData\Local\Temp\ccDU9lzs.s 			page 28


 791              	.LCFI13:
 792              		.cfi_def_cfa_offset 20
 793              		.cfi_offset 4, -20
 794              		.cfi_offset 5, -16
 795              		.cfi_offset 6, -12
 796              		.cfi_offset 7, -8
 797              		.cfi_offset 14, -4
 798 0008 83B0     		sub	sp, sp, #12
 799              	.LCFI14:
 800              		.cfi_def_cfa_offset 32
 801 000a 0446     		mov	r4, r0
 802 000c 0D46     		mov	r5, r1
 803 000e 1646     		mov	r6, r2
 271:Core/Src/lcd.c ****         return;
 804              		.loc 1 271 29 discriminator 1 view .LVU201
 805 0010 EF29     		cmp	r1, #239
 806 0012 01D9     		bls	.L48
 807              	.LVL80:
 808              	.L40:
 281:Core/Src/lcd.c **** 
 809              		.loc 1 281 1 view .LVU202
 810 0014 03B0     		add	sp, sp, #12
 811              	.LCFI15:
 812              		.cfi_remember_state
 813              		.cfi_def_cfa_offset 20
 814              		@ sp needed
 815 0016 F0BD     		pop	{r4, r5, r6, r7, pc}
 816              	.LVL81:
 817              	.L48:
 818              	.LCFI16:
 819              		.cfi_restore_state
 274:Core/Src/lcd.c **** 
 820              		.loc 1 274 5 is_stmt 1 view .LVU203
 821              	.LBB66:
 822              	.LBI66:
  28:Core/Src/lcd.c **** {
 823              		.loc 1 28 20 view .LVU204
 824              	.LBB67:
  30:Core/Src/lcd.c **** }
 825              		.loc 1 30 5 view .LVU205
 826 0018 0F4F     		ldr	r7, .L49
 827 001a 0022     		movs	r2, #0
 828              	.LVL82:
  30:Core/Src/lcd.c **** }
 829              		.loc 1 30 5 is_stmt 0 view .LVU206
 830 001c 4FF40071 		mov	r1, #512
 831              	.LVL83:
  30:Core/Src/lcd.c **** }
 832              		.loc 1 30 5 view .LVU207
 833 0020 3846     		mov	r0, r7
 834              	.LVL84:
  30:Core/Src/lcd.c **** }
 835              		.loc 1 30 5 view .LVU208
 836 0022 FFF7FEFF 		bl	HAL_GPIO_WritePin
 837              	.LVL85:
 838              	.LBE67:
 839              	.LBE66:
ARM GAS  C:\Users\Vento\AppData\Local\Temp\ccDU9lzs.s 			page 29


 276:Core/Src/lcd.c ****     uint8_t data[] = { color >> 8, color & 0xFF };
 840              		.loc 1 276 5 is_stmt 1 view .LVU209
 841 0026 6B1C     		adds	r3, r5, #1
 842 0028 621C     		adds	r2, r4, #1
 843 002a 9BB2     		uxth	r3, r3
 844 002c 92B2     		uxth	r2, r2
 845 002e 2946     		mov	r1, r5
 846 0030 2046     		mov	r0, r4
 847 0032 FFF7FEFF 		bl	ILI9341_SetAddressWindow
 848              	.LVL86:
 277:Core/Src/lcd.c ****     ILI9341_WriteData(data, sizeof(data));
 849              		.loc 1 277 5 view .LVU210
 277:Core/Src/lcd.c ****     ILI9341_WriteData(data, sizeof(data));
 850              		.loc 1 277 13 is_stmt 0 view .LVU211
 851 0036 330A     		lsrs	r3, r6, #8
 852 0038 8DF80430 		strb	r3, [sp, #4]
 853 003c 8DF80560 		strb	r6, [sp, #5]
 278:Core/Src/lcd.c **** 
 854              		.loc 1 278 5 is_stmt 1 view .LVU212
 855 0040 0221     		movs	r1, #2
 856 0042 01A8     		add	r0, sp, #4
 857 0044 FFF7FEFF 		bl	ILI9341_WriteData
 858              	.LVL87:
 280:Core/Src/lcd.c **** }
 859              		.loc 1 280 5 view .LVU213
 860              	.LBB68:
 861              	.LBI68:
  33:Core/Src/lcd.c **** {
 862              		.loc 1 33 13 view .LVU214
 863              	.LBB69:
  35:Core/Src/lcd.c **** }
 864              		.loc 1 35 5 view .LVU215
 865 0048 0122     		movs	r2, #1
 866 004a 4FF40071 		mov	r1, #512
 867 004e 3846     		mov	r0, r7
 868 0050 FFF7FEFF 		bl	HAL_GPIO_WritePin
 869              	.LVL88:
 870              	.LBE69:
 871              	.LBE68:
 872 0054 DEE7     		b	.L40
 873              	.LVL89:
 874              	.L45:
 875              	.LCFI17:
 876              		.cfi_def_cfa_offset 0
 877              		.cfi_restore 4
 878              		.cfi_restore 5
 879              		.cfi_restore 6
 880              		.cfi_restore 7
 881              		.cfi_restore 14
  35:Core/Src/lcd.c **** }
 882              		.loc 1 35 5 is_stmt 0 view .LVU216
 883 0056 7047     		bx	lr
 884              	.L50:
 885              		.align	2
 886              	.L49:
 887 0058 000C0140 		.word	1073810432
 888              		.cfi_endproc
ARM GAS  C:\Users\Vento\AppData\Local\Temp\ccDU9lzs.s 			page 30


 889              	.LFE75:
 891              		.section	.text.ILI9341_DrawLine,"ax",%progbits
 892              		.align	1
 893              		.global	ILI9341_DrawLine
 894              		.syntax unified
 895              		.thumb
 896              		.thumb_func
 897              		.fpu softvfp
 899              	ILI9341_DrawLine:
 900              	.LVL90:
 901              	.LFB76:
 284:Core/Src/lcd.c ****     uint16_t t; 
 902              		.loc 1 284 1 is_stmt 1 view -0
 903              		.cfi_startproc
 904              		@ args = 4, pretend = 0, frame = 16
 905              		@ frame_needed = 0, uses_anonymous_args = 0
 284:Core/Src/lcd.c ****     uint16_t t; 
 906              		.loc 1 284 1 is_stmt 0 view .LVU218
 907 0000 2DE9F04F 		push	{r4, r5, r6, r7, r8, r9, r10, fp, lr}
 908              	.LCFI18:
 909              		.cfi_def_cfa_offset 36
 910              		.cfi_offset 4, -36
 911              		.cfi_offset 5, -32
 912              		.cfi_offset 6, -28
 913              		.cfi_offset 7, -24
 914              		.cfi_offset 8, -20
 915              		.cfi_offset 9, -16
 916              		.cfi_offset 10, -12
 917              		.cfi_offset 11, -8
 918              		.cfi_offset 14, -4
 919 0004 85B0     		sub	sp, sp, #20
 920              	.LCFI19:
 921              		.cfi_def_cfa_offset 56
 922 0006 BDF83840 		ldrh	r4, [sp, #56]
 923 000a 0194     		str	r4, [sp, #4]
 285:Core/Src/lcd.c **** 	int xerr = 0, yerr = 0, delta_x, delta_y, distance; 
 924              		.loc 1 285 5 is_stmt 1 view .LVU219
 286:Core/Src/lcd.c **** 	int incx, incy, uRow, uCol;
 925              		.loc 1 286 2 view .LVU220
 926              	.LVL91:
 287:Core/Src/lcd.c **** 
 927              		.loc 1 287 2 view .LVU221
 289:Core/Src/lcd.c **** 	delta_y = y2 - y1; 
 928              		.loc 1 289 2 view .LVU222
 289:Core/Src/lcd.c **** 	delta_y = y2 - y1; 
 929              		.loc 1 289 15 is_stmt 0 view .LVU223
 930 000c 8046     		mov	r8, r0
 289:Core/Src/lcd.c **** 	delta_y = y2 - y1; 
 931              		.loc 1 289 10 view .LVU224
 932 000e A2EB000A 		sub	r10, r2, r0
 933              	.LVL92:
 290:Core/Src/lcd.c **** 	uRow = x1; 
 934              		.loc 1 290 2 is_stmt 1 view .LVU225
 290:Core/Src/lcd.c **** 	uRow = x1; 
 935              		.loc 1 290 15 is_stmt 0 view .LVU226
 936 0012 8946     		mov	r9, r1
 290:Core/Src/lcd.c **** 	uRow = x1; 
ARM GAS  C:\Users\Vento\AppData\Local\Temp\ccDU9lzs.s 			page 31


 937              		.loc 1 290 10 view .LVU227
 938 0014 A3EB010B 		sub	fp, r3, r1
 939              	.LVL93:
 291:Core/Src/lcd.c **** 	uCol = y1;
 940              		.loc 1 291 2 is_stmt 1 view .LVU228
 292:Core/Src/lcd.c **** 
 941              		.loc 1 292 2 view .LVU229
 294:Core/Src/lcd.c ****         incx = 1;
 942              		.loc 1 294 2 view .LVU230
 294:Core/Src/lcd.c ****         incx = 1;
 943              		.loc 1 294 5 is_stmt 0 view .LVU231
 944 0018 BAF1000F 		cmp	r10, #0
 945 001c 0DDD     		ble	.L65
 295:Core/Src/lcd.c **** 	else if (delta_x == 0)
 946              		.loc 1 295 14 view .LVU232
 947 001e 0122     		movs	r2, #1
 948              	.LVL94:
 295:Core/Src/lcd.c **** 	else if (delta_x == 0)
 949              		.loc 1 295 14 view .LVU233
 950 0020 0292     		str	r2, [sp, #8]
 951              	.L52:
 952              	.LVL95:
 304:Core/Src/lcd.c ****         incy = 1; 
 953              		.loc 1 304 5 is_stmt 1 view .LVU234
 304:Core/Src/lcd.c ****         incy = 1; 
 954              		.loc 1 304 8 is_stmt 0 view .LVU235
 955 0022 BBF1000F 		cmp	fp, #0
 956 0026 14DD     		ble	.L66
 305:Core/Src/lcd.c **** 	else if (delta_y==0)
 957              		.loc 1 305 14 view .LVU236
 958 0028 0123     		movs	r3, #1
 959              	.LVL96:
 305:Core/Src/lcd.c **** 	else if (delta_y==0)
 960              		.loc 1 305 14 view .LVU237
 961 002a 0393     		str	r3, [sp, #12]
 962              	.L53:
 963              	.LVL97:
 314:Core/Src/lcd.c ****         distance = delta_x;
 964              		.loc 1 314 2 is_stmt 1 view .LVU238
 314:Core/Src/lcd.c ****         distance = delta_x;
 965              		.loc 1 314 5 is_stmt 0 view .LVU239
 966 002c DA45     		cmp	r10, fp
 967 002e 1CDD     		ble	.L63
 315:Core/Src/lcd.c **** 	else 
 968              		.loc 1 315 18 view .LVU240
 969 0030 5646     		mov	r6, r10
 970              	.L54:
 971              	.LVL98:
 319:Core/Src/lcd.c **** 	{  
 972              		.loc 1 319 2 is_stmt 1 view .LVU241
 286:Core/Src/lcd.c **** 	int incx, incy, uRow, uCol;
 973              		.loc 1 286 16 is_stmt 0 view .LVU242
 974 0032 0025     		movs	r5, #0
 286:Core/Src/lcd.c **** 	int incx, incy, uRow, uCol;
 975              		.loc 1 286 6 view .LVU243
 976 0034 2F46     		mov	r7, r5
 319:Core/Src/lcd.c **** 	{  
ARM GAS  C:\Users\Vento\AppData\Local\Temp\ccDU9lzs.s 			page 32


 977              		.loc 1 319 8 view .LVU244
 978 0036 2C46     		mov	r4, r5
 319:Core/Src/lcd.c **** 	{  
 979              		.loc 1 319 2 view .LVU245
 980 0038 1BE0     		b	.L55
 981              	.LVL99:
 982              	.L65:
 296:Core/Src/lcd.c ****         incx = 0;
 983              		.loc 1 296 7 is_stmt 1 view .LVU246
 296:Core/Src/lcd.c ****         incx = 0;
 984              		.loc 1 296 10 is_stmt 0 view .LVU247
 985 003a BAF1000F 		cmp	r10, #0
 986 003e 05D0     		beq	.L60
 300:Core/Src/lcd.c ****         delta_x = -delta_x;
 987              		.loc 1 300 9 is_stmt 1 view .LVU248
 988              	.LVL100:
 301:Core/Src/lcd.c ****     } 
 989              		.loc 1 301 9 view .LVU249
 301:Core/Src/lcd.c ****     } 
 990              		.loc 1 301 17 is_stmt 0 view .LVU250
 991 0040 A0EB020A 		sub	r10, r0, r2
 992              	.LVL101:
 300:Core/Src/lcd.c ****         delta_x = -delta_x;
 993              		.loc 1 300 14 view .LVU251
 994 0044 4FF0FF32 		mov	r2, #-1
 995              	.LVL102:
 300:Core/Src/lcd.c ****         delta_x = -delta_x;
 996              		.loc 1 300 14 view .LVU252
 997 0048 0292     		str	r2, [sp, #8]
 998 004a EAE7     		b	.L52
 999              	.LVL103:
 1000              	.L60:
 297:Core/Src/lcd.c **** 	else 
 1001              		.loc 1 297 14 view .LVU253
 1002 004c CDF808A0 		str	r10, [sp, #8]
 1003 0050 E7E7     		b	.L52
 1004              	.LVL104:
 1005              	.L66:
 306:Core/Src/lcd.c ****         incy = 0;
 1006              		.loc 1 306 7 is_stmt 1 view .LVU254
 306:Core/Src/lcd.c ****         incy = 0;
 1007              		.loc 1 306 10 is_stmt 0 view .LVU255
 1008 0052 BBF1000F 		cmp	fp, #0
 1009 0056 05D0     		beq	.L62
 310:Core/Src/lcd.c ****         delta_y = -delta_y;
 1010              		.loc 1 310 9 is_stmt 1 view .LVU256
 1011              	.LVL105:
 311:Core/Src/lcd.c ****     } 
 1012              		.loc 1 311 9 view .LVU257
 311:Core/Src/lcd.c ****     } 
 1013              		.loc 1 311 17 is_stmt 0 view .LVU258
 1014 0058 A1EB030B 		sub	fp, r1, r3
 1015              	.LVL106:
 310:Core/Src/lcd.c ****         delta_y = -delta_y;
 1016              		.loc 1 310 14 view .LVU259
 1017 005c 4FF0FF33 		mov	r3, #-1
 1018              	.LVL107:
ARM GAS  C:\Users\Vento\AppData\Local\Temp\ccDU9lzs.s 			page 33


 310:Core/Src/lcd.c ****         delta_y = -delta_y;
 1019              		.loc 1 310 14 view .LVU260
 1020 0060 0393     		str	r3, [sp, #12]
 1021 0062 E3E7     		b	.L53
 1022              	.LVL108:
 1023              	.L62:
 307:Core/Src/lcd.c **** 	else
 1024              		.loc 1 307 14 view .LVU261
 1025 0064 CDF80CB0 		str	fp, [sp, #12]
 1026 0068 E0E7     		b	.L53
 1027              	.LVL109:
 1028              	.L63:
 317:Core/Src/lcd.c ****     
 1029              		.loc 1 317 18 view .LVU262
 1030 006a 5E46     		mov	r6, fp
 1031 006c E1E7     		b	.L54
 1032              	.LVL110:
 1033              	.L57:
 319:Core/Src/lcd.c **** 	{  
 1034              		.loc 1 319 32 is_stmt 1 discriminator 2 view .LVU263
 319:Core/Src/lcd.c **** 	{  
 1035              		.loc 1 319 33 is_stmt 0 discriminator 2 view .LVU264
 1036 006e 0134     		adds	r4, r4, #1
 1037              	.LVL111:
 319:Core/Src/lcd.c **** 	{  
 1038              		.loc 1 319 33 discriminator 2 view .LVU265
 1039 0070 A4B2     		uxth	r4, r4
 1040              	.LVL112:
 1041              	.L55:
 319:Core/Src/lcd.c **** 	{  
 1042              		.loc 1 319 13 is_stmt 1 discriminator 1 view .LVU266
 319:Core/Src/lcd.c **** 	{  
 1043              		.loc 1 319 27 is_stmt 0 discriminator 1 view .LVU267
 1044 0072 731C     		adds	r3, r6, #1
 319:Core/Src/lcd.c **** 	{  
 1045              		.loc 1 319 2 discriminator 1 view .LVU268
 1046 0074 9C42     		cmp	r4, r3
 1047 0076 13DC     		bgt	.L67
 321:Core/Src/lcd.c **** 
 1048              		.loc 1 321 3 is_stmt 1 view .LVU269
 1049 0078 019A     		ldr	r2, [sp, #4]
 1050 007a 1FFA89F1 		uxth	r1, r9
 1051 007e 1FFA88F0 		uxth	r0, r8
 1052 0082 FFF7FEFF 		bl	ILI9341_DrawPixel
 1053              	.LVL113:
 323:Core/Src/lcd.c **** 		yerr += delta_y; 
 1054              		.loc 1 323 3 view .LVU270
 323:Core/Src/lcd.c **** 		yerr += delta_y; 
 1055              		.loc 1 323 8 is_stmt 0 view .LVU271
 1056 0086 5744     		add	r7, r7, r10
 1057              	.LVL114:
 324:Core/Src/lcd.c **** 
 1058              		.loc 1 324 3 is_stmt 1 view .LVU272
 324:Core/Src/lcd.c **** 
 1059              		.loc 1 324 8 is_stmt 0 view .LVU273
 1060 0088 5D44     		add	r5, r5, fp
 1061              	.LVL115:
ARM GAS  C:\Users\Vento\AppData\Local\Temp\ccDU9lzs.s 			page 34


 326:Core/Src/lcd.c **** 		{ 
 1062              		.loc 1 326 3 is_stmt 1 view .LVU274
 326:Core/Src/lcd.c **** 		{ 
 1063              		.loc 1 326 6 is_stmt 0 view .LVU275
 1064 008a BE42     		cmp	r6, r7
 1065 008c 02DA     		bge	.L56
 328:Core/Src/lcd.c **** 			uRow += incx; 
 1066              		.loc 1 328 4 is_stmt 1 view .LVU276
 328:Core/Src/lcd.c **** 			uRow += incx; 
 1067              		.loc 1 328 9 is_stmt 0 view .LVU277
 1068 008e BF1B     		subs	r7, r7, r6
 1069              	.LVL116:
 329:Core/Src/lcd.c **** 		} 
 1070              		.loc 1 329 4 is_stmt 1 view .LVU278
 329:Core/Src/lcd.c **** 		} 
 1071              		.loc 1 329 9 is_stmt 0 view .LVU279
 1072 0090 029B     		ldr	r3, [sp, #8]
 1073 0092 9844     		add	r8, r8, r3
 1074              	.LVL117:
 1075              	.L56:
 331:Core/Src/lcd.c **** 		{ 
 1076              		.loc 1 331 3 is_stmt 1 view .LVU280
 331:Core/Src/lcd.c **** 		{ 
 1077              		.loc 1 331 6 is_stmt 0 view .LVU281
 1078 0094 AE42     		cmp	r6, r5
 1079 0096 EADA     		bge	.L57
 333:Core/Src/lcd.c **** 			uCol += incy; 
 1080              		.loc 1 333 4 is_stmt 1 view .LVU282
 333:Core/Src/lcd.c **** 			uCol += incy; 
 1081              		.loc 1 333 9 is_stmt 0 view .LVU283
 1082 0098 AD1B     		subs	r5, r5, r6
 1083              	.LVL118:
 334:Core/Src/lcd.c **** 		} 
 1084              		.loc 1 334 4 is_stmt 1 view .LVU284
 334:Core/Src/lcd.c **** 		} 
 1085              		.loc 1 334 9 is_stmt 0 view .LVU285
 1086 009a 039B     		ldr	r3, [sp, #12]
 1087 009c 9944     		add	r9, r9, r3
 1088              	.LVL119:
 334:Core/Src/lcd.c **** 		} 
 1089              		.loc 1 334 9 view .LVU286
 1090 009e E6E7     		b	.L57
 1091              	.L67:
 337:Core/Src/lcd.c **** 
 1092              		.loc 1 337 1 view .LVU287
 1093 00a0 05B0     		add	sp, sp, #20
 1094              	.LCFI20:
 1095              		.cfi_def_cfa_offset 36
 1096              		@ sp needed
 1097 00a2 BDE8F08F 		pop	{r4, r5, r6, r7, r8, r9, r10, fp, pc}
 337:Core/Src/lcd.c **** 
 1098              		.loc 1 337 1 view .LVU288
 1099              		.cfi_endproc
 1100              	.LFE76:
 1102              		.section	.text.ILI9341_WriteString,"ax",%progbits
 1103              		.align	1
 1104              		.global	ILI9341_WriteString
ARM GAS  C:\Users\Vento\AppData\Local\Temp\ccDU9lzs.s 			page 35


 1105              		.syntax unified
 1106              		.thumb
 1107              		.thumb_func
 1108              		.fpu softvfp
 1110              	ILI9341_WriteString:
 1111              	.LVL120:
 1112              	.LFB78:
 360:Core/Src/lcd.c ****     ILI9341_Select();
 1113              		.loc 1 360 1 is_stmt 1 view -0
 1114              		.cfi_startproc
 1115              		@ args = 20, pretend = 8, frame = 0
 1116              		@ frame_needed = 0, uses_anonymous_args = 0
 360:Core/Src/lcd.c ****     ILI9341_Select();
 1117              		.loc 1 360 1 is_stmt 0 view .LVU290
 1118 0000 82B0     		sub	sp, sp, #8
 1119              	.LCFI21:
 1120              		.cfi_def_cfa_offset 8
 1121 0002 2DE9F043 		push	{r4, r5, r6, r7, r8, r9, lr}
 1122              	.LCFI22:
 1123              		.cfi_def_cfa_offset 36
 1124              		.cfi_offset 4, -36
 1125              		.cfi_offset 5, -32
 1126              		.cfi_offset 6, -28
 1127              		.cfi_offset 7, -24
 1128              		.cfi_offset 8, -20
 1129              		.cfi_offset 9, -16
 1130              		.cfi_offset 14, -12
 1131 0006 85B0     		sub	sp, sp, #20
 1132              	.LCFI23:
 1133              		.cfi_def_cfa_offset 56
 1134 0008 0646     		mov	r6, r0
 1135 000a 0D46     		mov	r5, r1
 1136 000c 1746     		mov	r7, r2
 1137 000e 0D93     		str	r3, [sp, #52]
 1138 0010 BDF83C90 		ldrh	r9, [sp, #60]
 1139 0014 BDF84080 		ldrh	r8, [sp, #64]
 361:Core/Src/lcd.c **** 
 1140              		.loc 1 361 5 is_stmt 1 view .LVU291
 1141              	.LBB70:
 1142              	.LBI70:
  28:Core/Src/lcd.c **** {
 1143              		.loc 1 28 20 view .LVU292
 1144              	.LBB71:
  30:Core/Src/lcd.c **** }
 1145              		.loc 1 30 5 view .LVU293
 1146 0018 0022     		movs	r2, #0
 1147              	.LVL121:
  30:Core/Src/lcd.c **** }
 1148              		.loc 1 30 5 is_stmt 0 view .LVU294
 1149 001a 4FF40071 		mov	r1, #512
 1150              	.LVL122:
  30:Core/Src/lcd.c **** }
 1151              		.loc 1 30 5 view .LVU295
 1152 001e 1948     		ldr	r0, .L77
 1153              	.LVL123:
  30:Core/Src/lcd.c **** }
 1154              		.loc 1 30 5 view .LVU296
ARM GAS  C:\Users\Vento\AppData\Local\Temp\ccDU9lzs.s 			page 36


 1155 0020 FFF7FEFF 		bl	HAL_GPIO_WritePin
 1156              	.LVL124:
  31:Core/Src/lcd.c **** 
 1157              		.loc 1 31 1 view .LVU297
 1158 0024 10E0     		b	.L69
 1159              	.LVL125:
 1160              	.L76:
  31:Core/Src/lcd.c **** 
 1161              		.loc 1 31 1 view .LVU298
 1162              	.LBE71:
 1163              	.LBE70:
 373:Core/Src/lcd.c ****                 continue;
 1164              		.loc 1 373 17 is_stmt 1 view .LVU299
 373:Core/Src/lcd.c ****                 continue;
 1165              		.loc 1 373 20 is_stmt 0 view .LVU300
 1166 0026 0137     		adds	r7, r7, #1
 1167              	.LVL126:
 374:Core/Src/lcd.c ****             }
 1168              		.loc 1 374 17 is_stmt 1 view .LVU301
 365:Core/Src/lcd.c ****             y += font.height;
 1169              		.loc 1 365 15 is_stmt 0 view .LVU302
 1170 0028 0026     		movs	r6, #0
 374:Core/Src/lcd.c ****             }
 1171              		.loc 1 374 17 view .LVU303
 1172 002a 0DE0     		b	.L69
 1173              	.LVL127:
 1174              	.L70:
 378:Core/Src/lcd.c ****         x += font.width;
 1175              		.loc 1 378 9 is_stmt 1 view .LVU304
 1176 002c CDF80880 		str	r8, [sp, #8]
 1177 0030 CDF80490 		str	r9, [sp, #4]
 1178 0034 0E9B     		ldr	r3, [sp, #56]
 1179 0036 0093     		str	r3, [sp]
 1180 0038 0D9B     		ldr	r3, [sp, #52]
 1181 003a 2946     		mov	r1, r5
 1182 003c 3046     		mov	r0, r6
 1183 003e FFF7FEFF 		bl	ILI9341_WriteChar
 1184              	.LVL128:
 379:Core/Src/lcd.c ****         str++;
 1185              		.loc 1 379 9 view .LVU305
 379:Core/Src/lcd.c ****         str++;
 1186              		.loc 1 379 11 is_stmt 0 view .LVU306
 1187 0042 3444     		add	r4, r4, r6
 1188 0044 A6B2     		uxth	r6, r4
 1189              	.LVL129:
 380:Core/Src/lcd.c ****     }
 1190              		.loc 1 380 9 is_stmt 1 view .LVU307
 380:Core/Src/lcd.c ****     }
 1191              		.loc 1 380 12 is_stmt 0 view .LVU308
 1192 0046 0137     		adds	r7, r7, #1
 1193              	.LVL130:
 1194              	.L69:
 363:Core/Src/lcd.c ****         if(x + font.width >= ILI9341_WIDTH) {
 1195              		.loc 1 363 10 is_stmt 1 view .LVU309
 363:Core/Src/lcd.c ****         if(x + font.width >= ILI9341_WIDTH) {
 1196              		.loc 1 363 11 is_stmt 0 view .LVU310
 1197 0048 3A78     		ldrb	r2, [r7]	@ zero_extendqisi2
ARM GAS  C:\Users\Vento\AppData\Local\Temp\ccDU9lzs.s 			page 37


 363:Core/Src/lcd.c ****         if(x + font.width >= ILI9341_WIDTH) {
 1198              		.loc 1 363 10 view .LVU311
 1199 004a 82B1     		cbz	r2, .L71
 364:Core/Src/lcd.c ****             x = 0;
 1200              		.loc 1 364 9 is_stmt 1 view .LVU312
 364:Core/Src/lcd.c ****             x = 0;
 1201              		.loc 1 364 20 is_stmt 0 view .LVU313
 1202 004c 9DF83440 		ldrb	r4, [sp, #52]	@ zero_extendqisi2
 364:Core/Src/lcd.c ****             x = 0;
 1203              		.loc 1 364 14 view .LVU314
 1204 0050 3319     		adds	r3, r6, r4
 364:Core/Src/lcd.c ****             x = 0;
 1205              		.loc 1 364 11 view .LVU315
 1206 0052 B3F5A07F 		cmp	r3, #320
 1207 0056 E9DB     		blt	.L70
 365:Core/Src/lcd.c ****             y += font.height;
 1208              		.loc 1 365 13 is_stmt 1 view .LVU316
 1209              	.LVL131:
 366:Core/Src/lcd.c ****             if(y + font.height >= ILI9341_HEIGHT) {
 1210              		.loc 1 366 13 view .LVU317
 366:Core/Src/lcd.c ****             if(y + font.height >= ILI9341_HEIGHT) {
 1211              		.loc 1 366 22 is_stmt 0 view .LVU318
 1212 0058 9DF83530 		ldrb	r3, [sp, #53]	@ zero_extendqisi2
 366:Core/Src/lcd.c ****             if(y + font.height >= ILI9341_HEIGHT) {
 1213              		.loc 1 366 15 view .LVU319
 1214 005c 1D44     		add	r5, r5, r3
 1215              	.LVL132:
 366:Core/Src/lcd.c ****             if(y + font.height >= ILI9341_HEIGHT) {
 1216              		.loc 1 366 15 view .LVU320
 1217 005e ADB2     		uxth	r5, r5
 1218              	.LVL133:
 367:Core/Src/lcd.c ****                 break;
 1219              		.loc 1 367 13 is_stmt 1 view .LVU321
 367:Core/Src/lcd.c ****                 break;
 1220              		.loc 1 367 18 is_stmt 0 view .LVU322
 1221 0060 2B44     		add	r3, r3, r5
 367:Core/Src/lcd.c ****                 break;
 1222              		.loc 1 367 15 view .LVU323
 1223 0062 EF2B     		cmp	r3, #239
 1224 0064 03DC     		bgt	.L71
 371:Core/Src/lcd.c ****                 // skip spaces in the beginning of the new line
 1225              		.loc 1 371 13 is_stmt 1 view .LVU324
 371:Core/Src/lcd.c ****                 // skip spaces in the beginning of the new line
 1226              		.loc 1 371 15 is_stmt 0 view .LVU325
 1227 0066 202A     		cmp	r2, #32
 1228 0068 DDD0     		beq	.L76
 365:Core/Src/lcd.c ****             y += font.height;
 1229              		.loc 1 365 15 view .LVU326
 1230 006a 0026     		movs	r6, #0
 1231 006c DEE7     		b	.L70
 1232              	.LVL134:
 1233              	.L71:
 383:Core/Src/lcd.c **** }
 1234              		.loc 1 383 5 is_stmt 1 view .LVU327
 1235              	.LBB72:
 1236              	.LBI72:
  33:Core/Src/lcd.c **** {
ARM GAS  C:\Users\Vento\AppData\Local\Temp\ccDU9lzs.s 			page 38


 1237              		.loc 1 33 13 view .LVU328
 1238              	.LBB73:
  35:Core/Src/lcd.c **** }
 1239              		.loc 1 35 5 view .LVU329
 1240 006e 0122     		movs	r2, #1
 1241 0070 4FF40071 		mov	r1, #512
 1242 0074 0348     		ldr	r0, .L77
 1243 0076 FFF7FEFF 		bl	HAL_GPIO_WritePin
 1244              	.LVL135:
 1245              	.LBE73:
 1246              	.LBE72:
 384:Core/Src/lcd.c **** 
 1247              		.loc 1 384 1 is_stmt 0 view .LVU330
 1248 007a 05B0     		add	sp, sp, #20
 1249              	.LCFI24:
 1250              		.cfi_def_cfa_offset 36
 1251              		@ sp needed
 1252 007c BDE8F043 		pop	{r4, r5, r6, r7, r8, r9, lr}
 1253              	.LCFI25:
 1254              		.cfi_restore 14
 1255              		.cfi_restore 9
 1256              		.cfi_restore 8
 1257              		.cfi_restore 7
 1258              		.cfi_restore 6
 1259              		.cfi_restore 5
 1260              		.cfi_restore 4
 1261              		.cfi_def_cfa_offset 8
 1262              	.LVL136:
 384:Core/Src/lcd.c **** 
 1263              		.loc 1 384 1 view .LVU331
 1264 0080 02B0     		add	sp, sp, #8
 1265              	.LCFI26:
 1266              		.cfi_def_cfa_offset 0
 1267 0082 7047     		bx	lr
 1268              	.L78:
 1269              		.align	2
 1270              	.L77:
 1271 0084 000C0140 		.word	1073810432
 1272              		.cfi_endproc
 1273              	.LFE78:
 1275              		.section	.text.ILI9341_DrawRectangle,"ax",%progbits
 1276              		.align	1
 1277              		.global	ILI9341_DrawRectangle
 1278              		.syntax unified
 1279              		.thumb
 1280              		.thumb_func
 1281              		.fpu softvfp
 1283              	ILI9341_DrawRectangle:
 1284              	.LVL137:
 1285              	.LFB79:
 387:Core/Src/lcd.c ****     ILI9341_DrawLine(x, y, x + w, y, color);
 1286              		.loc 1 387 1 is_stmt 1 view -0
 1287              		.cfi_startproc
 1288              		@ args = 4, pretend = 0, frame = 0
 1289              		@ frame_needed = 0, uses_anonymous_args = 0
 387:Core/Src/lcd.c ****     ILI9341_DrawLine(x, y, x + w, y, color);
 1290              		.loc 1 387 1 is_stmt 0 view .LVU333
ARM GAS  C:\Users\Vento\AppData\Local\Temp\ccDU9lzs.s 			page 39


 1291 0000 2DE9F041 		push	{r4, r5, r6, r7, r8, lr}
 1292              	.LCFI27:
 1293              		.cfi_def_cfa_offset 24
 1294              		.cfi_offset 4, -24
 1295              		.cfi_offset 5, -20
 1296              		.cfi_offset 6, -16
 1297              		.cfi_offset 7, -12
 1298              		.cfi_offset 8, -8
 1299              		.cfi_offset 14, -4
 1300 0004 82B0     		sub	sp, sp, #8
 1301              	.LCFI28:
 1302              		.cfi_def_cfa_offset 32
 1303 0006 0646     		mov	r6, r0
 1304 0008 0F46     		mov	r7, r1
 1305 000a 1C46     		mov	r4, r3
 1306 000c BDF82080 		ldrh	r8, [sp, #32]
 388:Core/Src/lcd.c ****     ILI9341_DrawLine(x + w, y, x + w, y + h, color);
 1307              		.loc 1 388 5 is_stmt 1 view .LVU334
 1308 0010 0244     		add	r2, r2, r0
 1309              	.LVL138:
 388:Core/Src/lcd.c ****     ILI9341_DrawLine(x + w, y, x + w, y + h, color);
 1310              		.loc 1 388 5 is_stmt 0 view .LVU335
 1311 0012 95B2     		uxth	r5, r2
 1312 0014 CDF80080 		str	r8, [sp]
 1313 0018 0B46     		mov	r3, r1
 1314              	.LVL139:
 388:Core/Src/lcd.c ****     ILI9341_DrawLine(x + w, y, x + w, y + h, color);
 1315              		.loc 1 388 5 view .LVU336
 1316 001a 2A46     		mov	r2, r5
 1317 001c FFF7FEFF 		bl	ILI9341_DrawLine
 1318              	.LVL140:
 389:Core/Src/lcd.c ****     ILI9341_DrawLine(x, y, x, y + h, color);
 1319              		.loc 1 389 5 is_stmt 1 view .LVU337
 1320 0020 3C44     		add	r4, r4, r7
 1321 0022 A4B2     		uxth	r4, r4
 1322 0024 CDF80080 		str	r8, [sp]
 1323 0028 2346     		mov	r3, r4
 1324 002a 2A46     		mov	r2, r5
 1325 002c 3946     		mov	r1, r7
 1326 002e 2846     		mov	r0, r5
 1327 0030 FFF7FEFF 		bl	ILI9341_DrawLine
 1328              	.LVL141:
 390:Core/Src/lcd.c ****     ILI9341_DrawLine(x, y + h, x + w, y + h, color);
 1329              		.loc 1 390 5 view .LVU338
 1330 0034 CDF80080 		str	r8, [sp]
 1331 0038 2346     		mov	r3, r4
 1332 003a 3246     		mov	r2, r6
 1333 003c 3946     		mov	r1, r7
 1334 003e 3046     		mov	r0, r6
 1335 0040 FFF7FEFF 		bl	ILI9341_DrawLine
 1336              	.LVL142:
 391:Core/Src/lcd.c **** }
 1337              		.loc 1 391 5 view .LVU339
 1338 0044 CDF80080 		str	r8, [sp]
 1339 0048 2346     		mov	r3, r4
 1340 004a 2A46     		mov	r2, r5
 1341 004c 2146     		mov	r1, r4
ARM GAS  C:\Users\Vento\AppData\Local\Temp\ccDU9lzs.s 			page 40


 1342 004e 3046     		mov	r0, r6
 1343 0050 FFF7FEFF 		bl	ILI9341_DrawLine
 1344              	.LVL143:
 392:Core/Src/lcd.c **** 
 1345              		.loc 1 392 1 is_stmt 0 view .LVU340
 1346 0054 02B0     		add	sp, sp, #8
 1347              	.LCFI29:
 1348              		.cfi_def_cfa_offset 24
 1349              		@ sp needed
 1350 0056 BDE8F081 		pop	{r4, r5, r6, r7, r8, pc}
 392:Core/Src/lcd.c **** 
 1351              		.loc 1 392 1 view .LVU341
 1352              		.cfi_endproc
 1353              	.LFE79:
 1355              		.section	.text.ILI9341_FillRectangle,"ax",%progbits
 1356              		.align	1
 1357              		.global	ILI9341_FillRectangle
 1358              		.syntax unified
 1359              		.thumb
 1360              		.thumb_func
 1361              		.fpu softvfp
 1363              	ILI9341_FillRectangle:
 1364              	.LVL144:
 1365              	.LFB80:
 395:Core/Src/lcd.c ****     // clipping
 1366              		.loc 1 395 1 is_stmt 1 view -0
 1367              		.cfi_startproc
 1368              		@ args = 4, pretend = 0, frame = 8
 1369              		@ frame_needed = 0, uses_anonymous_args = 0
 395:Core/Src/lcd.c ****     // clipping
 1370              		.loc 1 395 1 is_stmt 0 view .LVU343
 1371 0000 2DE9F047 		push	{r4, r5, r6, r7, r8, r9, r10, lr}
 1372              	.LCFI30:
 1373              		.cfi_def_cfa_offset 32
 1374              		.cfi_offset 4, -32
 1375              		.cfi_offset 5, -28
 1376              		.cfi_offset 6, -24
 1377              		.cfi_offset 7, -20
 1378              		.cfi_offset 8, -16
 1379              		.cfi_offset 9, -12
 1380              		.cfi_offset 10, -8
 1381              		.cfi_offset 14, -4
 1382 0004 82B0     		sub	sp, sp, #8
 1383              	.LCFI31:
 1384              		.cfi_def_cfa_offset 40
 1385 0006 BDF82860 		ldrh	r6, [sp, #40]
 397:Core/Src/lcd.c ****     if((x + w - 1) >= ILI9341_WIDTH) w = ILI9341_WIDTH - x;
 1386              		.loc 1 397 5 is_stmt 1 view .LVU344
 397:Core/Src/lcd.c ****     if((x + w - 1) >= ILI9341_WIDTH) w = ILI9341_WIDTH - x;
 1387              		.loc 1 397 7 is_stmt 0 view .LVU345
 1388 000a B0F5A07F 		cmp	r0, #320
 1389 000e 80F08380 		bcs	.L81
 1390 0012 0446     		mov	r4, r0
 1391 0014 0D46     		mov	r5, r1
 1392 0016 9146     		mov	r9, r2
 1393 0018 9846     		mov	r8, r3
 397:Core/Src/lcd.c ****     if((x + w - 1) >= ILI9341_WIDTH) w = ILI9341_WIDTH - x;
ARM GAS  C:\Users\Vento\AppData\Local\Temp\ccDU9lzs.s 			page 41


 1394              		.loc 1 397 29 discriminator 2 view .LVU346
 1395 001a EF29     		cmp	r1, #239
 1396 001c 7CD8     		bhi	.L81
 398:Core/Src/lcd.c ****     if((y + h - 1) >= ILI9341_HEIGHT) h = ILI9341_HEIGHT - y;
 1397              		.loc 1 398 5 is_stmt 1 view .LVU347
 398:Core/Src/lcd.c ****     if((y + h - 1) >= ILI9341_HEIGHT) h = ILI9341_HEIGHT - y;
 1398              		.loc 1 398 11 is_stmt 0 view .LVU348
 1399 001e 8318     		adds	r3, r0, r2
 1400              	.LVL145:
 398:Core/Src/lcd.c ****     if((y + h - 1) >= ILI9341_HEIGHT) h = ILI9341_HEIGHT - y;
 1401              		.loc 1 398 7 view .LVU349
 1402 0020 B3F5A07F 		cmp	r3, #320
 1403 0024 03DD     		ble	.L85
 398:Core/Src/lcd.c ****     if((y + h - 1) >= ILI9341_HEIGHT) h = ILI9341_HEIGHT - y;
 1404              		.loc 1 398 38 is_stmt 1 discriminator 1 view .LVU350
 398:Core/Src/lcd.c ****     if((y + h - 1) >= ILI9341_HEIGHT) h = ILI9341_HEIGHT - y;
 1405              		.loc 1 398 40 is_stmt 0 discriminator 1 view .LVU351
 1406 0026 C0F5A079 		rsb	r9, r0, #320
 1407 002a 1FFA89F9 		uxth	r9, r9
 1408              	.LVL146:
 1409              	.L85:
 399:Core/Src/lcd.c **** 
 1410              		.loc 1 399 5 is_stmt 1 view .LVU352
 399:Core/Src/lcd.c **** 
 1411              		.loc 1 399 11 is_stmt 0 view .LVU353
 1412 002e 05EB0803 		add	r3, r5, r8
 399:Core/Src/lcd.c **** 
 1413              		.loc 1 399 7 view .LVU354
 1414 0032 F02B     		cmp	r3, #240
 1415 0034 03DD     		ble	.L86
 399:Core/Src/lcd.c **** 
 1416              		.loc 1 399 39 is_stmt 1 discriminator 1 view .LVU355
 399:Core/Src/lcd.c **** 
 1417              		.loc 1 399 41 is_stmt 0 discriminator 1 view .LVU356
 1418 0036 C5F1F008 		rsb	r8, r5, #240
 1419 003a 1FFA88F8 		uxth	r8, r8
 1420              	.LVL147:
 1421              	.L86:
 401:Core/Src/lcd.c ****     ILI9341_SetAddressWindow(x, y, x+w-1, y+h-1);
 1422              		.loc 1 401 5 is_stmt 1 view .LVU357
 1423              	.LBB82:
 1424              	.LBI82:
  28:Core/Src/lcd.c **** {
 1425              		.loc 1 28 20 view .LVU358
 1426              	.LBB83:
  30:Core/Src/lcd.c **** }
 1427              		.loc 1 30 5 view .LVU359
 1428 003e DFF8E0A0 		ldr	r10, .L93
 1429 0042 0022     		movs	r2, #0
 1430 0044 4FF40071 		mov	r1, #512
 1431              	.LVL148:
  30:Core/Src/lcd.c **** }
 1432              		.loc 1 30 5 is_stmt 0 view .LVU360
 1433 0048 5046     		mov	r0, r10
 1434              	.LVL149:
  30:Core/Src/lcd.c **** }
 1435              		.loc 1 30 5 view .LVU361
ARM GAS  C:\Users\Vento\AppData\Local\Temp\ccDU9lzs.s 			page 42


 1436 004a FFF7FEFF 		bl	HAL_GPIO_WritePin
 1437              	.LVL150:
 1438              	.LBE83:
 1439              	.LBE82:
 402:Core/Src/lcd.c **** 
 1440              		.loc 1 402 5 is_stmt 1 view .LVU362
 402:Core/Src/lcd.c **** 
 1441              		.loc 1 402 37 is_stmt 0 view .LVU363
 1442 004e 09EB0402 		add	r2, r9, r4
 1443 0052 92B2     		uxth	r2, r2
 402:Core/Src/lcd.c **** 
 1444              		.loc 1 402 44 view .LVU364
 1445 0054 08EB0503 		add	r3, r8, r5
 1446 0058 9BB2     		uxth	r3, r3
 402:Core/Src/lcd.c **** 
 1447              		.loc 1 402 5 view .LVU365
 1448 005a 013B     		subs	r3, r3, #1
 1449 005c 013A     		subs	r2, r2, #1
 1450 005e 9BB2     		uxth	r3, r3
 1451 0060 92B2     		uxth	r2, r2
 1452 0062 2946     		mov	r1, r5
 1453 0064 2046     		mov	r0, r4
 1454 0066 FFF7FEFF 		bl	ILI9341_SetAddressWindow
 1455              	.LVL151:
 404:Core/Src/lcd.c ****     HAL_GPIO_WritePin(ILI9341_DC_GPIO_Port, ILI9341_DC_Pin, GPIO_PIN_SET);
 1456              		.loc 1 404 5 is_stmt 1 view .LVU366
 404:Core/Src/lcd.c ****     HAL_GPIO_WritePin(ILI9341_DC_GPIO_Port, ILI9341_DC_Pin, GPIO_PIN_SET);
 1457              		.loc 1 404 13 is_stmt 0 view .LVU367
 1458 006a 370A     		lsrs	r7, r6, #8
 1459 006c 8DF80470 		strb	r7, [sp, #4]
 1460 0070 F6B2     		uxtb	r6, r6
 1461 0072 8DF80560 		strb	r6, [sp, #5]
 405:Core/Src/lcd.c ****     for(y = h; y > 0; y--) 
 1462              		.loc 1 405 5 is_stmt 1 view .LVU368
 1463 0076 0122     		movs	r2, #1
 1464 0078 4FF48071 		mov	r1, #256
 1465 007c 5046     		mov	r0, r10
 1466 007e FFF7FEFF 		bl	HAL_GPIO_WritePin
 1467              	.LVL152:
 406:Core/Src/lcd.c ****     {
 1468              		.loc 1 406 5 view .LVU369
 406:Core/Src/lcd.c ****     {
 1469              		.loc 1 406 5 is_stmt 0 view .LVU370
 1470 0082 3EE0     		b	.L87
 1471              	.LVL153:
 1472              	.L88:
 410:Core/Src/lcd.c ****             // HAL_GPIO_WritePin(DB8_PORT,  DB8,  (data[0] >> 0x00U) & 0x01U);
 1473              		.loc 1 410 13 is_stmt 1 view .LVU371
 1474              	.LBB84:
 1475              	.LBI84:
  46:Core/Src/lcd.c **** {
 1476              		.loc 1 46 20 view .LVU372
 1477              	.LBB85:
  48:Core/Src/lcd.c ****     uint8_t temp_Bit3rd_Data = data & 0x04;
 1478              		.loc 1 48 5 view .LVU373
  48:Core/Src/lcd.c ****     uint8_t temp_Bit3rd_Data = data & 0x04;
 1479              		.loc 1 48 13 is_stmt 0 view .LVU374
ARM GAS  C:\Users\Vento\AppData\Local\Temp\ccDU9lzs.s 			page 43


 1480 0084 07F00202 		and	r2, r7, #2
  49:Core/Src/lcd.c ****     data &= ~0x06;
 1481              		.loc 1 49 5 is_stmt 1 view .LVU375
 1482              	.LVL154:
  50:Core/Src/lcd.c ****     data |= (uint8_t)((temp_Bit2nd_Data << 1) | (temp_Bit3rd_Data >> 1));
 1483              		.loc 1 50 5 view .LVU376
  50:Core/Src/lcd.c ****     data |= (uint8_t)((temp_Bit2nd_Data << 1) | (temp_Bit3rd_Data >> 1));
 1484              		.loc 1 50 10 is_stmt 0 view .LVU377
 1485 0088 07F0F903 		and	r3, r7, #249
 1486              	.LVL155:
  51:Core/Src/lcd.c **** 
 1487              		.loc 1 51 5 is_stmt 1 view .LVU378
  51:Core/Src/lcd.c **** 
 1488              		.loc 1 51 47 is_stmt 0 view .LVU379
 1489 008c 7908     		lsrs	r1, r7, #1
 1490 008e 01F00201 		and	r1, r1, #2
  51:Core/Src/lcd.c **** 
 1491              		.loc 1 51 13 view .LVU380
 1492 0092 41EA4202 		orr	r2, r1, r2, lsl #1
  51:Core/Src/lcd.c **** 
 1493              		.loc 1 51 10 view .LVU381
 1494 0096 1A43     		orrs	r2, r2, r3
 1495              	.LVL156:
  53:Core/Src/lcd.c ****     tempReg &= 0xFFFFFF00;
 1496              		.loc 1 53 5 is_stmt 1 view .LVU382
  53:Core/Src/lcd.c ****     tempReg &= 0xFFFFFF00;
 1497              		.loc 1 53 14 is_stmt 0 view .LVU383
 1498 0098 214C     		ldr	r4, .L93
 1499 009a E368     		ldr	r3, [r4, #12]
 1500              	.LVL157:
  54:Core/Src/lcd.c ****     tempReg |= (uint32_t)data;
 1501              		.loc 1 54 5 is_stmt 1 view .LVU384
  54:Core/Src/lcd.c ****     tempReg |= (uint32_t)data;
 1502              		.loc 1 54 13 is_stmt 0 view .LVU385
 1503 009c 23F0FF03 		bic	r3, r3, #255
 1504              	.LVL158:
  55:Core/Src/lcd.c ****     DATA_PORT->ODR = tempReg;
 1505              		.loc 1 55 5 is_stmt 1 view .LVU386
  55:Core/Src/lcd.c ****     DATA_PORT->ODR = tempReg;
 1506              		.loc 1 55 13 is_stmt 0 view .LVU387
 1507 00a0 1343     		orrs	r3, r3, r2
 1508              	.LVL159:
  56:Core/Src/lcd.c **** 
 1509              		.loc 1 56 5 is_stmt 1 view .LVU388
  56:Core/Src/lcd.c **** 
 1510              		.loc 1 56 20 is_stmt 0 view .LVU389
 1511 00a2 E360     		str	r3, [r4, #12]
  67:Core/Src/lcd.c ****     HAL_GPIO_WritePin(ILI9341_WR_GPIO_Port, ILI9341_WR_Pin, GPIO_PIN_SET);
 1512              		.loc 1 67 5 is_stmt 1 view .LVU390
 1513 00a4 0022     		movs	r2, #0
 1514              	.LVL160:
  67:Core/Src/lcd.c ****     HAL_GPIO_WritePin(ILI9341_WR_GPIO_Port, ILI9341_WR_Pin, GPIO_PIN_SET);
 1515              		.loc 1 67 5 is_stmt 0 view .LVU391
 1516 00a6 4FF48061 		mov	r1, #1024
 1517              	.LVL161:
  67:Core/Src/lcd.c ****     HAL_GPIO_WritePin(ILI9341_WR_GPIO_Port, ILI9341_WR_Pin, GPIO_PIN_SET);
 1518              		.loc 1 67 5 view .LVU392
ARM GAS  C:\Users\Vento\AppData\Local\Temp\ccDU9lzs.s 			page 44


 1519 00aa 2046     		mov	r0, r4
 1520 00ac FFF7FEFF 		bl	HAL_GPIO_WritePin
 1521              	.LVL162:
  68:Core/Src/lcd.c **** }
 1522              		.loc 1 68 5 is_stmt 1 view .LVU393
 1523 00b0 0122     		movs	r2, #1
 1524 00b2 4FF48061 		mov	r1, #1024
 1525 00b6 2046     		mov	r0, r4
 1526 00b8 FFF7FEFF 		bl	HAL_GPIO_WritePin
 1527              	.LVL163:
  68:Core/Src/lcd.c **** }
 1528              		.loc 1 68 5 is_stmt 0 view .LVU394
 1529              	.LBE85:
 1530              	.LBE84:
 423:Core/Src/lcd.c ****             // HAL_GPIO_WritePin(DB8_PORT,  DB8,  (data[1] >> 0x00U) & 0x01U);
 1531              		.loc 1 423 13 is_stmt 1 view .LVU395
 1532              	.LBB86:
 1533              	.LBI86:
  46:Core/Src/lcd.c **** {
 1534              		.loc 1 46 20 view .LVU396
 1535              	.LBB87:
  48:Core/Src/lcd.c ****     uint8_t temp_Bit3rd_Data = data & 0x04;
 1536              		.loc 1 48 5 view .LVU397
  48:Core/Src/lcd.c ****     uint8_t temp_Bit3rd_Data = data & 0x04;
 1537              		.loc 1 48 13 is_stmt 0 view .LVU398
 1538 00bc 06F00203 		and	r3, r6, #2
  49:Core/Src/lcd.c ****     data &= ~0x06;
 1539              		.loc 1 49 5 is_stmt 1 view .LVU399
 1540              	.LVL164:
  50:Core/Src/lcd.c ****     data |= (uint8_t)((temp_Bit2nd_Data << 1) | (temp_Bit3rd_Data >> 1));
 1541              		.loc 1 50 5 view .LVU400
  50:Core/Src/lcd.c ****     data |= (uint8_t)((temp_Bit2nd_Data << 1) | (temp_Bit3rd_Data >> 1));
 1542              		.loc 1 50 10 is_stmt 0 view .LVU401
 1543 00c0 06F0F901 		and	r1, r6, #249
 1544              	.LVL165:
  51:Core/Src/lcd.c **** 
 1545              		.loc 1 51 5 is_stmt 1 view .LVU402
  51:Core/Src/lcd.c **** 
 1546              		.loc 1 51 47 is_stmt 0 view .LVU403
 1547 00c4 7208     		lsrs	r2, r6, #1
 1548 00c6 02F00202 		and	r2, r2, #2
  51:Core/Src/lcd.c **** 
 1549              		.loc 1 51 13 view .LVU404
 1550 00ca 42EA4303 		orr	r3, r2, r3, lsl #1
  51:Core/Src/lcd.c **** 
 1551              		.loc 1 51 10 view .LVU405
 1552 00ce 0B43     		orrs	r3, r3, r1
 1553              	.LVL166:
  53:Core/Src/lcd.c ****     tempReg &= 0xFFFFFF00;
 1554              		.loc 1 53 5 is_stmt 1 view .LVU406
  53:Core/Src/lcd.c ****     tempReg &= 0xFFFFFF00;
 1555              		.loc 1 53 14 is_stmt 0 view .LVU407
 1556 00d0 E168     		ldr	r1, [r4, #12]
 1557              	.LVL167:
  54:Core/Src/lcd.c ****     tempReg |= (uint32_t)data;
 1558              		.loc 1 54 5 is_stmt 1 view .LVU408
  54:Core/Src/lcd.c ****     tempReg |= (uint32_t)data;
ARM GAS  C:\Users\Vento\AppData\Local\Temp\ccDU9lzs.s 			page 45


 1559              		.loc 1 54 13 is_stmt 0 view .LVU409
 1560 00d2 21F0FF01 		bic	r1, r1, #255
 1561              	.LVL168:
  55:Core/Src/lcd.c ****     DATA_PORT->ODR = tempReg;
 1562              		.loc 1 55 5 is_stmt 1 view .LVU410
  55:Core/Src/lcd.c ****     DATA_PORT->ODR = tempReg;
 1563              		.loc 1 55 13 is_stmt 0 view .LVU411
 1564 00d6 1943     		orrs	r1, r1, r3
 1565              	.LVL169:
  56:Core/Src/lcd.c **** 
 1566              		.loc 1 56 5 is_stmt 1 view .LVU412
  56:Core/Src/lcd.c **** 
 1567              		.loc 1 56 20 is_stmt 0 view .LVU413
 1568 00d8 E160     		str	r1, [r4, #12]
  67:Core/Src/lcd.c ****     HAL_GPIO_WritePin(ILI9341_WR_GPIO_Port, ILI9341_WR_Pin, GPIO_PIN_SET);
 1569              		.loc 1 67 5 is_stmt 1 view .LVU414
 1570 00da 0022     		movs	r2, #0
 1571 00dc 4FF48061 		mov	r1, #1024
 1572              	.LVL170:
  67:Core/Src/lcd.c ****     HAL_GPIO_WritePin(ILI9341_WR_GPIO_Port, ILI9341_WR_Pin, GPIO_PIN_SET);
 1573              		.loc 1 67 5 is_stmt 0 view .LVU415
 1574 00e0 2046     		mov	r0, r4
 1575 00e2 FFF7FEFF 		bl	HAL_GPIO_WritePin
 1576              	.LVL171:
  68:Core/Src/lcd.c **** }
 1577              		.loc 1 68 5 is_stmt 1 view .LVU416
 1578 00e6 0122     		movs	r2, #1
 1579 00e8 4FF48061 		mov	r1, #1024
 1580 00ec 2046     		mov	r0, r4
 1581 00ee FFF7FEFF 		bl	HAL_GPIO_WritePin
 1582              	.LVL172:
  68:Core/Src/lcd.c **** }
 1583              		.loc 1 68 5 is_stmt 0 view .LVU417
 1584              	.LBE87:
 1585              	.LBE86:
 408:Core/Src/lcd.c ****         {
 1586              		.loc 1 408 27 is_stmt 1 view .LVU418
 408:Core/Src/lcd.c ****         {
 1587              		.loc 1 408 28 is_stmt 0 view .LVU419
 1588 00f2 013D     		subs	r5, r5, #1
 1589              	.LVL173:
 408:Core/Src/lcd.c ****         {
 1590              		.loc 1 408 28 view .LVU420
 1591 00f4 ADB2     		uxth	r5, r5
 1592              	.LVL174:
 1593              	.L89:
 408:Core/Src/lcd.c ****         {
 1594              		.loc 1 408 20 is_stmt 1 discriminator 1 view .LVU421
 408:Core/Src/lcd.c ****         {
 1595              		.loc 1 408 9 is_stmt 0 discriminator 1 view .LVU422
 1596 00f6 002D     		cmp	r5, #0
 1597 00f8 C4D1     		bne	.L88
 406:Core/Src/lcd.c ****     {
 1598              		.loc 1 406 23 is_stmt 1 discriminator 2 view .LVU423
 406:Core/Src/lcd.c ****     {
 1599              		.loc 1 406 24 is_stmt 0 discriminator 2 view .LVU424
 1600 00fa 08F1FF38 		add	r8, r8, #-1
ARM GAS  C:\Users\Vento\AppData\Local\Temp\ccDU9lzs.s 			page 46


 1601              	.LVL175:
 406:Core/Src/lcd.c ****     {
 1602              		.loc 1 406 24 discriminator 2 view .LVU425
 1603 00fe 1FFA88F8 		uxth	r8, r8
 1604              	.LVL176:
 1605              	.L87:
 406:Core/Src/lcd.c ****     {
 1606              		.loc 1 406 16 is_stmt 1 discriminator 1 view .LVU426
 406:Core/Src/lcd.c ****     {
 1607              		.loc 1 406 5 is_stmt 0 discriminator 1 view .LVU427
 1608 0102 B8F1000F 		cmp	r8, #0
 1609 0106 01D0     		beq	.L92
 408:Core/Src/lcd.c ****         {
 1610              		.loc 1 408 15 view .LVU428
 1611 0108 4D46     		mov	r5, r9
 1612 010a F4E7     		b	.L89
 1613              	.L92:
 440:Core/Src/lcd.c **** }
 1614              		.loc 1 440 5 is_stmt 1 view .LVU429
 1615              	.LBB88:
 1616              	.LBI88:
  33:Core/Src/lcd.c **** {
 1617              		.loc 1 33 13 view .LVU430
 1618              	.LBB89:
  35:Core/Src/lcd.c **** }
 1619              		.loc 1 35 5 view .LVU431
 1620 010c 0122     		movs	r2, #1
 1621 010e 4FF40071 		mov	r1, #512
 1622 0112 0348     		ldr	r0, .L93
 1623 0114 FFF7FEFF 		bl	HAL_GPIO_WritePin
 1624              	.LVL177:
 1625              	.L81:
  35:Core/Src/lcd.c **** }
 1626              		.loc 1 35 5 is_stmt 0 view .LVU432
 1627              	.LBE89:
 1628              	.LBE88:
 441:Core/Src/lcd.c **** 
 1629              		.loc 1 441 1 view .LVU433
 1630 0118 02B0     		add	sp, sp, #8
 1631              	.LCFI32:
 1632              		.cfi_def_cfa_offset 32
 1633              		@ sp needed
 1634 011a BDE8F087 		pop	{r4, r5, r6, r7, r8, r9, r10, pc}
 1635              	.L94:
 1636 011e 00BF     		.align	2
 1637              	.L93:
 1638 0120 000C0140 		.word	1073810432
 1639              		.cfi_endproc
 1640              	.LFE80:
 1642              		.section	.text.ILI9341_FillScreen,"ax",%progbits
 1643              		.align	1
 1644              		.global	ILI9341_FillScreen
 1645              		.syntax unified
 1646              		.thumb
 1647              		.thumb_func
 1648              		.fpu softvfp
 1650              	ILI9341_FillScreen:
ARM GAS  C:\Users\Vento\AppData\Local\Temp\ccDU9lzs.s 			page 47


 1651              	.LVL178:
 1652              	.LFB81:
 444:Core/Src/lcd.c ****     ILI9341_FillRectangle(0, 0, ILI9341_WIDTH, ILI9341_HEIGHT, color);
 1653              		.loc 1 444 1 is_stmt 1 view -0
 1654              		.cfi_startproc
 1655              		@ args = 0, pretend = 0, frame = 0
 1656              		@ frame_needed = 0, uses_anonymous_args = 0
 444:Core/Src/lcd.c ****     ILI9341_FillRectangle(0, 0, ILI9341_WIDTH, ILI9341_HEIGHT, color);
 1657              		.loc 1 444 1 is_stmt 0 view .LVU435
 1658 0000 00B5     		push	{lr}
 1659              	.LCFI33:
 1660              		.cfi_def_cfa_offset 4
 1661              		.cfi_offset 14, -4
 1662 0002 83B0     		sub	sp, sp, #12
 1663              	.LCFI34:
 1664              		.cfi_def_cfa_offset 16
 445:Core/Src/lcd.c **** }
 1665              		.loc 1 445 5 is_stmt 1 view .LVU436
 1666 0004 0090     		str	r0, [sp]
 1667 0006 F023     		movs	r3, #240
 1668 0008 4FF4A072 		mov	r2, #320
 1669 000c 0021     		movs	r1, #0
 1670 000e 0846     		mov	r0, r1
 1671              	.LVL179:
 445:Core/Src/lcd.c **** }
 1672              		.loc 1 445 5 is_stmt 0 view .LVU437
 1673 0010 FFF7FEFF 		bl	ILI9341_FillRectangle
 1674              	.LVL180:
 446:Core/Src/lcd.c **** 
 1675              		.loc 1 446 1 view .LVU438
 1676 0014 03B0     		add	sp, sp, #12
 1677              	.LCFI35:
 1678              		.cfi_def_cfa_offset 4
 1679              		@ sp needed
 1680 0016 5DF804FB 		ldr	pc, [sp], #4
 1681              		.cfi_endproc
 1682              	.LFE81:
 1684              		.section	.text.ILI9341_Init,"ax",%progbits
 1685              		.align	1
 1686              		.global	ILI9341_Init
 1687              		.syntax unified
 1688              		.thumb
 1689              		.thumb_func
 1690              		.fpu softvfp
 1692              	ILI9341_Init:
 1693              	.LFB74:
 120:Core/Src/lcd.c ****     ILI9341_LCD_LED(false);
 1694              		.loc 1 120 1 is_stmt 1 view -0
 1695              		.cfi_startproc
 1696              		@ args = 0, pretend = 0, frame = 0
 1697              		@ frame_needed = 0, uses_anonymous_args = 0
 1698 0000 38B5     		push	{r3, r4, r5, lr}
 1699              	.LCFI36:
 1700              		.cfi_def_cfa_offset 16
 1701              		.cfi_offset 3, -16
 1702              		.cfi_offset 4, -12
 1703              		.cfi_offset 5, -8
ARM GAS  C:\Users\Vento\AppData\Local\Temp\ccDU9lzs.s 			page 48


 1704              		.cfi_offset 14, -4
 121:Core/Src/lcd.c ****     HAL_GPIO_WritePin(ILI9341_WR_GPIO_Port, ILI9341_WR_Pin, GPIO_PIN_SET);
 1705              		.loc 1 121 5 view .LVU440
 1706              	.LVL181:
 1707              	.LBB440:
 1708              	.LBI440:
  20:Core/Src/lcd.c **** {
 1709              		.loc 1 20 13 view .LVU441
 1710              	.LBB441:
  22:Core/Src/lcd.c ****         HAL_GPIO_WritePin(ILI9341_LED_GPIO_Port, ILI9341_LED_Pin, SET);
 1711              		.loc 1 22 5 view .LVU442
  25:Core/Src/lcd.c **** }
 1712              		.loc 1 25 9 view .LVU443
 1713 0002 0022     		movs	r2, #0
 1714 0004 0421     		movs	r1, #4
 1715 0006 EB48     		ldr	r0, .L99
 1716 0008 FFF7FEFF 		bl	HAL_GPIO_WritePin
 1717              	.LVL182:
  25:Core/Src/lcd.c **** }
 1718              		.loc 1 25 9 is_stmt 0 view .LVU444
 1719              	.LBE441:
 1720              	.LBE440:
 122:Core/Src/lcd.c ****     HAL_GPIO_WritePin(ILI9341_RD_GPIO_Port, ILI9341_RD_Pin, GPIO_PIN_SET);
 1721              		.loc 1 122 5 is_stmt 1 view .LVU445
 1722 000c EA4C     		ldr	r4, .L99+4
 1723 000e 0122     		movs	r2, #1
 1724 0010 4FF48061 		mov	r1, #1024
 1725 0014 2046     		mov	r0, r4
 1726 0016 FFF7FEFF 		bl	HAL_GPIO_WritePin
 1727              	.LVL183:
 123:Core/Src/lcd.c **** 
 1728              		.loc 1 123 5 view .LVU446
 1729 001a 0122     		movs	r2, #1
 1730 001c 4FF40061 		mov	r1, #2048
 1731 0020 2046     		mov	r0, r4
 1732 0022 FFF7FEFF 		bl	HAL_GPIO_WritePin
 1733              	.LVL184:
 125:Core/Src/lcd.c **** 
 1734              		.loc 1 125 5 view .LVU447
 1735              	.LBB442:
 1736              	.LBI442:
  28:Core/Src/lcd.c **** {
 1737              		.loc 1 28 20 view .LVU448
 1738              	.LBB443:
  30:Core/Src/lcd.c **** }
 1739              		.loc 1 30 5 view .LVU449
 1740 0026 0022     		movs	r2, #0
 1741 0028 4FF40071 		mov	r1, #512
 1742 002c 2046     		mov	r0, r4
 1743 002e FFF7FEFF 		bl	HAL_GPIO_WritePin
 1744              	.LVL185:
 1745              	.LBE443:
 1746              	.LBE442:
 127:Core/Src/lcd.c **** 
 1747              		.loc 1 127 5 view .LVU450
 1748              	.LBB444:
 1749              	.LBI444:
ARM GAS  C:\Users\Vento\AppData\Local\Temp\ccDU9lzs.s 			page 49


  38:Core/Src/lcd.c **** {
 1750              		.loc 1 38 20 view .LVU451
 1751              	.LBB445:
  40:Core/Src/lcd.c ****     HAL_Delay(200);
 1752              		.loc 1 40 5 view .LVU452
 1753 0032 E24D     		ldr	r5, .L99+8
 1754 0034 0022     		movs	r2, #0
 1755 0036 4FF48051 		mov	r1, #4096
 1756 003a 2846     		mov	r0, r5
 1757 003c FFF7FEFF 		bl	HAL_GPIO_WritePin
 1758              	.LVL186:
  41:Core/Src/lcd.c ****     HAL_GPIO_WritePin(ILI9341_RES_GPIO_Port, ILI9341_RES_Pin, GPIO_PIN_SET);
 1759              		.loc 1 41 5 view .LVU453
 1760 0040 C820     		movs	r0, #200
 1761 0042 FFF7FEFF 		bl	HAL_Delay
 1762              	.LVL187:
  42:Core/Src/lcd.c ****     HAL_Delay(200);
 1763              		.loc 1 42 5 view .LVU454
 1764 0046 0122     		movs	r2, #1
 1765 0048 4FF48051 		mov	r1, #4096
 1766 004c 2846     		mov	r0, r5
 1767 004e FFF7FEFF 		bl	HAL_GPIO_WritePin
 1768              	.LVL188:
  43:Core/Src/lcd.c **** }
 1769              		.loc 1 43 5 view .LVU455
 1770 0052 C820     		movs	r0, #200
 1771 0054 FFF7FEFF 		bl	HAL_Delay
 1772              	.LVL189:
 1773              	.LBE445:
 1774              	.LBE444:
 130:Core/Src/lcd.c ****     HAL_Delay(200);
 1775              		.loc 1 130 5 view .LVU456
 1776              	.LBB446:
 1777              	.LBI446:
  71:Core/Src/lcd.c **** {
 1778              		.loc 1 71 20 view .LVU457
 1779              	.LBB447:
  74:Core/Src/lcd.c ****     ILI9341_SetData(cmd);
 1780              		.loc 1 74 5 view .LVU458
 1781 0058 0022     		movs	r2, #0
 1782 005a 4FF48071 		mov	r1, #256
 1783 005e 2046     		mov	r0, r4
 1784 0060 FFF7FEFF 		bl	HAL_GPIO_WritePin
 1785              	.LVL190:
  75:Core/Src/lcd.c ****     // ILI9341_Unselect();
 1786              		.loc 1 75 5 view .LVU459
 1787              	.LBB448:
 1788              	.LBI448:
  46:Core/Src/lcd.c **** {
 1789              		.loc 1 46 20 view .LVU460
 1790              	.LBB449:
  48:Core/Src/lcd.c ****     uint8_t temp_Bit3rd_Data = data & 0x04;
 1791              		.loc 1 48 5 view .LVU461
  49:Core/Src/lcd.c ****     data &= ~0x06;
 1792              		.loc 1 49 5 view .LVU462
  50:Core/Src/lcd.c ****     data |= (uint8_t)((temp_Bit2nd_Data << 1) | (temp_Bit3rd_Data >> 1));
 1793              		.loc 1 50 5 view .LVU463
ARM GAS  C:\Users\Vento\AppData\Local\Temp\ccDU9lzs.s 			page 50


  51:Core/Src/lcd.c **** 
 1794              		.loc 1 51 5 view .LVU464
  53:Core/Src/lcd.c ****     tempReg &= 0xFFFFFF00;
 1795              		.loc 1 53 5 view .LVU465
  53:Core/Src/lcd.c ****     tempReg &= 0xFFFFFF00;
 1796              		.loc 1 53 14 is_stmt 0 view .LVU466
 1797 0064 E368     		ldr	r3, [r4, #12]
 1798              	.LVL191:
  54:Core/Src/lcd.c ****     tempReg |= (uint32_t)data;
 1799              		.loc 1 54 5 is_stmt 1 view .LVU467
  54:Core/Src/lcd.c ****     tempReg |= (uint32_t)data;
 1800              		.loc 1 54 13 is_stmt 0 view .LVU468
 1801 0066 23F0FF03 		bic	r3, r3, #255
 1802              	.LVL192:
  55:Core/Src/lcd.c ****     DATA_PORT->ODR = tempReg;
 1803              		.loc 1 55 5 is_stmt 1 view .LVU469
  55:Core/Src/lcd.c ****     DATA_PORT->ODR = tempReg;
 1804              		.loc 1 55 13 is_stmt 0 view .LVU470
 1805 006a 43F00103 		orr	r3, r3, #1
 1806              	.LVL193:
  56:Core/Src/lcd.c **** 
 1807              		.loc 1 56 5 is_stmt 1 view .LVU471
  56:Core/Src/lcd.c **** 
 1808              		.loc 1 56 20 is_stmt 0 view .LVU472
 1809 006e E360     		str	r3, [r4, #12]
  67:Core/Src/lcd.c ****     HAL_GPIO_WritePin(ILI9341_WR_GPIO_Port, ILI9341_WR_Pin, GPIO_PIN_SET);
 1810              		.loc 1 67 5 is_stmt 1 view .LVU473
 1811 0070 0022     		movs	r2, #0
 1812 0072 4FF48061 		mov	r1, #1024
 1813 0076 2046     		mov	r0, r4
 1814 0078 FFF7FEFF 		bl	HAL_GPIO_WritePin
 1815              	.LVL194:
  68:Core/Src/lcd.c **** }
 1816              		.loc 1 68 5 view .LVU474
 1817 007c 0122     		movs	r2, #1
 1818 007e 4FF48061 		mov	r1, #1024
 1819 0082 2046     		mov	r0, r4
 1820 0084 FFF7FEFF 		bl	HAL_GPIO_WritePin
 1821              	.LVL195:
  68:Core/Src/lcd.c **** }
 1822              		.loc 1 68 5 is_stmt 0 view .LVU475
 1823              	.LBE449:
 1824              	.LBE448:
 1825              	.LBE447:
 1826              	.LBE446:
 131:Core/Src/lcd.c ****     
 1827              		.loc 1 131 5 is_stmt 1 view .LVU476
 1828 0088 C820     		movs	r0, #200
 1829 008a FFF7FEFF 		bl	HAL_Delay
 1830              	.LVL196:
 136:Core/Src/lcd.c ****     ILI9341_Write_Data(0x39);
 1831              		.loc 1 136 5 view .LVU477
 1832              	.LBB450:
 1833              	.LBI450:
  71:Core/Src/lcd.c **** {
 1834              		.loc 1 71 20 view .LVU478
 1835              	.LBB451:
ARM GAS  C:\Users\Vento\AppData\Local\Temp\ccDU9lzs.s 			page 51


  74:Core/Src/lcd.c ****     ILI9341_SetData(cmd);
 1836              		.loc 1 74 5 view .LVU479
 1837 008e 0022     		movs	r2, #0
 1838 0090 4FF48071 		mov	r1, #256
 1839 0094 2046     		mov	r0, r4
 1840 0096 FFF7FEFF 		bl	HAL_GPIO_WritePin
 1841              	.LVL197:
  75:Core/Src/lcd.c ****     // ILI9341_Unselect();
 1842              		.loc 1 75 5 view .LVU480
 1843              	.LBB452:
 1844              	.LBI452:
  46:Core/Src/lcd.c **** {
 1845              		.loc 1 46 20 view .LVU481
 1846              	.LBB453:
  48:Core/Src/lcd.c ****     uint8_t temp_Bit3rd_Data = data & 0x04;
 1847              		.loc 1 48 5 view .LVU482
  49:Core/Src/lcd.c ****     data &= ~0x06;
 1848              		.loc 1 49 5 view .LVU483
  50:Core/Src/lcd.c ****     data |= (uint8_t)((temp_Bit2nd_Data << 1) | (temp_Bit3rd_Data >> 1));
 1849              		.loc 1 50 5 view .LVU484
  51:Core/Src/lcd.c **** 
 1850              		.loc 1 51 5 view .LVU485
  53:Core/Src/lcd.c ****     tempReg &= 0xFFFFFF00;
 1851              		.loc 1 53 5 view .LVU486
  53:Core/Src/lcd.c ****     tempReg &= 0xFFFFFF00;
 1852              		.loc 1 53 14 is_stmt 0 view .LVU487
 1853 009a E368     		ldr	r3, [r4, #12]
 1854              	.LVL198:
  54:Core/Src/lcd.c ****     tempReg |= (uint32_t)data;
 1855              		.loc 1 54 5 is_stmt 1 view .LVU488
  54:Core/Src/lcd.c ****     tempReg |= (uint32_t)data;
 1856              		.loc 1 54 13 is_stmt 0 view .LVU489
 1857 009c 23F0FF03 		bic	r3, r3, #255
 1858              	.LVL199:
  55:Core/Src/lcd.c ****     DATA_PORT->ODR = tempReg;
 1859              		.loc 1 55 5 is_stmt 1 view .LVU490
  55:Core/Src/lcd.c ****     DATA_PORT->ODR = tempReg;
 1860              		.loc 1 55 13 is_stmt 0 view .LVU491
 1861 00a0 43F0CD03 		orr	r3, r3, #205
 1862              	.LVL200:
  56:Core/Src/lcd.c **** 
 1863              		.loc 1 56 5 is_stmt 1 view .LVU492
  56:Core/Src/lcd.c **** 
 1864              		.loc 1 56 20 is_stmt 0 view .LVU493
 1865 00a4 E360     		str	r3, [r4, #12]
  67:Core/Src/lcd.c ****     HAL_GPIO_WritePin(ILI9341_WR_GPIO_Port, ILI9341_WR_Pin, GPIO_PIN_SET);
 1866              		.loc 1 67 5 is_stmt 1 view .LVU494
 1867 00a6 0022     		movs	r2, #0
 1868 00a8 4FF48061 		mov	r1, #1024
 1869 00ac 2046     		mov	r0, r4
 1870 00ae FFF7FEFF 		bl	HAL_GPIO_WritePin
 1871              	.LVL201:
  68:Core/Src/lcd.c **** }
 1872              		.loc 1 68 5 view .LVU495
 1873 00b2 0122     		movs	r2, #1
 1874 00b4 4FF48061 		mov	r1, #1024
 1875 00b8 2046     		mov	r0, r4
ARM GAS  C:\Users\Vento\AppData\Local\Temp\ccDU9lzs.s 			page 52


 1876 00ba FFF7FEFF 		bl	HAL_GPIO_WritePin
 1877              	.LVL202:
  68:Core/Src/lcd.c **** }
 1878              		.loc 1 68 5 is_stmt 0 view .LVU496
 1879              	.LBE453:
 1880              	.LBE452:
 1881              	.LBE451:
 1882              	.LBE450:
 137:Core/Src/lcd.c ****     ILI9341_Write_Data(0x2C);
 1883              		.loc 1 137 5 is_stmt 1 view .LVU497
 1884              	.LBB454:
 1885              	.LBI454:
  79:Core/Src/lcd.c **** {
 1886              		.loc 1 79 20 view .LVU498
 1887              	.LBB455:
  82:Core/Src/lcd.c ****     ILI9341_SetData(data);
 1888              		.loc 1 82 5 view .LVU499
 1889 00be 0122     		movs	r2, #1
 1890 00c0 4FF48071 		mov	r1, #256
 1891 00c4 2046     		mov	r0, r4
 1892 00c6 FFF7FEFF 		bl	HAL_GPIO_WritePin
 1893              	.LVL203:
  83:Core/Src/lcd.c ****     // ILI9341_Unselect();
 1894              		.loc 1 83 5 view .LVU500
 1895              	.LBB456:
 1896              	.LBI456:
  46:Core/Src/lcd.c **** {
 1897              		.loc 1 46 20 view .LVU501
 1898              	.LBB457:
  48:Core/Src/lcd.c ****     uint8_t temp_Bit3rd_Data = data & 0x04;
 1899              		.loc 1 48 5 view .LVU502
  49:Core/Src/lcd.c ****     data &= ~0x06;
 1900              		.loc 1 49 5 view .LVU503
  50:Core/Src/lcd.c ****     data |= (uint8_t)((temp_Bit2nd_Data << 1) | (temp_Bit3rd_Data >> 1));
 1901              		.loc 1 50 5 view .LVU504
  51:Core/Src/lcd.c **** 
 1902              		.loc 1 51 5 view .LVU505
  53:Core/Src/lcd.c ****     tempReg &= 0xFFFFFF00;
 1903              		.loc 1 53 5 view .LVU506
  53:Core/Src/lcd.c ****     tempReg &= 0xFFFFFF00;
 1904              		.loc 1 53 14 is_stmt 0 view .LVU507
 1905 00ca E368     		ldr	r3, [r4, #12]
 1906              	.LVL204:
  54:Core/Src/lcd.c ****     tempReg |= (uint32_t)data;
 1907              		.loc 1 54 5 is_stmt 1 view .LVU508
  54:Core/Src/lcd.c ****     tempReg |= (uint32_t)data;
 1908              		.loc 1 54 13 is_stmt 0 view .LVU509
 1909 00cc 23F0FF03 		bic	r3, r3, #255
 1910              	.LVL205:
  55:Core/Src/lcd.c ****     DATA_PORT->ODR = tempReg;
 1911              		.loc 1 55 5 is_stmt 1 view .LVU510
  55:Core/Src/lcd.c ****     DATA_PORT->ODR = tempReg;
 1912              		.loc 1 55 13 is_stmt 0 view .LVU511
 1913 00d0 43F03903 		orr	r3, r3, #57
 1914              	.LVL206:
  56:Core/Src/lcd.c **** 
 1915              		.loc 1 56 5 is_stmt 1 view .LVU512
ARM GAS  C:\Users\Vento\AppData\Local\Temp\ccDU9lzs.s 			page 53


  56:Core/Src/lcd.c **** 
 1916              		.loc 1 56 20 is_stmt 0 view .LVU513
 1917 00d4 E360     		str	r3, [r4, #12]
  67:Core/Src/lcd.c ****     HAL_GPIO_WritePin(ILI9341_WR_GPIO_Port, ILI9341_WR_Pin, GPIO_PIN_SET);
 1918              		.loc 1 67 5 is_stmt 1 view .LVU514
 1919 00d6 0022     		movs	r2, #0
 1920 00d8 4FF48061 		mov	r1, #1024
 1921 00dc 2046     		mov	r0, r4
 1922 00de FFF7FEFF 		bl	HAL_GPIO_WritePin
 1923              	.LVL207:
  68:Core/Src/lcd.c **** }
 1924              		.loc 1 68 5 view .LVU515
 1925 00e2 0122     		movs	r2, #1
 1926 00e4 4FF48061 		mov	r1, #1024
 1927 00e8 2046     		mov	r0, r4
 1928 00ea FFF7FEFF 		bl	HAL_GPIO_WritePin
 1929              	.LVL208:
  68:Core/Src/lcd.c **** }
 1930              		.loc 1 68 5 is_stmt 0 view .LVU516
 1931              	.LBE457:
 1932              	.LBE456:
 1933              	.LBE455:
 1934              	.LBE454:
 138:Core/Src/lcd.c ****     ILI9341_Write_Data(0x00);
 1935              		.loc 1 138 5 is_stmt 1 view .LVU517
 1936              	.LBB458:
 1937              	.LBI458:
  79:Core/Src/lcd.c **** {
 1938              		.loc 1 79 20 view .LVU518
 1939              	.LBB459:
  82:Core/Src/lcd.c ****     ILI9341_SetData(data);
 1940              		.loc 1 82 5 view .LVU519
 1941 00ee 0122     		movs	r2, #1
 1942 00f0 4FF48071 		mov	r1, #256
 1943 00f4 2046     		mov	r0, r4
 1944 00f6 FFF7FEFF 		bl	HAL_GPIO_WritePin
 1945              	.LVL209:
  83:Core/Src/lcd.c ****     // ILI9341_Unselect();
 1946              		.loc 1 83 5 view .LVU520
 1947              	.LBB460:
 1948              	.LBI460:
  46:Core/Src/lcd.c **** {
 1949              		.loc 1 46 20 view .LVU521
 1950              	.LBB461:
  48:Core/Src/lcd.c ****     uint8_t temp_Bit3rd_Data = data & 0x04;
 1951              		.loc 1 48 5 view .LVU522
  49:Core/Src/lcd.c ****     data &= ~0x06;
 1952              		.loc 1 49 5 view .LVU523
  50:Core/Src/lcd.c ****     data |= (uint8_t)((temp_Bit2nd_Data << 1) | (temp_Bit3rd_Data >> 1));
 1953              		.loc 1 50 5 view .LVU524
  51:Core/Src/lcd.c **** 
 1954              		.loc 1 51 5 view .LVU525
  53:Core/Src/lcd.c ****     tempReg &= 0xFFFFFF00;
 1955              		.loc 1 53 5 view .LVU526
  53:Core/Src/lcd.c ****     tempReg &= 0xFFFFFF00;
 1956              		.loc 1 53 14 is_stmt 0 view .LVU527
 1957 00fa E368     		ldr	r3, [r4, #12]
ARM GAS  C:\Users\Vento\AppData\Local\Temp\ccDU9lzs.s 			page 54


 1958              	.LVL210:
  54:Core/Src/lcd.c ****     tempReg |= (uint32_t)data;
 1959              		.loc 1 54 5 is_stmt 1 view .LVU528
  54:Core/Src/lcd.c ****     tempReg |= (uint32_t)data;
 1960              		.loc 1 54 13 is_stmt 0 view .LVU529
 1961 00fc 23F0FF03 		bic	r3, r3, #255
 1962              	.LVL211:
  55:Core/Src/lcd.c ****     DATA_PORT->ODR = tempReg;
 1963              		.loc 1 55 5 is_stmt 1 view .LVU530
  55:Core/Src/lcd.c ****     DATA_PORT->ODR = tempReg;
 1964              		.loc 1 55 13 is_stmt 0 view .LVU531
 1965 0100 43F02A03 		orr	r3, r3, #42
 1966              	.LVL212:
  56:Core/Src/lcd.c **** 
 1967              		.loc 1 56 5 is_stmt 1 view .LVU532
  56:Core/Src/lcd.c **** 
 1968              		.loc 1 56 20 is_stmt 0 view .LVU533
 1969 0104 E360     		str	r3, [r4, #12]
  67:Core/Src/lcd.c ****     HAL_GPIO_WritePin(ILI9341_WR_GPIO_Port, ILI9341_WR_Pin, GPIO_PIN_SET);
 1970              		.loc 1 67 5 is_stmt 1 view .LVU534
 1971 0106 0022     		movs	r2, #0
 1972 0108 4FF48061 		mov	r1, #1024
 1973 010c 2046     		mov	r0, r4
 1974 010e FFF7FEFF 		bl	HAL_GPIO_WritePin
 1975              	.LVL213:
  68:Core/Src/lcd.c **** }
 1976              		.loc 1 68 5 view .LVU535
 1977 0112 0122     		movs	r2, #1
 1978 0114 4FF48061 		mov	r1, #1024
 1979 0118 2046     		mov	r0, r4
 1980 011a FFF7FEFF 		bl	HAL_GPIO_WritePin
 1981              	.LVL214:
  68:Core/Src/lcd.c **** }
 1982              		.loc 1 68 5 is_stmt 0 view .LVU536
 1983              	.LBE461:
 1984              	.LBE460:
 1985              	.LBE459:
 1986              	.LBE458:
 139:Core/Src/lcd.c ****     ILI9341_Write_Data(0x34);
 1987              		.loc 1 139 5 is_stmt 1 view .LVU537
 1988              	.LBB462:
 1989              	.LBI462:
  79:Core/Src/lcd.c **** {
 1990              		.loc 1 79 20 view .LVU538
 1991              	.LBB463:
  82:Core/Src/lcd.c ****     ILI9341_SetData(data);
 1992              		.loc 1 82 5 view .LVU539
 1993 011e 0122     		movs	r2, #1
 1994 0120 4FF48071 		mov	r1, #256
 1995 0124 2046     		mov	r0, r4
 1996 0126 FFF7FEFF 		bl	HAL_GPIO_WritePin
 1997              	.LVL215:
  83:Core/Src/lcd.c ****     // ILI9341_Unselect();
 1998              		.loc 1 83 5 view .LVU540
 1999              	.LBB464:
 2000              	.LBI464:
  46:Core/Src/lcd.c **** {
ARM GAS  C:\Users\Vento\AppData\Local\Temp\ccDU9lzs.s 			page 55


 2001              		.loc 1 46 20 view .LVU541
 2002              	.LBB465:
  48:Core/Src/lcd.c ****     uint8_t temp_Bit3rd_Data = data & 0x04;
 2003              		.loc 1 48 5 view .LVU542
  49:Core/Src/lcd.c ****     data &= ~0x06;
 2004              		.loc 1 49 5 view .LVU543
  50:Core/Src/lcd.c ****     data |= (uint8_t)((temp_Bit2nd_Data << 1) | (temp_Bit3rd_Data >> 1));
 2005              		.loc 1 50 5 view .LVU544
  51:Core/Src/lcd.c **** 
 2006              		.loc 1 51 5 view .LVU545
  53:Core/Src/lcd.c ****     tempReg &= 0xFFFFFF00;
 2007              		.loc 1 53 5 view .LVU546
  53:Core/Src/lcd.c ****     tempReg &= 0xFFFFFF00;
 2008              		.loc 1 53 14 is_stmt 0 view .LVU547
 2009 012a E368     		ldr	r3, [r4, #12]
 2010              	.LVL216:
  54:Core/Src/lcd.c ****     tempReg |= (uint32_t)data;
 2011              		.loc 1 54 5 is_stmt 1 view .LVU548
  54:Core/Src/lcd.c ****     tempReg |= (uint32_t)data;
 2012              		.loc 1 54 13 is_stmt 0 view .LVU549
 2013 012c 23F0FF03 		bic	r3, r3, #255
 2014              	.LVL217:
  55:Core/Src/lcd.c ****     DATA_PORT->ODR = tempReg;
 2015              		.loc 1 55 5 is_stmt 1 view .LVU550
  56:Core/Src/lcd.c **** 
 2016              		.loc 1 56 5 view .LVU551
  56:Core/Src/lcd.c **** 
 2017              		.loc 1 56 20 is_stmt 0 view .LVU552
 2018 0130 E360     		str	r3, [r4, #12]
  67:Core/Src/lcd.c ****     HAL_GPIO_WritePin(ILI9341_WR_GPIO_Port, ILI9341_WR_Pin, GPIO_PIN_SET);
 2019              		.loc 1 67 5 is_stmt 1 view .LVU553
 2020 0132 0022     		movs	r2, #0
 2021 0134 4FF48061 		mov	r1, #1024
 2022 0138 2046     		mov	r0, r4
 2023 013a FFF7FEFF 		bl	HAL_GPIO_WritePin
 2024              	.LVL218:
  68:Core/Src/lcd.c **** }
 2025              		.loc 1 68 5 view .LVU554
 2026 013e 0122     		movs	r2, #1
 2027 0140 4FF48061 		mov	r1, #1024
 2028 0144 2046     		mov	r0, r4
 2029 0146 FFF7FEFF 		bl	HAL_GPIO_WritePin
 2030              	.LVL219:
  68:Core/Src/lcd.c **** }
 2031              		.loc 1 68 5 is_stmt 0 view .LVU555
 2032              	.LBE465:
 2033              	.LBE464:
 2034              	.LBE463:
 2035              	.LBE462:
 140:Core/Src/lcd.c ****     ILI9341_Write_Data(0x02);
 2036              		.loc 1 140 5 is_stmt 1 view .LVU556
 2037              	.LBB466:
 2038              	.LBI466:
  79:Core/Src/lcd.c **** {
 2039              		.loc 1 79 20 view .LVU557
 2040              	.LBB467:
  82:Core/Src/lcd.c ****     ILI9341_SetData(data);
ARM GAS  C:\Users\Vento\AppData\Local\Temp\ccDU9lzs.s 			page 56


 2041              		.loc 1 82 5 view .LVU558
 2042 014a 0122     		movs	r2, #1
 2043 014c 4FF48071 		mov	r1, #256
 2044 0150 2046     		mov	r0, r4
 2045 0152 FFF7FEFF 		bl	HAL_GPIO_WritePin
 2046              	.LVL220:
  83:Core/Src/lcd.c ****     // ILI9341_Unselect();
 2047              		.loc 1 83 5 view .LVU559
 2048              	.LBB468:
 2049              	.LBI468:
  46:Core/Src/lcd.c **** {
 2050              		.loc 1 46 20 view .LVU560
 2051              	.LBB469:
  48:Core/Src/lcd.c ****     uint8_t temp_Bit3rd_Data = data & 0x04;
 2052              		.loc 1 48 5 view .LVU561
  49:Core/Src/lcd.c ****     data &= ~0x06;
 2053              		.loc 1 49 5 view .LVU562
  50:Core/Src/lcd.c ****     data |= (uint8_t)((temp_Bit2nd_Data << 1) | (temp_Bit3rd_Data >> 1));
 2054              		.loc 1 50 5 view .LVU563
  51:Core/Src/lcd.c **** 
 2055              		.loc 1 51 5 view .LVU564
  53:Core/Src/lcd.c ****     tempReg &= 0xFFFFFF00;
 2056              		.loc 1 53 5 view .LVU565
  53:Core/Src/lcd.c ****     tempReg &= 0xFFFFFF00;
 2057              		.loc 1 53 14 is_stmt 0 view .LVU566
 2058 0156 E368     		ldr	r3, [r4, #12]
 2059              	.LVL221:
  54:Core/Src/lcd.c ****     tempReg |= (uint32_t)data;
 2060              		.loc 1 54 5 is_stmt 1 view .LVU567
  54:Core/Src/lcd.c ****     tempReg |= (uint32_t)data;
 2061              		.loc 1 54 13 is_stmt 0 view .LVU568
 2062 0158 23F0FF03 		bic	r3, r3, #255
 2063              	.LVL222:
  55:Core/Src/lcd.c ****     DATA_PORT->ODR = tempReg;
 2064              		.loc 1 55 5 is_stmt 1 view .LVU569
  55:Core/Src/lcd.c ****     DATA_PORT->ODR = tempReg;
 2065              		.loc 1 55 13 is_stmt 0 view .LVU570
 2066 015c 43F03203 		orr	r3, r3, #50
 2067              	.LVL223:
  56:Core/Src/lcd.c **** 
 2068              		.loc 1 56 5 is_stmt 1 view .LVU571
  56:Core/Src/lcd.c **** 
 2069              		.loc 1 56 20 is_stmt 0 view .LVU572
 2070 0160 E360     		str	r3, [r4, #12]
  67:Core/Src/lcd.c ****     HAL_GPIO_WritePin(ILI9341_WR_GPIO_Port, ILI9341_WR_Pin, GPIO_PIN_SET);
 2071              		.loc 1 67 5 is_stmt 1 view .LVU573
 2072 0162 0022     		movs	r2, #0
 2073 0164 4FF48061 		mov	r1, #1024
 2074 0168 2046     		mov	r0, r4
 2075 016a FFF7FEFF 		bl	HAL_GPIO_WritePin
 2076              	.LVL224:
  68:Core/Src/lcd.c **** }
 2077              		.loc 1 68 5 view .LVU574
 2078 016e 0122     		movs	r2, #1
 2079 0170 4FF48061 		mov	r1, #1024
 2080 0174 2046     		mov	r0, r4
 2081 0176 FFF7FEFF 		bl	HAL_GPIO_WritePin
ARM GAS  C:\Users\Vento\AppData\Local\Temp\ccDU9lzs.s 			page 57


 2082              	.LVL225:
  68:Core/Src/lcd.c **** }
 2083              		.loc 1 68 5 is_stmt 0 view .LVU575
 2084              	.LBE469:
 2085              	.LBE468:
 2086              	.LBE467:
 2087              	.LBE466:
 141:Core/Src/lcd.c **** 
 2088              		.loc 1 141 5 is_stmt 1 view .LVU576
 2089              	.LBB470:
 2090              	.LBI470:
  79:Core/Src/lcd.c **** {
 2091              		.loc 1 79 20 view .LVU577
 2092              	.LBB471:
  82:Core/Src/lcd.c ****     ILI9341_SetData(data);
 2093              		.loc 1 82 5 view .LVU578
 2094 017a 0122     		movs	r2, #1
 2095 017c 4FF48071 		mov	r1, #256
 2096 0180 2046     		mov	r0, r4
 2097 0182 FFF7FEFF 		bl	HAL_GPIO_WritePin
 2098              	.LVL226:
  83:Core/Src/lcd.c ****     // ILI9341_Unselect();
 2099              		.loc 1 83 5 view .LVU579
 2100              	.LBB472:
 2101              	.LBI472:
  46:Core/Src/lcd.c **** {
 2102              		.loc 1 46 20 view .LVU580
 2103              	.LBB473:
  48:Core/Src/lcd.c ****     uint8_t temp_Bit3rd_Data = data & 0x04;
 2104              		.loc 1 48 5 view .LVU581
  49:Core/Src/lcd.c ****     data &= ~0x06;
 2105              		.loc 1 49 5 view .LVU582
  50:Core/Src/lcd.c ****     data |= (uint8_t)((temp_Bit2nd_Data << 1) | (temp_Bit3rd_Data >> 1));
 2106              		.loc 1 50 5 view .LVU583
  51:Core/Src/lcd.c **** 
 2107              		.loc 1 51 5 view .LVU584
  53:Core/Src/lcd.c ****     tempReg &= 0xFFFFFF00;
 2108              		.loc 1 53 5 view .LVU585
  53:Core/Src/lcd.c ****     tempReg &= 0xFFFFFF00;
 2109              		.loc 1 53 14 is_stmt 0 view .LVU586
 2110 0186 E368     		ldr	r3, [r4, #12]
 2111              	.LVL227:
  54:Core/Src/lcd.c ****     tempReg |= (uint32_t)data;
 2112              		.loc 1 54 5 is_stmt 1 view .LVU587
  54:Core/Src/lcd.c ****     tempReg |= (uint32_t)data;
 2113              		.loc 1 54 13 is_stmt 0 view .LVU588
 2114 0188 23F0FF03 		bic	r3, r3, #255
 2115              	.LVL228:
  55:Core/Src/lcd.c ****     DATA_PORT->ODR = tempReg;
 2116              		.loc 1 55 5 is_stmt 1 view .LVU589
  55:Core/Src/lcd.c ****     DATA_PORT->ODR = tempReg;
 2117              		.loc 1 55 13 is_stmt 0 view .LVU590
 2118 018c 43F00403 		orr	r3, r3, #4
 2119              	.LVL229:
  56:Core/Src/lcd.c **** 
 2120              		.loc 1 56 5 is_stmt 1 view .LVU591
  56:Core/Src/lcd.c **** 
ARM GAS  C:\Users\Vento\AppData\Local\Temp\ccDU9lzs.s 			page 58


 2121              		.loc 1 56 20 is_stmt 0 view .LVU592
 2122 0190 E360     		str	r3, [r4, #12]
  67:Core/Src/lcd.c ****     HAL_GPIO_WritePin(ILI9341_WR_GPIO_Port, ILI9341_WR_Pin, GPIO_PIN_SET);
 2123              		.loc 1 67 5 is_stmt 1 view .LVU593
 2124 0192 0022     		movs	r2, #0
 2125 0194 4FF48061 		mov	r1, #1024
 2126 0198 2046     		mov	r0, r4
 2127 019a FFF7FEFF 		bl	HAL_GPIO_WritePin
 2128              	.LVL230:
  68:Core/Src/lcd.c **** }
 2129              		.loc 1 68 5 view .LVU594
 2130 019e 0122     		movs	r2, #1
 2131 01a0 4FF48061 		mov	r1, #1024
 2132 01a4 2046     		mov	r0, r4
 2133 01a6 FFF7FEFF 		bl	HAL_GPIO_WritePin
 2134              	.LVL231:
  68:Core/Src/lcd.c **** }
 2135              		.loc 1 68 5 is_stmt 0 view .LVU595
 2136              	.LBE473:
 2137              	.LBE472:
 2138              	.LBE471:
 2139              	.LBE470:
 144:Core/Src/lcd.c ****     ILI9341_Write_Data(0x00);
 2140              		.loc 1 144 5 is_stmt 1 view .LVU596
 2141              	.LBB474:
 2142              	.LBI474:
  71:Core/Src/lcd.c **** {
 2143              		.loc 1 71 20 view .LVU597
 2144              	.LBB475:
  74:Core/Src/lcd.c ****     ILI9341_SetData(cmd);
 2145              		.loc 1 74 5 view .LVU598
 2146 01aa 0022     		movs	r2, #0
 2147 01ac 4FF48071 		mov	r1, #256
 2148 01b0 2046     		mov	r0, r4
 2149 01b2 FFF7FEFF 		bl	HAL_GPIO_WritePin
 2150              	.LVL232:
  75:Core/Src/lcd.c ****     // ILI9341_Unselect();
 2151              		.loc 1 75 5 view .LVU599
 2152              	.LBB476:
 2153              	.LBI476:
  46:Core/Src/lcd.c **** {
 2154              		.loc 1 46 20 view .LVU600
 2155              	.LBB477:
  48:Core/Src/lcd.c ****     uint8_t temp_Bit3rd_Data = data & 0x04;
 2156              		.loc 1 48 5 view .LVU601
  49:Core/Src/lcd.c ****     data &= ~0x06;
 2157              		.loc 1 49 5 view .LVU602
  50:Core/Src/lcd.c ****     data |= (uint8_t)((temp_Bit2nd_Data << 1) | (temp_Bit3rd_Data >> 1));
 2158              		.loc 1 50 5 view .LVU603
  51:Core/Src/lcd.c **** 
 2159              		.loc 1 51 5 view .LVU604
  53:Core/Src/lcd.c ****     tempReg &= 0xFFFFFF00;
 2160              		.loc 1 53 5 view .LVU605
  53:Core/Src/lcd.c ****     tempReg &= 0xFFFFFF00;
 2161              		.loc 1 53 14 is_stmt 0 view .LVU606
 2162 01b6 E368     		ldr	r3, [r4, #12]
 2163              	.LVL233:
ARM GAS  C:\Users\Vento\AppData\Local\Temp\ccDU9lzs.s 			page 59


  54:Core/Src/lcd.c ****     tempReg |= (uint32_t)data;
 2164              		.loc 1 54 5 is_stmt 1 view .LVU607
  54:Core/Src/lcd.c ****     tempReg |= (uint32_t)data;
 2165              		.loc 1 54 13 is_stmt 0 view .LVU608
 2166 01b8 23F0FF03 		bic	r3, r3, #255
 2167              	.LVL234:
  55:Core/Src/lcd.c ****     DATA_PORT->ODR = tempReg;
 2168              		.loc 1 55 5 is_stmt 1 view .LVU609
  55:Core/Src/lcd.c ****     DATA_PORT->ODR = tempReg;
 2169              		.loc 1 55 13 is_stmt 0 view .LVU610
 2170 01bc 43F0CF03 		orr	r3, r3, #207
 2171              	.LVL235:
  56:Core/Src/lcd.c **** 
 2172              		.loc 1 56 5 is_stmt 1 view .LVU611
  56:Core/Src/lcd.c **** 
 2173              		.loc 1 56 20 is_stmt 0 view .LVU612
 2174 01c0 E360     		str	r3, [r4, #12]
  67:Core/Src/lcd.c ****     HAL_GPIO_WritePin(ILI9341_WR_GPIO_Port, ILI9341_WR_Pin, GPIO_PIN_SET);
 2175              		.loc 1 67 5 is_stmt 1 view .LVU613
 2176 01c2 0022     		movs	r2, #0
 2177 01c4 4FF48061 		mov	r1, #1024
 2178 01c8 2046     		mov	r0, r4
 2179 01ca FFF7FEFF 		bl	HAL_GPIO_WritePin
 2180              	.LVL236:
  68:Core/Src/lcd.c **** }
 2181              		.loc 1 68 5 view .LVU614
 2182 01ce 0122     		movs	r2, #1
 2183 01d0 4FF48061 		mov	r1, #1024
 2184 01d4 2046     		mov	r0, r4
 2185 01d6 FFF7FEFF 		bl	HAL_GPIO_WritePin
 2186              	.LVL237:
  68:Core/Src/lcd.c **** }
 2187              		.loc 1 68 5 is_stmt 0 view .LVU615
 2188              	.LBE477:
 2189              	.LBE476:
 2190              	.LBE475:
 2191              	.LBE474:
 145:Core/Src/lcd.c ****     ILI9341_Write_Data(0xC1);
 2192              		.loc 1 145 5 is_stmt 1 view .LVU616
 2193              	.LBB478:
 2194              	.LBI478:
  79:Core/Src/lcd.c **** {
 2195              		.loc 1 79 20 view .LVU617
 2196              	.LBB479:
  82:Core/Src/lcd.c ****     ILI9341_SetData(data);
 2197              		.loc 1 82 5 view .LVU618
 2198 01da 0122     		movs	r2, #1
 2199 01dc 4FF48071 		mov	r1, #256
 2200 01e0 2046     		mov	r0, r4
 2201 01e2 FFF7FEFF 		bl	HAL_GPIO_WritePin
 2202              	.LVL238:
  83:Core/Src/lcd.c ****     // ILI9341_Unselect();
 2203              		.loc 1 83 5 view .LVU619
 2204              	.LBB480:
 2205              	.LBI480:
  46:Core/Src/lcd.c **** {
 2206              		.loc 1 46 20 view .LVU620
ARM GAS  C:\Users\Vento\AppData\Local\Temp\ccDU9lzs.s 			page 60


 2207              	.LBB481:
  48:Core/Src/lcd.c ****     uint8_t temp_Bit3rd_Data = data & 0x04;
 2208              		.loc 1 48 5 view .LVU621
  49:Core/Src/lcd.c ****     data &= ~0x06;
 2209              		.loc 1 49 5 view .LVU622
  50:Core/Src/lcd.c ****     data |= (uint8_t)((temp_Bit2nd_Data << 1) | (temp_Bit3rd_Data >> 1));
 2210              		.loc 1 50 5 view .LVU623
  51:Core/Src/lcd.c **** 
 2211              		.loc 1 51 5 view .LVU624
  53:Core/Src/lcd.c ****     tempReg &= 0xFFFFFF00;
 2212              		.loc 1 53 5 view .LVU625
  53:Core/Src/lcd.c ****     tempReg &= 0xFFFFFF00;
 2213              		.loc 1 53 14 is_stmt 0 view .LVU626
 2214 01e6 E368     		ldr	r3, [r4, #12]
 2215              	.LVL239:
  54:Core/Src/lcd.c ****     tempReg |= (uint32_t)data;
 2216              		.loc 1 54 5 is_stmt 1 view .LVU627
  54:Core/Src/lcd.c ****     tempReg |= (uint32_t)data;
 2217              		.loc 1 54 13 is_stmt 0 view .LVU628
 2218 01e8 23F0FF03 		bic	r3, r3, #255
 2219              	.LVL240:
  55:Core/Src/lcd.c ****     DATA_PORT->ODR = tempReg;
 2220              		.loc 1 55 5 is_stmt 1 view .LVU629
  56:Core/Src/lcd.c **** 
 2221              		.loc 1 56 5 view .LVU630
  56:Core/Src/lcd.c **** 
 2222              		.loc 1 56 20 is_stmt 0 view .LVU631
 2223 01ec E360     		str	r3, [r4, #12]
  67:Core/Src/lcd.c ****     HAL_GPIO_WritePin(ILI9341_WR_GPIO_Port, ILI9341_WR_Pin, GPIO_PIN_SET);
 2224              		.loc 1 67 5 is_stmt 1 view .LVU632
 2225 01ee 0022     		movs	r2, #0
 2226 01f0 4FF48061 		mov	r1, #1024
 2227 01f4 2046     		mov	r0, r4
 2228 01f6 FFF7FEFF 		bl	HAL_GPIO_WritePin
 2229              	.LVL241:
  68:Core/Src/lcd.c **** }
 2230              		.loc 1 68 5 view .LVU633
 2231 01fa 0122     		movs	r2, #1
 2232 01fc 4FF48061 		mov	r1, #1024
 2233 0200 2046     		mov	r0, r4
 2234 0202 FFF7FEFF 		bl	HAL_GPIO_WritePin
 2235              	.LVL242:
  68:Core/Src/lcd.c **** }
 2236              		.loc 1 68 5 is_stmt 0 view .LVU634
 2237              	.LBE481:
 2238              	.LBE480:
 2239              	.LBE479:
 2240              	.LBE478:
 146:Core/Src/lcd.c ****     ILI9341_Write_Data(0x30);
 2241              		.loc 1 146 5 is_stmt 1 view .LVU635
 2242              	.LBB482:
 2243              	.LBI482:
  79:Core/Src/lcd.c **** {
 2244              		.loc 1 79 20 view .LVU636
 2245              	.LBB483:
  82:Core/Src/lcd.c ****     ILI9341_SetData(data);
 2246              		.loc 1 82 5 view .LVU637
ARM GAS  C:\Users\Vento\AppData\Local\Temp\ccDU9lzs.s 			page 61


 2247 0206 0122     		movs	r2, #1
 2248 0208 4FF48071 		mov	r1, #256
 2249 020c 2046     		mov	r0, r4
 2250 020e FFF7FEFF 		bl	HAL_GPIO_WritePin
 2251              	.LVL243:
  83:Core/Src/lcd.c ****     // ILI9341_Unselect();
 2252              		.loc 1 83 5 view .LVU638
 2253              	.LBB484:
 2254              	.LBI484:
  46:Core/Src/lcd.c **** {
 2255              		.loc 1 46 20 view .LVU639
 2256              	.LBB485:
  48:Core/Src/lcd.c ****     uint8_t temp_Bit3rd_Data = data & 0x04;
 2257              		.loc 1 48 5 view .LVU640
  49:Core/Src/lcd.c ****     data &= ~0x06;
 2258              		.loc 1 49 5 view .LVU641
  50:Core/Src/lcd.c ****     data |= (uint8_t)((temp_Bit2nd_Data << 1) | (temp_Bit3rd_Data >> 1));
 2259              		.loc 1 50 5 view .LVU642
  51:Core/Src/lcd.c **** 
 2260              		.loc 1 51 5 view .LVU643
  53:Core/Src/lcd.c ****     tempReg &= 0xFFFFFF00;
 2261              		.loc 1 53 5 view .LVU644
  53:Core/Src/lcd.c ****     tempReg &= 0xFFFFFF00;
 2262              		.loc 1 53 14 is_stmt 0 view .LVU645
 2263 0212 E368     		ldr	r3, [r4, #12]
 2264              	.LVL244:
  54:Core/Src/lcd.c ****     tempReg |= (uint32_t)data;
 2265              		.loc 1 54 5 is_stmt 1 view .LVU646
  54:Core/Src/lcd.c ****     tempReg |= (uint32_t)data;
 2266              		.loc 1 54 13 is_stmt 0 view .LVU647
 2267 0214 23F0FF03 		bic	r3, r3, #255
 2268              	.LVL245:
  55:Core/Src/lcd.c ****     DATA_PORT->ODR = tempReg;
 2269              		.loc 1 55 5 is_stmt 1 view .LVU648
  55:Core/Src/lcd.c ****     DATA_PORT->ODR = tempReg;
 2270              		.loc 1 55 13 is_stmt 0 view .LVU649
 2271 0218 43F0C103 		orr	r3, r3, #193
 2272              	.LVL246:
  56:Core/Src/lcd.c **** 
 2273              		.loc 1 56 5 is_stmt 1 view .LVU650
  56:Core/Src/lcd.c **** 
 2274              		.loc 1 56 20 is_stmt 0 view .LVU651
 2275 021c E360     		str	r3, [r4, #12]
  67:Core/Src/lcd.c ****     HAL_GPIO_WritePin(ILI9341_WR_GPIO_Port, ILI9341_WR_Pin, GPIO_PIN_SET);
 2276              		.loc 1 67 5 is_stmt 1 view .LVU652
 2277 021e 0022     		movs	r2, #0
 2278 0220 4FF48061 		mov	r1, #1024
 2279 0224 2046     		mov	r0, r4
 2280 0226 FFF7FEFF 		bl	HAL_GPIO_WritePin
 2281              	.LVL247:
  68:Core/Src/lcd.c **** }
 2282              		.loc 1 68 5 view .LVU653
 2283 022a 0122     		movs	r2, #1
 2284 022c 4FF48061 		mov	r1, #1024
 2285 0230 2046     		mov	r0, r4
 2286 0232 FFF7FEFF 		bl	HAL_GPIO_WritePin
 2287              	.LVL248:
ARM GAS  C:\Users\Vento\AppData\Local\Temp\ccDU9lzs.s 			page 62


  68:Core/Src/lcd.c **** }
 2288              		.loc 1 68 5 is_stmt 0 view .LVU654
 2289              	.LBE485:
 2290              	.LBE484:
 2291              	.LBE483:
 2292              	.LBE482:
 147:Core/Src/lcd.c **** 
 2293              		.loc 1 147 5 is_stmt 1 view .LVU655
 2294              	.LBB486:
 2295              	.LBI486:
  79:Core/Src/lcd.c **** {
 2296              		.loc 1 79 20 view .LVU656
 2297              	.LBB487:
  82:Core/Src/lcd.c ****     ILI9341_SetData(data);
 2298              		.loc 1 82 5 view .LVU657
 2299 0236 0122     		movs	r2, #1
 2300 0238 4FF48071 		mov	r1, #256
 2301 023c 2046     		mov	r0, r4
 2302 023e FFF7FEFF 		bl	HAL_GPIO_WritePin
 2303              	.LVL249:
  83:Core/Src/lcd.c ****     // ILI9341_Unselect();
 2304              		.loc 1 83 5 view .LVU658
 2305              	.LBB488:
 2306              	.LBI488:
  46:Core/Src/lcd.c **** {
 2307              		.loc 1 46 20 view .LVU659
 2308              	.LBB489:
  48:Core/Src/lcd.c ****     uint8_t temp_Bit3rd_Data = data & 0x04;
 2309              		.loc 1 48 5 view .LVU660
  49:Core/Src/lcd.c ****     data &= ~0x06;
 2310              		.loc 1 49 5 view .LVU661
  50:Core/Src/lcd.c ****     data |= (uint8_t)((temp_Bit2nd_Data << 1) | (temp_Bit3rd_Data >> 1));
 2311              		.loc 1 50 5 view .LVU662
  51:Core/Src/lcd.c **** 
 2312              		.loc 1 51 5 view .LVU663
  53:Core/Src/lcd.c ****     tempReg &= 0xFFFFFF00;
 2313              		.loc 1 53 5 view .LVU664
  53:Core/Src/lcd.c ****     tempReg &= 0xFFFFFF00;
 2314              		.loc 1 53 14 is_stmt 0 view .LVU665
 2315 0242 E368     		ldr	r3, [r4, #12]
 2316              	.LVL250:
  54:Core/Src/lcd.c ****     tempReg |= (uint32_t)data;
 2317              		.loc 1 54 5 is_stmt 1 view .LVU666
  54:Core/Src/lcd.c ****     tempReg |= (uint32_t)data;
 2318              		.loc 1 54 13 is_stmt 0 view .LVU667
 2319 0244 23F0FF03 		bic	r3, r3, #255
 2320              	.LVL251:
  55:Core/Src/lcd.c ****     DATA_PORT->ODR = tempReg;
 2321              		.loc 1 55 5 is_stmt 1 view .LVU668
  55:Core/Src/lcd.c ****     DATA_PORT->ODR = tempReg;
 2322              		.loc 1 55 13 is_stmt 0 view .LVU669
 2323 0248 43F03003 		orr	r3, r3, #48
 2324              	.LVL252:
  56:Core/Src/lcd.c **** 
 2325              		.loc 1 56 5 is_stmt 1 view .LVU670
  56:Core/Src/lcd.c **** 
 2326              		.loc 1 56 20 is_stmt 0 view .LVU671
ARM GAS  C:\Users\Vento\AppData\Local\Temp\ccDU9lzs.s 			page 63


 2327 024c E360     		str	r3, [r4, #12]
  67:Core/Src/lcd.c ****     HAL_GPIO_WritePin(ILI9341_WR_GPIO_Port, ILI9341_WR_Pin, GPIO_PIN_SET);
 2328              		.loc 1 67 5 is_stmt 1 view .LVU672
 2329 024e 0022     		movs	r2, #0
 2330 0250 4FF48061 		mov	r1, #1024
 2331 0254 2046     		mov	r0, r4
 2332 0256 FFF7FEFF 		bl	HAL_GPIO_WritePin
 2333              	.LVL253:
  68:Core/Src/lcd.c **** }
 2334              		.loc 1 68 5 view .LVU673
 2335 025a 0122     		movs	r2, #1
 2336 025c 4FF48061 		mov	r1, #1024
 2337 0260 2046     		mov	r0, r4
 2338 0262 FFF7FEFF 		bl	HAL_GPIO_WritePin
 2339              	.LVL254:
  68:Core/Src/lcd.c **** }
 2340              		.loc 1 68 5 is_stmt 0 view .LVU674
 2341              	.LBE489:
 2342              	.LBE488:
 2343              	.LBE487:
 2344              	.LBE486:
 150:Core/Src/lcd.c ****     ILI9341_Write_Data(0x85);
 2345              		.loc 1 150 5 is_stmt 1 view .LVU675
 2346              	.LBB490:
 2347              	.LBI490:
  71:Core/Src/lcd.c **** {
 2348              		.loc 1 71 20 view .LVU676
 2349              	.LBB491:
  74:Core/Src/lcd.c ****     ILI9341_SetData(cmd);
 2350              		.loc 1 74 5 view .LVU677
 2351 0266 0022     		movs	r2, #0
 2352 0268 4FF48071 		mov	r1, #256
 2353 026c 2046     		mov	r0, r4
 2354 026e FFF7FEFF 		bl	HAL_GPIO_WritePin
 2355              	.LVL255:
  75:Core/Src/lcd.c ****     // ILI9341_Unselect();
 2356              		.loc 1 75 5 view .LVU678
 2357              	.LBB492:
 2358              	.LBI492:
  46:Core/Src/lcd.c **** {
 2359              		.loc 1 46 20 view .LVU679
 2360              	.LBB493:
  48:Core/Src/lcd.c ****     uint8_t temp_Bit3rd_Data = data & 0x04;
 2361              		.loc 1 48 5 view .LVU680
  49:Core/Src/lcd.c ****     data &= ~0x06;
 2362              		.loc 1 49 5 view .LVU681
  50:Core/Src/lcd.c ****     data |= (uint8_t)((temp_Bit2nd_Data << 1) | (temp_Bit3rd_Data >> 1));
 2363              		.loc 1 50 5 view .LVU682
  51:Core/Src/lcd.c **** 
 2364              		.loc 1 51 5 view .LVU683
  53:Core/Src/lcd.c ****     tempReg &= 0xFFFFFF00;
 2365              		.loc 1 53 5 view .LVU684
  53:Core/Src/lcd.c ****     tempReg &= 0xFFFFFF00;
 2366              		.loc 1 53 14 is_stmt 0 view .LVU685
 2367 0272 E368     		ldr	r3, [r4, #12]
 2368              	.LVL256:
  54:Core/Src/lcd.c ****     tempReg |= (uint32_t)data;
ARM GAS  C:\Users\Vento\AppData\Local\Temp\ccDU9lzs.s 			page 64


 2369              		.loc 1 54 5 is_stmt 1 view .LVU686
  54:Core/Src/lcd.c ****     tempReg |= (uint32_t)data;
 2370              		.loc 1 54 13 is_stmt 0 view .LVU687
 2371 0274 23F0FF03 		bic	r3, r3, #255
 2372              	.LVL257:
  55:Core/Src/lcd.c ****     DATA_PORT->ODR = tempReg;
 2373              		.loc 1 55 5 is_stmt 1 view .LVU688
  55:Core/Src/lcd.c ****     DATA_PORT->ODR = tempReg;
 2374              		.loc 1 55 13 is_stmt 0 view .LVU689
 2375 0278 43F0E803 		orr	r3, r3, #232
 2376              	.LVL258:
  56:Core/Src/lcd.c **** 
 2377              		.loc 1 56 5 is_stmt 1 view .LVU690
  56:Core/Src/lcd.c **** 
 2378              		.loc 1 56 20 is_stmt 0 view .LVU691
 2379 027c E360     		str	r3, [r4, #12]
  67:Core/Src/lcd.c ****     HAL_GPIO_WritePin(ILI9341_WR_GPIO_Port, ILI9341_WR_Pin, GPIO_PIN_SET);
 2380              		.loc 1 67 5 is_stmt 1 view .LVU692
 2381 027e 0022     		movs	r2, #0
 2382 0280 4FF48061 		mov	r1, #1024
 2383 0284 2046     		mov	r0, r4
 2384 0286 FFF7FEFF 		bl	HAL_GPIO_WritePin
 2385              	.LVL259:
  68:Core/Src/lcd.c **** }
 2386              		.loc 1 68 5 view .LVU693
 2387 028a 0122     		movs	r2, #1
 2388 028c 4FF48061 		mov	r1, #1024
 2389 0290 2046     		mov	r0, r4
 2390 0292 FFF7FEFF 		bl	HAL_GPIO_WritePin
 2391              	.LVL260:
  68:Core/Src/lcd.c **** }
 2392              		.loc 1 68 5 is_stmt 0 view .LVU694
 2393              	.LBE493:
 2394              	.LBE492:
 2395              	.LBE491:
 2396              	.LBE490:
 151:Core/Src/lcd.c ****     ILI9341_Write_Data(0x00);
 2397              		.loc 1 151 5 is_stmt 1 view .LVU695
 2398              	.LBB494:
 2399              	.LBI494:
  79:Core/Src/lcd.c **** {
 2400              		.loc 1 79 20 view .LVU696
 2401              	.LBB495:
  82:Core/Src/lcd.c ****     ILI9341_SetData(data);
 2402              		.loc 1 82 5 view .LVU697
 2403 0296 0122     		movs	r2, #1
 2404 0298 4FF48071 		mov	r1, #256
 2405 029c 2046     		mov	r0, r4
 2406 029e FFF7FEFF 		bl	HAL_GPIO_WritePin
 2407              	.LVL261:
  83:Core/Src/lcd.c ****     // ILI9341_Unselect();
 2408              		.loc 1 83 5 view .LVU698
 2409              	.LBB496:
 2410              	.LBI496:
  46:Core/Src/lcd.c **** {
 2411              		.loc 1 46 20 view .LVU699
 2412              	.LBB497:
ARM GAS  C:\Users\Vento\AppData\Local\Temp\ccDU9lzs.s 			page 65


  48:Core/Src/lcd.c ****     uint8_t temp_Bit3rd_Data = data & 0x04;
 2413              		.loc 1 48 5 view .LVU700
  49:Core/Src/lcd.c ****     data &= ~0x06;
 2414              		.loc 1 49 5 view .LVU701
  50:Core/Src/lcd.c ****     data |= (uint8_t)((temp_Bit2nd_Data << 1) | (temp_Bit3rd_Data >> 1));
 2415              		.loc 1 50 5 view .LVU702
  51:Core/Src/lcd.c **** 
 2416              		.loc 1 51 5 view .LVU703
  53:Core/Src/lcd.c ****     tempReg &= 0xFFFFFF00;
 2417              		.loc 1 53 5 view .LVU704
  53:Core/Src/lcd.c ****     tempReg &= 0xFFFFFF00;
 2418              		.loc 1 53 14 is_stmt 0 view .LVU705
 2419 02a2 E368     		ldr	r3, [r4, #12]
 2420              	.LVL262:
  54:Core/Src/lcd.c ****     tempReg |= (uint32_t)data;
 2421              		.loc 1 54 5 is_stmt 1 view .LVU706
  54:Core/Src/lcd.c ****     tempReg |= (uint32_t)data;
 2422              		.loc 1 54 13 is_stmt 0 view .LVU707
 2423 02a4 23F0FF03 		bic	r3, r3, #255
 2424              	.LVL263:
  55:Core/Src/lcd.c ****     DATA_PORT->ODR = tempReg;
 2425              		.loc 1 55 5 is_stmt 1 view .LVU708
  55:Core/Src/lcd.c ****     DATA_PORT->ODR = tempReg;
 2426              		.loc 1 55 13 is_stmt 0 view .LVU709
 2427 02a8 43F08303 		orr	r3, r3, #131
 2428              	.LVL264:
  56:Core/Src/lcd.c **** 
 2429              		.loc 1 56 5 is_stmt 1 view .LVU710
  56:Core/Src/lcd.c **** 
 2430              		.loc 1 56 20 is_stmt 0 view .LVU711
 2431 02ac E360     		str	r3, [r4, #12]
  67:Core/Src/lcd.c ****     HAL_GPIO_WritePin(ILI9341_WR_GPIO_Port, ILI9341_WR_Pin, GPIO_PIN_SET);
 2432              		.loc 1 67 5 is_stmt 1 view .LVU712
 2433 02ae 0022     		movs	r2, #0
 2434 02b0 4FF48061 		mov	r1, #1024
 2435 02b4 2046     		mov	r0, r4
 2436 02b6 FFF7FEFF 		bl	HAL_GPIO_WritePin
 2437              	.LVL265:
  68:Core/Src/lcd.c **** }
 2438              		.loc 1 68 5 view .LVU713
 2439 02ba 0122     		movs	r2, #1
 2440 02bc 4FF48061 		mov	r1, #1024
 2441 02c0 2046     		mov	r0, r4
 2442 02c2 FFF7FEFF 		bl	HAL_GPIO_WritePin
 2443              	.LVL266:
  68:Core/Src/lcd.c **** }
 2444              		.loc 1 68 5 is_stmt 0 view .LVU714
 2445              	.LBE497:
 2446              	.LBE496:
 2447              	.LBE495:
 2448              	.LBE494:
 152:Core/Src/lcd.c ****     ILI9341_Write_Data(0x78);
 2449              		.loc 1 152 5 is_stmt 1 view .LVU715
 2450              	.LBB498:
 2451              	.LBI498:
  79:Core/Src/lcd.c **** {
 2452              		.loc 1 79 20 view .LVU716
ARM GAS  C:\Users\Vento\AppData\Local\Temp\ccDU9lzs.s 			page 66


 2453              	.LBB499:
  82:Core/Src/lcd.c ****     ILI9341_SetData(data);
 2454              		.loc 1 82 5 view .LVU717
 2455 02c6 0122     		movs	r2, #1
 2456 02c8 4FF48071 		mov	r1, #256
 2457 02cc 2046     		mov	r0, r4
 2458 02ce FFF7FEFF 		bl	HAL_GPIO_WritePin
 2459              	.LVL267:
  83:Core/Src/lcd.c ****     // ILI9341_Unselect();
 2460              		.loc 1 83 5 view .LVU718
 2461              	.LBB500:
 2462              	.LBI500:
  46:Core/Src/lcd.c **** {
 2463              		.loc 1 46 20 view .LVU719
 2464              	.LBB501:
  48:Core/Src/lcd.c ****     uint8_t temp_Bit3rd_Data = data & 0x04;
 2465              		.loc 1 48 5 view .LVU720
  49:Core/Src/lcd.c ****     data &= ~0x06;
 2466              		.loc 1 49 5 view .LVU721
  50:Core/Src/lcd.c ****     data |= (uint8_t)((temp_Bit2nd_Data << 1) | (temp_Bit3rd_Data >> 1));
 2467              		.loc 1 50 5 view .LVU722
  51:Core/Src/lcd.c **** 
 2468              		.loc 1 51 5 view .LVU723
  53:Core/Src/lcd.c ****     tempReg &= 0xFFFFFF00;
 2469              		.loc 1 53 5 view .LVU724
  53:Core/Src/lcd.c ****     tempReg &= 0xFFFFFF00;
 2470              		.loc 1 53 14 is_stmt 0 view .LVU725
 2471 02d2 E368     		ldr	r3, [r4, #12]
 2472              	.LVL268:
  54:Core/Src/lcd.c ****     tempReg |= (uint32_t)data;
 2473              		.loc 1 54 5 is_stmt 1 view .LVU726
  54:Core/Src/lcd.c ****     tempReg |= (uint32_t)data;
 2474              		.loc 1 54 13 is_stmt 0 view .LVU727
 2475 02d4 23F0FF03 		bic	r3, r3, #255
 2476              	.LVL269:
  55:Core/Src/lcd.c ****     DATA_PORT->ODR = tempReg;
 2477              		.loc 1 55 5 is_stmt 1 view .LVU728
  56:Core/Src/lcd.c **** 
 2478              		.loc 1 56 5 view .LVU729
  56:Core/Src/lcd.c **** 
 2479              		.loc 1 56 20 is_stmt 0 view .LVU730
 2480 02d8 E360     		str	r3, [r4, #12]
  67:Core/Src/lcd.c ****     HAL_GPIO_WritePin(ILI9341_WR_GPIO_Port, ILI9341_WR_Pin, GPIO_PIN_SET);
 2481              		.loc 1 67 5 is_stmt 1 view .LVU731
 2482 02da 0022     		movs	r2, #0
 2483 02dc 4FF48061 		mov	r1, #1024
 2484 02e0 2046     		mov	r0, r4
 2485 02e2 FFF7FEFF 		bl	HAL_GPIO_WritePin
 2486              	.LVL270:
  68:Core/Src/lcd.c **** }
 2487              		.loc 1 68 5 view .LVU732
 2488 02e6 0122     		movs	r2, #1
 2489 02e8 4FF48061 		mov	r1, #1024
 2490 02ec 2046     		mov	r0, r4
 2491 02ee FFF7FEFF 		bl	HAL_GPIO_WritePin
 2492              	.LVL271:
  68:Core/Src/lcd.c **** }
ARM GAS  C:\Users\Vento\AppData\Local\Temp\ccDU9lzs.s 			page 67


 2493              		.loc 1 68 5 is_stmt 0 view .LVU733
 2494              	.LBE501:
 2495              	.LBE500:
 2496              	.LBE499:
 2497              	.LBE498:
 153:Core/Src/lcd.c **** 
 2498              		.loc 1 153 5 is_stmt 1 view .LVU734
 2499              	.LBB502:
 2500              	.LBI502:
  79:Core/Src/lcd.c **** {
 2501              		.loc 1 79 20 view .LVU735
 2502              	.LBB503:
  82:Core/Src/lcd.c ****     ILI9341_SetData(data);
 2503              		.loc 1 82 5 view .LVU736
 2504 02f2 0122     		movs	r2, #1
 2505 02f4 4FF48071 		mov	r1, #256
 2506 02f8 2046     		mov	r0, r4
 2507 02fa FFF7FEFF 		bl	HAL_GPIO_WritePin
 2508              	.LVL272:
  83:Core/Src/lcd.c ****     // ILI9341_Unselect();
 2509              		.loc 1 83 5 view .LVU737
 2510              	.LBB504:
 2511              	.LBI504:
  46:Core/Src/lcd.c **** {
 2512              		.loc 1 46 20 view .LVU738
 2513              	.LBB505:
  48:Core/Src/lcd.c ****     uint8_t temp_Bit3rd_Data = data & 0x04;
 2514              		.loc 1 48 5 view .LVU739
  49:Core/Src/lcd.c ****     data &= ~0x06;
 2515              		.loc 1 49 5 view .LVU740
  50:Core/Src/lcd.c ****     data |= (uint8_t)((temp_Bit2nd_Data << 1) | (temp_Bit3rd_Data >> 1));
 2516              		.loc 1 50 5 view .LVU741
  51:Core/Src/lcd.c **** 
 2517              		.loc 1 51 5 view .LVU742
  53:Core/Src/lcd.c ****     tempReg &= 0xFFFFFF00;
 2518              		.loc 1 53 5 view .LVU743
  53:Core/Src/lcd.c ****     tempReg &= 0xFFFFFF00;
 2519              		.loc 1 53 14 is_stmt 0 view .LVU744
 2520 02fe E368     		ldr	r3, [r4, #12]
 2521              	.LVL273:
  54:Core/Src/lcd.c ****     tempReg |= (uint32_t)data;
 2522              		.loc 1 54 5 is_stmt 1 view .LVU745
  54:Core/Src/lcd.c ****     tempReg |= (uint32_t)data;
 2523              		.loc 1 54 13 is_stmt 0 view .LVU746
 2524 0300 23F0FF03 		bic	r3, r3, #255
 2525              	.LVL274:
  55:Core/Src/lcd.c ****     DATA_PORT->ODR = tempReg;
 2526              		.loc 1 55 5 is_stmt 1 view .LVU747
  55:Core/Src/lcd.c ****     DATA_PORT->ODR = tempReg;
 2527              		.loc 1 55 13 is_stmt 0 view .LVU748
 2528 0304 43F07803 		orr	r3, r3, #120
 2529              	.LVL275:
  56:Core/Src/lcd.c **** 
 2530              		.loc 1 56 5 is_stmt 1 view .LVU749
  56:Core/Src/lcd.c **** 
 2531              		.loc 1 56 20 is_stmt 0 view .LVU750
 2532 0308 E360     		str	r3, [r4, #12]
ARM GAS  C:\Users\Vento\AppData\Local\Temp\ccDU9lzs.s 			page 68


  67:Core/Src/lcd.c ****     HAL_GPIO_WritePin(ILI9341_WR_GPIO_Port, ILI9341_WR_Pin, GPIO_PIN_SET);
 2533              		.loc 1 67 5 is_stmt 1 view .LVU751
 2534 030a 0022     		movs	r2, #0
 2535 030c 4FF48061 		mov	r1, #1024
 2536 0310 2046     		mov	r0, r4
 2537 0312 FFF7FEFF 		bl	HAL_GPIO_WritePin
 2538              	.LVL276:
  68:Core/Src/lcd.c **** }
 2539              		.loc 1 68 5 view .LVU752
 2540 0316 0122     		movs	r2, #1
 2541 0318 4FF48061 		mov	r1, #1024
 2542 031c 2046     		mov	r0, r4
 2543 031e FFF7FEFF 		bl	HAL_GPIO_WritePin
 2544              	.LVL277:
  68:Core/Src/lcd.c **** }
 2545              		.loc 1 68 5 is_stmt 0 view .LVU753
 2546              	.LBE505:
 2547              	.LBE504:
 2548              	.LBE503:
 2549              	.LBE502:
 156:Core/Src/lcd.c ****     ILI9341_Write_Data(0x00);
 2550              		.loc 1 156 5 is_stmt 1 view .LVU754
 2551              	.LBB506:
 2552              	.LBI506:
  71:Core/Src/lcd.c **** {
 2553              		.loc 1 71 20 view .LVU755
 2554              	.LBB507:
  74:Core/Src/lcd.c ****     ILI9341_SetData(cmd);
 2555              		.loc 1 74 5 view .LVU756
 2556 0322 0022     		movs	r2, #0
 2557 0324 4FF48071 		mov	r1, #256
 2558 0328 2046     		mov	r0, r4
 2559 032a FFF7FEFF 		bl	HAL_GPIO_WritePin
 2560              	.LVL278:
  75:Core/Src/lcd.c ****     // ILI9341_Unselect();
 2561              		.loc 1 75 5 view .LVU757
 2562              	.LBB508:
 2563              	.LBI508:
  46:Core/Src/lcd.c **** {
 2564              		.loc 1 46 20 view .LVU758
 2565              	.LBB509:
  48:Core/Src/lcd.c ****     uint8_t temp_Bit3rd_Data = data & 0x04;
 2566              		.loc 1 48 5 view .LVU759
  49:Core/Src/lcd.c ****     data &= ~0x06;
 2567              		.loc 1 49 5 view .LVU760
  50:Core/Src/lcd.c ****     data |= (uint8_t)((temp_Bit2nd_Data << 1) | (temp_Bit3rd_Data >> 1));
 2568              		.loc 1 50 5 view .LVU761
  51:Core/Src/lcd.c **** 
 2569              		.loc 1 51 5 view .LVU762
  53:Core/Src/lcd.c ****     tempReg &= 0xFFFFFF00;
 2570              		.loc 1 53 5 view .LVU763
  53:Core/Src/lcd.c ****     tempReg &= 0xFFFFFF00;
 2571              		.loc 1 53 14 is_stmt 0 view .LVU764
 2572 032e E368     		ldr	r3, [r4, #12]
 2573              	.LVL279:
  54:Core/Src/lcd.c ****     tempReg |= (uint32_t)data;
 2574              		.loc 1 54 5 is_stmt 1 view .LVU765
ARM GAS  C:\Users\Vento\AppData\Local\Temp\ccDU9lzs.s 			page 69


  54:Core/Src/lcd.c ****     tempReg |= (uint32_t)data;
 2575              		.loc 1 54 13 is_stmt 0 view .LVU766
 2576 0330 23F0FF03 		bic	r3, r3, #255
 2577              	.LVL280:
  55:Core/Src/lcd.c ****     DATA_PORT->ODR = tempReg;
 2578              		.loc 1 55 5 is_stmt 1 view .LVU767
  55:Core/Src/lcd.c ****     DATA_PORT->ODR = tempReg;
 2579              		.loc 1 55 13 is_stmt 0 view .LVU768
 2580 0334 43F0EC03 		orr	r3, r3, #236
 2581              	.LVL281:
  56:Core/Src/lcd.c **** 
 2582              		.loc 1 56 5 is_stmt 1 view .LVU769
  56:Core/Src/lcd.c **** 
 2583              		.loc 1 56 20 is_stmt 0 view .LVU770
 2584 0338 E360     		str	r3, [r4, #12]
  67:Core/Src/lcd.c ****     HAL_GPIO_WritePin(ILI9341_WR_GPIO_Port, ILI9341_WR_Pin, GPIO_PIN_SET);
 2585              		.loc 1 67 5 is_stmt 1 view .LVU771
 2586 033a 0022     		movs	r2, #0
 2587 033c 4FF48061 		mov	r1, #1024
 2588 0340 2046     		mov	r0, r4
 2589 0342 FFF7FEFF 		bl	HAL_GPIO_WritePin
 2590              	.LVL282:
  68:Core/Src/lcd.c **** }
 2591              		.loc 1 68 5 view .LVU772
 2592 0346 0122     		movs	r2, #1
 2593 0348 4FF48061 		mov	r1, #1024
 2594 034c 2046     		mov	r0, r4
 2595 034e FFF7FEFF 		bl	HAL_GPIO_WritePin
 2596              	.LVL283:
  68:Core/Src/lcd.c **** }
 2597              		.loc 1 68 5 is_stmt 0 view .LVU773
 2598              	.LBE509:
 2599              	.LBE508:
 2600              	.LBE507:
 2601              	.LBE506:
 157:Core/Src/lcd.c ****     ILI9341_Write_Data(0x00);
 2602              		.loc 1 157 5 is_stmt 1 view .LVU774
 2603              	.LBB510:
 2604              	.LBI510:
  79:Core/Src/lcd.c **** {
 2605              		.loc 1 79 20 view .LVU775
 2606              	.LBB511:
  82:Core/Src/lcd.c ****     ILI9341_SetData(data);
 2607              		.loc 1 82 5 view .LVU776
 2608 0352 0122     		movs	r2, #1
 2609 0354 4FF48071 		mov	r1, #256
 2610 0358 2046     		mov	r0, r4
 2611 035a FFF7FEFF 		bl	HAL_GPIO_WritePin
 2612              	.LVL284:
  83:Core/Src/lcd.c ****     // ILI9341_Unselect();
 2613              		.loc 1 83 5 view .LVU777
 2614              	.LBB512:
 2615              	.LBI512:
  46:Core/Src/lcd.c **** {
 2616              		.loc 1 46 20 view .LVU778
 2617              	.LBB513:
  48:Core/Src/lcd.c ****     uint8_t temp_Bit3rd_Data = data & 0x04;
ARM GAS  C:\Users\Vento\AppData\Local\Temp\ccDU9lzs.s 			page 70


 2618              		.loc 1 48 5 view .LVU779
  49:Core/Src/lcd.c ****     data &= ~0x06;
 2619              		.loc 1 49 5 view .LVU780
  50:Core/Src/lcd.c ****     data |= (uint8_t)((temp_Bit2nd_Data << 1) | (temp_Bit3rd_Data >> 1));
 2620              		.loc 1 50 5 view .LVU781
  51:Core/Src/lcd.c **** 
 2621              		.loc 1 51 5 view .LVU782
  53:Core/Src/lcd.c ****     tempReg &= 0xFFFFFF00;
 2622              		.loc 1 53 5 view .LVU783
  53:Core/Src/lcd.c ****     tempReg &= 0xFFFFFF00;
 2623              		.loc 1 53 14 is_stmt 0 view .LVU784
 2624 035e E368     		ldr	r3, [r4, #12]
 2625              	.LVL285:
  54:Core/Src/lcd.c ****     tempReg |= (uint32_t)data;
 2626              		.loc 1 54 5 is_stmt 1 view .LVU785
  54:Core/Src/lcd.c ****     tempReg |= (uint32_t)data;
 2627              		.loc 1 54 13 is_stmt 0 view .LVU786
 2628 0360 23F0FF03 		bic	r3, r3, #255
 2629              	.LVL286:
  55:Core/Src/lcd.c ****     DATA_PORT->ODR = tempReg;
 2630              		.loc 1 55 5 is_stmt 1 view .LVU787
  56:Core/Src/lcd.c **** 
 2631              		.loc 1 56 5 view .LVU788
  56:Core/Src/lcd.c **** 
 2632              		.loc 1 56 20 is_stmt 0 view .LVU789
 2633 0364 E360     		str	r3, [r4, #12]
  67:Core/Src/lcd.c ****     HAL_GPIO_WritePin(ILI9341_WR_GPIO_Port, ILI9341_WR_Pin, GPIO_PIN_SET);
 2634              		.loc 1 67 5 is_stmt 1 view .LVU790
 2635 0366 0022     		movs	r2, #0
 2636 0368 4FF48061 		mov	r1, #1024
 2637 036c 2046     		mov	r0, r4
 2638 036e FFF7FEFF 		bl	HAL_GPIO_WritePin
 2639              	.LVL287:
  68:Core/Src/lcd.c **** }
 2640              		.loc 1 68 5 view .LVU791
 2641 0372 0122     		movs	r2, #1
 2642 0374 4FF48061 		mov	r1, #1024
 2643 0378 2046     		mov	r0, r4
 2644 037a FFF7FEFF 		bl	HAL_GPIO_WritePin
 2645              	.LVL288:
  68:Core/Src/lcd.c **** }
 2646              		.loc 1 68 5 is_stmt 0 view .LVU792
 2647              	.LBE513:
 2648              	.LBE512:
 2649              	.LBE511:
 2650              	.LBE510:
 158:Core/Src/lcd.c **** 
 2651              		.loc 1 158 5 is_stmt 1 view .LVU793
 2652              	.LBB514:
 2653              	.LBI514:
  79:Core/Src/lcd.c **** {
 2654              		.loc 1 79 20 view .LVU794
 2655              	.LBB515:
  82:Core/Src/lcd.c ****     ILI9341_SetData(data);
 2656              		.loc 1 82 5 view .LVU795
 2657 037e 0122     		movs	r2, #1
 2658 0380 4FF48071 		mov	r1, #256
ARM GAS  C:\Users\Vento\AppData\Local\Temp\ccDU9lzs.s 			page 71


 2659 0384 2046     		mov	r0, r4
 2660 0386 FFF7FEFF 		bl	HAL_GPIO_WritePin
 2661              	.LVL289:
  83:Core/Src/lcd.c ****     // ILI9341_Unselect();
 2662              		.loc 1 83 5 view .LVU796
 2663              	.LBB516:
 2664              	.LBI516:
  46:Core/Src/lcd.c **** {
 2665              		.loc 1 46 20 view .LVU797
 2666              	.LBB517:
  48:Core/Src/lcd.c ****     uint8_t temp_Bit3rd_Data = data & 0x04;
 2667              		.loc 1 48 5 view .LVU798
  49:Core/Src/lcd.c ****     data &= ~0x06;
 2668              		.loc 1 49 5 view .LVU799
  50:Core/Src/lcd.c ****     data |= (uint8_t)((temp_Bit2nd_Data << 1) | (temp_Bit3rd_Data >> 1));
 2669              		.loc 1 50 5 view .LVU800
  51:Core/Src/lcd.c **** 
 2670              		.loc 1 51 5 view .LVU801
  53:Core/Src/lcd.c ****     tempReg &= 0xFFFFFF00;
 2671              		.loc 1 53 5 view .LVU802
  53:Core/Src/lcd.c ****     tempReg &= 0xFFFFFF00;
 2672              		.loc 1 53 14 is_stmt 0 view .LVU803
 2673 038a E368     		ldr	r3, [r4, #12]
 2674              	.LVL290:
  54:Core/Src/lcd.c ****     tempReg |= (uint32_t)data;
 2675              		.loc 1 54 5 is_stmt 1 view .LVU804
  54:Core/Src/lcd.c ****     tempReg |= (uint32_t)data;
 2676              		.loc 1 54 13 is_stmt 0 view .LVU805
 2677 038c 23F0FF03 		bic	r3, r3, #255
 2678              	.LVL291:
  55:Core/Src/lcd.c ****     DATA_PORT->ODR = tempReg;
 2679              		.loc 1 55 5 is_stmt 1 view .LVU806
  56:Core/Src/lcd.c **** 
 2680              		.loc 1 56 5 view .LVU807
  56:Core/Src/lcd.c **** 
 2681              		.loc 1 56 20 is_stmt 0 view .LVU808
 2682 0390 E360     		str	r3, [r4, #12]
  67:Core/Src/lcd.c ****     HAL_GPIO_WritePin(ILI9341_WR_GPIO_Port, ILI9341_WR_Pin, GPIO_PIN_SET);
 2683              		.loc 1 67 5 is_stmt 1 view .LVU809
 2684 0392 0022     		movs	r2, #0
 2685 0394 4FF48061 		mov	r1, #1024
 2686 0398 2046     		mov	r0, r4
 2687 039a FFF7FEFF 		bl	HAL_GPIO_WritePin
 2688              	.LVL292:
  68:Core/Src/lcd.c **** }
 2689              		.loc 1 68 5 view .LVU810
 2690 039e 0122     		movs	r2, #1
 2691 03a0 4FF48061 		mov	r1, #1024
 2692 03a4 2046     		mov	r0, r4
 2693 03a6 FFF7FEFF 		bl	HAL_GPIO_WritePin
 2694              	.LVL293:
  68:Core/Src/lcd.c **** }
 2695              		.loc 1 68 5 is_stmt 0 view .LVU811
 2696              	.LBE517:
 2697              	.LBE516:
 2698              	.LBE515:
 2699              	.LBE514:
ARM GAS  C:\Users\Vento\AppData\Local\Temp\ccDU9lzs.s 			page 72


 161:Core/Src/lcd.c ****     ILI9341_Write_Data(0x64);
 2700              		.loc 1 161 5 is_stmt 1 view .LVU812
 2701              	.LBB518:
 2702              	.LBI518:
  71:Core/Src/lcd.c **** {
 2703              		.loc 1 71 20 view .LVU813
 2704              	.LBB519:
  74:Core/Src/lcd.c ****     ILI9341_SetData(cmd);
 2705              		.loc 1 74 5 view .LVU814
 2706 03aa 0022     		movs	r2, #0
 2707 03ac 4FF48071 		mov	r1, #256
 2708 03b0 06E0     		b	.L100
 2709              	.L101:
 2710 03b2 00BF     		.align	2
 2711              	.L99:
 2712 03b4 00140140 		.word	1073812480
 2713 03b8 000C0140 		.word	1073810432
 2714 03bc 00100140 		.word	1073811456
 2715              	.L100:
 2716 03c0 2046     		mov	r0, r4
 2717 03c2 FFF7FEFF 		bl	HAL_GPIO_WritePin
 2718              	.LVL294:
  75:Core/Src/lcd.c ****     // ILI9341_Unselect();
 2719              		.loc 1 75 5 view .LVU815
 2720              	.LBB520:
 2721              	.LBI520:
  46:Core/Src/lcd.c **** {
 2722              		.loc 1 46 20 view .LVU816
 2723              	.LBB521:
  48:Core/Src/lcd.c ****     uint8_t temp_Bit3rd_Data = data & 0x04;
 2724              		.loc 1 48 5 view .LVU817
  49:Core/Src/lcd.c ****     data &= ~0x06;
 2725              		.loc 1 49 5 view .LVU818
  50:Core/Src/lcd.c ****     data |= (uint8_t)((temp_Bit2nd_Data << 1) | (temp_Bit3rd_Data >> 1));
 2726              		.loc 1 50 5 view .LVU819
  51:Core/Src/lcd.c **** 
 2727              		.loc 1 51 5 view .LVU820
  53:Core/Src/lcd.c ****     tempReg &= 0xFFFFFF00;
 2728              		.loc 1 53 5 view .LVU821
  53:Core/Src/lcd.c ****     tempReg &= 0xFFFFFF00;
 2729              		.loc 1 53 14 is_stmt 0 view .LVU822
 2730 03c6 E368     		ldr	r3, [r4, #12]
 2731              	.LVL295:
  54:Core/Src/lcd.c ****     tempReg |= (uint32_t)data;
 2732              		.loc 1 54 5 is_stmt 1 view .LVU823
  54:Core/Src/lcd.c ****     tempReg |= (uint32_t)data;
 2733              		.loc 1 54 13 is_stmt 0 view .LVU824
 2734 03c8 23F0FF03 		bic	r3, r3, #255
 2735              	.LVL296:
  55:Core/Src/lcd.c ****     DATA_PORT->ODR = tempReg;
 2736              		.loc 1 55 5 is_stmt 1 view .LVU825
  55:Core/Src/lcd.c ****     DATA_PORT->ODR = tempReg;
 2737              		.loc 1 55 13 is_stmt 0 view .LVU826
 2738 03cc 43F0EB03 		orr	r3, r3, #235
 2739              	.LVL297:
  56:Core/Src/lcd.c **** 
 2740              		.loc 1 56 5 is_stmt 1 view .LVU827
ARM GAS  C:\Users\Vento\AppData\Local\Temp\ccDU9lzs.s 			page 73


  56:Core/Src/lcd.c **** 
 2741              		.loc 1 56 20 is_stmt 0 view .LVU828
 2742 03d0 E360     		str	r3, [r4, #12]
  67:Core/Src/lcd.c ****     HAL_GPIO_WritePin(ILI9341_WR_GPIO_Port, ILI9341_WR_Pin, GPIO_PIN_SET);
 2743              		.loc 1 67 5 is_stmt 1 view .LVU829
 2744 03d2 0022     		movs	r2, #0
 2745 03d4 4FF48061 		mov	r1, #1024
 2746 03d8 2046     		mov	r0, r4
 2747 03da FFF7FEFF 		bl	HAL_GPIO_WritePin
 2748              	.LVL298:
  68:Core/Src/lcd.c **** }
 2749              		.loc 1 68 5 view .LVU830
 2750 03de 0122     		movs	r2, #1
 2751 03e0 4FF48061 		mov	r1, #1024
 2752 03e4 2046     		mov	r0, r4
 2753 03e6 FFF7FEFF 		bl	HAL_GPIO_WritePin
 2754              	.LVL299:
  68:Core/Src/lcd.c **** }
 2755              		.loc 1 68 5 is_stmt 0 view .LVU831
 2756              	.LBE521:
 2757              	.LBE520:
 2758              	.LBE519:
 2759              	.LBE518:
 162:Core/Src/lcd.c ****     ILI9341_Write_Data(0x03);
 2760              		.loc 1 162 5 is_stmt 1 view .LVU832
 2761              	.LBB522:
 2762              	.LBI522:
  79:Core/Src/lcd.c **** {
 2763              		.loc 1 79 20 view .LVU833
 2764              	.LBB523:
  82:Core/Src/lcd.c ****     ILI9341_SetData(data);
 2765              		.loc 1 82 5 view .LVU834
 2766 03ea 0122     		movs	r2, #1
 2767 03ec 4FF48071 		mov	r1, #256
 2768 03f0 2046     		mov	r0, r4
 2769 03f2 FFF7FEFF 		bl	HAL_GPIO_WritePin
 2770              	.LVL300:
  83:Core/Src/lcd.c ****     // ILI9341_Unselect();
 2771              		.loc 1 83 5 view .LVU835
 2772              	.LBB524:
 2773              	.LBI524:
  46:Core/Src/lcd.c **** {
 2774              		.loc 1 46 20 view .LVU836
 2775              	.LBB525:
  48:Core/Src/lcd.c ****     uint8_t temp_Bit3rd_Data = data & 0x04;
 2776              		.loc 1 48 5 view .LVU837
  49:Core/Src/lcd.c ****     data &= ~0x06;
 2777              		.loc 1 49 5 view .LVU838
  50:Core/Src/lcd.c ****     data |= (uint8_t)((temp_Bit2nd_Data << 1) | (temp_Bit3rd_Data >> 1));
 2778              		.loc 1 50 5 view .LVU839
  51:Core/Src/lcd.c **** 
 2779              		.loc 1 51 5 view .LVU840
  53:Core/Src/lcd.c ****     tempReg &= 0xFFFFFF00;
 2780              		.loc 1 53 5 view .LVU841
  53:Core/Src/lcd.c ****     tempReg &= 0xFFFFFF00;
 2781              		.loc 1 53 14 is_stmt 0 view .LVU842
 2782 03f6 E368     		ldr	r3, [r4, #12]
ARM GAS  C:\Users\Vento\AppData\Local\Temp\ccDU9lzs.s 			page 74


 2783              	.LVL301:
  54:Core/Src/lcd.c ****     tempReg |= (uint32_t)data;
 2784              		.loc 1 54 5 is_stmt 1 view .LVU843
  54:Core/Src/lcd.c ****     tempReg |= (uint32_t)data;
 2785              		.loc 1 54 13 is_stmt 0 view .LVU844
 2786 03f8 23F0FF03 		bic	r3, r3, #255
 2787              	.LVL302:
  55:Core/Src/lcd.c ****     DATA_PORT->ODR = tempReg;
 2788              		.loc 1 55 5 is_stmt 1 view .LVU845
  55:Core/Src/lcd.c ****     DATA_PORT->ODR = tempReg;
 2789              		.loc 1 55 13 is_stmt 0 view .LVU846
 2790 03fc 43F06203 		orr	r3, r3, #98
 2791              	.LVL303:
  56:Core/Src/lcd.c **** 
 2792              		.loc 1 56 5 is_stmt 1 view .LVU847
  56:Core/Src/lcd.c **** 
 2793              		.loc 1 56 20 is_stmt 0 view .LVU848
 2794 0400 E360     		str	r3, [r4, #12]
  67:Core/Src/lcd.c ****     HAL_GPIO_WritePin(ILI9341_WR_GPIO_Port, ILI9341_WR_Pin, GPIO_PIN_SET);
 2795              		.loc 1 67 5 is_stmt 1 view .LVU849
 2796 0402 0022     		movs	r2, #0
 2797 0404 4FF48061 		mov	r1, #1024
 2798 0408 2046     		mov	r0, r4
 2799 040a FFF7FEFF 		bl	HAL_GPIO_WritePin
 2800              	.LVL304:
  68:Core/Src/lcd.c **** }
 2801              		.loc 1 68 5 view .LVU850
 2802 040e 0122     		movs	r2, #1
 2803 0410 4FF48061 		mov	r1, #1024
 2804 0414 2046     		mov	r0, r4
 2805 0416 FFF7FEFF 		bl	HAL_GPIO_WritePin
 2806              	.LVL305:
  68:Core/Src/lcd.c **** }
 2807              		.loc 1 68 5 is_stmt 0 view .LVU851
 2808              	.LBE525:
 2809              	.LBE524:
 2810              	.LBE523:
 2811              	.LBE522:
 163:Core/Src/lcd.c ****     ILI9341_Write_Data(0x12);
 2812              		.loc 1 163 5 is_stmt 1 view .LVU852
 2813              	.LBB526:
 2814              	.LBI526:
  79:Core/Src/lcd.c **** {
 2815              		.loc 1 79 20 view .LVU853
 2816              	.LBB527:
  82:Core/Src/lcd.c ****     ILI9341_SetData(data);
 2817              		.loc 1 82 5 view .LVU854
 2818 041a 0122     		movs	r2, #1
 2819 041c 4FF48071 		mov	r1, #256
 2820 0420 2046     		mov	r0, r4
 2821 0422 FFF7FEFF 		bl	HAL_GPIO_WritePin
 2822              	.LVL306:
  83:Core/Src/lcd.c ****     // ILI9341_Unselect();
 2823              		.loc 1 83 5 view .LVU855
 2824              	.LBB528:
 2825              	.LBI528:
  46:Core/Src/lcd.c **** {
ARM GAS  C:\Users\Vento\AppData\Local\Temp\ccDU9lzs.s 			page 75


 2826              		.loc 1 46 20 view .LVU856
 2827              	.LBB529:
  48:Core/Src/lcd.c ****     uint8_t temp_Bit3rd_Data = data & 0x04;
 2828              		.loc 1 48 5 view .LVU857
  49:Core/Src/lcd.c ****     data &= ~0x06;
 2829              		.loc 1 49 5 view .LVU858
  50:Core/Src/lcd.c ****     data |= (uint8_t)((temp_Bit2nd_Data << 1) | (temp_Bit3rd_Data >> 1));
 2830              		.loc 1 50 5 view .LVU859
  51:Core/Src/lcd.c **** 
 2831              		.loc 1 51 5 view .LVU860
  53:Core/Src/lcd.c ****     tempReg &= 0xFFFFFF00;
 2832              		.loc 1 53 5 view .LVU861
  53:Core/Src/lcd.c ****     tempReg &= 0xFFFFFF00;
 2833              		.loc 1 53 14 is_stmt 0 view .LVU862
 2834 0426 E368     		ldr	r3, [r4, #12]
 2835              	.LVL307:
  54:Core/Src/lcd.c ****     tempReg |= (uint32_t)data;
 2836              		.loc 1 54 5 is_stmt 1 view .LVU863
  54:Core/Src/lcd.c ****     tempReg |= (uint32_t)data;
 2837              		.loc 1 54 13 is_stmt 0 view .LVU864
 2838 0428 23F0FF03 		bic	r3, r3, #255
 2839              	.LVL308:
  55:Core/Src/lcd.c ****     DATA_PORT->ODR = tempReg;
 2840              		.loc 1 55 5 is_stmt 1 view .LVU865
  55:Core/Src/lcd.c ****     DATA_PORT->ODR = tempReg;
 2841              		.loc 1 55 13 is_stmt 0 view .LVU866
 2842 042c 43F00503 		orr	r3, r3, #5
 2843              	.LVL309:
  56:Core/Src/lcd.c **** 
 2844              		.loc 1 56 5 is_stmt 1 view .LVU867
  56:Core/Src/lcd.c **** 
 2845              		.loc 1 56 20 is_stmt 0 view .LVU868
 2846 0430 E360     		str	r3, [r4, #12]
  67:Core/Src/lcd.c ****     HAL_GPIO_WritePin(ILI9341_WR_GPIO_Port, ILI9341_WR_Pin, GPIO_PIN_SET);
 2847              		.loc 1 67 5 is_stmt 1 view .LVU869
 2848 0432 0022     		movs	r2, #0
 2849 0434 4FF48061 		mov	r1, #1024
 2850 0438 2046     		mov	r0, r4
 2851 043a FFF7FEFF 		bl	HAL_GPIO_WritePin
 2852              	.LVL310:
  68:Core/Src/lcd.c **** }
 2853              		.loc 1 68 5 view .LVU870
 2854 043e 0122     		movs	r2, #1
 2855 0440 4FF48061 		mov	r1, #1024
 2856 0444 2046     		mov	r0, r4
 2857 0446 FFF7FEFF 		bl	HAL_GPIO_WritePin
 2858              	.LVL311:
  68:Core/Src/lcd.c **** }
 2859              		.loc 1 68 5 is_stmt 0 view .LVU871
 2860              	.LBE529:
 2861              	.LBE528:
 2862              	.LBE527:
 2863              	.LBE526:
 164:Core/Src/lcd.c ****     ILI9341_Write_Data(0x81);
 2864              		.loc 1 164 5 is_stmt 1 view .LVU872
 2865              	.LBB530:
 2866              	.LBI530:
ARM GAS  C:\Users\Vento\AppData\Local\Temp\ccDU9lzs.s 			page 76


  79:Core/Src/lcd.c **** {
 2867              		.loc 1 79 20 view .LVU873
 2868              	.LBB531:
  82:Core/Src/lcd.c ****     ILI9341_SetData(data);
 2869              		.loc 1 82 5 view .LVU874
 2870 044a 0122     		movs	r2, #1
 2871 044c 4FF48071 		mov	r1, #256
 2872 0450 2046     		mov	r0, r4
 2873 0452 FFF7FEFF 		bl	HAL_GPIO_WritePin
 2874              	.LVL312:
  83:Core/Src/lcd.c ****     // ILI9341_Unselect();
 2875              		.loc 1 83 5 view .LVU875
 2876              	.LBB532:
 2877              	.LBI532:
  46:Core/Src/lcd.c **** {
 2878              		.loc 1 46 20 view .LVU876
 2879              	.LBB533:
  48:Core/Src/lcd.c ****     uint8_t temp_Bit3rd_Data = data & 0x04;
 2880              		.loc 1 48 5 view .LVU877
  49:Core/Src/lcd.c ****     data &= ~0x06;
 2881              		.loc 1 49 5 view .LVU878
  50:Core/Src/lcd.c ****     data |= (uint8_t)((temp_Bit2nd_Data << 1) | (temp_Bit3rd_Data >> 1));
 2882              		.loc 1 50 5 view .LVU879
  51:Core/Src/lcd.c **** 
 2883              		.loc 1 51 5 view .LVU880
  53:Core/Src/lcd.c ****     tempReg &= 0xFFFFFF00;
 2884              		.loc 1 53 5 view .LVU881
  53:Core/Src/lcd.c ****     tempReg &= 0xFFFFFF00;
 2885              		.loc 1 53 14 is_stmt 0 view .LVU882
 2886 0456 E368     		ldr	r3, [r4, #12]
 2887              	.LVL313:
  54:Core/Src/lcd.c ****     tempReg |= (uint32_t)data;
 2888              		.loc 1 54 5 is_stmt 1 view .LVU883
  54:Core/Src/lcd.c ****     tempReg |= (uint32_t)data;
 2889              		.loc 1 54 13 is_stmt 0 view .LVU884
 2890 0458 23F0FF03 		bic	r3, r3, #255
 2891              	.LVL314:
  55:Core/Src/lcd.c ****     DATA_PORT->ODR = tempReg;
 2892              		.loc 1 55 5 is_stmt 1 view .LVU885
  55:Core/Src/lcd.c ****     DATA_PORT->ODR = tempReg;
 2893              		.loc 1 55 13 is_stmt 0 view .LVU886
 2894 045c 43F01403 		orr	r3, r3, #20
 2895              	.LVL315:
  56:Core/Src/lcd.c **** 
 2896              		.loc 1 56 5 is_stmt 1 view .LVU887
  56:Core/Src/lcd.c **** 
 2897              		.loc 1 56 20 is_stmt 0 view .LVU888
 2898 0460 E360     		str	r3, [r4, #12]
  67:Core/Src/lcd.c ****     HAL_GPIO_WritePin(ILI9341_WR_GPIO_Port, ILI9341_WR_Pin, GPIO_PIN_SET);
 2899              		.loc 1 67 5 is_stmt 1 view .LVU889
 2900 0462 0022     		movs	r2, #0
 2901 0464 4FF48061 		mov	r1, #1024
 2902 0468 2046     		mov	r0, r4
 2903 046a FFF7FEFF 		bl	HAL_GPIO_WritePin
 2904              	.LVL316:
  68:Core/Src/lcd.c **** }
 2905              		.loc 1 68 5 view .LVU890
ARM GAS  C:\Users\Vento\AppData\Local\Temp\ccDU9lzs.s 			page 77


 2906 046e 0122     		movs	r2, #1
 2907 0470 4FF48061 		mov	r1, #1024
 2908 0474 2046     		mov	r0, r4
 2909 0476 FFF7FEFF 		bl	HAL_GPIO_WritePin
 2910              	.LVL317:
  68:Core/Src/lcd.c **** }
 2911              		.loc 1 68 5 is_stmt 0 view .LVU891
 2912              	.LBE533:
 2913              	.LBE532:
 2914              	.LBE531:
 2915              	.LBE530:
 165:Core/Src/lcd.c **** 
 2916              		.loc 1 165 5 is_stmt 1 view .LVU892
 2917              	.LBB534:
 2918              	.LBI534:
  79:Core/Src/lcd.c **** {
 2919              		.loc 1 79 20 view .LVU893
 2920              	.LBB535:
  82:Core/Src/lcd.c ****     ILI9341_SetData(data);
 2921              		.loc 1 82 5 view .LVU894
 2922 047a 0122     		movs	r2, #1
 2923 047c 4FF48071 		mov	r1, #256
 2924 0480 2046     		mov	r0, r4
 2925 0482 FFF7FEFF 		bl	HAL_GPIO_WritePin
 2926              	.LVL318:
  83:Core/Src/lcd.c ****     // ILI9341_Unselect();
 2927              		.loc 1 83 5 view .LVU895
 2928              	.LBB536:
 2929              	.LBI536:
  46:Core/Src/lcd.c **** {
 2930              		.loc 1 46 20 view .LVU896
 2931              	.LBB537:
  48:Core/Src/lcd.c ****     uint8_t temp_Bit3rd_Data = data & 0x04;
 2932              		.loc 1 48 5 view .LVU897
  49:Core/Src/lcd.c ****     data &= ~0x06;
 2933              		.loc 1 49 5 view .LVU898
  50:Core/Src/lcd.c ****     data |= (uint8_t)((temp_Bit2nd_Data << 1) | (temp_Bit3rd_Data >> 1));
 2934              		.loc 1 50 5 view .LVU899
  51:Core/Src/lcd.c **** 
 2935              		.loc 1 51 5 view .LVU900
  53:Core/Src/lcd.c ****     tempReg &= 0xFFFFFF00;
 2936              		.loc 1 53 5 view .LVU901
  53:Core/Src/lcd.c ****     tempReg &= 0xFFFFFF00;
 2937              		.loc 1 53 14 is_stmt 0 view .LVU902
 2938 0486 E368     		ldr	r3, [r4, #12]
 2939              	.LVL319:
  54:Core/Src/lcd.c ****     tempReg |= (uint32_t)data;
 2940              		.loc 1 54 5 is_stmt 1 view .LVU903
  54:Core/Src/lcd.c ****     tempReg |= (uint32_t)data;
 2941              		.loc 1 54 13 is_stmt 0 view .LVU904
 2942 0488 23F0FF03 		bic	r3, r3, #255
 2943              	.LVL320:
  55:Core/Src/lcd.c ****     DATA_PORT->ODR = tempReg;
 2944              		.loc 1 55 5 is_stmt 1 view .LVU905
  55:Core/Src/lcd.c ****     DATA_PORT->ODR = tempReg;
 2945              		.loc 1 55 13 is_stmt 0 view .LVU906
 2946 048c 43F08103 		orr	r3, r3, #129
ARM GAS  C:\Users\Vento\AppData\Local\Temp\ccDU9lzs.s 			page 78


 2947              	.LVL321:
  56:Core/Src/lcd.c **** 
 2948              		.loc 1 56 5 is_stmt 1 view .LVU907
  56:Core/Src/lcd.c **** 
 2949              		.loc 1 56 20 is_stmt 0 view .LVU908
 2950 0490 E360     		str	r3, [r4, #12]
  67:Core/Src/lcd.c ****     HAL_GPIO_WritePin(ILI9341_WR_GPIO_Port, ILI9341_WR_Pin, GPIO_PIN_SET);
 2951              		.loc 1 67 5 is_stmt 1 view .LVU909
 2952 0492 0022     		movs	r2, #0
 2953 0494 4FF48061 		mov	r1, #1024
 2954 0498 2046     		mov	r0, r4
 2955 049a FFF7FEFF 		bl	HAL_GPIO_WritePin
 2956              	.LVL322:
  68:Core/Src/lcd.c **** }
 2957              		.loc 1 68 5 view .LVU910
 2958 049e 0122     		movs	r2, #1
 2959 04a0 4FF48061 		mov	r1, #1024
 2960 04a4 2046     		mov	r0, r4
 2961 04a6 FFF7FEFF 		bl	HAL_GPIO_WritePin
 2962              	.LVL323:
  68:Core/Src/lcd.c **** }
 2963              		.loc 1 68 5 is_stmt 0 view .LVU911
 2964              	.LBE537:
 2965              	.LBE536:
 2966              	.LBE535:
 2967              	.LBE534:
 168:Core/Src/lcd.c ****     ILI9341_Write_Data(0x20);
 2968              		.loc 1 168 5 is_stmt 1 view .LVU912
 2969              	.LBB538:
 2970              	.LBI538:
  71:Core/Src/lcd.c **** {
 2971              		.loc 1 71 20 view .LVU913
 2972              	.LBB539:
  74:Core/Src/lcd.c ****     ILI9341_SetData(cmd);
 2973              		.loc 1 74 5 view .LVU914
 2974 04aa 0022     		movs	r2, #0
 2975 04ac 4FF48071 		mov	r1, #256
 2976 04b0 2046     		mov	r0, r4
 2977 04b2 FFF7FEFF 		bl	HAL_GPIO_WritePin
 2978              	.LVL324:
  75:Core/Src/lcd.c ****     // ILI9341_Unselect();
 2979              		.loc 1 75 5 view .LVU915
 2980              	.LBB540:
 2981              	.LBI540:
  46:Core/Src/lcd.c **** {
 2982              		.loc 1 46 20 view .LVU916
 2983              	.LBB541:
  48:Core/Src/lcd.c ****     uint8_t temp_Bit3rd_Data = data & 0x04;
 2984              		.loc 1 48 5 view .LVU917
  49:Core/Src/lcd.c ****     data &= ~0x06;
 2985              		.loc 1 49 5 view .LVU918
  50:Core/Src/lcd.c ****     data |= (uint8_t)((temp_Bit2nd_Data << 1) | (temp_Bit3rd_Data >> 1));
 2986              		.loc 1 50 5 view .LVU919
  51:Core/Src/lcd.c **** 
 2987              		.loc 1 51 5 view .LVU920
  53:Core/Src/lcd.c ****     tempReg &= 0xFFFFFF00;
 2988              		.loc 1 53 5 view .LVU921
ARM GAS  C:\Users\Vento\AppData\Local\Temp\ccDU9lzs.s 			page 79


  53:Core/Src/lcd.c ****     tempReg &= 0xFFFFFF00;
 2989              		.loc 1 53 14 is_stmt 0 view .LVU922
 2990 04b6 E368     		ldr	r3, [r4, #12]
 2991              	.LVL325:
  54:Core/Src/lcd.c ****     tempReg |= (uint32_t)data;
 2992              		.loc 1 54 5 is_stmt 1 view .LVU923
  54:Core/Src/lcd.c ****     tempReg |= (uint32_t)data;
 2993              		.loc 1 54 13 is_stmt 0 view .LVU924
 2994 04b8 23F0FF03 		bic	r3, r3, #255
 2995              	.LVL326:
  55:Core/Src/lcd.c ****     DATA_PORT->ODR = tempReg;
 2996              		.loc 1 55 5 is_stmt 1 view .LVU925
  55:Core/Src/lcd.c ****     DATA_PORT->ODR = tempReg;
 2997              		.loc 1 55 13 is_stmt 0 view .LVU926
 2998 04bc 43F0F703 		orr	r3, r3, #247
 2999              	.LVL327:
  56:Core/Src/lcd.c **** 
 3000              		.loc 1 56 5 is_stmt 1 view .LVU927
  56:Core/Src/lcd.c **** 
 3001              		.loc 1 56 20 is_stmt 0 view .LVU928
 3002 04c0 E360     		str	r3, [r4, #12]
  67:Core/Src/lcd.c ****     HAL_GPIO_WritePin(ILI9341_WR_GPIO_Port, ILI9341_WR_Pin, GPIO_PIN_SET);
 3003              		.loc 1 67 5 is_stmt 1 view .LVU929
 3004 04c2 0022     		movs	r2, #0
 3005 04c4 4FF48061 		mov	r1, #1024
 3006 04c8 2046     		mov	r0, r4
 3007 04ca FFF7FEFF 		bl	HAL_GPIO_WritePin
 3008              	.LVL328:
  68:Core/Src/lcd.c **** }
 3009              		.loc 1 68 5 view .LVU930
 3010 04ce 0122     		movs	r2, #1
 3011 04d0 4FF48061 		mov	r1, #1024
 3012 04d4 2046     		mov	r0, r4
 3013 04d6 FFF7FEFF 		bl	HAL_GPIO_WritePin
 3014              	.LVL329:
  68:Core/Src/lcd.c **** }
 3015              		.loc 1 68 5 is_stmt 0 view .LVU931
 3016              	.LBE541:
 3017              	.LBE540:
 3018              	.LBE539:
 3019              	.LBE538:
 169:Core/Src/lcd.c **** 
 3020              		.loc 1 169 5 is_stmt 1 view .LVU932
 3021              	.LBB542:
 3022              	.LBI542:
  79:Core/Src/lcd.c **** {
 3023              		.loc 1 79 20 view .LVU933
 3024              	.LBB543:
  82:Core/Src/lcd.c ****     ILI9341_SetData(data);
 3025              		.loc 1 82 5 view .LVU934
 3026 04da 0122     		movs	r2, #1
 3027 04dc 4FF48071 		mov	r1, #256
 3028 04e0 2046     		mov	r0, r4
 3029 04e2 FFF7FEFF 		bl	HAL_GPIO_WritePin
 3030              	.LVL330:
  83:Core/Src/lcd.c ****     // ILI9341_Unselect();
 3031              		.loc 1 83 5 view .LVU935
ARM GAS  C:\Users\Vento\AppData\Local\Temp\ccDU9lzs.s 			page 80


 3032              	.LBB544:
 3033              	.LBI544:
  46:Core/Src/lcd.c **** {
 3034              		.loc 1 46 20 view .LVU936
 3035              	.LBB545:
  48:Core/Src/lcd.c ****     uint8_t temp_Bit3rd_Data = data & 0x04;
 3036              		.loc 1 48 5 view .LVU937
  49:Core/Src/lcd.c ****     data &= ~0x06;
 3037              		.loc 1 49 5 view .LVU938
  50:Core/Src/lcd.c ****     data |= (uint8_t)((temp_Bit2nd_Data << 1) | (temp_Bit3rd_Data >> 1));
 3038              		.loc 1 50 5 view .LVU939
  51:Core/Src/lcd.c **** 
 3039              		.loc 1 51 5 view .LVU940
  53:Core/Src/lcd.c ****     tempReg &= 0xFFFFFF00;
 3040              		.loc 1 53 5 view .LVU941
  53:Core/Src/lcd.c ****     tempReg &= 0xFFFFFF00;
 3041              		.loc 1 53 14 is_stmt 0 view .LVU942
 3042 04e6 E368     		ldr	r3, [r4, #12]
 3043              	.LVL331:
  54:Core/Src/lcd.c ****     tempReg |= (uint32_t)data;
 3044              		.loc 1 54 5 is_stmt 1 view .LVU943
  54:Core/Src/lcd.c ****     tempReg |= (uint32_t)data;
 3045              		.loc 1 54 13 is_stmt 0 view .LVU944
 3046 04e8 23F0FF03 		bic	r3, r3, #255
 3047              	.LVL332:
  55:Core/Src/lcd.c ****     DATA_PORT->ODR = tempReg;
 3048              		.loc 1 55 5 is_stmt 1 view .LVU945
  55:Core/Src/lcd.c ****     DATA_PORT->ODR = tempReg;
 3049              		.loc 1 55 13 is_stmt 0 view .LVU946
 3050 04ec 43F02003 		orr	r3, r3, #32
 3051              	.LVL333:
  56:Core/Src/lcd.c **** 
 3052              		.loc 1 56 5 is_stmt 1 view .LVU947
  56:Core/Src/lcd.c **** 
 3053              		.loc 1 56 20 is_stmt 0 view .LVU948
 3054 04f0 E360     		str	r3, [r4, #12]
  67:Core/Src/lcd.c ****     HAL_GPIO_WritePin(ILI9341_WR_GPIO_Port, ILI9341_WR_Pin, GPIO_PIN_SET);
 3055              		.loc 1 67 5 is_stmt 1 view .LVU949
 3056 04f2 0022     		movs	r2, #0
 3057 04f4 4FF48061 		mov	r1, #1024
 3058 04f8 2046     		mov	r0, r4
 3059 04fa FFF7FEFF 		bl	HAL_GPIO_WritePin
 3060              	.LVL334:
  68:Core/Src/lcd.c **** }
 3061              		.loc 1 68 5 view .LVU950
 3062 04fe 0122     		movs	r2, #1
 3063 0500 4FF48061 		mov	r1, #1024
 3064 0504 2046     		mov	r0, r4
 3065 0506 FFF7FEFF 		bl	HAL_GPIO_WritePin
 3066              	.LVL335:
  68:Core/Src/lcd.c **** }
 3067              		.loc 1 68 5 is_stmt 0 view .LVU951
 3068              	.LBE545:
 3069              	.LBE544:
 3070              	.LBE543:
 3071              	.LBE542:
 172:Core/Src/lcd.c ****     ILI9341_Write_Data(0x23);
ARM GAS  C:\Users\Vento\AppData\Local\Temp\ccDU9lzs.s 			page 81


 3072              		.loc 1 172 5 is_stmt 1 view .LVU952
 3073              	.LBB546:
 3074              	.LBI546:
  71:Core/Src/lcd.c **** {
 3075              		.loc 1 71 20 view .LVU953
 3076              	.LBB547:
  74:Core/Src/lcd.c ****     ILI9341_SetData(cmd);
 3077              		.loc 1 74 5 view .LVU954
 3078 050a 0022     		movs	r2, #0
 3079 050c 4FF48071 		mov	r1, #256
 3080 0510 2046     		mov	r0, r4
 3081 0512 FFF7FEFF 		bl	HAL_GPIO_WritePin
 3082              	.LVL336:
  75:Core/Src/lcd.c ****     // ILI9341_Unselect();
 3083              		.loc 1 75 5 view .LVU955
 3084              	.LBB548:
 3085              	.LBI548:
  46:Core/Src/lcd.c **** {
 3086              		.loc 1 46 20 view .LVU956
 3087              	.LBB549:
  48:Core/Src/lcd.c ****     uint8_t temp_Bit3rd_Data = data & 0x04;
 3088              		.loc 1 48 5 view .LVU957
  49:Core/Src/lcd.c ****     data &= ~0x06;
 3089              		.loc 1 49 5 view .LVU958
  50:Core/Src/lcd.c ****     data |= (uint8_t)((temp_Bit2nd_Data << 1) | (temp_Bit3rd_Data >> 1));
 3090              		.loc 1 50 5 view .LVU959
  51:Core/Src/lcd.c **** 
 3091              		.loc 1 51 5 view .LVU960
  53:Core/Src/lcd.c ****     tempReg &= 0xFFFFFF00;
 3092              		.loc 1 53 5 view .LVU961
  53:Core/Src/lcd.c ****     tempReg &= 0xFFFFFF00;
 3093              		.loc 1 53 14 is_stmt 0 view .LVU962
 3094 0516 E368     		ldr	r3, [r4, #12]
 3095              	.LVL337:
  54:Core/Src/lcd.c ****     tempReg |= (uint32_t)data;
 3096              		.loc 1 54 5 is_stmt 1 view .LVU963
  54:Core/Src/lcd.c ****     tempReg |= (uint32_t)data;
 3097              		.loc 1 54 13 is_stmt 0 view .LVU964
 3098 0518 23F0FF03 		bic	r3, r3, #255
 3099              	.LVL338:
  55:Core/Src/lcd.c ****     DATA_PORT->ODR = tempReg;
 3100              		.loc 1 55 5 is_stmt 1 view .LVU965
  55:Core/Src/lcd.c ****     DATA_PORT->ODR = tempReg;
 3101              		.loc 1 55 13 is_stmt 0 view .LVU966
 3102 051c 43F0C003 		orr	r3, r3, #192
 3103              	.LVL339:
  56:Core/Src/lcd.c **** 
 3104              		.loc 1 56 5 is_stmt 1 view .LVU967
  56:Core/Src/lcd.c **** 
 3105              		.loc 1 56 20 is_stmt 0 view .LVU968
 3106 0520 E360     		str	r3, [r4, #12]
  67:Core/Src/lcd.c ****     HAL_GPIO_WritePin(ILI9341_WR_GPIO_Port, ILI9341_WR_Pin, GPIO_PIN_SET);
 3107              		.loc 1 67 5 is_stmt 1 view .LVU969
 3108 0522 0022     		movs	r2, #0
 3109 0524 4FF48061 		mov	r1, #1024
 3110 0528 2046     		mov	r0, r4
 3111 052a FFF7FEFF 		bl	HAL_GPIO_WritePin
ARM GAS  C:\Users\Vento\AppData\Local\Temp\ccDU9lzs.s 			page 82


 3112              	.LVL340:
  68:Core/Src/lcd.c **** }
 3113              		.loc 1 68 5 view .LVU970
 3114 052e 0122     		movs	r2, #1
 3115 0530 4FF48061 		mov	r1, #1024
 3116 0534 2046     		mov	r0, r4
 3117 0536 FFF7FEFF 		bl	HAL_GPIO_WritePin
 3118              	.LVL341:
  68:Core/Src/lcd.c **** }
 3119              		.loc 1 68 5 is_stmt 0 view .LVU971
 3120              	.LBE549:
 3121              	.LBE548:
 3122              	.LBE547:
 3123              	.LBE546:
 173:Core/Src/lcd.c **** 
 3124              		.loc 1 173 5 is_stmt 1 view .LVU972
 3125              	.LBB550:
 3126              	.LBI550:
  79:Core/Src/lcd.c **** {
 3127              		.loc 1 79 20 view .LVU973
 3128              	.LBB551:
  82:Core/Src/lcd.c ****     ILI9341_SetData(data);
 3129              		.loc 1 82 5 view .LVU974
 3130 053a 0122     		movs	r2, #1
 3131 053c 4FF48071 		mov	r1, #256
 3132 0540 2046     		mov	r0, r4
 3133 0542 FFF7FEFF 		bl	HAL_GPIO_WritePin
 3134              	.LVL342:
  83:Core/Src/lcd.c ****     // ILI9341_Unselect();
 3135              		.loc 1 83 5 view .LVU975
 3136              	.LBB552:
 3137              	.LBI552:
  46:Core/Src/lcd.c **** {
 3138              		.loc 1 46 20 view .LVU976
 3139              	.LBB553:
  48:Core/Src/lcd.c ****     uint8_t temp_Bit3rd_Data = data & 0x04;
 3140              		.loc 1 48 5 view .LVU977
  49:Core/Src/lcd.c ****     data &= ~0x06;
 3141              		.loc 1 49 5 view .LVU978
  50:Core/Src/lcd.c ****     data |= (uint8_t)((temp_Bit2nd_Data << 1) | (temp_Bit3rd_Data >> 1));
 3142              		.loc 1 50 5 view .LVU979
  51:Core/Src/lcd.c **** 
 3143              		.loc 1 51 5 view .LVU980
  53:Core/Src/lcd.c ****     tempReg &= 0xFFFFFF00;
 3144              		.loc 1 53 5 view .LVU981
  53:Core/Src/lcd.c ****     tempReg &= 0xFFFFFF00;
 3145              		.loc 1 53 14 is_stmt 0 view .LVU982
 3146 0546 E368     		ldr	r3, [r4, #12]
 3147              	.LVL343:
  54:Core/Src/lcd.c ****     tempReg |= (uint32_t)data;
 3148              		.loc 1 54 5 is_stmt 1 view .LVU983
  54:Core/Src/lcd.c ****     tempReg |= (uint32_t)data;
 3149              		.loc 1 54 13 is_stmt 0 view .LVU984
 3150 0548 23F0FF03 		bic	r3, r3, #255
 3151              	.LVL344:
  55:Core/Src/lcd.c ****     DATA_PORT->ODR = tempReg;
 3152              		.loc 1 55 5 is_stmt 1 view .LVU985
ARM GAS  C:\Users\Vento\AppData\Local\Temp\ccDU9lzs.s 			page 83


  55:Core/Src/lcd.c ****     DATA_PORT->ODR = tempReg;
 3153              		.loc 1 55 13 is_stmt 0 view .LVU986
 3154 054c 43F02503 		orr	r3, r3, #37
 3155              	.LVL345:
  56:Core/Src/lcd.c **** 
 3156              		.loc 1 56 5 is_stmt 1 view .LVU987
  56:Core/Src/lcd.c **** 
 3157              		.loc 1 56 20 is_stmt 0 view .LVU988
 3158 0550 E360     		str	r3, [r4, #12]
  67:Core/Src/lcd.c ****     HAL_GPIO_WritePin(ILI9341_WR_GPIO_Port, ILI9341_WR_Pin, GPIO_PIN_SET);
 3159              		.loc 1 67 5 is_stmt 1 view .LVU989
 3160 0552 0022     		movs	r2, #0
 3161 0554 4FF48061 		mov	r1, #1024
 3162 0558 2046     		mov	r0, r4
 3163 055a FFF7FEFF 		bl	HAL_GPIO_WritePin
 3164              	.LVL346:
  68:Core/Src/lcd.c **** }
 3165              		.loc 1 68 5 view .LVU990
 3166 055e 0122     		movs	r2, #1
 3167 0560 4FF48061 		mov	r1, #1024
 3168 0564 2046     		mov	r0, r4
 3169 0566 FFF7FEFF 		bl	HAL_GPIO_WritePin
 3170              	.LVL347:
  68:Core/Src/lcd.c **** }
 3171              		.loc 1 68 5 is_stmt 0 view .LVU991
 3172              	.LBE553:
 3173              	.LBE552:
 3174              	.LBE551:
 3175              	.LBE550:
 176:Core/Src/lcd.c ****     ILI9341_Write_Data(0x10);
 3176              		.loc 1 176 5 is_stmt 1 view .LVU992
 3177              	.LBB554:
 3178              	.LBI554:
  71:Core/Src/lcd.c **** {
 3179              		.loc 1 71 20 view .LVU993
 3180              	.LBB555:
  74:Core/Src/lcd.c ****     ILI9341_SetData(cmd);
 3181              		.loc 1 74 5 view .LVU994
 3182 056a 0022     		movs	r2, #0
 3183 056c 4FF48071 		mov	r1, #256
 3184 0570 2046     		mov	r0, r4
 3185 0572 FFF7FEFF 		bl	HAL_GPIO_WritePin
 3186              	.LVL348:
  75:Core/Src/lcd.c ****     // ILI9341_Unselect();
 3187              		.loc 1 75 5 view .LVU995
 3188              	.LBB556:
 3189              	.LBI556:
  46:Core/Src/lcd.c **** {
 3190              		.loc 1 46 20 view .LVU996
 3191              	.LBB557:
  48:Core/Src/lcd.c ****     uint8_t temp_Bit3rd_Data = data & 0x04;
 3192              		.loc 1 48 5 view .LVU997
  49:Core/Src/lcd.c ****     data &= ~0x06;
 3193              		.loc 1 49 5 view .LVU998
  50:Core/Src/lcd.c ****     data |= (uint8_t)((temp_Bit2nd_Data << 1) | (temp_Bit3rd_Data >> 1));
 3194              		.loc 1 50 5 view .LVU999
  51:Core/Src/lcd.c **** 
ARM GAS  C:\Users\Vento\AppData\Local\Temp\ccDU9lzs.s 			page 84


 3195              		.loc 1 51 5 view .LVU1000
  53:Core/Src/lcd.c ****     tempReg &= 0xFFFFFF00;
 3196              		.loc 1 53 5 view .LVU1001
  53:Core/Src/lcd.c ****     tempReg &= 0xFFFFFF00;
 3197              		.loc 1 53 14 is_stmt 0 view .LVU1002
 3198 0576 E368     		ldr	r3, [r4, #12]
 3199              	.LVL349:
  54:Core/Src/lcd.c ****     tempReg |= (uint32_t)data;
 3200              		.loc 1 54 5 is_stmt 1 view .LVU1003
  54:Core/Src/lcd.c ****     tempReg |= (uint32_t)data;
 3201              		.loc 1 54 13 is_stmt 0 view .LVU1004
 3202 0578 23F0FF03 		bic	r3, r3, #255
 3203              	.LVL350:
  55:Core/Src/lcd.c ****     DATA_PORT->ODR = tempReg;
 3204              		.loc 1 55 5 is_stmt 1 view .LVU1005
  55:Core/Src/lcd.c ****     DATA_PORT->ODR = tempReg;
 3205              		.loc 1 55 13 is_stmt 0 view .LVU1006
 3206 057c 43F0C103 		orr	r3, r3, #193
 3207              	.LVL351:
  56:Core/Src/lcd.c **** 
 3208              		.loc 1 56 5 is_stmt 1 view .LVU1007
  56:Core/Src/lcd.c **** 
 3209              		.loc 1 56 20 is_stmt 0 view .LVU1008
 3210 0580 E360     		str	r3, [r4, #12]
  67:Core/Src/lcd.c ****     HAL_GPIO_WritePin(ILI9341_WR_GPIO_Port, ILI9341_WR_Pin, GPIO_PIN_SET);
 3211              		.loc 1 67 5 is_stmt 1 view .LVU1009
 3212 0582 0022     		movs	r2, #0
 3213 0584 4FF48061 		mov	r1, #1024
 3214 0588 2046     		mov	r0, r4
 3215 058a FFF7FEFF 		bl	HAL_GPIO_WritePin
 3216              	.LVL352:
  68:Core/Src/lcd.c **** }
 3217              		.loc 1 68 5 view .LVU1010
 3218 058e 0122     		movs	r2, #1
 3219 0590 4FF48061 		mov	r1, #1024
 3220 0594 2046     		mov	r0, r4
 3221 0596 FFF7FEFF 		bl	HAL_GPIO_WritePin
 3222              	.LVL353:
  68:Core/Src/lcd.c **** }
 3223              		.loc 1 68 5 is_stmt 0 view .LVU1011
 3224              	.LBE557:
 3225              	.LBE556:
 3226              	.LBE555:
 3227              	.LBE554:
 177:Core/Src/lcd.c **** 
 3228              		.loc 1 177 5 is_stmt 1 view .LVU1012
 3229              	.LBB558:
 3230              	.LBI558:
  79:Core/Src/lcd.c **** {
 3231              		.loc 1 79 20 view .LVU1013
 3232              	.LBB559:
  82:Core/Src/lcd.c ****     ILI9341_SetData(data);
 3233              		.loc 1 82 5 view .LVU1014
 3234 059a 0122     		movs	r2, #1
 3235 059c 4FF48071 		mov	r1, #256
 3236 05a0 2046     		mov	r0, r4
 3237 05a2 FFF7FEFF 		bl	HAL_GPIO_WritePin
ARM GAS  C:\Users\Vento\AppData\Local\Temp\ccDU9lzs.s 			page 85


 3238              	.LVL354:
  83:Core/Src/lcd.c ****     // ILI9341_Unselect();
 3239              		.loc 1 83 5 view .LVU1015
 3240              	.LBB560:
 3241              	.LBI560:
  46:Core/Src/lcd.c **** {
 3242              		.loc 1 46 20 view .LVU1016
 3243              	.LBB561:
  48:Core/Src/lcd.c ****     uint8_t temp_Bit3rd_Data = data & 0x04;
 3244              		.loc 1 48 5 view .LVU1017
  49:Core/Src/lcd.c ****     data &= ~0x06;
 3245              		.loc 1 49 5 view .LVU1018
  50:Core/Src/lcd.c ****     data |= (uint8_t)((temp_Bit2nd_Data << 1) | (temp_Bit3rd_Data >> 1));
 3246              		.loc 1 50 5 view .LVU1019
  51:Core/Src/lcd.c **** 
 3247              		.loc 1 51 5 view .LVU1020
  53:Core/Src/lcd.c ****     tempReg &= 0xFFFFFF00;
 3248              		.loc 1 53 5 view .LVU1021
  53:Core/Src/lcd.c ****     tempReg &= 0xFFFFFF00;
 3249              		.loc 1 53 14 is_stmt 0 view .LVU1022
 3250 05a6 E368     		ldr	r3, [r4, #12]
 3251              	.LVL355:
  54:Core/Src/lcd.c ****     tempReg |= (uint32_t)data;
 3252              		.loc 1 54 5 is_stmt 1 view .LVU1023
  54:Core/Src/lcd.c ****     tempReg |= (uint32_t)data;
 3253              		.loc 1 54 13 is_stmt 0 view .LVU1024
 3254 05a8 23F0FF03 		bic	r3, r3, #255
 3255              	.LVL356:
  55:Core/Src/lcd.c ****     DATA_PORT->ODR = tempReg;
 3256              		.loc 1 55 5 is_stmt 1 view .LVU1025
  55:Core/Src/lcd.c ****     DATA_PORT->ODR = tempReg;
 3257              		.loc 1 55 13 is_stmt 0 view .LVU1026
 3258 05ac 43F01003 		orr	r3, r3, #16
 3259              	.LVL357:
  56:Core/Src/lcd.c **** 
 3260              		.loc 1 56 5 is_stmt 1 view .LVU1027
  56:Core/Src/lcd.c **** 
 3261              		.loc 1 56 20 is_stmt 0 view .LVU1028
 3262 05b0 E360     		str	r3, [r4, #12]
  67:Core/Src/lcd.c ****     HAL_GPIO_WritePin(ILI9341_WR_GPIO_Port, ILI9341_WR_Pin, GPIO_PIN_SET);
 3263              		.loc 1 67 5 is_stmt 1 view .LVU1029
 3264 05b2 0022     		movs	r2, #0
 3265 05b4 4FF48061 		mov	r1, #1024
 3266 05b8 2046     		mov	r0, r4
 3267 05ba FFF7FEFF 		bl	HAL_GPIO_WritePin
 3268              	.LVL358:
  68:Core/Src/lcd.c **** }
 3269              		.loc 1 68 5 view .LVU1030
 3270 05be 0122     		movs	r2, #1
 3271 05c0 4FF48061 		mov	r1, #1024
 3272 05c4 2046     		mov	r0, r4
 3273 05c6 FFF7FEFF 		bl	HAL_GPIO_WritePin
 3274              	.LVL359:
  68:Core/Src/lcd.c **** }
 3275              		.loc 1 68 5 is_stmt 0 view .LVU1031
 3276              	.LBE561:
 3277              	.LBE560:
ARM GAS  C:\Users\Vento\AppData\Local\Temp\ccDU9lzs.s 			page 86


 3278              	.LBE559:
 3279              	.LBE558:
 180:Core/Src/lcd.c ****     ILI9341_Write_Data(0x3E);
 3280              		.loc 1 180 5 is_stmt 1 view .LVU1032
 3281              	.LBB562:
 3282              	.LBI562:
  71:Core/Src/lcd.c **** {
 3283              		.loc 1 71 20 view .LVU1033
 3284              	.LBB563:
  74:Core/Src/lcd.c ****     ILI9341_SetData(cmd);
 3285              		.loc 1 74 5 view .LVU1034
 3286 05ca 0022     		movs	r2, #0
 3287 05cc 4FF48071 		mov	r1, #256
 3288 05d0 2046     		mov	r0, r4
 3289 05d2 FFF7FEFF 		bl	HAL_GPIO_WritePin
 3290              	.LVL360:
  75:Core/Src/lcd.c ****     // ILI9341_Unselect();
 3291              		.loc 1 75 5 view .LVU1035
 3292              	.LBB564:
 3293              	.LBI564:
  46:Core/Src/lcd.c **** {
 3294              		.loc 1 46 20 view .LVU1036
 3295              	.LBB565:
  48:Core/Src/lcd.c ****     uint8_t temp_Bit3rd_Data = data & 0x04;
 3296              		.loc 1 48 5 view .LVU1037
  49:Core/Src/lcd.c ****     data &= ~0x06;
 3297              		.loc 1 49 5 view .LVU1038
  50:Core/Src/lcd.c ****     data |= (uint8_t)((temp_Bit2nd_Data << 1) | (temp_Bit3rd_Data >> 1));
 3298              		.loc 1 50 5 view .LVU1039
  51:Core/Src/lcd.c **** 
 3299              		.loc 1 51 5 view .LVU1040
  53:Core/Src/lcd.c ****     tempReg &= 0xFFFFFF00;
 3300              		.loc 1 53 5 view .LVU1041
  53:Core/Src/lcd.c ****     tempReg &= 0xFFFFFF00;
 3301              		.loc 1 53 14 is_stmt 0 view .LVU1042
 3302 05d6 E368     		ldr	r3, [r4, #12]
 3303              	.LVL361:
  54:Core/Src/lcd.c ****     tempReg |= (uint32_t)data;
 3304              		.loc 1 54 5 is_stmt 1 view .LVU1043
  54:Core/Src/lcd.c ****     tempReg |= (uint32_t)data;
 3305              		.loc 1 54 13 is_stmt 0 view .LVU1044
 3306 05d8 23F0FF03 		bic	r3, r3, #255
 3307              	.LVL362:
  55:Core/Src/lcd.c ****     DATA_PORT->ODR = tempReg;
 3308              		.loc 1 55 5 is_stmt 1 view .LVU1045
  55:Core/Src/lcd.c ****     DATA_PORT->ODR = tempReg;
 3309              		.loc 1 55 13 is_stmt 0 view .LVU1046
 3310 05dc 43F0C303 		orr	r3, r3, #195
 3311              	.LVL363:
  56:Core/Src/lcd.c **** 
 3312              		.loc 1 56 5 is_stmt 1 view .LVU1047
  56:Core/Src/lcd.c **** 
 3313              		.loc 1 56 20 is_stmt 0 view .LVU1048
 3314 05e0 E360     		str	r3, [r4, #12]
  67:Core/Src/lcd.c ****     HAL_GPIO_WritePin(ILI9341_WR_GPIO_Port, ILI9341_WR_Pin, GPIO_PIN_SET);
 3315              		.loc 1 67 5 is_stmt 1 view .LVU1049
 3316 05e2 0022     		movs	r2, #0
ARM GAS  C:\Users\Vento\AppData\Local\Temp\ccDU9lzs.s 			page 87


 3317 05e4 4FF48061 		mov	r1, #1024
 3318 05e8 2046     		mov	r0, r4
 3319 05ea FFF7FEFF 		bl	HAL_GPIO_WritePin
 3320              	.LVL364:
  68:Core/Src/lcd.c **** }
 3321              		.loc 1 68 5 view .LVU1050
 3322 05ee 0122     		movs	r2, #1
 3323 05f0 4FF48061 		mov	r1, #1024
 3324 05f4 2046     		mov	r0, r4
 3325 05f6 FFF7FEFF 		bl	HAL_GPIO_WritePin
 3326              	.LVL365:
  68:Core/Src/lcd.c **** }
 3327              		.loc 1 68 5 is_stmt 0 view .LVU1051
 3328              	.LBE565:
 3329              	.LBE564:
 3330              	.LBE563:
 3331              	.LBE562:
 181:Core/Src/lcd.c ****     ILI9341_Write_Data(0x28);
 3332              		.loc 1 181 5 is_stmt 1 view .LVU1052
 3333              	.LBB566:
 3334              	.LBI566:
  79:Core/Src/lcd.c **** {
 3335              		.loc 1 79 20 view .LVU1053
 3336              	.LBB567:
  82:Core/Src/lcd.c ****     ILI9341_SetData(data);
 3337              		.loc 1 82 5 view .LVU1054
 3338 05fa 0122     		movs	r2, #1
 3339 05fc 4FF48071 		mov	r1, #256
 3340 0600 2046     		mov	r0, r4
 3341 0602 FFF7FEFF 		bl	HAL_GPIO_WritePin
 3342              	.LVL366:
  83:Core/Src/lcd.c ****     // ILI9341_Unselect();
 3343              		.loc 1 83 5 view .LVU1055
 3344              	.LBB568:
 3345              	.LBI568:
  46:Core/Src/lcd.c **** {
 3346              		.loc 1 46 20 view .LVU1056
 3347              	.LBB569:
  48:Core/Src/lcd.c ****     uint8_t temp_Bit3rd_Data = data & 0x04;
 3348              		.loc 1 48 5 view .LVU1057
  49:Core/Src/lcd.c ****     data &= ~0x06;
 3349              		.loc 1 49 5 view .LVU1058
  50:Core/Src/lcd.c ****     data |= (uint8_t)((temp_Bit2nd_Data << 1) | (temp_Bit3rd_Data >> 1));
 3350              		.loc 1 50 5 view .LVU1059
  51:Core/Src/lcd.c **** 
 3351              		.loc 1 51 5 view .LVU1060
  53:Core/Src/lcd.c ****     tempReg &= 0xFFFFFF00;
 3352              		.loc 1 53 5 view .LVU1061
  53:Core/Src/lcd.c ****     tempReg &= 0xFFFFFF00;
 3353              		.loc 1 53 14 is_stmt 0 view .LVU1062
 3354 0606 E368     		ldr	r3, [r4, #12]
 3355              	.LVL367:
  54:Core/Src/lcd.c ****     tempReg |= (uint32_t)data;
 3356              		.loc 1 54 5 is_stmt 1 view .LVU1063
  54:Core/Src/lcd.c ****     tempReg |= (uint32_t)data;
 3357              		.loc 1 54 13 is_stmt 0 view .LVU1064
 3358 0608 23F0FF03 		bic	r3, r3, #255
ARM GAS  C:\Users\Vento\AppData\Local\Temp\ccDU9lzs.s 			page 88


 3359              	.LVL368:
  55:Core/Src/lcd.c ****     DATA_PORT->ODR = tempReg;
 3360              		.loc 1 55 5 is_stmt 1 view .LVU1065
  55:Core/Src/lcd.c ****     DATA_PORT->ODR = tempReg;
 3361              		.loc 1 55 13 is_stmt 0 view .LVU1066
 3362 060c 43F03E03 		orr	r3, r3, #62
 3363              	.LVL369:
  56:Core/Src/lcd.c **** 
 3364              		.loc 1 56 5 is_stmt 1 view .LVU1067
  56:Core/Src/lcd.c **** 
 3365              		.loc 1 56 20 is_stmt 0 view .LVU1068
 3366 0610 E360     		str	r3, [r4, #12]
  67:Core/Src/lcd.c ****     HAL_GPIO_WritePin(ILI9341_WR_GPIO_Port, ILI9341_WR_Pin, GPIO_PIN_SET);
 3367              		.loc 1 67 5 is_stmt 1 view .LVU1069
 3368 0612 0022     		movs	r2, #0
 3369 0614 4FF48061 		mov	r1, #1024
 3370 0618 2046     		mov	r0, r4
 3371 061a FFF7FEFF 		bl	HAL_GPIO_WritePin
 3372              	.LVL370:
  68:Core/Src/lcd.c **** }
 3373              		.loc 1 68 5 view .LVU1070
 3374 061e 0122     		movs	r2, #1
 3375 0620 4FF48061 		mov	r1, #1024
 3376 0624 2046     		mov	r0, r4
 3377 0626 FFF7FEFF 		bl	HAL_GPIO_WritePin
 3378              	.LVL371:
  68:Core/Src/lcd.c **** }
 3379              		.loc 1 68 5 is_stmt 0 view .LVU1071
 3380              	.LBE569:
 3381              	.LBE568:
 3382              	.LBE567:
 3383              	.LBE566:
 182:Core/Src/lcd.c **** 
 3384              		.loc 1 182 5 is_stmt 1 view .LVU1072
 3385              	.LBB570:
 3386              	.LBI570:
  79:Core/Src/lcd.c **** {
 3387              		.loc 1 79 20 view .LVU1073
 3388              	.LBB571:
  82:Core/Src/lcd.c ****     ILI9341_SetData(data);
 3389              		.loc 1 82 5 view .LVU1074
 3390 062a 0122     		movs	r2, #1
 3391 062c 4FF48071 		mov	r1, #256
 3392 0630 2046     		mov	r0, r4
 3393 0632 FFF7FEFF 		bl	HAL_GPIO_WritePin
 3394              	.LVL372:
  83:Core/Src/lcd.c ****     // ILI9341_Unselect();
 3395              		.loc 1 83 5 view .LVU1075
 3396              	.LBB572:
 3397              	.LBI572:
  46:Core/Src/lcd.c **** {
 3398              		.loc 1 46 20 view .LVU1076
 3399              	.LBB573:
  48:Core/Src/lcd.c ****     uint8_t temp_Bit3rd_Data = data & 0x04;
 3400              		.loc 1 48 5 view .LVU1077
  49:Core/Src/lcd.c ****     data &= ~0x06;
 3401              		.loc 1 49 5 view .LVU1078
ARM GAS  C:\Users\Vento\AppData\Local\Temp\ccDU9lzs.s 			page 89


  50:Core/Src/lcd.c ****     data |= (uint8_t)((temp_Bit2nd_Data << 1) | (temp_Bit3rd_Data >> 1));
 3402              		.loc 1 50 5 view .LVU1079
  51:Core/Src/lcd.c **** 
 3403              		.loc 1 51 5 view .LVU1080
  53:Core/Src/lcd.c ****     tempReg &= 0xFFFFFF00;
 3404              		.loc 1 53 5 view .LVU1081
  53:Core/Src/lcd.c ****     tempReg &= 0xFFFFFF00;
 3405              		.loc 1 53 14 is_stmt 0 view .LVU1082
 3406 0636 E368     		ldr	r3, [r4, #12]
 3407              	.LVL373:
  54:Core/Src/lcd.c ****     tempReg |= (uint32_t)data;
 3408              		.loc 1 54 5 is_stmt 1 view .LVU1083
  54:Core/Src/lcd.c ****     tempReg |= (uint32_t)data;
 3409              		.loc 1 54 13 is_stmt 0 view .LVU1084
 3410 0638 23F0FF03 		bic	r3, r3, #255
 3411              	.LVL374:
  55:Core/Src/lcd.c ****     DATA_PORT->ODR = tempReg;
 3412              		.loc 1 55 5 is_stmt 1 view .LVU1085
  55:Core/Src/lcd.c ****     DATA_PORT->ODR = tempReg;
 3413              		.loc 1 55 13 is_stmt 0 view .LVU1086
 3414 063c 43F02803 		orr	r3, r3, #40
 3415              	.LVL375:
  56:Core/Src/lcd.c **** 
 3416              		.loc 1 56 5 is_stmt 1 view .LVU1087
  56:Core/Src/lcd.c **** 
 3417              		.loc 1 56 20 is_stmt 0 view .LVU1088
 3418 0640 E360     		str	r3, [r4, #12]
  67:Core/Src/lcd.c ****     HAL_GPIO_WritePin(ILI9341_WR_GPIO_Port, ILI9341_WR_Pin, GPIO_PIN_SET);
 3419              		.loc 1 67 5 is_stmt 1 view .LVU1089
 3420 0642 0022     		movs	r2, #0
 3421 0644 4FF48061 		mov	r1, #1024
 3422 0648 2046     		mov	r0, r4
 3423 064a FFF7FEFF 		bl	HAL_GPIO_WritePin
 3424              	.LVL376:
  68:Core/Src/lcd.c **** }
 3425              		.loc 1 68 5 view .LVU1090
 3426 064e 0122     		movs	r2, #1
 3427 0650 4FF48061 		mov	r1, #1024
 3428 0654 2046     		mov	r0, r4
 3429 0656 FFF7FEFF 		bl	HAL_GPIO_WritePin
 3430              	.LVL377:
  68:Core/Src/lcd.c **** }
 3431              		.loc 1 68 5 is_stmt 0 view .LVU1091
 3432              	.LBE573:
 3433              	.LBE572:
 3434              	.LBE571:
 3435              	.LBE570:
 185:Core/Src/lcd.c ****     ILI9341_Write_Data(0x86);
 3436              		.loc 1 185 5 is_stmt 1 view .LVU1092
 3437              	.LBB574:
 3438              	.LBI574:
  71:Core/Src/lcd.c **** {
 3439              		.loc 1 71 20 view .LVU1093
 3440              	.LBB575:
  74:Core/Src/lcd.c ****     ILI9341_SetData(cmd);
 3441              		.loc 1 74 5 view .LVU1094
 3442 065a 0022     		movs	r2, #0
ARM GAS  C:\Users\Vento\AppData\Local\Temp\ccDU9lzs.s 			page 90


 3443 065c 4FF48071 		mov	r1, #256
 3444 0660 2046     		mov	r0, r4
 3445 0662 FFF7FEFF 		bl	HAL_GPIO_WritePin
 3446              	.LVL378:
  75:Core/Src/lcd.c ****     // ILI9341_Unselect();
 3447              		.loc 1 75 5 view .LVU1095
 3448              	.LBB576:
 3449              	.LBI576:
  46:Core/Src/lcd.c **** {
 3450              		.loc 1 46 20 view .LVU1096
 3451              	.LBB577:
  48:Core/Src/lcd.c ****     uint8_t temp_Bit3rd_Data = data & 0x04;
 3452              		.loc 1 48 5 view .LVU1097
  49:Core/Src/lcd.c ****     data &= ~0x06;
 3453              		.loc 1 49 5 view .LVU1098
  50:Core/Src/lcd.c ****     data |= (uint8_t)((temp_Bit2nd_Data << 1) | (temp_Bit3rd_Data >> 1));
 3454              		.loc 1 50 5 view .LVU1099
  51:Core/Src/lcd.c **** 
 3455              		.loc 1 51 5 view .LVU1100
  53:Core/Src/lcd.c ****     tempReg &= 0xFFFFFF00;
 3456              		.loc 1 53 5 view .LVU1101
  53:Core/Src/lcd.c ****     tempReg &= 0xFFFFFF00;
 3457              		.loc 1 53 14 is_stmt 0 view .LVU1102
 3458 0666 E368     		ldr	r3, [r4, #12]
 3459              	.LVL379:
  54:Core/Src/lcd.c ****     tempReg |= (uint32_t)data;
 3460              		.loc 1 54 5 is_stmt 1 view .LVU1103
  54:Core/Src/lcd.c ****     tempReg |= (uint32_t)data;
 3461              		.loc 1 54 13 is_stmt 0 view .LVU1104
 3462 0668 23F0FF03 		bic	r3, r3, #255
 3463              	.LVL380:
  55:Core/Src/lcd.c ****     DATA_PORT->ODR = tempReg;
 3464              		.loc 1 55 5 is_stmt 1 view .LVU1105
  55:Core/Src/lcd.c ****     DATA_PORT->ODR = tempReg;
 3465              		.loc 1 55 13 is_stmt 0 view .LVU1106
 3466 066c 43F0C703 		orr	r3, r3, #199
 3467              	.LVL381:
  56:Core/Src/lcd.c **** 
 3468              		.loc 1 56 5 is_stmt 1 view .LVU1107
  56:Core/Src/lcd.c **** 
 3469              		.loc 1 56 20 is_stmt 0 view .LVU1108
 3470 0670 E360     		str	r3, [r4, #12]
  67:Core/Src/lcd.c ****     HAL_GPIO_WritePin(ILI9341_WR_GPIO_Port, ILI9341_WR_Pin, GPIO_PIN_SET);
 3471              		.loc 1 67 5 is_stmt 1 view .LVU1109
 3472 0672 0022     		movs	r2, #0
 3473 0674 4FF48061 		mov	r1, #1024
 3474 0678 2046     		mov	r0, r4
 3475 067a FFF7FEFF 		bl	HAL_GPIO_WritePin
 3476              	.LVL382:
  68:Core/Src/lcd.c **** }
 3477              		.loc 1 68 5 view .LVU1110
 3478 067e 0122     		movs	r2, #1
 3479 0680 4FF48061 		mov	r1, #1024
 3480 0684 2046     		mov	r0, r4
 3481 0686 FFF7FEFF 		bl	HAL_GPIO_WritePin
 3482              	.LVL383:
  68:Core/Src/lcd.c **** }
ARM GAS  C:\Users\Vento\AppData\Local\Temp\ccDU9lzs.s 			page 91


 3483              		.loc 1 68 5 is_stmt 0 view .LVU1111
 3484              	.LBE577:
 3485              	.LBE576:
 3486              	.LBE575:
 3487              	.LBE574:
 186:Core/Src/lcd.c **** 
 3488              		.loc 1 186 5 is_stmt 1 view .LVU1112
 3489              	.LBB578:
 3490              	.LBI578:
  79:Core/Src/lcd.c **** {
 3491              		.loc 1 79 20 view .LVU1113
 3492              	.LBB579:
  82:Core/Src/lcd.c ****     ILI9341_SetData(data);
 3493              		.loc 1 82 5 view .LVU1114
 3494 068a 0122     		movs	r2, #1
 3495 068c 4FF48071 		mov	r1, #256
 3496 0690 2046     		mov	r0, r4
 3497 0692 FFF7FEFF 		bl	HAL_GPIO_WritePin
 3498              	.LVL384:
  83:Core/Src/lcd.c ****     // ILI9341_Unselect();
 3499              		.loc 1 83 5 view .LVU1115
 3500              	.LBB580:
 3501              	.LBI580:
  46:Core/Src/lcd.c **** {
 3502              		.loc 1 46 20 view .LVU1116
 3503              	.LBB581:
  48:Core/Src/lcd.c ****     uint8_t temp_Bit3rd_Data = data & 0x04;
 3504              		.loc 1 48 5 view .LVU1117
  49:Core/Src/lcd.c ****     data &= ~0x06;
 3505              		.loc 1 49 5 view .LVU1118
  50:Core/Src/lcd.c ****     data |= (uint8_t)((temp_Bit2nd_Data << 1) | (temp_Bit3rd_Data >> 1));
 3506              		.loc 1 50 5 view .LVU1119
  51:Core/Src/lcd.c **** 
 3507              		.loc 1 51 5 view .LVU1120
  53:Core/Src/lcd.c ****     tempReg &= 0xFFFFFF00;
 3508              		.loc 1 53 5 view .LVU1121
  53:Core/Src/lcd.c ****     tempReg &= 0xFFFFFF00;
 3509              		.loc 1 53 14 is_stmt 0 view .LVU1122
 3510 0696 E368     		ldr	r3, [r4, #12]
 3511              	.LVL385:
  54:Core/Src/lcd.c ****     tempReg |= (uint32_t)data;
 3512              		.loc 1 54 5 is_stmt 1 view .LVU1123
  54:Core/Src/lcd.c ****     tempReg |= (uint32_t)data;
 3513              		.loc 1 54 13 is_stmt 0 view .LVU1124
 3514 0698 23F0FF03 		bic	r3, r3, #255
 3515              	.LVL386:
  55:Core/Src/lcd.c ****     DATA_PORT->ODR = tempReg;
 3516              		.loc 1 55 5 is_stmt 1 view .LVU1125
  55:Core/Src/lcd.c ****     DATA_PORT->ODR = tempReg;
 3517              		.loc 1 55 13 is_stmt 0 view .LVU1126
 3518 069c 43F08603 		orr	r3, r3, #134
 3519              	.LVL387:
  56:Core/Src/lcd.c **** 
 3520              		.loc 1 56 5 is_stmt 1 view .LVU1127
  56:Core/Src/lcd.c **** 
 3521              		.loc 1 56 20 is_stmt 0 view .LVU1128
 3522 06a0 E360     		str	r3, [r4, #12]
ARM GAS  C:\Users\Vento\AppData\Local\Temp\ccDU9lzs.s 			page 92


  67:Core/Src/lcd.c ****     HAL_GPIO_WritePin(ILI9341_WR_GPIO_Port, ILI9341_WR_Pin, GPIO_PIN_SET);
 3523              		.loc 1 67 5 is_stmt 1 view .LVU1129
 3524 06a2 0022     		movs	r2, #0
 3525 06a4 4FF48061 		mov	r1, #1024
 3526 06a8 2046     		mov	r0, r4
 3527 06aa FFF7FEFF 		bl	HAL_GPIO_WritePin
 3528              	.LVL388:
  68:Core/Src/lcd.c **** }
 3529              		.loc 1 68 5 view .LVU1130
 3530 06ae 0122     		movs	r2, #1
 3531 06b0 4FF48061 		mov	r1, #1024
 3532 06b4 2046     		mov	r0, r4
 3533 06b6 FFF7FEFF 		bl	HAL_GPIO_WritePin
 3534              	.LVL389:
  68:Core/Src/lcd.c **** }
 3535              		.loc 1 68 5 is_stmt 0 view .LVU1131
 3536              	.LBE581:
 3537              	.LBE580:
 3538              	.LBE579:
 3539              	.LBE578:
 189:Core/Src/lcd.c ****     ILI9341_Write_Data(0x48);
 3540              		.loc 1 189 5 is_stmt 1 view .LVU1132
 3541              	.LBB582:
 3542              	.LBI582:
  71:Core/Src/lcd.c **** {
 3543              		.loc 1 71 20 view .LVU1133
 3544              	.LBB583:
  74:Core/Src/lcd.c ****     ILI9341_SetData(cmd);
 3545              		.loc 1 74 5 view .LVU1134
 3546 06ba 0022     		movs	r2, #0
 3547 06bc 4FF48071 		mov	r1, #256
 3548 06c0 2046     		mov	r0, r4
 3549 06c2 FFF7FEFF 		bl	HAL_GPIO_WritePin
 3550              	.LVL390:
  75:Core/Src/lcd.c ****     // ILI9341_Unselect();
 3551              		.loc 1 75 5 view .LVU1135
 3552              	.LBB584:
 3553              	.LBI584:
  46:Core/Src/lcd.c **** {
 3554              		.loc 1 46 20 view .LVU1136
 3555              	.LBB585:
  48:Core/Src/lcd.c ****     uint8_t temp_Bit3rd_Data = data & 0x04;
 3556              		.loc 1 48 5 view .LVU1137
  49:Core/Src/lcd.c ****     data &= ~0x06;
 3557              		.loc 1 49 5 view .LVU1138
  50:Core/Src/lcd.c ****     data |= (uint8_t)((temp_Bit2nd_Data << 1) | (temp_Bit3rd_Data >> 1));
 3558              		.loc 1 50 5 view .LVU1139
  51:Core/Src/lcd.c **** 
 3559              		.loc 1 51 5 view .LVU1140
  53:Core/Src/lcd.c ****     tempReg &= 0xFFFFFF00;
 3560              		.loc 1 53 5 view .LVU1141
  53:Core/Src/lcd.c ****     tempReg &= 0xFFFFFF00;
 3561              		.loc 1 53 14 is_stmt 0 view .LVU1142
 3562 06c6 E368     		ldr	r3, [r4, #12]
 3563              	.LVL391:
  54:Core/Src/lcd.c ****     tempReg |= (uint32_t)data;
 3564              		.loc 1 54 5 is_stmt 1 view .LVU1143
ARM GAS  C:\Users\Vento\AppData\Local\Temp\ccDU9lzs.s 			page 93


  54:Core/Src/lcd.c ****     tempReg |= (uint32_t)data;
 3565              		.loc 1 54 13 is_stmt 0 view .LVU1144
 3566 06c8 23F0FF03 		bic	r3, r3, #255
 3567              	.LVL392:
  55:Core/Src/lcd.c ****     DATA_PORT->ODR = tempReg;
 3568              		.loc 1 55 5 is_stmt 1 view .LVU1145
  55:Core/Src/lcd.c ****     DATA_PORT->ODR = tempReg;
 3569              		.loc 1 55 13 is_stmt 0 view .LVU1146
 3570 06cc 43F03603 		orr	r3, r3, #54
 3571              	.LVL393:
  56:Core/Src/lcd.c **** 
 3572              		.loc 1 56 5 is_stmt 1 view .LVU1147
  56:Core/Src/lcd.c **** 
 3573              		.loc 1 56 20 is_stmt 0 view .LVU1148
 3574 06d0 E360     		str	r3, [r4, #12]
  67:Core/Src/lcd.c ****     HAL_GPIO_WritePin(ILI9341_WR_GPIO_Port, ILI9341_WR_Pin, GPIO_PIN_SET);
 3575              		.loc 1 67 5 is_stmt 1 view .LVU1149
 3576 06d2 0022     		movs	r2, #0
 3577 06d4 4FF48061 		mov	r1, #1024
 3578 06d8 2046     		mov	r0, r4
 3579 06da FFF7FEFF 		bl	HAL_GPIO_WritePin
 3580              	.LVL394:
  68:Core/Src/lcd.c **** }
 3581              		.loc 1 68 5 view .LVU1150
 3582 06de 0122     		movs	r2, #1
 3583 06e0 4FF48061 		mov	r1, #1024
 3584 06e4 2046     		mov	r0, r4
 3585 06e6 FFF7FEFF 		bl	HAL_GPIO_WritePin
 3586              	.LVL395:
  68:Core/Src/lcd.c **** }
 3587              		.loc 1 68 5 is_stmt 0 view .LVU1151
 3588              	.LBE585:
 3589              	.LBE584:
 3590              	.LBE583:
 3591              	.LBE582:
 190:Core/Src/lcd.c **** 
 3592              		.loc 1 190 5 is_stmt 1 view .LVU1152
 3593              	.LBB586:
 3594              	.LBI586:
  79:Core/Src/lcd.c **** {
 3595              		.loc 1 79 20 view .LVU1153
 3596              	.LBB587:
  82:Core/Src/lcd.c ****     ILI9341_SetData(data);
 3597              		.loc 1 82 5 view .LVU1154
 3598 06ea 0122     		movs	r2, #1
 3599 06ec 4FF48071 		mov	r1, #256
 3600 06f0 2046     		mov	r0, r4
 3601 06f2 FFF7FEFF 		bl	HAL_GPIO_WritePin
 3602              	.LVL396:
  83:Core/Src/lcd.c ****     // ILI9341_Unselect();
 3603              		.loc 1 83 5 view .LVU1155
 3604              	.LBB588:
 3605              	.LBI588:
  46:Core/Src/lcd.c **** {
 3606              		.loc 1 46 20 view .LVU1156
 3607              	.LBB589:
  48:Core/Src/lcd.c ****     uint8_t temp_Bit3rd_Data = data & 0x04;
ARM GAS  C:\Users\Vento\AppData\Local\Temp\ccDU9lzs.s 			page 94


 3608              		.loc 1 48 5 view .LVU1157
  49:Core/Src/lcd.c ****     data &= ~0x06;
 3609              		.loc 1 49 5 view .LVU1158
  50:Core/Src/lcd.c ****     data |= (uint8_t)((temp_Bit2nd_Data << 1) | (temp_Bit3rd_Data >> 1));
 3610              		.loc 1 50 5 view .LVU1159
  51:Core/Src/lcd.c **** 
 3611              		.loc 1 51 5 view .LVU1160
  53:Core/Src/lcd.c ****     tempReg &= 0xFFFFFF00;
 3612              		.loc 1 53 5 view .LVU1161
  53:Core/Src/lcd.c ****     tempReg &= 0xFFFFFF00;
 3613              		.loc 1 53 14 is_stmt 0 view .LVU1162
 3614 06f6 E368     		ldr	r3, [r4, #12]
 3615              	.LVL397:
  54:Core/Src/lcd.c ****     tempReg |= (uint32_t)data;
 3616              		.loc 1 54 5 is_stmt 1 view .LVU1163
  54:Core/Src/lcd.c ****     tempReg |= (uint32_t)data;
 3617              		.loc 1 54 13 is_stmt 0 view .LVU1164
 3618 06f8 23F0FF03 		bic	r3, r3, #255
 3619              	.LVL398:
  55:Core/Src/lcd.c ****     DATA_PORT->ODR = tempReg;
 3620              		.loc 1 55 5 is_stmt 1 view .LVU1165
  55:Core/Src/lcd.c ****     DATA_PORT->ODR = tempReg;
 3621              		.loc 1 55 13 is_stmt 0 view .LVU1166
 3622 06fc 43F04803 		orr	r3, r3, #72
 3623              	.LVL399:
  56:Core/Src/lcd.c **** 
 3624              		.loc 1 56 5 is_stmt 1 view .LVU1167
  56:Core/Src/lcd.c **** 
 3625              		.loc 1 56 20 is_stmt 0 view .LVU1168
 3626 0700 E360     		str	r3, [r4, #12]
  67:Core/Src/lcd.c ****     HAL_GPIO_WritePin(ILI9341_WR_GPIO_Port, ILI9341_WR_Pin, GPIO_PIN_SET);
 3627              		.loc 1 67 5 is_stmt 1 view .LVU1169
 3628 0702 0022     		movs	r2, #0
 3629 0704 4FF48061 		mov	r1, #1024
 3630 0708 2046     		mov	r0, r4
 3631 070a FFF7FEFF 		bl	HAL_GPIO_WritePin
 3632              	.LVL400:
  68:Core/Src/lcd.c **** }
 3633              		.loc 1 68 5 view .LVU1170
 3634 070e 0122     		movs	r2, #1
 3635 0710 4FF48061 		mov	r1, #1024
 3636 0714 2046     		mov	r0, r4
 3637 0716 FFF7FEFF 		bl	HAL_GPIO_WritePin
 3638              	.LVL401:
  68:Core/Src/lcd.c **** }
 3639              		.loc 1 68 5 is_stmt 0 view .LVU1171
 3640              	.LBE589:
 3641              	.LBE588:
 3642              	.LBE587:
 3643              	.LBE586:
 193:Core/Src/lcd.c ****     ILI9341_Write_Data(0x55);
 3644              		.loc 1 193 5 is_stmt 1 view .LVU1172
 3645              	.LBB590:
 3646              	.LBI590:
  71:Core/Src/lcd.c **** {
 3647              		.loc 1 71 20 view .LVU1173
 3648              	.LBB591:
ARM GAS  C:\Users\Vento\AppData\Local\Temp\ccDU9lzs.s 			page 95


  74:Core/Src/lcd.c ****     ILI9341_SetData(cmd);
 3649              		.loc 1 74 5 view .LVU1174
 3650 071a 0022     		movs	r2, #0
 3651 071c 4FF48071 		mov	r1, #256
 3652 0720 2046     		mov	r0, r4
 3653 0722 FFF7FEFF 		bl	HAL_GPIO_WritePin
 3654              	.LVL402:
  75:Core/Src/lcd.c ****     // ILI9341_Unselect();
 3655              		.loc 1 75 5 view .LVU1175
 3656              	.LBB592:
 3657              	.LBI592:
  46:Core/Src/lcd.c **** {
 3658              		.loc 1 46 20 view .LVU1176
 3659              	.LBB593:
  48:Core/Src/lcd.c ****     uint8_t temp_Bit3rd_Data = data & 0x04;
 3660              		.loc 1 48 5 view .LVU1177
  49:Core/Src/lcd.c ****     data &= ~0x06;
 3661              		.loc 1 49 5 view .LVU1178
  50:Core/Src/lcd.c ****     data |= (uint8_t)((temp_Bit2nd_Data << 1) | (temp_Bit3rd_Data >> 1));
 3662              		.loc 1 50 5 view .LVU1179
  51:Core/Src/lcd.c **** 
 3663              		.loc 1 51 5 view .LVU1180
  53:Core/Src/lcd.c ****     tempReg &= 0xFFFFFF00;
 3664              		.loc 1 53 5 view .LVU1181
  53:Core/Src/lcd.c ****     tempReg &= 0xFFFFFF00;
 3665              		.loc 1 53 14 is_stmt 0 view .LVU1182
 3666 0726 E368     		ldr	r3, [r4, #12]
 3667              	.LVL403:
  54:Core/Src/lcd.c ****     tempReg |= (uint32_t)data;
 3668              		.loc 1 54 5 is_stmt 1 view .LVU1183
  54:Core/Src/lcd.c ****     tempReg |= (uint32_t)data;
 3669              		.loc 1 54 13 is_stmt 0 view .LVU1184
 3670 0728 23F0FF03 		bic	r3, r3, #255
 3671              	.LVL404:
  55:Core/Src/lcd.c ****     DATA_PORT->ODR = tempReg;
 3672              		.loc 1 55 5 is_stmt 1 view .LVU1185
  55:Core/Src/lcd.c ****     DATA_PORT->ODR = tempReg;
 3673              		.loc 1 55 13 is_stmt 0 view .LVU1186
 3674 072c 43F03C03 		orr	r3, r3, #60
 3675              	.LVL405:
  56:Core/Src/lcd.c **** 
 3676              		.loc 1 56 5 is_stmt 1 view .LVU1187
  56:Core/Src/lcd.c **** 
 3677              		.loc 1 56 20 is_stmt 0 view .LVU1188
 3678 0730 E360     		str	r3, [r4, #12]
  67:Core/Src/lcd.c ****     HAL_GPIO_WritePin(ILI9341_WR_GPIO_Port, ILI9341_WR_Pin, GPIO_PIN_SET);
 3679              		.loc 1 67 5 is_stmt 1 view .LVU1189
 3680 0732 0022     		movs	r2, #0
 3681 0734 4FF48061 		mov	r1, #1024
 3682 0738 2046     		mov	r0, r4
 3683 073a FFF7FEFF 		bl	HAL_GPIO_WritePin
 3684              	.LVL406:
  68:Core/Src/lcd.c **** }
 3685              		.loc 1 68 5 view .LVU1190
 3686 073e 0122     		movs	r2, #1
 3687 0740 4FF48061 		mov	r1, #1024
 3688 0744 2046     		mov	r0, r4
ARM GAS  C:\Users\Vento\AppData\Local\Temp\ccDU9lzs.s 			page 96


 3689 0746 FFF7FEFF 		bl	HAL_GPIO_WritePin
 3690              	.LVL407:
  68:Core/Src/lcd.c **** }
 3691              		.loc 1 68 5 is_stmt 0 view .LVU1191
 3692              	.LBE593:
 3693              	.LBE592:
 3694              	.LBE591:
 3695              	.LBE590:
 194:Core/Src/lcd.c **** 
 3696              		.loc 1 194 5 is_stmt 1 view .LVU1192
 3697              	.LBB594:
 3698              	.LBI594:
  79:Core/Src/lcd.c **** {
 3699              		.loc 1 79 20 view .LVU1193
 3700              	.LBB595:
  82:Core/Src/lcd.c ****     ILI9341_SetData(data);
 3701              		.loc 1 82 5 view .LVU1194
 3702 074a 0122     		movs	r2, #1
 3703 074c 4FF48071 		mov	r1, #256
 3704 0750 2046     		mov	r0, r4
 3705 0752 FFF7FEFF 		bl	HAL_GPIO_WritePin
 3706              	.LVL408:
  83:Core/Src/lcd.c ****     // ILI9341_Unselect();
 3707              		.loc 1 83 5 view .LVU1195
 3708              	.LBB596:
 3709              	.LBI596:
  46:Core/Src/lcd.c **** {
 3710              		.loc 1 46 20 view .LVU1196
 3711              	.LBB597:
  48:Core/Src/lcd.c ****     uint8_t temp_Bit3rd_Data = data & 0x04;
 3712              		.loc 1 48 5 view .LVU1197
  49:Core/Src/lcd.c ****     data &= ~0x06;
 3713              		.loc 1 49 5 view .LVU1198
  50:Core/Src/lcd.c ****     data |= (uint8_t)((temp_Bit2nd_Data << 1) | (temp_Bit3rd_Data >> 1));
 3714              		.loc 1 50 5 view .LVU1199
  51:Core/Src/lcd.c **** 
 3715              		.loc 1 51 5 view .LVU1200
  53:Core/Src/lcd.c ****     tempReg &= 0xFFFFFF00;
 3716              		.loc 1 53 5 view .LVU1201
  53:Core/Src/lcd.c ****     tempReg &= 0xFFFFFF00;
 3717              		.loc 1 53 14 is_stmt 0 view .LVU1202
 3718 0756 E368     		ldr	r3, [r4, #12]
 3719              	.LVL409:
  54:Core/Src/lcd.c ****     tempReg |= (uint32_t)data;
 3720              		.loc 1 54 5 is_stmt 1 view .LVU1203
  54:Core/Src/lcd.c ****     tempReg |= (uint32_t)data;
 3721              		.loc 1 54 13 is_stmt 0 view .LVU1204
 3722 0758 23F0FF03 		bic	r3, r3, #255
 3723              	.LVL410:
  55:Core/Src/lcd.c ****     DATA_PORT->ODR = tempReg;
 3724              		.loc 1 55 5 is_stmt 1 view .LVU1205
  55:Core/Src/lcd.c ****     DATA_PORT->ODR = tempReg;
 3725              		.loc 1 55 13 is_stmt 0 view .LVU1206
 3726 075c 43F05303 		orr	r3, r3, #83
 3727              	.LVL411:
  56:Core/Src/lcd.c **** 
 3728              		.loc 1 56 5 is_stmt 1 view .LVU1207
ARM GAS  C:\Users\Vento\AppData\Local\Temp\ccDU9lzs.s 			page 97


  56:Core/Src/lcd.c **** 
 3729              		.loc 1 56 20 is_stmt 0 view .LVU1208
 3730 0760 E360     		str	r3, [r4, #12]
  67:Core/Src/lcd.c ****     HAL_GPIO_WritePin(ILI9341_WR_GPIO_Port, ILI9341_WR_Pin, GPIO_PIN_SET);
 3731              		.loc 1 67 5 is_stmt 1 view .LVU1209
 3732 0762 0022     		movs	r2, #0
 3733 0764 4FF48061 		mov	r1, #1024
 3734 0768 2046     		mov	r0, r4
 3735 076a FFF7FEFF 		bl	HAL_GPIO_WritePin
 3736              	.LVL412:
  68:Core/Src/lcd.c **** }
 3737              		.loc 1 68 5 view .LVU1210
 3738 076e 0122     		movs	r2, #1
 3739 0770 4FF48061 		mov	r1, #1024
 3740 0774 2046     		mov	r0, r4
 3741 0776 FFF7FEFF 		bl	HAL_GPIO_WritePin
 3742              	.LVL413:
  68:Core/Src/lcd.c **** }
 3743              		.loc 1 68 5 is_stmt 0 view .LVU1211
 3744              	.LBE597:
 3745              	.LBE596:
 3746              	.LBE595:
 3747              	.LBE594:
 197:Core/Src/lcd.c ****     ILI9341_Write_Data(0x00);
 3748              		.loc 1 197 5 is_stmt 1 view .LVU1212
 3749              	.LBB598:
 3750              	.LBI598:
  71:Core/Src/lcd.c **** {
 3751              		.loc 1 71 20 view .LVU1213
 3752              	.LBB599:
  74:Core/Src/lcd.c ****     ILI9341_SetData(cmd);
 3753              		.loc 1 74 5 view .LVU1214
 3754 077a 0022     		movs	r2, #0
 3755 077c 4FF48071 		mov	r1, #256
 3756 0780 2046     		mov	r0, r4
 3757 0782 FFF7FEFF 		bl	HAL_GPIO_WritePin
 3758              	.LVL414:
  75:Core/Src/lcd.c ****     // ILI9341_Unselect();
 3759              		.loc 1 75 5 view .LVU1215
 3760              	.LBB600:
 3761              	.LBI600:
  46:Core/Src/lcd.c **** {
 3762              		.loc 1 46 20 view .LVU1216
 3763              	.LBB601:
  48:Core/Src/lcd.c ****     uint8_t temp_Bit3rd_Data = data & 0x04;
 3764              		.loc 1 48 5 view .LVU1217
  49:Core/Src/lcd.c ****     data &= ~0x06;
 3765              		.loc 1 49 5 view .LVU1218
  50:Core/Src/lcd.c ****     data |= (uint8_t)((temp_Bit2nd_Data << 1) | (temp_Bit3rd_Data >> 1));
 3766              		.loc 1 50 5 view .LVU1219
  51:Core/Src/lcd.c **** 
 3767              		.loc 1 51 5 view .LVU1220
  53:Core/Src/lcd.c ****     tempReg &= 0xFFFFFF00;
 3768              		.loc 1 53 5 view .LVU1221
  53:Core/Src/lcd.c ****     tempReg &= 0xFFFFFF00;
 3769              		.loc 1 53 14 is_stmt 0 view .LVU1222
 3770 0786 E368     		ldr	r3, [r4, #12]
ARM GAS  C:\Users\Vento\AppData\Local\Temp\ccDU9lzs.s 			page 98


 3771              	.LVL415:
  54:Core/Src/lcd.c ****     tempReg |= (uint32_t)data;
 3772              		.loc 1 54 5 is_stmt 1 view .LVU1223
  54:Core/Src/lcd.c ****     tempReg |= (uint32_t)data;
 3773              		.loc 1 54 13 is_stmt 0 view .LVU1224
 3774 0788 23F0FF03 		bic	r3, r3, #255
 3775              	.LVL416:
  55:Core/Src/lcd.c ****     DATA_PORT->ODR = tempReg;
 3776              		.loc 1 55 5 is_stmt 1 view .LVU1225
  55:Core/Src/lcd.c ****     DATA_PORT->ODR = tempReg;
 3777              		.loc 1 55 13 is_stmt 0 view .LVU1226
 3778 078c 43F0B103 		orr	r3, r3, #177
 3779              	.LVL417:
  56:Core/Src/lcd.c **** 
 3780              		.loc 1 56 5 is_stmt 1 view .LVU1227
  56:Core/Src/lcd.c **** 
 3781              		.loc 1 56 20 is_stmt 0 view .LVU1228
 3782 0790 E360     		str	r3, [r4, #12]
  67:Core/Src/lcd.c ****     HAL_GPIO_WritePin(ILI9341_WR_GPIO_Port, ILI9341_WR_Pin, GPIO_PIN_SET);
 3783              		.loc 1 67 5 is_stmt 1 view .LVU1229
 3784 0792 0022     		movs	r2, #0
 3785 0794 4FF48061 		mov	r1, #1024
 3786 0798 2046     		mov	r0, r4
 3787 079a FFF7FEFF 		bl	HAL_GPIO_WritePin
 3788              	.LVL418:
  68:Core/Src/lcd.c **** }
 3789              		.loc 1 68 5 view .LVU1230
 3790 079e 0122     		movs	r2, #1
 3791 07a0 4FF48061 		mov	r1, #1024
 3792 07a4 2046     		mov	r0, r4
 3793 07a6 FFF7FEFF 		bl	HAL_GPIO_WritePin
 3794              	.LVL419:
  68:Core/Src/lcd.c **** }
 3795              		.loc 1 68 5 is_stmt 0 view .LVU1231
 3796              	.LBE601:
 3797              	.LBE600:
 3798              	.LBE599:
 3799              	.LBE598:
 198:Core/Src/lcd.c ****     ILI9341_Write_Data(0x18);
 3800              		.loc 1 198 5 is_stmt 1 view .LVU1232
 3801              	.LBB602:
 3802              	.LBI602:
  79:Core/Src/lcd.c **** {
 3803              		.loc 1 79 20 view .LVU1233
 3804              	.LBB603:
  82:Core/Src/lcd.c ****     ILI9341_SetData(data);
 3805              		.loc 1 82 5 view .LVU1234
 3806 07aa 0122     		movs	r2, #1
 3807 07ac 4FF48071 		mov	r1, #256
 3808 07b0 2046     		mov	r0, r4
 3809 07b2 FFF7FEFF 		bl	HAL_GPIO_WritePin
 3810              	.LVL420:
  83:Core/Src/lcd.c ****     // ILI9341_Unselect();
 3811              		.loc 1 83 5 view .LVU1235
 3812              	.LBB604:
 3813              	.LBI604:
  46:Core/Src/lcd.c **** {
ARM GAS  C:\Users\Vento\AppData\Local\Temp\ccDU9lzs.s 			page 99


 3814              		.loc 1 46 20 view .LVU1236
 3815              	.LBB605:
  48:Core/Src/lcd.c ****     uint8_t temp_Bit3rd_Data = data & 0x04;
 3816              		.loc 1 48 5 view .LVU1237
  49:Core/Src/lcd.c ****     data &= ~0x06;
 3817              		.loc 1 49 5 view .LVU1238
  50:Core/Src/lcd.c ****     data |= (uint8_t)((temp_Bit2nd_Data << 1) | (temp_Bit3rd_Data >> 1));
 3818              		.loc 1 50 5 view .LVU1239
  51:Core/Src/lcd.c **** 
 3819              		.loc 1 51 5 view .LVU1240
  53:Core/Src/lcd.c ****     tempReg &= 0xFFFFFF00;
 3820              		.loc 1 53 5 view .LVU1241
  53:Core/Src/lcd.c ****     tempReg &= 0xFFFFFF00;
 3821              		.loc 1 53 14 is_stmt 0 view .LVU1242
 3822 07b6 E368     		ldr	r3, [r4, #12]
 3823              	.LVL421:
  54:Core/Src/lcd.c ****     tempReg |= (uint32_t)data;
 3824              		.loc 1 54 5 is_stmt 1 view .LVU1243
  54:Core/Src/lcd.c ****     tempReg |= (uint32_t)data;
 3825              		.loc 1 54 13 is_stmt 0 view .LVU1244
 3826 07b8 23F0FF03 		bic	r3, r3, #255
 3827              	.LVL422:
  55:Core/Src/lcd.c ****     DATA_PORT->ODR = tempReg;
 3828              		.loc 1 55 5 is_stmt 1 view .LVU1245
  56:Core/Src/lcd.c **** 
 3829              		.loc 1 56 5 view .LVU1246
  56:Core/Src/lcd.c **** 
 3830              		.loc 1 56 20 is_stmt 0 view .LVU1247
 3831 07bc E360     		str	r3, [r4, #12]
  67:Core/Src/lcd.c ****     HAL_GPIO_WritePin(ILI9341_WR_GPIO_Port, ILI9341_WR_Pin, GPIO_PIN_SET);
 3832              		.loc 1 67 5 is_stmt 1 view .LVU1248
 3833 07be 0022     		movs	r2, #0
 3834 07c0 4FF48061 		mov	r1, #1024
 3835 07c4 2046     		mov	r0, r4
 3836 07c6 FFF7FEFF 		bl	HAL_GPIO_WritePin
 3837              	.LVL423:
  68:Core/Src/lcd.c **** }
 3838              		.loc 1 68 5 view .LVU1249
 3839 07ca 0122     		movs	r2, #1
 3840 07cc 4FF48061 		mov	r1, #1024
 3841 07d0 2046     		mov	r0, r4
 3842 07d2 FFF7FEFF 		bl	HAL_GPIO_WritePin
 3843              	.LVL424:
  68:Core/Src/lcd.c **** }
 3844              		.loc 1 68 5 is_stmt 0 view .LVU1250
 3845              	.LBE605:
 3846              	.LBE604:
 3847              	.LBE603:
 3848              	.LBE602:
 199:Core/Src/lcd.c **** 
 3849              		.loc 1 199 5 is_stmt 1 view .LVU1251
 3850              	.LBB606:
 3851              	.LBI606:
  79:Core/Src/lcd.c **** {
 3852              		.loc 1 79 20 view .LVU1252
 3853              	.LBB607:
  82:Core/Src/lcd.c ****     ILI9341_SetData(data);
ARM GAS  C:\Users\Vento\AppData\Local\Temp\ccDU9lzs.s 			page 100


 3854              		.loc 1 82 5 view .LVU1253
 3855 07d6 0122     		movs	r2, #1
 3856 07d8 4FF48071 		mov	r1, #256
 3857 07dc 2046     		mov	r0, r4
 3858 07de FFF7FEFF 		bl	HAL_GPIO_WritePin
 3859              	.LVL425:
  83:Core/Src/lcd.c ****     // ILI9341_Unselect();
 3860              		.loc 1 83 5 view .LVU1254
 3861              	.LBB608:
 3862              	.LBI608:
  46:Core/Src/lcd.c **** {
 3863              		.loc 1 46 20 view .LVU1255
 3864              	.LBB609:
  48:Core/Src/lcd.c ****     uint8_t temp_Bit3rd_Data = data & 0x04;
 3865              		.loc 1 48 5 view .LVU1256
  49:Core/Src/lcd.c ****     data &= ~0x06;
 3866              		.loc 1 49 5 view .LVU1257
  50:Core/Src/lcd.c ****     data |= (uint8_t)((temp_Bit2nd_Data << 1) | (temp_Bit3rd_Data >> 1));
 3867              		.loc 1 50 5 view .LVU1258
  51:Core/Src/lcd.c **** 
 3868              		.loc 1 51 5 view .LVU1259
  53:Core/Src/lcd.c ****     tempReg &= 0xFFFFFF00;
 3869              		.loc 1 53 5 view .LVU1260
  53:Core/Src/lcd.c ****     tempReg &= 0xFFFFFF00;
 3870              		.loc 1 53 14 is_stmt 0 view .LVU1261
 3871 07e2 E368     		ldr	r3, [r4, #12]
 3872              	.LVL426:
  54:Core/Src/lcd.c ****     tempReg |= (uint32_t)data;
 3873              		.loc 1 54 5 is_stmt 1 view .LVU1262
  54:Core/Src/lcd.c ****     tempReg |= (uint32_t)data;
 3874              		.loc 1 54 13 is_stmt 0 view .LVU1263
 3875 07e4 23F0FF03 		bic	r3, r3, #255
 3876              	.LVL427:
  55:Core/Src/lcd.c ****     DATA_PORT->ODR = tempReg;
 3877              		.loc 1 55 5 is_stmt 1 view .LVU1264
  55:Core/Src/lcd.c ****     DATA_PORT->ODR = tempReg;
 3878              		.loc 1 55 13 is_stmt 0 view .LVU1265
