ARM GAS  C:\Users\Vento\AppData\Local\Temp\ccRZMsD1.s 			page 1


   1              		.cpu cortex-m3
   2              		.eabi_attribute 20, 1
   3              		.eabi_attribute 21, 1
   4              		.eabi_attribute 23, 3
   5              		.eabi_attribute 24, 1
   6              		.eabi_attribute 25, 1
   7              		.eabi_attribute 26, 1
   8              		.eabi_attribute 30, 1
   9              		.eabi_attribute 34, 1
  10              		.eabi_attribute 18, 4
  11              		.file	"rtc.c"
  12              		.text
  13              	.Ltext0:
  14              		.cfi_sections	.debug_frame
  15              		.section	.text.MX_RTC_Init,"ax",%progbits
  16              		.align	1
  17              		.global	MX_RTC_Init
  18              		.arch armv7-m
  19              		.syntax unified
  20              		.thumb
  21              		.thumb_func
  22              		.fpu softvfp
  24              	MX_RTC_Init:
  25              	.LFB65:
  26              		.file 1 "Core/Src/rtc.c"
   1:Core/Src/rtc.c **** /* USER CODE BEGIN Header */
   2:Core/Src/rtc.c **** /**
   3:Core/Src/rtc.c ****   ******************************************************************************
   4:Core/Src/rtc.c ****   * @file    rtc.c
   5:Core/Src/rtc.c ****   * @brief   This file provides code for the configuration
   6:Core/Src/rtc.c ****   *          of the RTC instances.
   7:Core/Src/rtc.c ****   ******************************************************************************
   8:Core/Src/rtc.c ****   * @attention
   9:Core/Src/rtc.c ****   *
  10:Core/Src/rtc.c ****   * Copyright (c) 2023 STMicroelectronics.
  11:Core/Src/rtc.c ****   * All rights reserved.
  12:Core/Src/rtc.c ****   *
  13:Core/Src/rtc.c ****   * This software is licensed under terms that can be found in the LICENSE file
  14:Core/Src/rtc.c ****   * in the root directory of this software component.
  15:Core/Src/rtc.c ****   * If no LICENSE file comes with this software, it is provided AS-IS.
  16:Core/Src/rtc.c ****   *
  17:Core/Src/rtc.c ****   ******************************************************************************
  18:Core/Src/rtc.c ****   */
  19:Core/Src/rtc.c **** /* USER CODE END Header */
  20:Core/Src/rtc.c **** /* Includes ------------------------------------------------------------------*/
  21:Core/Src/rtc.c **** #include "rtc.h"
  22:Core/Src/rtc.c **** 
  23:Core/Src/rtc.c **** /* USER CODE BEGIN 0 */
  24:Core/Src/rtc.c **** 
  25:Core/Src/rtc.c **** /* USER CODE END 0 */
  26:Core/Src/rtc.c **** 
  27:Core/Src/rtc.c **** RTC_HandleTypeDef hrtc;
  28:Core/Src/rtc.c **** 
  29:Core/Src/rtc.c **** /* RTC init function */
  30:Core/Src/rtc.c **** void MX_RTC_Init(void)
  31:Core/Src/rtc.c **** {
  27              		.loc 1 31 1 view -0
ARM GAS  C:\Users\Vento\AppData\Local\Temp\ccRZMsD1.s 			page 2


  28              		.cfi_startproc
  29              		@ args = 0, pretend = 0, frame = 8
  30              		@ frame_needed = 0, uses_anonymous_args = 0
  31 0000 10B5     		push	{r4, lr}
  32              	.LCFI0:
  33              		.cfi_def_cfa_offset 8
  34              		.cfi_offset 4, -8
  35              		.cfi_offset 14, -4
  36 0002 82B0     		sub	sp, sp, #8
  37              	.LCFI1:
  38              		.cfi_def_cfa_offset 16
  32:Core/Src/rtc.c **** 
  33:Core/Src/rtc.c ****   /* USER CODE BEGIN RTC_Init 0 */
  34:Core/Src/rtc.c **** 
  35:Core/Src/rtc.c ****   /* USER CODE END RTC_Init 0 */
  36:Core/Src/rtc.c **** 
  37:Core/Src/rtc.c ****   RTC_TimeTypeDef sTime = {0};
  39              		.loc 1 37 3 view .LVU1
  40              		.loc 1 37 19 is_stmt 0 view .LVU2
  41 0004 0023     		movs	r3, #0
  42 0006 ADF80430 		strh	r3, [sp, #4]	@ movhi
  43 000a 8DF80630 		strb	r3, [sp, #6]
  38:Core/Src/rtc.c ****   RTC_DateTypeDef DateToUpdate = {0};
  44              		.loc 1 38 3 is_stmt 1 view .LVU3
  45              		.loc 1 38 19 is_stmt 0 view .LVU4
  46 000e 0093     		str	r3, [sp]
  39:Core/Src/rtc.c **** 
  40:Core/Src/rtc.c ****   /* USER CODE BEGIN RTC_Init 1 */
  41:Core/Src/rtc.c **** 
  42:Core/Src/rtc.c ****   /* USER CODE END RTC_Init 1 */
  43:Core/Src/rtc.c **** 
  44:Core/Src/rtc.c ****   /** Initialize RTC Only
  45:Core/Src/rtc.c ****   */
  46:Core/Src/rtc.c ****   hrtc.Instance = RTC;
  47              		.loc 1 46 3 is_stmt 1 view .LVU5
  48              		.loc 1 46 17 is_stmt 0 view .LVU6
  49 0010 1648     		ldr	r0, .L7
  50 0012 174A     		ldr	r2, .L7+4
  51 0014 0260     		str	r2, [r0]
  47:Core/Src/rtc.c ****   hrtc.Init.AsynchPrediv = RTC_AUTO_1_SECOND;
  52              		.loc 1 47 3 is_stmt 1 view .LVU7
  53              		.loc 1 47 26 is_stmt 0 view .LVU8
  54 0016 4FF0FF32 		mov	r2, #-1
  55 001a 4260     		str	r2, [r0, #4]
  48:Core/Src/rtc.c ****   hrtc.Init.OutPut = RTC_OUTPUTSOURCE_NONE;
  56              		.loc 1 48 3 is_stmt 1 view .LVU9
  57              		.loc 1 48 20 is_stmt 0 view .LVU10
  58 001c 8360     		str	r3, [r0, #8]
  49:Core/Src/rtc.c ****   if (HAL_RTC_Init(&hrtc) != HAL_OK)
  59              		.loc 1 49 3 is_stmt 1 view .LVU11
  60              		.loc 1 49 7 is_stmt 0 view .LVU12
  61 001e FFF7FEFF 		bl	HAL_RTC_Init
  62              	.LVL0:
  63              		.loc 1 49 6 view .LVU13
  64 0022 E0B9     		cbnz	r0, .L5
  65              	.L2:
  50:Core/Src/rtc.c ****   {
ARM GAS  C:\Users\Vento\AppData\Local\Temp\ccRZMsD1.s 			page 3


  51:Core/Src/rtc.c ****     Error_Handler();
  52:Core/Src/rtc.c ****   }
  53:Core/Src/rtc.c **** 
  54:Core/Src/rtc.c ****   /* USER CODE BEGIN Check_RTC_BKUP */
  55:Core/Src/rtc.c **** 
  56:Core/Src/rtc.c ****   uint32_t reg = HAL_RTCEx_BKUPRead(&hrtc, RTC_BKP_DR1);
  66              		.loc 1 56 3 is_stmt 1 view .LVU14
  67              		.loc 1 56 18 is_stmt 0 view .LVU15
  68 0024 114C     		ldr	r4, .L7
  69 0026 0121     		movs	r1, #1
  70 0028 2046     		mov	r0, r4
  71 002a FFF7FEFF 		bl	HAL_RTCEx_BKUPRead
  72              	.LVL1:
  57:Core/Src/rtc.c **** 
  58:Core/Src/rtc.c ****   DateToUpdate.WeekDay = (uint8_t)((reg >> 16U) & 0x07);
  73              		.loc 1 58 3 is_stmt 1 view .LVU16
  74              		.loc 1 58 26 is_stmt 0 view .LVU17
  75 002e C0F30243 		ubfx	r3, r0, #16, #3
  76              		.loc 1 58 24 view .LVU18
  77 0032 8DF80030 		strb	r3, [sp]
  59:Core/Src/rtc.c ****   DateToUpdate.Month = (uint8_t)((reg >> 12U) & 0x0F);
  78              		.loc 1 59 3 is_stmt 1 view .LVU19
  79              		.loc 1 59 24 is_stmt 0 view .LVU20
  80 0036 C0F30333 		ubfx	r3, r0, #12, #4
  81              		.loc 1 59 22 view .LVU21
  82 003a 8DF80130 		strb	r3, [sp, #1]
  60:Core/Src/rtc.c ****   DateToUpdate.Date = (uint8_t)((reg >> 7U) & 0x1F);
  83              		.loc 1 60 3 is_stmt 1 view .LVU22
  84              		.loc 1 60 23 is_stmt 0 view .LVU23
  85 003e C0F3C413 		ubfx	r3, r0, #7, #5
  86              		.loc 1 60 21 view .LVU24
  87 0042 8DF80230 		strb	r3, [sp, #2]
  61:Core/Src/rtc.c ****   DateToUpdate.Year = (uint8_t)(reg & 0x7F);
  88              		.loc 1 61 3 is_stmt 1 view .LVU25
  89              		.loc 1 61 23 is_stmt 0 view .LVU26
  90 0046 00F07F00 		and	r0, r0, #127
  91              	.LVL2:
  92              		.loc 1 61 21 view .LVU27
  93 004a 8DF80300 		strb	r0, [sp, #3]
  62:Core/Src/rtc.c **** 
  63:Core/Src/rtc.c ****   if (HAL_RTC_SetDate(&hrtc, &DateToUpdate, RTC_FORMAT_BIN) != HAL_OK)
  94              		.loc 1 63 3 is_stmt 1 view .LVU28
  95              		.loc 1 63 7 is_stmt 0 view .LVU29
  96 004e 0022     		movs	r2, #0
  97 0050 6946     		mov	r1, sp
  98 0052 2046     		mov	r0, r4
  99 0054 FFF7FEFF 		bl	HAL_RTC_SetDate
 100              	.LVL3:
 101              		.loc 1 63 6 view .LVU30
 102 0058 20B9     		cbnz	r0, .L6
 103              	.L1:
  64:Core/Src/rtc.c ****   {
  65:Core/Src/rtc.c ****     Error_Handler();
  66:Core/Src/rtc.c ****   }
  67:Core/Src/rtc.c **** 
  68:Core/Src/rtc.c ****   return;
  69:Core/Src/rtc.c **** 
ARM GAS  C:\Users\Vento\AppData\Local\Temp\ccRZMsD1.s 			page 4


  70:Core/Src/rtc.c ****   // uint32_t reg = (RTC_WEEKDAY_SATURDAY << 16U) | (RTC_MONTH_JULY << 12U) | (29U << 7U) | (23U);
  71:Core/Src/rtc.c ****   // uint32_t reg = (DateToUpdate.WeekDay << 16U) | (DateToUpdate.Month << 12U) | (DateToUpdate.Dat
  72:Core/Src/rtc.c ****   // HAL_RTCEx_BKUPWrite(&hrtc, RTC_BKP_DR1, reg);
  73:Core/Src/rtc.c **** 
  74:Core/Src/rtc.c ****   /* USER CODE END Check_RTC_BKUP */
  75:Core/Src/rtc.c **** 
  76:Core/Src/rtc.c ****   /** Initialize RTC and set the Time and Date
  77:Core/Src/rtc.c ****   */
  78:Core/Src/rtc.c ****   // sTime.Hours = 22;
  79:Core/Src/rtc.c ****   // sTime.Minutes = 43;
  80:Core/Src/rtc.c ****   // sTime.Seconds = 0;
  81:Core/Src/rtc.c **** 
  82:Core/Src/rtc.c ****   // if (HAL_RTC_SetTime(&hrtc, &sTime, RTC_FORMAT_BIN) != HAL_OK)
  83:Core/Src/rtc.c ****   // {
  84:Core/Src/rtc.c ****   //   Error_Handler();
  85:Core/Src/rtc.c ****   // }
  86:Core/Src/rtc.c **** 
  87:Core/Src/rtc.c ****   // DateToUpdate.WeekDay = RTC_WEEKDAY_SATURDAY;
  88:Core/Src/rtc.c ****   // DateToUpdate.Month = RTC_MONTH_JULY;
  89:Core/Src/rtc.c ****   // DateToUpdate.Date = 29;
  90:Core/Src/rtc.c ****   // DateToUpdate.Year = 23;
  91:Core/Src/rtc.c **** 
  92:Core/Src/rtc.c ****   // if (HAL_RTC_SetDate(&hrtc, &DateToUpdate, RTC_FORMAT_BIN) != HAL_OK)
  93:Core/Src/rtc.c ****   // {
  94:Core/Src/rtc.c ****   //   Error_Handler();
  95:Core/Src/rtc.c ****   // }
  96:Core/Src/rtc.c ****   /* USER CODE BEGIN RTC_Init 2 */
  97:Core/Src/rtc.c **** 
  98:Core/Src/rtc.c ****   /* USER CODE END RTC_Init 2 */
  99:Core/Src/rtc.c **** 
 100:Core/Src/rtc.c **** }
 104              		.loc 1 100 1 view .LVU31
 105 005a 02B0     		add	sp, sp, #8
 106              	.LCFI2:
 107              		.cfi_remember_state
 108              		.cfi_def_cfa_offset 8
 109              		@ sp needed
 110 005c 10BD     		pop	{r4, pc}
 111              	.L5:
 112              	.LCFI3:
 113              		.cfi_restore_state
  51:Core/Src/rtc.c ****   }
 114              		.loc 1 51 5 is_stmt 1 view .LVU32
 115 005e FFF7FEFF 		bl	Error_Handler
 116              	.LVL4:
 117 0062 DFE7     		b	.L2
 118              	.L6:
  65:Core/Src/rtc.c ****   }
 119              		.loc 1 65 5 view .LVU33
 120 0064 FFF7FEFF 		bl	Error_Handler
 121              	.LVL5:
  68:Core/Src/rtc.c **** 
 122              		.loc 1 68 3 view .LVU34
 123 0068 F7E7     		b	.L1
 124              	.L8:
 125 006a 00BF     		.align	2
 126              	.L7:
ARM GAS  C:\Users\Vento\AppData\Local\Temp\ccRZMsD1.s 			page 5


 127 006c 00000000 		.word	.LANCHOR0
 128 0070 00280040 		.word	1073752064
 129              		.cfi_endproc
 130              	.LFE65:
 132              		.section	.text.HAL_RTC_MspInit,"ax",%progbits
 133              		.align	1
 134              		.global	HAL_RTC_MspInit
 135              		.syntax unified
 136              		.thumb
 137              		.thumb_func
 138              		.fpu softvfp
 140              	HAL_RTC_MspInit:
 141              	.LVL6:
 142              	.LFB66:
 101:Core/Src/rtc.c **** 
 102:Core/Src/rtc.c **** void HAL_RTC_MspInit(RTC_HandleTypeDef* rtcHandle)
 103:Core/Src/rtc.c **** {
 143              		.loc 1 103 1 view -0
 144              		.cfi_startproc
 145              		@ args = 0, pretend = 0, frame = 8
 146              		@ frame_needed = 0, uses_anonymous_args = 0
 104:Core/Src/rtc.c **** 
 105:Core/Src/rtc.c ****   if(rtcHandle->Instance==RTC)
 147              		.loc 1 105 3 view .LVU36
 148              		.loc 1 105 15 is_stmt 0 view .LVU37
 149 0000 0268     		ldr	r2, [r0]
 150              		.loc 1 105 5 view .LVU38
 151 0002 0C4B     		ldr	r3, .L16
 152 0004 9A42     		cmp	r2, r3
 153 0006 00D0     		beq	.L15
 154 0008 7047     		bx	lr
 155              	.L15:
 103:Core/Src/rtc.c **** 
 156              		.loc 1 103 1 view .LVU39
 157 000a 00B5     		push	{lr}
 158              	.LCFI4:
 159              		.cfi_def_cfa_offset 4
 160              		.cfi_offset 14, -4
 161 000c 83B0     		sub	sp, sp, #12
 162              	.LCFI5:
 163              		.cfi_def_cfa_offset 16
 106:Core/Src/rtc.c ****   {
 107:Core/Src/rtc.c ****   /* USER CODE BEGIN RTC_MspInit 0 */
 108:Core/Src/rtc.c **** 
 109:Core/Src/rtc.c ****   /* USER CODE END RTC_MspInit 0 */
 110:Core/Src/rtc.c ****     HAL_PWR_EnableBkUpAccess();
 164              		.loc 1 110 5 is_stmt 1 view .LVU40
 165 000e FFF7FEFF 		bl	HAL_PWR_EnableBkUpAccess
 166              	.LVL7:
 111:Core/Src/rtc.c ****     /* Enable BKP CLK enable for backup registers */
 112:Core/Src/rtc.c ****     __HAL_RCC_BKP_CLK_ENABLE();
 167              		.loc 1 112 5 view .LVU41
 168              	.LBB2:
 169              		.loc 1 112 5 view .LVU42
 170              		.loc 1 112 5 view .LVU43
 171 0012 094B     		ldr	r3, .L16+4
 172 0014 DA69     		ldr	r2, [r3, #28]
ARM GAS  C:\Users\Vento\AppData\Local\Temp\ccRZMsD1.s 			page 6


 173 0016 42F00062 		orr	r2, r2, #134217728
 174 001a DA61     		str	r2, [r3, #28]
 175              		.loc 1 112 5 view .LVU44
 176 001c DB69     		ldr	r3, [r3, #28]
 177 001e 03F00063 		and	r3, r3, #134217728
 178 0022 0193     		str	r3, [sp, #4]
 179              		.loc 1 112 5 view .LVU45
 180 0024 019B     		ldr	r3, [sp, #4]
 181              	.LBE2:
 182              		.loc 1 112 5 view .LVU46
 113:Core/Src/rtc.c ****     /* RTC clock enable */
 114:Core/Src/rtc.c ****     __HAL_RCC_RTC_ENABLE();
 183              		.loc 1 114 5 view .LVU47
 184 0026 054B     		ldr	r3, .L16+8
 185 0028 0122     		movs	r2, #1
 186 002a C3F83C24 		str	r2, [r3, #1084]
 115:Core/Src/rtc.c ****   /* USER CODE BEGIN RTC_MspInit 1 */
 116:Core/Src/rtc.c **** 
 117:Core/Src/rtc.c ****   /* USER CODE END RTC_MspInit 1 */
 118:Core/Src/rtc.c ****   }
 119:Core/Src/rtc.c **** }
 187              		.loc 1 119 1 is_stmt 0 view .LVU48
 188 002e 03B0     		add	sp, sp, #12
 189              	.LCFI6:
 190              		.cfi_def_cfa_offset 4
 191              		@ sp needed
 192 0030 5DF804FB 		ldr	pc, [sp], #4
 193              	.L17:
 194              		.align	2
 195              	.L16:
 196 0034 00280040 		.word	1073752064
 197 0038 00100240 		.word	1073876992
 198 003c 00004242 		.word	1111621632
 199              		.cfi_endproc
 200              	.LFE66:
 202              		.section	.text.HAL_RTC_MspDeInit,"ax",%progbits
 203              		.align	1
 204              		.global	HAL_RTC_MspDeInit
 205              		.syntax unified
 206              		.thumb
 207              		.thumb_func
 208              		.fpu softvfp
 210              	HAL_RTC_MspDeInit:
 211              	.LVL8:
 212              	.LFB67:
 120:Core/Src/rtc.c **** 
 121:Core/Src/rtc.c **** void HAL_RTC_MspDeInit(RTC_HandleTypeDef* rtcHandle)
 122:Core/Src/rtc.c **** {
 213              		.loc 1 122 1 is_stmt 1 view -0
 214              		.cfi_startproc
 215              		@ args = 0, pretend = 0, frame = 0
 216              		@ frame_needed = 0, uses_anonymous_args = 0
 217              		@ link register save eliminated.
 123:Core/Src/rtc.c **** 
 124:Core/Src/rtc.c ****   if(rtcHandle->Instance==RTC)
 218              		.loc 1 124 3 view .LVU50
 219              		.loc 1 124 15 is_stmt 0 view .LVU51
ARM GAS  C:\Users\Vento\AppData\Local\Temp\ccRZMsD1.s 			page 7


 220 0000 0268     		ldr	r2, [r0]
 221              		.loc 1 124 5 view .LVU52
 222 0002 044B     		ldr	r3, .L21
 223 0004 9A42     		cmp	r2, r3
 224 0006 00D0     		beq	.L20
 225              	.L18:
 125:Core/Src/rtc.c ****   {
 126:Core/Src/rtc.c ****   /* USER CODE BEGIN RTC_MspDeInit 0 */
 127:Core/Src/rtc.c **** 
 128:Core/Src/rtc.c ****   /* USER CODE END RTC_MspDeInit 0 */
 129:Core/Src/rtc.c ****     /* Peripheral clock disable */
 130:Core/Src/rtc.c ****     __HAL_RCC_RTC_DISABLE();
 131:Core/Src/rtc.c ****   /* USER CODE BEGIN RTC_MspDeInit 1 */
 132:Core/Src/rtc.c **** 
 133:Core/Src/rtc.c ****   /* USER CODE END RTC_MspDeInit 1 */
 134:Core/Src/rtc.c ****   }
 135:Core/Src/rtc.c **** }
 226              		.loc 1 135 1 view .LVU53
 227 0008 7047     		bx	lr
 228              	.L20:
 130:Core/Src/rtc.c ****   /* USER CODE BEGIN RTC_MspDeInit 1 */
 229              		.loc 1 130 5 is_stmt 1 view .LVU54
 230 000a 034B     		ldr	r3, .L21+4
 231 000c 0022     		movs	r2, #0
 232 000e C3F83C24 		str	r2, [r3, #1084]
 233              		.loc 1 135 1 is_stmt 0 view .LVU55
 234 0012 F9E7     		b	.L18
 235              	.L22:
 236              		.align	2
 237              	.L21:
 238 0014 00280040 		.word	1073752064
 239 0018 00004242 		.word	1111621632
 240              		.cfi_endproc
 241              	.LFE67:
 243              		.global	hrtc
 244              		.section	.bss.hrtc,"aw",%nobits
 245              		.align	2
 246              		.set	.LANCHOR0,. + 0
 249              	hrtc:
 250 0000 00000000 		.space	20
 250      00000000 
 250      00000000 
 250      00000000 
 250      00000000 
 251              		.text
 252              	.Letext0:
 253              		.file 2 "d:\\tools\\gcc-arm-none-eabi-10.3-2021.07\\arm-none-eabi\\include\\machine\\_default_type
 254              		.file 3 "d:\\tools\\gcc-arm-none-eabi-10.3-2021.07\\arm-none-eabi\\include\\sys\\_stdint.h"
 255              		.file 4 "Drivers/CMSIS/Device/ST/STM32F1xx/Include/stm32f103xe.h"
 256              		.file 5 "Drivers/CMSIS/Device/ST/STM32F1xx/Include/stm32f1xx.h"
 257              		.file 6 "Drivers/STM32F1xx_HAL_Driver/Inc/stm32f1xx_hal_def.h"
 258              		.file 7 "Drivers/STM32F1xx_HAL_Driver/Inc/stm32f1xx_hal_rtc.h"
 259              		.file 8 "Drivers/STM32F1xx_HAL_Driver/Inc/stm32f1xx_hal_pwr.h"
 260              		.file 9 "Drivers/STM32F1xx_HAL_Driver/Inc/stm32f1xx_hal_rtc_ex.h"
 261              		.file 10 "Core/Inc/main.h"
 262              		.file 11 "Core/Inc/rtc.h"
ARM GAS  C:\Users\Vento\AppData\Local\Temp\ccRZMsD1.s 			page 8

