ARM GAS  C:\Users\Vento\AppData\Local\Temp\cc5Aqf3b.s 			page 1


   1              		.cpu cortex-m3
   2              		.eabi_attribute 20, 1
   3              		.eabi_attribute 21, 1
   4              		.eabi_attribute 23, 3
   5              		.eabi_attribute 24, 1
   6              		.eabi_attribute 25, 1
   7              		.eabi_attribute 26, 1
   8              		.eabi_attribute 30, 1
   9              		.eabi_attribute 34, 1
  10              		.eabi_attribute 18, 4
  11              		.file	"gpio.c"
  12              		.text
  13              	.Ltext0:
  14              		.cfi_sections	.debug_frame
  15              		.section	.text.MX_GPIO_Init,"ax",%progbits
  16              		.align	1
  17              		.global	MX_GPIO_Init
  18              		.arch armv7-m
  19              		.syntax unified
  20              		.thumb
  21              		.thumb_func
  22              		.fpu softvfp
  24              	MX_GPIO_Init:
  25              	.LFB65:
  26              		.file 1 "Core/Src/gpio.c"
   1:Core/Src/gpio.c **** /* USER CODE BEGIN Header */
   2:Core/Src/gpio.c **** /**
   3:Core/Src/gpio.c ****   ******************************************************************************
   4:Core/Src/gpio.c ****   * @file    gpio.c
   5:Core/Src/gpio.c ****   * @brief   This file provides code for the configuration
   6:Core/Src/gpio.c ****   *          of all used GPIO pins.
   7:Core/Src/gpio.c ****   ******************************************************************************
   8:Core/Src/gpio.c ****   * @attention
   9:Core/Src/gpio.c ****   *
  10:Core/Src/gpio.c ****   * Copyright (c) 2023 STMicroelectronics.
  11:Core/Src/gpio.c ****   * All rights reserved.
  12:Core/Src/gpio.c ****   *
  13:Core/Src/gpio.c ****   * This software is licensed under terms that can be found in the LICENSE file
  14:Core/Src/gpio.c ****   * in the root directory of this software component.
  15:Core/Src/gpio.c ****   * If no LICENSE file comes with this software, it is provided AS-IS.
  16:Core/Src/gpio.c ****   *
  17:Core/Src/gpio.c ****   ******************************************************************************
  18:Core/Src/gpio.c ****   */
  19:Core/Src/gpio.c **** /* USER CODE END Header */
  20:Core/Src/gpio.c **** 
  21:Core/Src/gpio.c **** /* Includes ------------------------------------------------------------------*/
  22:Core/Src/gpio.c **** #include "gpio.h"
  23:Core/Src/gpio.c **** 
  24:Core/Src/gpio.c **** /* USER CODE BEGIN 0 */
  25:Core/Src/gpio.c **** 
  26:Core/Src/gpio.c **** /* USER CODE END 0 */
  27:Core/Src/gpio.c **** 
  28:Core/Src/gpio.c **** /*----------------------------------------------------------------------------*/
  29:Core/Src/gpio.c **** /* Configure GPIO                                                             */
  30:Core/Src/gpio.c **** /*----------------------------------------------------------------------------*/
  31:Core/Src/gpio.c **** /* USER CODE BEGIN 1 */
  32:Core/Src/gpio.c **** 
ARM GAS  C:\Users\Vento\AppData\Local\Temp\cc5Aqf3b.s 			page 2


  33:Core/Src/gpio.c **** /* USER CODE END 1 */
  34:Core/Src/gpio.c **** 
  35:Core/Src/gpio.c **** /** Configure pins as
  36:Core/Src/gpio.c ****         * Analog
  37:Core/Src/gpio.c ****         * Input
  38:Core/Src/gpio.c ****         * Output
  39:Core/Src/gpio.c ****         * EVENT_OUT
  40:Core/Src/gpio.c ****         * EXTI
  41:Core/Src/gpio.c ****         * Free pins are configured automatically as Analog (this feature is enabled through
  42:Core/Src/gpio.c ****         * the Code Generation settings)
  43:Core/Src/gpio.c **** */
  44:Core/Src/gpio.c **** void MX_GPIO_Init(void)
  45:Core/Src/gpio.c **** {
  27              		.loc 1 45 1 view -0
  28              		.cfi_startproc
  29              		@ args = 0, pretend = 0, frame = 32
  30              		@ frame_needed = 0, uses_anonymous_args = 0
  31 0000 2DE9F047 		push	{r4, r5, r6, r7, r8, r9, r10, lr}
  32              	.LCFI0:
  33              		.cfi_def_cfa_offset 32
  34              		.cfi_offset 4, -32
  35              		.cfi_offset 5, -28
  36              		.cfi_offset 6, -24
  37              		.cfi_offset 7, -20
  38              		.cfi_offset 8, -16
  39              		.cfi_offset 9, -12
  40              		.cfi_offset 10, -8
  41              		.cfi_offset 14, -4
  42 0004 88B0     		sub	sp, sp, #32
  43              	.LCFI1:
  44              		.cfi_def_cfa_offset 64
  46:Core/Src/gpio.c **** 
  47:Core/Src/gpio.c ****   GPIO_InitTypeDef GPIO_InitStruct = {0};
  45              		.loc 1 47 3 view .LVU1
  46              		.loc 1 47 20 is_stmt 0 view .LVU2
  47 0006 0024     		movs	r4, #0
  48 0008 0494     		str	r4, [sp, #16]
  49 000a 0594     		str	r4, [sp, #20]
  50 000c 0694     		str	r4, [sp, #24]
  51 000e 0794     		str	r4, [sp, #28]
  48:Core/Src/gpio.c **** 
  49:Core/Src/gpio.c ****   /* GPIO Ports Clock Enable */
  50:Core/Src/gpio.c ****   __HAL_RCC_GPIOC_CLK_ENABLE();
  52              		.loc 1 50 3 is_stmt 1 view .LVU3
  53              	.LBB2:
  54              		.loc 1 50 3 view .LVU4
  55              		.loc 1 50 3 view .LVU5
  56 0010 654B     		ldr	r3, .L3
  57 0012 9A69     		ldr	r2, [r3, #24]
  58 0014 42F01002 		orr	r2, r2, #16
  59 0018 9A61     		str	r2, [r3, #24]
  60              		.loc 1 50 3 view .LVU6
  61 001a 9A69     		ldr	r2, [r3, #24]
  62 001c 02F01002 		and	r2, r2, #16
  63 0020 0092     		str	r2, [sp]
  64              		.loc 1 50 3 view .LVU7
  65 0022 009A     		ldr	r2, [sp]
ARM GAS  C:\Users\Vento\AppData\Local\Temp\cc5Aqf3b.s 			page 3


  66              	.LBE2:
  67              		.loc 1 50 3 view .LVU8
  51:Core/Src/gpio.c ****   __HAL_RCC_GPIOD_CLK_ENABLE();
  68              		.loc 1 51 3 view .LVU9
  69              	.LBB3:
  70              		.loc 1 51 3 view .LVU10
  71              		.loc 1 51 3 view .LVU11
  72 0024 9A69     		ldr	r2, [r3, #24]
  73 0026 42F02002 		orr	r2, r2, #32
  74 002a 9A61     		str	r2, [r3, #24]
  75              		.loc 1 51 3 view .LVU12
  76 002c 9A69     		ldr	r2, [r3, #24]
  77 002e 02F02002 		and	r2, r2, #32
  78 0032 0192     		str	r2, [sp, #4]
  79              		.loc 1 51 3 view .LVU13
  80 0034 019A     		ldr	r2, [sp, #4]
  81              	.LBE3:
  82              		.loc 1 51 3 view .LVU14
  52:Core/Src/gpio.c ****   __HAL_RCC_GPIOA_CLK_ENABLE();
  83              		.loc 1 52 3 view .LVU15
  84              	.LBB4:
  85              		.loc 1 52 3 view .LVU16
  86              		.loc 1 52 3 view .LVU17
  87 0036 9A69     		ldr	r2, [r3, #24]
  88 0038 42F00402 		orr	r2, r2, #4
  89 003c 9A61     		str	r2, [r3, #24]
  90              		.loc 1 52 3 view .LVU18
  91 003e 9A69     		ldr	r2, [r3, #24]
  92 0040 02F00402 		and	r2, r2, #4
  93 0044 0292     		str	r2, [sp, #8]
  94              		.loc 1 52 3 view .LVU19
  95 0046 029A     		ldr	r2, [sp, #8]
  96              	.LBE4:
  97              		.loc 1 52 3 view .LVU20
  53:Core/Src/gpio.c ****   __HAL_RCC_GPIOB_CLK_ENABLE();
  98              		.loc 1 53 3 view .LVU21
  99              	.LBB5:
 100              		.loc 1 53 3 view .LVU22
 101              		.loc 1 53 3 view .LVU23
 102 0048 9A69     		ldr	r2, [r3, #24]
 103 004a 42F00802 		orr	r2, r2, #8
 104 004e 9A61     		str	r2, [r3, #24]
 105              		.loc 1 53 3 view .LVU24
 106 0050 9B69     		ldr	r3, [r3, #24]
 107 0052 03F00803 		and	r3, r3, #8
 108 0056 0393     		str	r3, [sp, #12]
 109              		.loc 1 53 3 view .LVU25
 110 0058 039B     		ldr	r3, [sp, #12]
 111              	.LBE5:
 112              		.loc 1 53 3 view .LVU26
  54:Core/Src/gpio.c **** 
  55:Core/Src/gpio.c ****   /*Configure GPIO pin Output Level */
  56:Core/Src/gpio.c ****   HAL_GPIO_WritePin(LED0_GPIO_Port, LED0_Pin, GPIO_PIN_RESET);
 113              		.loc 1 56 3 view .LVU27
 114 005a DFF850A1 		ldr	r10, .L3+4
 115 005e 2246     		mov	r2, r4
 116 0060 4FF40051 		mov	r1, #8192
ARM GAS  C:\Users\Vento\AppData\Local\Temp\cc5Aqf3b.s 			page 4


 117 0064 5046     		mov	r0, r10
 118 0066 FFF7FEFF 		bl	HAL_GPIO_WritePin
 119              	.LVL0:
  57:Core/Src/gpio.c **** 
  58:Core/Src/gpio.c ****   /*Configure GPIO pin Output Level */
  59:Core/Src/gpio.c ****   HAL_GPIO_WritePin(GPIOA, SPI1_CS_Pin|DE_Pin|LED1_Pin, GPIO_PIN_RESET);
 120              		.loc 1 59 3 view .LVU28
 121 006a DFF84491 		ldr	r9, .L3+8
 122 006e 2246     		mov	r2, r4
 123 0070 48F21011 		movw	r1, #33040
 124 0074 4846     		mov	r0, r9
 125 0076 FFF7FEFF 		bl	HAL_GPIO_WritePin
 126              	.LVL1:
  60:Core/Src/gpio.c **** 
  61:Core/Src/gpio.c ****   /*Configure GPIO pin Output Level */
  62:Core/Src/gpio.c ****   HAL_GPIO_WritePin(GPIOB, LoRa_RST_Pin|PWR_CTRL_Pin|RE_Pin, GPIO_PIN_RESET);
 127              		.loc 1 62 3 view .LVU29
 128 007a 4E4E     		ldr	r6, .L3+12
 129 007c 2246     		mov	r2, r4
 130 007e 4CF20101 		movw	r1, #49153
 131 0082 3046     		mov	r0, r6
 132 0084 FFF7FEFF 		bl	HAL_GPIO_WritePin
 133              	.LVL2:
  63:Core/Src/gpio.c **** 
  64:Core/Src/gpio.c ****   /*Configure GPIO pin : PtPin */
  65:Core/Src/gpio.c ****   GPIO_InitStruct.Pin = LED0_Pin;
 134              		.loc 1 65 3 view .LVU30
 135              		.loc 1 65 23 is_stmt 0 view .LVU31
 136 0088 4FF40053 		mov	r3, #8192
 137 008c 0493     		str	r3, [sp, #16]
  66:Core/Src/gpio.c ****   GPIO_InitStruct.Mode = GPIO_MODE_OUTPUT_PP;
 138              		.loc 1 66 3 is_stmt 1 view .LVU32
 139              		.loc 1 66 24 is_stmt 0 view .LVU33
 140 008e 0125     		movs	r5, #1
 141 0090 0595     		str	r5, [sp, #20]
  67:Core/Src/gpio.c ****   GPIO_InitStruct.Pull = GPIO_NOPULL;
 142              		.loc 1 67 3 is_stmt 1 view .LVU34
 143              		.loc 1 67 24 is_stmt 0 view .LVU35
 144 0092 0694     		str	r4, [sp, #24]
  68:Core/Src/gpio.c ****   GPIO_InitStruct.Speed = GPIO_SPEED_FREQ_LOW;
 145              		.loc 1 68 3 is_stmt 1 view .LVU36
 146              		.loc 1 68 25 is_stmt 0 view .LVU37
 147 0094 4FF00208 		mov	r8, #2
 148 0098 CDF81C80 		str	r8, [sp, #28]
  69:Core/Src/gpio.c ****   HAL_GPIO_Init(LED0_GPIO_Port, &GPIO_InitStruct);
 149              		.loc 1 69 3 is_stmt 1 view .LVU38
 150 009c 04A9     		add	r1, sp, #16
 151 009e 5046     		mov	r0, r10
 152 00a0 FFF7FEFF 		bl	HAL_GPIO_Init
 153              	.LVL3:
  70:Core/Src/gpio.c **** 
  71:Core/Src/gpio.c ****   /*Configure GPIO pins : PC14 PC15 */
  72:Core/Src/gpio.c ****   GPIO_InitStruct.Pin = GPIO_PIN_14|GPIO_PIN_15;
 154              		.loc 1 72 3 view .LVU39
 155              		.loc 1 72 23 is_stmt 0 view .LVU40
 156 00a4 4FF44043 		mov	r3, #49152
 157 00a8 0493     		str	r3, [sp, #16]
ARM GAS  C:\Users\Vento\AppData\Local\Temp\cc5Aqf3b.s 			page 5


  73:Core/Src/gpio.c ****   GPIO_InitStruct.Mode = GPIO_MODE_ANALOG;
 158              		.loc 1 73 3 is_stmt 1 view .LVU41
 159              		.loc 1 73 24 is_stmt 0 view .LVU42
 160 00aa 0327     		movs	r7, #3
 161 00ac 0597     		str	r7, [sp, #20]
  74:Core/Src/gpio.c ****   HAL_GPIO_Init(GPIOC, &GPIO_InitStruct);
 162              		.loc 1 74 3 is_stmt 1 view .LVU43
 163 00ae 04A9     		add	r1, sp, #16
 164 00b0 5046     		mov	r0, r10
 165 00b2 FFF7FEFF 		bl	HAL_GPIO_Init
 166              	.LVL4:
  75:Core/Src/gpio.c **** 
  76:Core/Src/gpio.c ****   /*Configure GPIO pins : PD0 PD1 */
  77:Core/Src/gpio.c ****   GPIO_InitStruct.Pin = GPIO_PIN_0|GPIO_PIN_1;
 167              		.loc 1 77 3 view .LVU44
 168              		.loc 1 77 23 is_stmt 0 view .LVU45
 169 00b6 0497     		str	r7, [sp, #16]
  78:Core/Src/gpio.c ****   GPIO_InitStruct.Mode = GPIO_MODE_ANALOG;
 170              		.loc 1 78 3 is_stmt 1 view .LVU46
 171              		.loc 1 78 24 is_stmt 0 view .LVU47
 172 00b8 0597     		str	r7, [sp, #20]
  79:Core/Src/gpio.c ****   HAL_GPIO_Init(GPIOD, &GPIO_InitStruct);
 173              		.loc 1 79 3 is_stmt 1 view .LVU48
 174 00ba 04A9     		add	r1, sp, #16
 175 00bc 3E48     		ldr	r0, .L3+16
 176 00be FFF7FEFF 		bl	HAL_GPIO_Init
 177              	.LVL5:
  80:Core/Src/gpio.c **** 
  81:Core/Src/gpio.c ****   /*Configure GPIO pins : PA2 PA3 PA11 PA12 */
  82:Core/Src/gpio.c ****   GPIO_InitStruct.Pin = GPIO_PIN_2|GPIO_PIN_3|GPIO_PIN_11|GPIO_PIN_12;
 178              		.loc 1 82 3 view .LVU49
 179              		.loc 1 82 23 is_stmt 0 view .LVU50
 180 00c2 41F60C03 		movw	r3, #6156
 181 00c6 0493     		str	r3, [sp, #16]
  83:Core/Src/gpio.c ****   GPIO_InitStruct.Mode = GPIO_MODE_ANALOG;
 182              		.loc 1 83 3 is_stmt 1 view .LVU51
 183              		.loc 1 83 24 is_stmt 0 view .LVU52
 184 00c8 0597     		str	r7, [sp, #20]
  84:Core/Src/gpio.c ****   HAL_GPIO_Init(GPIOA, &GPIO_InitStruct);
 185              		.loc 1 84 3 is_stmt 1 view .LVU53
 186 00ca 04A9     		add	r1, sp, #16
 187 00cc 4846     		mov	r0, r9
 188 00ce FFF7FEFF 		bl	HAL_GPIO_Init
 189              	.LVL6:
  85:Core/Src/gpio.c **** 
  86:Core/Src/gpio.c ****   /*Configure GPIO pin : PtPin */
  87:Core/Src/gpio.c ****   GPIO_InitStruct.Pin = SPI1_CS_Pin;
 190              		.loc 1 87 3 view .LVU54
 191              		.loc 1 87 23 is_stmt 0 view .LVU55
 192 00d2 1023     		movs	r3, #16
 193 00d4 0493     		str	r3, [sp, #16]
  88:Core/Src/gpio.c ****   GPIO_InitStruct.Mode = GPIO_MODE_OUTPUT_PP;
 194              		.loc 1 88 3 is_stmt 1 view .LVU56
 195              		.loc 1 88 24 is_stmt 0 view .LVU57
 196 00d6 0595     		str	r5, [sp, #20]
  89:Core/Src/gpio.c ****   GPIO_InitStruct.Pull = GPIO_PULLUP;
 197              		.loc 1 89 3 is_stmt 1 view .LVU58
ARM GAS  C:\Users\Vento\AppData\Local\Temp\cc5Aqf3b.s 			page 6


 198              		.loc 1 89 24 is_stmt 0 view .LVU59
 199 00d8 0695     		str	r5, [sp, #24]
  90:Core/Src/gpio.c ****   GPIO_InitStruct.Speed = GPIO_SPEED_FREQ_LOW;
 200              		.loc 1 90 3 is_stmt 1 view .LVU60
 201              		.loc 1 90 25 is_stmt 0 view .LVU61
 202 00da CDF81C80 		str	r8, [sp, #28]
  91:Core/Src/gpio.c ****   HAL_GPIO_Init(SPI1_CS_GPIO_Port, &GPIO_InitStruct);
 203              		.loc 1 91 3 is_stmt 1 view .LVU62
 204 00de 0DEB0301 		add	r1, sp, r3
 205 00e2 4846     		mov	r0, r9
 206 00e4 FFF7FEFF 		bl	HAL_GPIO_Init
 207              	.LVL7:
  92:Core/Src/gpio.c **** 
  93:Core/Src/gpio.c ****   /*Configure GPIO pin : PtPin */
  94:Core/Src/gpio.c ****   GPIO_InitStruct.Pin = LoRa_RST_Pin;
 208              		.loc 1 94 3 view .LVU63
 209              		.loc 1 94 23 is_stmt 0 view .LVU64
 210 00e8 0495     		str	r5, [sp, #16]
  95:Core/Src/gpio.c ****   GPIO_InitStruct.Mode = GPIO_MODE_OUTPUT_PP;
 211              		.loc 1 95 3 is_stmt 1 view .LVU65
 212              		.loc 1 95 24 is_stmt 0 view .LVU66
 213 00ea 0595     		str	r5, [sp, #20]
  96:Core/Src/gpio.c ****   GPIO_InitStruct.Pull = GPIO_NOPULL;
 214              		.loc 1 96 3 is_stmt 1 view .LVU67
 215              		.loc 1 96 24 is_stmt 0 view .LVU68
 216 00ec 0694     		str	r4, [sp, #24]
  97:Core/Src/gpio.c ****   GPIO_InitStruct.Speed = GPIO_SPEED_FREQ_LOW;
 217              		.loc 1 97 3 is_stmt 1 view .LVU69
 218              		.loc 1 97 25 is_stmt 0 view .LVU70
 219 00ee CDF81C80 		str	r8, [sp, #28]
  98:Core/Src/gpio.c ****   HAL_GPIO_Init(LoRa_RST_GPIO_Port, &GPIO_InitStruct);
 220              		.loc 1 98 3 is_stmt 1 view .LVU71
 221 00f2 04A9     		add	r1, sp, #16
 222 00f4 3046     		mov	r0, r6
 223 00f6 FFF7FEFF 		bl	HAL_GPIO_Init
 224              	.LVL8:
  99:Core/Src/gpio.c **** 
 100:Core/Src/gpio.c ****   /*Configure GPIO pin : PtPin */
 101:Core/Src/gpio.c ****   GPIO_InitStruct.Pin = LoRa_EXT0_Pin;
 225              		.loc 1 101 3 view .LVU72
 226              		.loc 1 101 23 is_stmt 0 view .LVU73
 227 00fa CDF81080 		str	r8, [sp, #16]
 102:Core/Src/gpio.c ****   GPIO_InitStruct.Mode = GPIO_MODE_IT_RISING;
 228              		.loc 1 102 3 is_stmt 1 view .LVU74
 229              		.loc 1 102 24 is_stmt 0 view .LVU75
 230 00fe 2F4B     		ldr	r3, .L3+20
 231 0100 0593     		str	r3, [sp, #20]
 103:Core/Src/gpio.c ****   GPIO_InitStruct.Pull = GPIO_PULLDOWN;
 232              		.loc 1 103 3 is_stmt 1 view .LVU76
 233              		.loc 1 103 24 is_stmt 0 view .LVU77
 234 0102 CDF81880 		str	r8, [sp, #24]
 104:Core/Src/gpio.c ****   HAL_GPIO_Init(LoRa_EXT0_GPIO_Port, &GPIO_InitStruct);
 235              		.loc 1 104 3 is_stmt 1 view .LVU78
 236 0106 04A9     		add	r1, sp, #16
 237 0108 3046     		mov	r0, r6
 238 010a FFF7FEFF 		bl	HAL_GPIO_Init
 239              	.LVL9:
ARM GAS  C:\Users\Vento\AppData\Local\Temp\cc5Aqf3b.s 			page 7


 105:Core/Src/gpio.c **** 
 106:Core/Src/gpio.c ****   /*Configure GPIO pins : PBPin PBPin PBPin PBPin
 107:Core/Src/gpio.c ****                            PBPin */
 108:Core/Src/gpio.c ****   GPIO_InitStruct.Pin = LoRa_EXT1_Pin|LoRa_EXT2_Pin|LoRa_EXT3_Pin|LoRa_EXT4_Pin
 240              		.loc 1 108 3 view .LVU79
 241              		.loc 1 108 23 is_stmt 0 view .LVU80
 242 010e 43F60443 		movw	r3, #15364
 243 0112 0493     		str	r3, [sp, #16]
 109:Core/Src/gpio.c ****                           |LoRa_EXT5_Pin;
 110:Core/Src/gpio.c ****   GPIO_InitStruct.Mode = GPIO_MODE_INPUT;
 244              		.loc 1 110 3 is_stmt 1 view .LVU81
 245              		.loc 1 110 24 is_stmt 0 view .LVU82
 246 0114 0594     		str	r4, [sp, #20]
 111:Core/Src/gpio.c ****   GPIO_InitStruct.Pull = GPIO_NOPULL;
 247              		.loc 1 111 3 is_stmt 1 view .LVU83
 248              		.loc 1 111 24 is_stmt 0 view .LVU84
 249 0116 0694     		str	r4, [sp, #24]
 112:Core/Src/gpio.c ****   HAL_GPIO_Init(GPIOB, &GPIO_InitStruct);
 250              		.loc 1 112 3 is_stmt 1 view .LVU85
 251 0118 04A9     		add	r1, sp, #16
 252 011a 3046     		mov	r0, r6
 253 011c FFF7FEFF 		bl	HAL_GPIO_Init
 254              	.LVL10:
 113:Core/Src/gpio.c **** 
 114:Core/Src/gpio.c ****   /*Configure GPIO pin : PtPin */
 115:Core/Src/gpio.c ****   GPIO_InitStruct.Pin = PWR_CTRL_Pin;
 255              		.loc 1 115 3 view .LVU86
 256              		.loc 1 115 23 is_stmt 0 view .LVU87
 257 0120 4FF48043 		mov	r3, #16384
 258 0124 0493     		str	r3, [sp, #16]
 116:Core/Src/gpio.c ****   GPIO_InitStruct.Mode = GPIO_MODE_OUTPUT_PP;
 259              		.loc 1 116 3 is_stmt 1 view .LVU88
 260              		.loc 1 116 24 is_stmt 0 view .LVU89
 261 0126 0595     		str	r5, [sp, #20]
 117:Core/Src/gpio.c ****   GPIO_InitStruct.Pull = GPIO_NOPULL;
 262              		.loc 1 117 3 is_stmt 1 view .LVU90
 263              		.loc 1 117 24 is_stmt 0 view .LVU91
 264 0128 0694     		str	r4, [sp, #24]
 118:Core/Src/gpio.c ****   GPIO_InitStruct.Speed = GPIO_SPEED_FREQ_MEDIUM;
 265              		.loc 1 118 3 is_stmt 1 view .LVU92
 266              		.loc 1 118 25 is_stmt 0 view .LVU93
 267 012a 0795     		str	r5, [sp, #28]
 119:Core/Src/gpio.c ****   HAL_GPIO_Init(PWR_CTRL_GPIO_Port, &GPIO_InitStruct);
 268              		.loc 1 119 3 is_stmt 1 view .LVU94
 269 012c 04A9     		add	r1, sp, #16
 270 012e 3046     		mov	r0, r6
 271 0130 FFF7FEFF 		bl	HAL_GPIO_Init
 272              	.LVL11:
 120:Core/Src/gpio.c **** 
 121:Core/Src/gpio.c ****   /*Configure GPIO pin : PtPin */
 122:Core/Src/gpio.c ****   GPIO_InitStruct.Pin = RE_Pin;
 273              		.loc 1 122 3 view .LVU95
 274              		.loc 1 122 23 is_stmt 0 view .LVU96
 275 0134 4FF4004A 		mov	r10, #32768
 276 0138 CDF810A0 		str	r10, [sp, #16]
 123:Core/Src/gpio.c ****   GPIO_InitStruct.Mode = GPIO_MODE_OUTPUT_PP;
 277              		.loc 1 123 3 is_stmt 1 view .LVU97
ARM GAS  C:\Users\Vento\AppData\Local\Temp\cc5Aqf3b.s 			page 8


 278              		.loc 1 123 24 is_stmt 0 view .LVU98
 279 013c 0595     		str	r5, [sp, #20]
 124:Core/Src/gpio.c ****   GPIO_InitStruct.Pull = GPIO_PULLUP;
 280              		.loc 1 124 3 is_stmt 1 view .LVU99
 281              		.loc 1 124 24 is_stmt 0 view .LVU100
 282 013e 0695     		str	r5, [sp, #24]
 125:Core/Src/gpio.c ****   GPIO_InitStruct.Speed = GPIO_SPEED_FREQ_HIGH;
 283              		.loc 1 125 3 is_stmt 1 view .LVU101
 284              		.loc 1 125 25 is_stmt 0 view .LVU102
 285 0140 0797     		str	r7, [sp, #28]
 126:Core/Src/gpio.c ****   HAL_GPIO_Init(RE_GPIO_Port, &GPIO_InitStruct);
 286              		.loc 1 126 3 is_stmt 1 view .LVU103
 287 0142 04A9     		add	r1, sp, #16
 288 0144 3046     		mov	r0, r6
 289 0146 FFF7FEFF 		bl	HAL_GPIO_Init
 290              	.LVL12:
 127:Core/Src/gpio.c **** 
 128:Core/Src/gpio.c ****   /*Configure GPIO pin : PtPin */
 129:Core/Src/gpio.c ****   GPIO_InitStruct.Pin = DE_Pin;
 291              		.loc 1 129 3 view .LVU104
 292              		.loc 1 129 23 is_stmt 0 view .LVU105
 293 014a 4FF48073 		mov	r3, #256
 294 014e 0493     		str	r3, [sp, #16]
 130:Core/Src/gpio.c ****   GPIO_InitStruct.Mode = GPIO_MODE_OUTPUT_PP;
 295              		.loc 1 130 3 is_stmt 1 view .LVU106
 296              		.loc 1 130 24 is_stmt 0 view .LVU107
 297 0150 0595     		str	r5, [sp, #20]
 131:Core/Src/gpio.c ****   GPIO_InitStruct.Pull = GPIO_PULLUP;
 298              		.loc 1 131 3 is_stmt 1 view .LVU108
 299              		.loc 1 131 24 is_stmt 0 view .LVU109
 300 0152 0695     		str	r5, [sp, #24]
 132:Core/Src/gpio.c ****   GPIO_InitStruct.Speed = GPIO_SPEED_FREQ_HIGH;
 301              		.loc 1 132 3 is_stmt 1 view .LVU110
 302              		.loc 1 132 25 is_stmt 0 view .LVU111
 303 0154 0797     		str	r7, [sp, #28]
 133:Core/Src/gpio.c ****   HAL_GPIO_Init(DE_GPIO_Port, &GPIO_InitStruct);
 304              		.loc 1 133 3 is_stmt 1 view .LVU112
 305 0156 04A9     		add	r1, sp, #16
 306 0158 4846     		mov	r0, r9
 307 015a FFF7FEFF 		bl	HAL_GPIO_Init
 308              	.LVL13:
 134:Core/Src/gpio.c **** 
 135:Core/Src/gpio.c ****   /*Configure GPIO pin : PtPin */
 136:Core/Src/gpio.c ****   GPIO_InitStruct.Pin = LED1_Pin;
 309              		.loc 1 136 3 view .LVU113
 310              		.loc 1 136 23 is_stmt 0 view .LVU114
 311 015e CDF810A0 		str	r10, [sp, #16]
 137:Core/Src/gpio.c ****   GPIO_InitStruct.Mode = GPIO_MODE_OUTPUT_PP;
 312              		.loc 1 137 3 is_stmt 1 view .LVU115
 313              		.loc 1 137 24 is_stmt 0 view .LVU116
 314 0162 0595     		str	r5, [sp, #20]
 138:Core/Src/gpio.c ****   GPIO_InitStruct.Pull = GPIO_NOPULL;
 315              		.loc 1 138 3 is_stmt 1 view .LVU117
 316              		.loc 1 138 24 is_stmt 0 view .LVU118
 317 0164 0694     		str	r4, [sp, #24]
 139:Core/Src/gpio.c ****   GPIO_InitStruct.Speed = GPIO_SPEED_FREQ_LOW;
 318              		.loc 1 139 3 is_stmt 1 view .LVU119
ARM GAS  C:\Users\Vento\AppData\Local\Temp\cc5Aqf3b.s 			page 9


 319              		.loc 1 139 25 is_stmt 0 view .LVU120
 320 0166 CDF81C80 		str	r8, [sp, #28]
 140:Core/Src/gpio.c ****   HAL_GPIO_Init(LED1_GPIO_Port, &GPIO_InitStruct);
 321              		.loc 1 140 3 is_stmt 1 view .LVU121
 322 016a 04A9     		add	r1, sp, #16
 323 016c 4846     		mov	r0, r9
 324 016e FFF7FEFF 		bl	HAL_GPIO_Init
 325              	.LVL14:
 141:Core/Src/gpio.c **** 
 142:Core/Src/gpio.c ****   /*Configure GPIO pins : PB3 PB4 PB5 PB8
 143:Core/Src/gpio.c ****                            PB9 */
 144:Core/Src/gpio.c ****   GPIO_InitStruct.Pin = GPIO_PIN_3|GPIO_PIN_4|GPIO_PIN_5|GPIO_PIN_8
 326              		.loc 1 144 3 view .LVU122
 327              		.loc 1 144 23 is_stmt 0 view .LVU123
 328 0172 4FF44E73 		mov	r3, #824
 329 0176 0493     		str	r3, [sp, #16]
 145:Core/Src/gpio.c ****                           |GPIO_PIN_9;
 146:Core/Src/gpio.c ****   GPIO_InitStruct.Mode = GPIO_MODE_ANALOG;
 330              		.loc 1 146 3 is_stmt 1 view .LVU124
 331              		.loc 1 146 24 is_stmt 0 view .LVU125
 332 0178 0597     		str	r7, [sp, #20]
 147:Core/Src/gpio.c ****   HAL_GPIO_Init(GPIOB, &GPIO_InitStruct);
 333              		.loc 1 147 3 is_stmt 1 view .LVU126
 334 017a 04A9     		add	r1, sp, #16
 335 017c 3046     		mov	r0, r6
 336 017e FFF7FEFF 		bl	HAL_GPIO_Init
 337              	.LVL15:
 148:Core/Src/gpio.c **** 
 149:Core/Src/gpio.c ****   /*Configure peripheral I/O remapping */
 150:Core/Src/gpio.c ****   __HAL_AFIO_REMAP_PD01_ENABLE();
 338              		.loc 1 150 3 view .LVU127
 339              	.LBB6:
 340              		.loc 1 150 3 view .LVU128
 341 0182 0F4A     		ldr	r2, .L3+24
 342 0184 5368     		ldr	r3, [r2, #4]
 343              	.LVL16:
 344              		.loc 1 150 3 view .LVU129
 345              		.loc 1 150 3 view .LVU130
 346 0186 43F0E063 		orr	r3, r3, #117440512
 347              	.LVL17:
 348              		.loc 1 150 3 is_stmt 0 view .LVU131
 349 018a 43EA0A03 		orr	r3, r3, r10
 350              	.LVL18:
 351              		.loc 1 150 3 is_stmt 1 view .LVU132
 352 018e 5360     		str	r3, [r2, #4]
 353              	.LBE6:
 354              		.loc 1 150 3 view .LVU133
 151:Core/Src/gpio.c **** 
 152:Core/Src/gpio.c ****   /* EXTI interrupt init*/
 153:Core/Src/gpio.c ****   HAL_NVIC_SetPriority(EXTI1_IRQn, 0, 0);
 355              		.loc 1 153 3 view .LVU134
 356 0190 2246     		mov	r2, r4
 357 0192 2146     		mov	r1, r4
 358 0194 0720     		movs	r0, #7
 359 0196 FFF7FEFF 		bl	HAL_NVIC_SetPriority
 360              	.LVL19:
 154:Core/Src/gpio.c ****   HAL_NVIC_EnableIRQ(EXTI1_IRQn);
ARM GAS  C:\Users\Vento\AppData\Local\Temp\cc5Aqf3b.s 			page 10


 361              		.loc 1 154 3 view .LVU135
 362 019a 0720     		movs	r0, #7
 363 019c FFF7FEFF 		bl	HAL_NVIC_EnableIRQ
 364              	.LVL20:
 155:Core/Src/gpio.c **** 
 156:Core/Src/gpio.c **** }
 365              		.loc 1 156 1 is_stmt 0 view .LVU136
 366 01a0 08B0     		add	sp, sp, #32
 367              	.LCFI2:
 368              		.cfi_def_cfa_offset 32
 369              		@ sp needed
 370 01a2 BDE8F087 		pop	{r4, r5, r6, r7, r8, r9, r10, pc}
 371              	.L4:
 372 01a6 00BF     		.align	2
 373              	.L3:
 374 01a8 00100240 		.word	1073876992
 375 01ac 00100140 		.word	1073811456
 376 01b0 00080140 		.word	1073809408
 377 01b4 000C0140 		.word	1073810432
 378 01b8 00140140 		.word	1073812480
 379 01bc 00001110 		.word	269549568
 380 01c0 00000140 		.word	1073807360
 381              		.cfi_endproc
 382              	.LFE65:
 384              		.section	.text.GPIO_USB_INIT,"ax",%progbits
 385              		.align	1
 386              		.global	GPIO_USB_INIT
 387              		.syntax unified
 388              		.thumb
 389              		.thumb_func
 390              		.fpu softvfp
 392              	GPIO_USB_INIT:
 393              	.LFB66:
 157:Core/Src/gpio.c **** 
 158:Core/Src/gpio.c **** /* USER CODE BEGIN 2 */
 159:Core/Src/gpio.c **** 
 160:Core/Src/gpio.c **** void GPIO_USB_INIT(void)
 161:Core/Src/gpio.c **** {
 394              		.loc 1 161 1 is_stmt 1 view -0
 395              		.cfi_startproc
 396              		@ args = 0, pretend = 0, frame = 24
 397              		@ frame_needed = 0, uses_anonymous_args = 0
 398 0000 70B5     		push	{r4, r5, r6, lr}
 399              	.LCFI3:
 400              		.cfi_def_cfa_offset 16
 401              		.cfi_offset 4, -16
 402              		.cfi_offset 5, -12
 403              		.cfi_offset 6, -8
 404              		.cfi_offset 14, -4
 405 0002 86B0     		sub	sp, sp, #24
 406              	.LCFI4:
 407              		.cfi_def_cfa_offset 40
 162:Core/Src/gpio.c **** 
 163:Core/Src/gpio.c ****   GPIO_InitTypeDef GPIO_InitStruct = {0};
 408              		.loc 1 163 3 view .LVU138
 409              		.loc 1 163 20 is_stmt 0 view .LVU139
 410 0004 0024     		movs	r4, #0
ARM GAS  C:\Users\Vento\AppData\Local\Temp\cc5Aqf3b.s 			page 11


 411 0006 0294     		str	r4, [sp, #8]
 412 0008 0394     		str	r4, [sp, #12]
 413 000a 0494     		str	r4, [sp, #16]
 414 000c 0594     		str	r4, [sp, #20]
 164:Core/Src/gpio.c **** 
 165:Core/Src/gpio.c ****   __HAL_RCC_GPIOA_CLK_ENABLE();
 415              		.loc 1 165 3 is_stmt 1 view .LVU140
 416              	.LBB7:
 417              		.loc 1 165 3 view .LVU141
 418              		.loc 1 165 3 view .LVU142
 419 000e 154B     		ldr	r3, .L7
 420 0010 9A69     		ldr	r2, [r3, #24]
 421 0012 42F00402 		orr	r2, r2, #4
 422 0016 9A61     		str	r2, [r3, #24]
 423              		.loc 1 165 3 view .LVU143
 424 0018 9B69     		ldr	r3, [r3, #24]
 425 001a 03F00403 		and	r3, r3, #4
 426 001e 0193     		str	r3, [sp, #4]
 427              		.loc 1 165 3 view .LVU144
 428 0020 019B     		ldr	r3, [sp, #4]
 429              	.LBE7:
 430              		.loc 1 165 3 view .LVU145
 166:Core/Src/gpio.c **** 
 167:Core/Src/gpio.c ****   HAL_GPIO_WritePin(GPIOA, GPIO_PIN_12, GPIO_PIN_RESET);
 431              		.loc 1 167 3 view .LVU146
 432 0022 114D     		ldr	r5, .L7+4
 433 0024 2246     		mov	r2, r4
 434 0026 4FF48051 		mov	r1, #4096
 435 002a 2846     		mov	r0, r5
 436 002c FFF7FEFF 		bl	HAL_GPIO_WritePin
 437              	.LVL21:
 168:Core/Src/gpio.c **** 
 169:Core/Src/gpio.c ****   GPIO_InitStruct.Pin = GPIO_PIN_12;
 438              		.loc 1 169 3 view .LVU147
 439              		.loc 1 169 23 is_stmt 0 view .LVU148
 440 0030 4FF48056 		mov	r6, #4096
 441 0034 0296     		str	r6, [sp, #8]
 170:Core/Src/gpio.c ****   GPIO_InitStruct.Mode = GPIO_MODE_OUTPUT_PP;
 442              		.loc 1 170 3 is_stmt 1 view .LVU149
 443              		.loc 1 170 24 is_stmt 0 view .LVU150
 444 0036 0123     		movs	r3, #1
 445 0038 0393     		str	r3, [sp, #12]
 171:Core/Src/gpio.c ****   GPIO_InitStruct.Pull = GPIO_NOPULL;
 446              		.loc 1 171 3 is_stmt 1 view .LVU151
 447              		.loc 1 171 24 is_stmt 0 view .LVU152
 448 003a 0494     		str	r4, [sp, #16]
 172:Core/Src/gpio.c ****   GPIO_InitStruct.Speed = GPIO_SPEED_FREQ_HIGH;
 449              		.loc 1 172 3 is_stmt 1 view .LVU153
 450              		.loc 1 172 25 is_stmt 0 view .LVU154
 451 003c 0323     		movs	r3, #3
 452 003e 0593     		str	r3, [sp, #20]
 173:Core/Src/gpio.c ****   HAL_GPIO_Init(GPIOA, &GPIO_InitStruct);
 453              		.loc 1 173 3 is_stmt 1 view .LVU155
 454 0040 02A9     		add	r1, sp, #8
 455 0042 2846     		mov	r0, r5
 456 0044 FFF7FEFF 		bl	HAL_GPIO_Init
 457              	.LVL22:
ARM GAS  C:\Users\Vento\AppData\Local\Temp\cc5Aqf3b.s 			page 12


 174:Core/Src/gpio.c **** 
 175:Core/Src/gpio.c ****   HAL_GPIO_WritePin(GPIOA, GPIO_PIN_12, GPIO_PIN_RESET);
 458              		.loc 1 175 3 view .LVU156
 459 0048 2246     		mov	r2, r4
 460 004a 3146     		mov	r1, r6
 461 004c 2846     		mov	r0, r5
 462 004e FFF7FEFF 		bl	HAL_GPIO_WritePin
 463              	.LVL23:
 176:Core/Src/gpio.c ****   HAL_Delay(50);
 464              		.loc 1 176 3 view .LVU157
 465 0052 3220     		movs	r0, #50
 466 0054 FFF7FEFF 		bl	HAL_Delay
 467              	.LVL24:
 177:Core/Src/gpio.c **** 
 178:Core/Src/gpio.c ****   HAL_GPIO_DeInit(GPIOA, GPIO_PIN_12);
 468              		.loc 1 178 3 view .LVU158
 469 0058 3146     		mov	r1, r6
 470 005a 2846     		mov	r0, r5
 471 005c FFF7FEFF 		bl	HAL_GPIO_DeInit
 472              	.LVL25:
 179:Core/Src/gpio.c **** }
 473              		.loc 1 179 1 is_stmt 0 view .LVU159
 474 0060 06B0     		add	sp, sp, #24
 475              	.LCFI5:
 476              		.cfi_def_cfa_offset 16
 477              		@ sp needed
 478 0062 70BD     		pop	{r4, r5, r6, pc}
 479              	.L8:
 480              		.align	2
 481              	.L7:
 482 0064 00100240 		.word	1073876992
 483 0068 00080140 		.word	1073809408
 484              		.cfi_endproc
 485              	.LFE66:
 487              		.section	.text.GPIO_USB_DEINIT,"ax",%progbits
 488              		.align	1
 489              		.global	GPIO_USB_DEINIT
 490              		.syntax unified
 491              		.thumb
 492              		.thumb_func
 493              		.fpu softvfp
 495              	GPIO_USB_DEINIT:
 496              	.LFB67:
 180:Core/Src/gpio.c **** 
 181:Core/Src/gpio.c **** void GPIO_USB_DEINIT(void)
 182:Core/Src/gpio.c **** {
 497              		.loc 1 182 1 is_stmt 1 view -0
 498              		.cfi_startproc
 499              		@ args = 0, pretend = 0, frame = 24
 500              		@ frame_needed = 0, uses_anonymous_args = 0
 501 0000 70B5     		push	{r4, r5, r6, lr}
 502              	.LCFI6:
 503              		.cfi_def_cfa_offset 16
 504              		.cfi_offset 4, -16
 505              		.cfi_offset 5, -12
 506              		.cfi_offset 6, -8
 507              		.cfi_offset 14, -4
ARM GAS  C:\Users\Vento\AppData\Local\Temp\cc5Aqf3b.s 			page 13


 508 0002 86B0     		sub	sp, sp, #24
 509              	.LCFI7:
 510              		.cfi_def_cfa_offset 40
 183:Core/Src/gpio.c ****   GPIO_InitTypeDef GPIO_InitStruct = {0};
 511              		.loc 1 183 3 view .LVU161
 512              		.loc 1 183 20 is_stmt 0 view .LVU162
 513 0004 0024     		movs	r4, #0
 514 0006 0294     		str	r4, [sp, #8]
 515 0008 0394     		str	r4, [sp, #12]
 516 000a 0494     		str	r4, [sp, #16]
 517 000c 0594     		str	r4, [sp, #20]
 184:Core/Src/gpio.c **** 
 185:Core/Src/gpio.c ****   __HAL_RCC_GPIOA_CLK_ENABLE();
 518              		.loc 1 185 3 is_stmt 1 view .LVU163
 519              	.LBB8:
 520              		.loc 1 185 3 view .LVU164
 521              		.loc 1 185 3 view .LVU165
 522 000e 134B     		ldr	r3, .L11
 523 0010 9A69     		ldr	r2, [r3, #24]
 524 0012 42F00402 		orr	r2, r2, #4
 525 0016 9A61     		str	r2, [r3, #24]
 526              		.loc 1 185 3 view .LVU166
 527 0018 9B69     		ldr	r3, [r3, #24]
 528 001a 03F00403 		and	r3, r3, #4
 529 001e 0193     		str	r3, [sp, #4]
 530              		.loc 1 185 3 view .LVU167
 531 0020 019B     		ldr	r3, [sp, #4]
 532              	.LBE8:
 533              		.loc 1 185 3 view .LVU168
 186:Core/Src/gpio.c **** 
 187:Core/Src/gpio.c ****   HAL_GPIO_WritePin(GPIOA, GPIO_PIN_12, GPIO_PIN_RESET);
 534              		.loc 1 187 3 view .LVU169
 535 0022 0F4D     		ldr	r5, .L11+4
 536 0024 2246     		mov	r2, r4
 537 0026 4FF48051 		mov	r1, #4096
 538 002a 2846     		mov	r0, r5
 539 002c FFF7FEFF 		bl	HAL_GPIO_WritePin
 540              	.LVL26:
 188:Core/Src/gpio.c **** 
 189:Core/Src/gpio.c ****   GPIO_InitStruct.Pin = GPIO_PIN_12;
 541              		.loc 1 189 3 view .LVU170
 542              		.loc 1 189 23 is_stmt 0 view .LVU171
 543 0030 4FF48056 		mov	r6, #4096
 544 0034 0296     		str	r6, [sp, #8]
 190:Core/Src/gpio.c ****   GPIO_InitStruct.Mode = GPIO_MODE_OUTPUT_PP;
 545              		.loc 1 190 3 is_stmt 1 view .LVU172
 546              		.loc 1 190 24 is_stmt 0 view .LVU173
 547 0036 0123     		movs	r3, #1
 548 0038 0393     		str	r3, [sp, #12]
 191:Core/Src/gpio.c ****   GPIO_InitStruct.Pull = GPIO_NOPULL;
 549              		.loc 1 191 3 is_stmt 1 view .LVU174
 550              		.loc 1 191 24 is_stmt 0 view .LVU175
 551 003a 0494     		str	r4, [sp, #16]
 192:Core/Src/gpio.c ****   GPIO_InitStruct.Speed = GPIO_SPEED_FREQ_HIGH;
 552              		.loc 1 192 3 is_stmt 1 view .LVU176
 553              		.loc 1 192 25 is_stmt 0 view .LVU177
 554 003c 0323     		movs	r3, #3
ARM GAS  C:\Users\Vento\AppData\Local\Temp\cc5Aqf3b.s 			page 14


 555 003e 0593     		str	r3, [sp, #20]
 193:Core/Src/gpio.c ****   HAL_GPIO_Init(GPIOA, &GPIO_InitStruct);
 556              		.loc 1 193 3 is_stmt 1 view .LVU178
 557 0040 02A9     		add	r1, sp, #8
 558 0042 2846     		mov	r0, r5
 559 0044 FFF7FEFF 		bl	HAL_GPIO_Init
 560              	.LVL27:
 194:Core/Src/gpio.c **** 
 195:Core/Src/gpio.c ****   HAL_GPIO_WritePin(GPIOA, GPIO_PIN_12, GPIO_PIN_RESET);
 561              		.loc 1 195 3 view .LVU179
 562 0048 2246     		mov	r2, r4
 563 004a 3146     		mov	r1, r6
 564 004c 2846     		mov	r0, r5
 565 004e FFF7FEFF 		bl	HAL_GPIO_WritePin
 566              	.LVL28:
 196:Core/Src/gpio.c ****   HAL_Delay(50);
 567              		.loc 1 196 3 view .LVU180
 568 0052 3220     		movs	r0, #50
 569 0054 FFF7FEFF 		bl	HAL_Delay
 570              	.LVL29:
 197:Core/Src/gpio.c **** }
 571              		.loc 1 197 1 is_stmt 0 view .LVU181
 572 0058 06B0     		add	sp, sp, #24
 573              	.LCFI8:
 574              		.cfi_def_cfa_offset 16
 575              		@ sp needed
 576 005a 70BD     		pop	{r4, r5, r6, pc}
 577              	.L12:
 578              		.align	2
 579              	.L11:
 580 005c 00100240 		.word	1073876992
 581 0060 00080140 		.word	1073809408
 582              		.cfi_endproc
 583              	.LFE67:
 585              		.text
 586              	.Letext0:
 587              		.file 2 "d:\\tools\\gcc-arm-none-eabi-10.3-2021.07\\arm-none-eabi\\include\\machine\\_default_type
 588              		.file 3 "d:\\tools\\gcc-arm-none-eabi-10.3-2021.07\\arm-none-eabi\\include\\sys\\_stdint.h"
 589              		.file 4 "Drivers/CMSIS/Device/ST/STM32F1xx/Include/stm32f103xb.h"
 590              		.file 5 "Drivers/STM32F1xx_HAL_Driver/Inc/stm32f1xx_hal_gpio.h"
 591              		.file 6 "Drivers/STM32F1xx_HAL_Driver/Inc/stm32f1xx_hal.h"
 592              		.file 7 "Drivers/STM32F1xx_HAL_Driver/Inc/stm32f1xx_hal_cortex.h"
ARM GAS  C:\Users\Vento\AppData\Local\Temp\cc5Aqf3b.s 			page 15

