ARM GAS  C:\Users\Vento\AppData\Local\Temp\ccdqD43g.s 			page 1


   1              		.cpu cortex-m3
   2              		.eabi_attribute 20, 1
   3              		.eabi_attribute 21, 1
   4              		.eabi_attribute 23, 3
   5              		.eabi_attribute 24, 1
   6              		.eabi_attribute 25, 1
   7              		.eabi_attribute 26, 1
   8              		.eabi_attribute 30, 1
   9              		.eabi_attribute 34, 1
  10              		.eabi_attribute 18, 4
  11              		.file	"main.c"
  12              		.text
  13              	.Ltext0:
  14              		.cfi_sections	.debug_frame
  15              		.section	.text.CRC16,"ax",%progbits
  16              		.align	1
  17              		.global	CRC16
  18              		.arch armv7-m
  19              		.syntax unified
  20              		.thumb
  21              		.thumb_func
  22              		.fpu softvfp
  24              	CRC16:
  25              	.LVL0:
  26              	.LFB70:
  27              		.file 1 "Core/Src/main.c"
   1:Core/Src/main.c **** /* USER CODE BEGIN Header */
   2:Core/Src/main.c **** /**
   3:Core/Src/main.c ****  ******************************************************************************
   4:Core/Src/main.c ****  * @file           : main.c
   5:Core/Src/main.c ****  * @brief          : Main program body
   6:Core/Src/main.c ****  ******************************************************************************
   7:Core/Src/main.c ****  * @attention
   8:Core/Src/main.c ****  *
   9:Core/Src/main.c ****  * Copyright (c) 2023 STMicroelectronics.
  10:Core/Src/main.c ****  * All rights reserved.
  11:Core/Src/main.c ****  *
  12:Core/Src/main.c ****  * This software is licensed under terms that can be found in the LICENSE file
  13:Core/Src/main.c ****  * in the root directory of this software component.
  14:Core/Src/main.c ****  * If no LICENSE file comes with this software, it is provided AS-IS.
  15:Core/Src/main.c ****  *
  16:Core/Src/main.c ****  ******************************************************************************
  17:Core/Src/main.c ****  */
  18:Core/Src/main.c **** /* USER CODE END Header */
  19:Core/Src/main.c **** /* Includes ------------------------------------------------------------------*/
  20:Core/Src/main.c **** #include "main.h"
  21:Core/Src/main.c **** #include "adc.h"
  22:Core/Src/main.c **** #include "i2c.h"
  23:Core/Src/main.c **** #include "rtc.h"
  24:Core/Src/main.c **** #include "spi.h"
  25:Core/Src/main.c **** #include "usart.h"
  26:Core/Src/main.c **** #include "gpio.h"
  27:Core/Src/main.c **** 
  28:Core/Src/main.c **** /* Private includes ----------------------------------------------------------*/
  29:Core/Src/main.c **** /* USER CODE BEGIN Includes */
  30:Core/Src/main.c **** 
  31:Core/Src/main.c **** #include "stdio.h"
ARM GAS  C:\Users\Vento\AppData\Local\Temp\ccdqD43g.s 			page 2


  32:Core/Src/main.c **** #include "stdbool.h"
  33:Core/Src/main.c **** #include "stdlib.h"
  34:Core/Src/main.c **** #include "common.h"
  35:Core/Src/main.c **** #include "sx1278.h"
  36:Core/Src/main.c **** #include "string.h"
  37:Core/Src/main.c **** #include "flash.h"
  38:Core/Src/main.c **** 
  39:Core/Src/main.c **** /* USER CODE END Includes */
  40:Core/Src/main.c **** 
  41:Core/Src/main.c **** /* Private typedef -----------------------------------------------------------*/
  42:Core/Src/main.c **** /* USER CODE BEGIN PTD */
  43:Core/Src/main.c **** 
  44:Core/Src/main.c **** typedef struct LoRa_Link_Struct
  45:Core/Src/main.c **** {
  46:Core/Src/main.c ****   uint16_t Node_ID;
  47:Core/Src/main.c ****   uint16_t Node_Status;
  48:Core/Src/main.c ****   uint16_t Node_Battery_Voltage;
  49:Core/Src/main.c ****   uint16_t Node_Period;
  50:Core/Src/main.c **** } Link_Struct_t;
  51:Core/Src/main.c **** 
  52:Core/Src/main.c **** typedef struct LoRa_Data_Struct
  53:Core/Src/main.c **** {
  54:Core/Src/main.c ****   Link_Struct_t Link;
  55:Core/Src/main.c ****   uint16_t Node_Soil_Temperature;
  56:Core/Src/main.c ****   uint16_t Node_Air_Temperature;
  57:Core/Src/main.c ****   uint16_t Node_Soil_Humidity;
  58:Core/Src/main.c ****   uint16_t Node_Air_Humidity;
  59:Core/Src/main.c ****   uint16_t Node_Salinity;
  60:Core/Src/main.c ****   uint16_t Node_Conductivity;
  61:Core/Src/main.c ****   uint16_t Node_pH;
  62:Core/Src/main.c ****   uint16_t Node_N;
  63:Core/Src/main.c ****   uint16_t Node_P;
  64:Core/Src/main.c ****   uint16_t Node_K;
  65:Core/Src/main.c **** } Data_Struct_t;
  66:Core/Src/main.c **** 
  67:Core/Src/main.c **** typedef struct LoRa_Packet_ID_0
  68:Core/Src/main.c **** {
  69:Core/Src/main.c ****   uint16_t Packet_ID;
  70:Core/Src/main.c ****   Link_Struct_t Payload;
  71:Core/Src/main.c **** } Link_Packet_t;
  72:Core/Src/main.c **** 
  73:Core/Src/main.c **** typedef struct LoRa_Packet_ID_1
  74:Core/Src/main.c **** {
  75:Core/Src/main.c ****   uint16_t Packet_ID;
  76:Core/Src/main.c ****   Data_Struct_t Payload;
  77:Core/Src/main.c **** } Data_Packet_t;
  78:Core/Src/main.c **** 
  79:Core/Src/main.c **** typedef struct LoRa_Packet_ID_2
  80:Core/Src/main.c **** {
  81:Core/Src/main.c ****   uint16_t Packet_ID;
  82:Core/Src/main.c ****   uint16_t Target_Node_ID;
  83:Core/Src/main.c ****   uint16_t Target_Node_Status;
  84:Core/Src/main.c ****   uint16_t Target_Node_Period;
  85:Core/Src/main.c ****   uint16_t Target_Node_Response;
  86:Core/Src/main.c **** } ResponsePacket_t;
  87:Core/Src/main.c **** 
  88:Core/Src/main.c **** typedef struct SoilData
ARM GAS  C:\Users\Vento\AppData\Local\Temp\ccdqD43g.s 			page 3


  89:Core/Src/main.c **** {
  90:Core/Src/main.c ****   uint16_t rawTemperature;
  91:Core/Src/main.c ****   uint16_t rawHumidity;
  92:Core/Src/main.c ****   float Temperature;
  93:Core/Src/main.c ****   float Humidity;
  94:Core/Src/main.c **** 
  95:Core/Src/main.c ****   uint16_t Salinity;
  96:Core/Src/main.c ****   uint16_t Conductivity;
  97:Core/Src/main.c **** 
  98:Core/Src/main.c ****   uint16_t rawPH;
  99:Core/Src/main.c ****   float pH;
 100:Core/Src/main.c **** 
 101:Core/Src/main.c ****   uint16_t N;
 102:Core/Src/main.c ****   uint16_t P;
 103:Core/Src/main.c ****   uint16_t K;
 104:Core/Src/main.c **** } SoilData_t;
 105:Core/Src/main.c **** 
 106:Core/Src/main.c **** typedef enum NodeStatus
 107:Core/Src/main.c **** {
 108:Core/Src/main.c ****   WAKEUP_MODE = 1U,
 109:Core/Src/main.c ****   LINK_MODE = 2U,
 110:Core/Src/main.c ****   NORMAL_MODE = 4U,
 111:Core/Src/main.c ****   RETRY_MODE = 8U,
 112:Core/Src/main.c ****   SHUTDOWN_MODE = 16U
 113:Core/Src/main.c **** } NodeStatus_t;
 114:Core/Src/main.c **** 
 115:Core/Src/main.c **** /* USER CODE END PTD */
 116:Core/Src/main.c **** 
 117:Core/Src/main.c **** /* Private define ------------------------------------------------------------*/
 118:Core/Src/main.c **** /* USER CODE BEGIN PD */
 119:Core/Src/main.c **** 
 120:Core/Src/main.c **** // #define NODE_ID                     (0x3112U)
 121:Core/Src/main.c **** #define NODE_ID                     (0x1104U)
 122:Core/Src/main.c **** 
 123:Core/Src/main.c **** #define TIMEOUT_MS                  (50U)
 124:Core/Src/main.c **** #define LINK_PACKET_ID              (0xAAAAU)
 125:Core/Src/main.c **** #define DATA_PACKET_ID              (0x5A5AU)
 126:Core/Src/main.c **** #define RESPONSE_PACKET_ID          (0x5555U)
 127:Core/Src/main.c **** 
 128:Core/Src/main.c **** #define SLEEPTIME_NORMAL_MODE_MIN   (3U)
 129:Core/Src/main.c **** #define SLEEPTIME_LINK_MODE_MIN     (1U)
 130:Core/Src/main.c **** #define SLEEPTIME_RETRY_MODE_SEC    (15U)
 131:Core/Src/main.c **** 
 132:Core/Src/main.c **** #define READ_SENSORS_DURATION_MS    (5000U)
 133:Core/Src/main.c **** 
 134:Core/Src/main.c **** #define WAIT_RESPONSE_DURATION_MS   (2000U)
 135:Core/Src/main.c **** 
 136:Core/Src/main.c **** #define NODE_WAKEUP_BIT_SHIFT       (0U)
 137:Core/Src/main.c **** #define NODE_WAKEUP_BIT             (1U << NODE_WAKEUP_BIT_SHIFT)
 138:Core/Src/main.c **** #define NODE_LINK_MODE_BIT_SHIFT    (1U)
 139:Core/Src/main.c **** #define NODE_LINK_MODE_BIT          (1U << NODE_LINK_MODE_BIT_SHIFT)
 140:Core/Src/main.c **** #define NODE_NORMAL_MODE_BIT_SHIFT  (2U)
 141:Core/Src/main.c **** #define NODE_NORMAL_MODE_BIT        (1U << NODE_NORMAL_MODE_BIT_SHIFT)
 142:Core/Src/main.c **** #define NODE_RETRY_MODE_BIT_SHIFT   (3U)
 143:Core/Src/main.c **** #define NODE_RETRY_MODE_BIT         (1U << NODE_RETRY_MODE_BIT_SHIFT)
 144:Core/Src/main.c **** 
 145:Core/Src/main.c **** #define NODE_SHUTDOWN_MODE_BIT_SHIFT   (4U)
ARM GAS  C:\Users\Vento\AppData\Local\Temp\ccdqD43g.s 			page 4


 146:Core/Src/main.c **** #define NODE_SHUTDOWN_MODE_BIT         (1U << NODE_RETRY_MODE_BIT_SHIFT)
 147:Core/Src/main.c **** 
 148:Core/Src/main.c **** #define LINK_ACCEPT   (0xAAU)
 149:Core/Src/main.c **** #define LINK_REJECT   (0x55U)
 150:Core/Src/main.c **** 
 151:Core/Src/main.c **** #define LINK_CARRYON  (0x00U)
 152:Core/Src/main.c **** #define LINK_DISMISS  (0xFFU)
 153:Core/Src/main.c **** 
 154:Core/Src/main.c **** #define LINK_ACK      (0xABU)
 155:Core/Src/main.c **** #define LINK_NACK     (0xBAU)
 156:Core/Src/main.c **** 
 157:Core/Src/main.c **** #define SAVE_ADDR     (0x08013030U)
 158:Core/Src/main.c **** 
 159:Core/Src/main.c **** /* USER CODE END PD */
 160:Core/Src/main.c **** 
 161:Core/Src/main.c **** /* Private macro -------------------------------------------------------------*/
 162:Core/Src/main.c **** /* USER CODE BEGIN PM */
 163:Core/Src/main.c **** 
 164:Core/Src/main.c **** /* USER CODE END PM */
 165:Core/Src/main.c **** 
 166:Core/Src/main.c **** /* Private variables ---------------------------------------------------------*/
 167:Core/Src/main.c **** 
 168:Core/Src/main.c **** /* USER CODE BEGIN PV */
 169:Core/Src/main.c **** 
 170:Core/Src/main.c **** /* USER CODE END PV */
 171:Core/Src/main.c **** 
 172:Core/Src/main.c **** /* Private function prototypes -----------------------------------------------*/
 173:Core/Src/main.c **** void SystemClock_Config(void);
 174:Core/Src/main.c **** /* USER CODE BEGIN PFP */
 175:Core/Src/main.c **** 
 176:Core/Src/main.c **** bool readSensor(void);
 177:Core/Src/main.c **** 
 178:Core/Src/main.c **** uint16_t CRC16(unsigned char *buf, int len);
 179:Core/Src/main.c **** 
 180:Core/Src/main.c **** void goingDark(void);
 181:Core/Src/main.c **** void sleep4ever(void);
 182:Core/Src/main.c **** 
 183:Core/Src/main.c **** void Link_Mode_Handle(void);
 184:Core/Src/main.c **** void Normal_Mode_Handle(void);
 185:Core/Src/main.c **** void Retry_Mode_Handle(void);
 186:Core/Src/main.c **** 
 187:Core/Src/main.c **** void Response_Handle(void);
 188:Core/Src/main.c **** 
 189:Core/Src/main.c **** /* USER CODE END PFP */
 190:Core/Src/main.c **** 
 191:Core/Src/main.c **** /* Private user code ---------------------------------------------------------*/
 192:Core/Src/main.c **** /* USER CODE BEGIN 0 */
 193:Core/Src/main.c **** 
 194:Core/Src/main.c **** static SoilData_t mySoil;
 195:Core/Src/main.c **** static NodeStatus_t myStatus;
 196:Core/Src/main.c **** static uint32_t backupStorage = 0U;
 197:Core/Src/main.c **** static uint8_t payload[100] = {0};
 198:Core/Src/main.c **** static volatile bool is_LoRa_EXTI = false;
 199:Core/Src/main.c **** static uint8_t array2store[32] = {0};
 200:Core/Src/main.c **** 
 201:Core/Src/main.c **** /* USER CODE END 0 */
 202:Core/Src/main.c **** 
ARM GAS  C:\Users\Vento\AppData\Local\Temp\ccdqD43g.s 			page 5


 203:Core/Src/main.c **** /**
 204:Core/Src/main.c ****   * @brief  The application entry point.
 205:Core/Src/main.c ****   * @retval int
 206:Core/Src/main.c ****   */
 207:Core/Src/main.c **** int main(void)
 208:Core/Src/main.c **** {
 209:Core/Src/main.c ****   /* USER CODE BEGIN 1 */
 210:Core/Src/main.c **** 
 211:Core/Src/main.c ****   /* USER CODE END 1 */
 212:Core/Src/main.c **** 
 213:Core/Src/main.c ****   /* MCU Configuration--------------------------------------------------------*/
 214:Core/Src/main.c **** 
 215:Core/Src/main.c ****   /* Reset of all peripherals, Initializes the Flash interface and the Systick. */
 216:Core/Src/main.c ****   HAL_Init();
 217:Core/Src/main.c **** 
 218:Core/Src/main.c ****   /* USER CODE BEGIN Init */
 219:Core/Src/main.c ****   /* USER CODE END Init */
 220:Core/Src/main.c **** 
 221:Core/Src/main.c ****   /* Configure the system clock */
 222:Core/Src/main.c ****   SystemClock_Config();
 223:Core/Src/main.c **** 
 224:Core/Src/main.c ****   /* USER CODE BEGIN SysInit */
 225:Core/Src/main.c **** 
 226:Core/Src/main.c ****   /* USER CODE END SysInit */
 227:Core/Src/main.c **** 
 228:Core/Src/main.c ****   /* Initialize all configured peripherals */
 229:Core/Src/main.c ****   MX_GPIO_Init();
 230:Core/Src/main.c ****   MX_ADC1_Init();
 231:Core/Src/main.c ****   MX_I2C1_Init();
 232:Core/Src/main.c ****   MX_SPI1_Init();
 233:Core/Src/main.c ****   MX_USART1_UART_Init();
 234:Core/Src/main.c ****   MX_RTC_Init();
 235:Core/Src/main.c ****   /* USER CODE BEGIN 2 */
 236:Core/Src/main.c **** 
 237:Core/Src/main.c ****   HAL_GPIO_WritePin(LED0_GPIO_Port, LED0_Pin, GPIO_PIN_SET);
 238:Core/Src/main.c ****   HAL_GPIO_WritePin(LED1_GPIO_Port, LED1_Pin, GPIO_PIN_SET);
 239:Core/Src/main.c **** 
 240:Core/Src/main.c ****   myStatus = HAL_RTCEx_BKUPRead(&hrtc, RTC_BKP_DR2);
 241:Core/Src/main.c **** 
 242:Core/Src/main.c ****   // myStatus = LINK_MODE;
 243:Core/Src/main.c **** 
 244:Core/Src/main.c ****   if (myStatus == 0U)
 245:Core/Src/main.c ****   {
 246:Core/Src/main.c ****     HAL_RTCEx_BKUPWrite(&hrtc, RTC_BKP_DR3, SLEEPTIME_NORMAL_MODE_MIN * 60);
 247:Core/Src/main.c ****     myStatus = LINK_MODE;
 248:Core/Src/main.c ****     // HAL_Delay(20000);
 249:Core/Src/main.c ****   }
 250:Core/Src/main.c **** 
 251:Core/Src/main.c ****   if ((myStatus & LINK_MODE) != 0U)
 252:Core/Src/main.c ****   {
 253:Core/Src/main.c ****     Link_Mode_Handle();
 254:Core/Src/main.c ****   }
 255:Core/Src/main.c ****   else if ((myStatus & NORMAL_MODE) != 0U)
 256:Core/Src/main.c ****   {
 257:Core/Src/main.c ****     Normal_Mode_Handle();
 258:Core/Src/main.c ****   }
 259:Core/Src/main.c ****   else if ((myStatus & RETRY_MODE) != 0U)
ARM GAS  C:\Users\Vento\AppData\Local\Temp\ccdqD43g.s 			page 6


 260:Core/Src/main.c ****   {
 261:Core/Src/main.c ****     Retry_Mode_Handle();
 262:Core/Src/main.c ****   }
 263:Core/Src/main.c **** 
 264:Core/Src/main.c ****   while (HAL_RTCEx_BKUPRead(&hrtc, RTC_BKP_DR2) != myStatus)  HAL_RTCEx_BKUPWrite(&hrtc, RTC_BKP_DR
 265:Core/Src/main.c **** 
 266:Core/Src/main.c ****   if ((myStatus & SHUTDOWN_MODE) != 0U)
 267:Core/Src/main.c ****   {
 268:Core/Src/main.c ****     sleep4ever();
 269:Core/Src/main.c ****     while (1);
 270:Core/Src/main.c ****   }
 271:Core/Src/main.c **** 
 272:Core/Src/main.c ****   HAL_GPIO_TogglePin(LED1_GPIO_Port, LED1_Pin);
 273:Core/Src/main.c ****   HAL_GPIO_TogglePin(LED0_GPIO_Port, LED0_Pin);
 274:Core/Src/main.c ****   HAL_Delay(100);
 275:Core/Src/main.c ****   HAL_GPIO_TogglePin(LED1_GPIO_Port, LED1_Pin);
 276:Core/Src/main.c ****   HAL_GPIO_TogglePin(LED0_GPIO_Port, LED0_Pin);
 277:Core/Src/main.c **** 
 278:Core/Src/main.c ****   goingDark();
 279:Core/Src/main.c **** 
 280:Core/Src/main.c ****   /* USER CODE END 2 */
 281:Core/Src/main.c **** 
 282:Core/Src/main.c ****   /* Infinite loop */
 283:Core/Src/main.c ****   /* USER CODE BEGIN WHILE */
 284:Core/Src/main.c ****   while (1)
 285:Core/Src/main.c ****   {
 286:Core/Src/main.c ****     /* USER CODE END WHILE */
 287:Core/Src/main.c **** 
 288:Core/Src/main.c ****     /* USER CODE BEGIN 3 */
 289:Core/Src/main.c ****   }
 290:Core/Src/main.c ****   /* USER CODE END 3 */
 291:Core/Src/main.c **** }
 292:Core/Src/main.c **** 
 293:Core/Src/main.c **** /**
 294:Core/Src/main.c ****   * @brief System Clock Configuration
 295:Core/Src/main.c ****   * @retval None
 296:Core/Src/main.c ****   */
 297:Core/Src/main.c **** void SystemClock_Config(void)
 298:Core/Src/main.c **** {
 299:Core/Src/main.c ****   RCC_OscInitTypeDef RCC_OscInitStruct = {0};
 300:Core/Src/main.c ****   RCC_ClkInitTypeDef RCC_ClkInitStruct = {0};
 301:Core/Src/main.c ****   RCC_PeriphCLKInitTypeDef PeriphClkInit = {0};
 302:Core/Src/main.c **** 
 303:Core/Src/main.c ****   /** Initializes the RCC Oscillators according to the specified parameters
 304:Core/Src/main.c ****   * in the RCC_OscInitTypeDef structure.
 305:Core/Src/main.c ****   */
 306:Core/Src/main.c ****   RCC_OscInitStruct.OscillatorType = RCC_OSCILLATORTYPE_HSI|RCC_OSCILLATORTYPE_LSI;
 307:Core/Src/main.c ****   RCC_OscInitStruct.HSIState = RCC_HSI_ON;
 308:Core/Src/main.c ****   RCC_OscInitStruct.HSICalibrationValue = RCC_HSICALIBRATION_DEFAULT;
 309:Core/Src/main.c ****   RCC_OscInitStruct.LSIState = RCC_LSI_ON;
 310:Core/Src/main.c ****   RCC_OscInitStruct.PLL.PLLState = RCC_PLL_NONE;
 311:Core/Src/main.c ****   if (HAL_RCC_OscConfig(&RCC_OscInitStruct) != HAL_OK)
 312:Core/Src/main.c ****   {
 313:Core/Src/main.c ****     Error_Handler();
 314:Core/Src/main.c ****   }
 315:Core/Src/main.c **** 
 316:Core/Src/main.c ****   /** Initializes the CPU, AHB and APB buses clocks
ARM GAS  C:\Users\Vento\AppData\Local\Temp\ccdqD43g.s 			page 7


 317:Core/Src/main.c ****   */
 318:Core/Src/main.c ****   RCC_ClkInitStruct.ClockType = RCC_CLOCKTYPE_HCLK|RCC_CLOCKTYPE_SYSCLK
 319:Core/Src/main.c ****                               |RCC_CLOCKTYPE_PCLK1|RCC_CLOCKTYPE_PCLK2;
 320:Core/Src/main.c ****   RCC_ClkInitStruct.SYSCLKSource = RCC_SYSCLKSOURCE_HSI;
 321:Core/Src/main.c ****   RCC_ClkInitStruct.AHBCLKDivider = RCC_SYSCLK_DIV1;
 322:Core/Src/main.c ****   RCC_ClkInitStruct.APB1CLKDivider = RCC_HCLK_DIV1;
 323:Core/Src/main.c ****   RCC_ClkInitStruct.APB2CLKDivider = RCC_HCLK_DIV1;
 324:Core/Src/main.c **** 
 325:Core/Src/main.c ****   if (HAL_RCC_ClockConfig(&RCC_ClkInitStruct, FLASH_LATENCY_0) != HAL_OK)
 326:Core/Src/main.c ****   {
 327:Core/Src/main.c ****     Error_Handler();
 328:Core/Src/main.c ****   }
 329:Core/Src/main.c ****   PeriphClkInit.PeriphClockSelection = RCC_PERIPHCLK_RTC|RCC_PERIPHCLK_ADC;
 330:Core/Src/main.c ****   PeriphClkInit.RTCClockSelection = RCC_RTCCLKSOURCE_LSI;
 331:Core/Src/main.c ****   PeriphClkInit.AdcClockSelection = RCC_ADCPCLK2_DIV2;
 332:Core/Src/main.c ****   if (HAL_RCCEx_PeriphCLKConfig(&PeriphClkInit) != HAL_OK)
 333:Core/Src/main.c ****   {
 334:Core/Src/main.c ****     Error_Handler();
 335:Core/Src/main.c ****   }
 336:Core/Src/main.c **** }
 337:Core/Src/main.c **** 
 338:Core/Src/main.c **** /* USER CODE BEGIN 4 */
 339:Core/Src/main.c **** 
 340:Core/Src/main.c **** uint16_t CRC16(unsigned char *buf, int len)
 341:Core/Src/main.c **** {
  28              		.loc 1 341 1 view -0
  29              		.cfi_startproc
  30              		@ args = 0, pretend = 0, frame = 0
  31              		@ frame_needed = 0, uses_anonymous_args = 0
  32              		.loc 1 341 1 is_stmt 0 view .LVU1
  33 0000 00B5     		push	{lr}
  34              	.LCFI0:
  35              		.cfi_def_cfa_offset 4
  36              		.cfi_offset 14, -4
  37 0002 8646     		mov	lr, r0
 342:Core/Src/main.c ****   uint16_t crc = 0xFFFF;
  38              		.loc 1 342 3 is_stmt 1 view .LVU2
  39              	.LVL1:
 343:Core/Src/main.c ****   for (int pos = 0; pos < len; pos++)
  40              		.loc 1 343 3 view .LVU3
  41              	.LBB8:
  42              		.loc 1 343 8 view .LVU4
  43              		.loc 1 343 12 is_stmt 0 view .LVU5
  44 0004 4FF0000C 		mov	ip, #0
  45              	.LBE8:
 342:Core/Src/main.c ****   uint16_t crc = 0xFFFF;
  46              		.loc 1 342 12 view .LVU6
  47 0008 4FF6FF70 		movw	r0, #65535
  48              	.LVL2:
  49              	.LBB11:
  50              		.loc 1 343 3 view .LVU7
  51 000c 0CE0     		b	.L2
  52              	.LVL3:
  53              	.L4:
  54              	.LBB9:
 344:Core/Src/main.c ****   {
 345:Core/Src/main.c ****     // XOR byte into least sig. byte of crc
ARM GAS  C:\Users\Vento\AppData\Local\Temp\ccdqD43g.s 			page 8


 346:Core/Src/main.c ****     crc ^= (unsigned int)buf[pos];
 347:Core/Src/main.c **** 
 348:Core/Src/main.c ****     for (int i = 8; i != 0; i--)
 349:Core/Src/main.c ****     {
 350:Core/Src/main.c ****       // Loop over each bit
 351:Core/Src/main.c ****       if ((crc & 0x0001) != 0)
 352:Core/Src/main.c ****       {
 353:Core/Src/main.c ****         // If the LSB is set => Shift right and XOR 0xA001
 354:Core/Src/main.c ****         crc >>= 1;
 355:Core/Src/main.c ****         crc ^= 0xA001;
 356:Core/Src/main.c ****       }
 357:Core/Src/main.c ****       else
 358:Core/Src/main.c ****       {
 359:Core/Src/main.c ****         // Else LSB is not set => Just shift right
 360:Core/Src/main.c ****         crc >>= 1;
  55              		.loc 1 360 9 is_stmt 1 view .LVU8
  56              		.loc 1 360 13 is_stmt 0 view .LVU9
  57 000e 4008     		lsrs	r0, r0, #1
  58              	.LVL4:
  59              	.L5:
 348:Core/Src/main.c ****     {
  60              		.loc 1 348 29 is_stmt 1 discriminator 2 view .LVU10
 348:Core/Src/main.c ****     {
  61              		.loc 1 348 30 is_stmt 0 discriminator 2 view .LVU11
  62 0010 013B     		subs	r3, r3, #1
  63              	.LVL5:
  64              	.L3:
 348:Core/Src/main.c ****     {
  65              		.loc 1 348 21 is_stmt 1 discriminator 1 view .LVU12
 348:Core/Src/main.c ****     {
  66              		.loc 1 348 5 is_stmt 0 discriminator 1 view .LVU13
  67 0012 3BB1     		cbz	r3, .L9
 351:Core/Src/main.c ****       {
  68              		.loc 1 351 7 is_stmt 1 view .LVU14
 351:Core/Src/main.c ****       {
  69              		.loc 1 351 10 is_stmt 0 view .LVU15
  70 0014 10F0010F 		tst	r0, #1
  71 0018 F9D0     		beq	.L4
 354:Core/Src/main.c ****         crc ^= 0xA001;
  72              		.loc 1 354 9 is_stmt 1 view .LVU16
  73              	.LVL6:
 355:Core/Src/main.c ****       }
  74              		.loc 1 355 9 view .LVU17
 355:Core/Src/main.c ****       }
  75              		.loc 1 355 13 is_stmt 0 view .LVU18
  76 001a 4AF20102 		movw	r2, #40961
  77 001e 82EA5000 		eor	r0, r2, r0, lsr #1
  78              	.LVL7:
 355:Core/Src/main.c ****       }
  79              		.loc 1 355 13 view .LVU19
  80 0022 F5E7     		b	.L5
  81              	.L9:
 355:Core/Src/main.c ****       }
  82              		.loc 1 355 13 view .LVU20
  83              	.LBE9:
 343:Core/Src/main.c ****   {
  84              		.loc 1 343 32 is_stmt 1 discriminator 2 view .LVU21
ARM GAS  C:\Users\Vento\AppData\Local\Temp\ccdqD43g.s 			page 9


 343:Core/Src/main.c ****   {
  85              		.loc 1 343 35 is_stmt 0 discriminator 2 view .LVU22
  86 0024 0CF1010C 		add	ip, ip, #1
  87              	.LVL8:
  88              	.L2:
 343:Core/Src/main.c ****   {
  89              		.loc 1 343 21 is_stmt 1 discriminator 1 view .LVU23
 343:Core/Src/main.c ****   {
  90              		.loc 1 343 3 is_stmt 0 discriminator 1 view .LVU24
  91 0028 8C45     		cmp	ip, r1
  92 002a 04DA     		bge	.L10
 346:Core/Src/main.c **** 
  93              		.loc 1 346 5 is_stmt 1 view .LVU25
 346:Core/Src/main.c **** 
  94              		.loc 1 346 29 is_stmt 0 view .LVU26
  95 002c 1EF80C30 		ldrb	r3, [lr, ip]	@ zero_extendqisi2
 346:Core/Src/main.c **** 
  96              		.loc 1 346 9 view .LVU27
  97 0030 5840     		eors	r0, r0, r3
  98              	.LVL9:
 348:Core/Src/main.c ****     {
  99              		.loc 1 348 5 is_stmt 1 view .LVU28
 100              	.LBB10:
 348:Core/Src/main.c ****     {
 101              		.loc 1 348 10 view .LVU29
 348:Core/Src/main.c ****     {
 102              		.loc 1 348 14 is_stmt 0 view .LVU30
 103 0032 0823     		movs	r3, #8
 348:Core/Src/main.c ****     {
 104              		.loc 1 348 5 view .LVU31
 105 0034 EDE7     		b	.L3
 106              	.LVL10:
 107              	.L10:
 348:Core/Src/main.c ****     {
 108              		.loc 1 348 5 view .LVU32
 109              	.LBE10:
 110              	.LBE11:
 361:Core/Src/main.c ****       }
 362:Core/Src/main.c ****     }
 363:Core/Src/main.c ****   }
 364:Core/Src/main.c **** 
 365:Core/Src/main.c ****   return crc;
 111              		.loc 1 365 3 is_stmt 1 view .LVU33
 366:Core/Src/main.c **** }
 112              		.loc 1 366 1 is_stmt 0 view .LVU34
 113 0036 5DF804FB 		ldr	pc, [sp], #4
 114              		.cfi_endproc
 115              	.LFE70:
 117              		.global	__aeabi_ui2f
 118              		.global	__aeabi_fdiv
 119              		.section	.text.readSensor,"ax",%progbits
 120              		.align	1
 121              		.global	readSensor
 122              		.syntax unified
 123              		.thumb
 124              		.thumb_func
 125              		.fpu softvfp
ARM GAS  C:\Users\Vento\AppData\Local\Temp\ccdqD43g.s 			page 10


 127              	readSensor:
 128              	.LFB71:
 367:Core/Src/main.c **** 
 368:Core/Src/main.c **** bool readSensor(void)
 369:Core/Src/main.c **** {
 129              		.loc 1 369 1 is_stmt 1 view -0
 130              		.cfi_startproc
 131              		@ args = 0, pretend = 0, frame = 0
 132              		@ frame_needed = 0, uses_anonymous_args = 0
 133 0000 70B5     		push	{r4, r5, r6, lr}
 134              	.LCFI1:
 135              		.cfi_def_cfa_offset 16
 136              		.cfi_offset 4, -16
 137              		.cfi_offset 5, -12
 138              		.cfi_offset 6, -8
 139              		.cfi_offset 14, -4
 370:Core/Src/main.c ****   static uint8_t txbuffer[10] = {0x01, 0x03, 0x00, 0x00, 0x00, 0x08, 0x44, 0x0C};
 140              		.loc 1 370 3 view .LVU36
 371:Core/Src/main.c ****   static uint8_t rxbuffer[25];
 141              		.loc 1 371 3 view .LVU37
 372:Core/Src/main.c **** 
 373:Core/Src/main.c ****   HAL_GPIO_WritePin(DE_GPIO_Port, DE_Pin, GPIO_PIN_SET);
 142              		.loc 1 373 3 view .LVU38
 143 0002 414E     		ldr	r6, .L16
 144 0004 0122     		movs	r2, #1
 145 0006 4FF48071 		mov	r1, #256
 146 000a 3046     		mov	r0, r6
 147 000c FFF7FEFF 		bl	HAL_GPIO_WritePin
 148              	.LVL11:
 374:Core/Src/main.c ****   HAL_GPIO_WritePin(RE_GPIO_Port, RE_Pin, GPIO_PIN_SET);
 149              		.loc 1 374 3 view .LVU39
 150 0010 3E4C     		ldr	r4, .L16+4
 151 0012 0122     		movs	r2, #1
 152 0014 4FF40041 		mov	r1, #32768
 153 0018 2046     		mov	r0, r4
 154 001a FFF7FEFF 		bl	HAL_GPIO_WritePin
 155              	.LVL12:
 375:Core/Src/main.c **** 
 376:Core/Src/main.c ****   HAL_UART_Transmit(&huart1, txbuffer, 8, 10);
 156              		.loc 1 376 3 view .LVU40
 157 001e 3C4D     		ldr	r5, .L16+8
 158 0020 0A23     		movs	r3, #10
 159 0022 0822     		movs	r2, #8
 160 0024 3B49     		ldr	r1, .L16+12
 161 0026 2846     		mov	r0, r5
 162 0028 FFF7FEFF 		bl	HAL_UART_Transmit
 163              	.LVL13:
 377:Core/Src/main.c **** 
 378:Core/Src/main.c ****   HAL_GPIO_WritePin(DE_GPIO_Port, DE_Pin, GPIO_PIN_RESET);
 164              		.loc 1 378 3 view .LVU41
 165 002c 0022     		movs	r2, #0
 166 002e 4FF48071 		mov	r1, #256
 167 0032 3046     		mov	r0, r6
 168 0034 FFF7FEFF 		bl	HAL_GPIO_WritePin
 169              	.LVL14:
 379:Core/Src/main.c ****   HAL_GPIO_WritePin(RE_GPIO_Port, RE_Pin, GPIO_PIN_RESET);
 170              		.loc 1 379 3 view .LVU42
ARM GAS  C:\Users\Vento\AppData\Local\Temp\ccdqD43g.s 			page 11


 171 0038 0022     		movs	r2, #0
 172 003a 4FF40041 		mov	r1, #32768
 173 003e 2046     		mov	r0, r4
 174 0040 FFF7FEFF 		bl	HAL_GPIO_WritePin
 175              	.LVL15:
 380:Core/Src/main.c **** 
 381:Core/Src/main.c ****   HAL_UART_Receive(&huart1, rxbuffer, 21, 200);
 176              		.loc 1 381 3 view .LVU43
 177 0044 344C     		ldr	r4, .L16+16
 178 0046 C823     		movs	r3, #200
 179 0048 1522     		movs	r2, #21
 180 004a 2146     		mov	r1, r4
 181 004c 2846     		mov	r0, r5
 182 004e FFF7FEFF 		bl	HAL_UART_Receive
 183              	.LVL16:
 382:Core/Src/main.c **** 
 383:Core/Src/main.c ****   mySoil.rawTemperature = (uint16_t)((rxbuffer[3] << 8U) | (uint16_t)rxbuffer[4]);
 184              		.loc 1 383 3 view .LVU44
 185              		.loc 1 383 47 is_stmt 0 view .LVU45
 186 0052 E378     		ldrb	r3, [r4, #3]	@ zero_extendqisi2
 187              		.loc 1 383 78 view .LVU46
 188 0054 2079     		ldrb	r0, [r4, #4]	@ zero_extendqisi2
 189              		.loc 1 383 27 view .LVU47
 190 0056 40EA0320 		orr	r0, r0, r3, lsl #8
 191              		.loc 1 383 25 view .LVU48
 192 005a 304D     		ldr	r5, .L16+20
 193 005c 2880     		strh	r0, [r5]	@ movhi
 384:Core/Src/main.c ****   mySoil.Temperature = (float)((float)mySoil.rawTemperature / 10.0);
 194              		.loc 1 384 3 is_stmt 1 view .LVU49
 195              		.loc 1 384 32 is_stmt 0 view .LVU50
 196 005e FFF7FEFF 		bl	__aeabi_ui2f
 197              	.LVL17:
 198              		.loc 1 384 24 view .LVU51
 199 0062 2F49     		ldr	r1, .L16+24
 200 0064 FFF7FEFF 		bl	__aeabi_fdiv
 201              	.LVL18:
 202              		.loc 1 384 22 view .LVU52
 203 0068 6860     		str	r0, [r5, #4]	@ float
 385:Core/Src/main.c ****   mySoil.rawHumidity = (uint16_t)((rxbuffer[5] << 8U) | (uint16_t)rxbuffer[6]);
 204              		.loc 1 385 3 is_stmt 1 view .LVU53
 205              		.loc 1 385 44 is_stmt 0 view .LVU54
 206 006a 6379     		ldrb	r3, [r4, #5]	@ zero_extendqisi2
 207              		.loc 1 385 75 view .LVU55
 208 006c A079     		ldrb	r0, [r4, #6]	@ zero_extendqisi2
 209              		.loc 1 385 24 view .LVU56
 210 006e 40EA0320 		orr	r0, r0, r3, lsl #8
 211              		.loc 1 385 22 view .LVU57
 212 0072 6880     		strh	r0, [r5, #2]	@ movhi
 386:Core/Src/main.c ****   mySoil.Humidity = (float)((float)mySoil.rawHumidity / 10.0);
 213              		.loc 1 386 3 is_stmt 1 view .LVU58
 214              		.loc 1 386 29 is_stmt 0 view .LVU59
 215 0074 FFF7FEFF 		bl	__aeabi_ui2f
 216              	.LVL19:
 217              		.loc 1 386 21 view .LVU60
 218 0078 2949     		ldr	r1, .L16+24
 219 007a FFF7FEFF 		bl	__aeabi_fdiv
 220              	.LVL20:
ARM GAS  C:\Users\Vento\AppData\Local\Temp\ccdqD43g.s 			page 12


 221              		.loc 1 386 19 view .LVU61
 222 007e A860     		str	r0, [r5, #8]	@ float
 387:Core/Src/main.c ****   mySoil.Salinity = (uint16_t)((rxbuffer[7] << 8U) | (uint16_t)rxbuffer[8]);
 223              		.loc 1 387 3 is_stmt 1 view .LVU62
 224              		.loc 1 387 41 is_stmt 0 view .LVU63
 225 0080 E279     		ldrb	r2, [r4, #7]	@ zero_extendqisi2
 226              		.loc 1 387 72 view .LVU64
 227 0082 237A     		ldrb	r3, [r4, #8]	@ zero_extendqisi2
 228              		.loc 1 387 21 view .LVU65
 229 0084 43EA0223 		orr	r3, r3, r2, lsl #8
 230              		.loc 1 387 19 view .LVU66
 231 0088 AB81     		strh	r3, [r5, #12]	@ movhi
 388:Core/Src/main.c ****   mySoil.Conductivity = (uint16_t)((rxbuffer[9] << 8U) | (uint16_t)rxbuffer[10]);
 232              		.loc 1 388 3 is_stmt 1 view .LVU67
 233              		.loc 1 388 45 is_stmt 0 view .LVU68
 234 008a 627A     		ldrb	r2, [r4, #9]	@ zero_extendqisi2
 235              		.loc 1 388 76 view .LVU69
 236 008c A37A     		ldrb	r3, [r4, #10]	@ zero_extendqisi2
 237              		.loc 1 388 25 view .LVU70
 238 008e 43EA0223 		orr	r3, r3, r2, lsl #8
 239              		.loc 1 388 23 view .LVU71
 240 0092 EB81     		strh	r3, [r5, #14]	@ movhi
 389:Core/Src/main.c ****   mySoil.rawPH = (uint16_t)((rxbuffer[11] << 8U) | (uint16_t)rxbuffer[12]);
 241              		.loc 1 389 3 is_stmt 1 view .LVU72
 242              		.loc 1 389 38 is_stmt 0 view .LVU73
 243 0094 E37A     		ldrb	r3, [r4, #11]	@ zero_extendqisi2
 244              		.loc 1 389 70 view .LVU74
 245 0096 207B     		ldrb	r0, [r4, #12]	@ zero_extendqisi2
 246              		.loc 1 389 18 view .LVU75
 247 0098 40EA0320 		orr	r0, r0, r3, lsl #8
 248              		.loc 1 389 16 view .LVU76
 249 009c 2882     		strh	r0, [r5, #16]	@ movhi
 390:Core/Src/main.c ****   mySoil.pH = (float)((float)mySoil.rawPH / 100.0);
 250              		.loc 1 390 3 is_stmt 1 view .LVU77
 251              		.loc 1 390 23 is_stmt 0 view .LVU78
 252 009e FFF7FEFF 		bl	__aeabi_ui2f
 253              	.LVL21:
 254              		.loc 1 390 15 view .LVU79
 255 00a2 2049     		ldr	r1, .L16+28
 256 00a4 FFF7FEFF 		bl	__aeabi_fdiv
 257              	.LVL22:
 258              		.loc 1 390 13 view .LVU80
 259 00a8 6861     		str	r0, [r5, #20]	@ float
 391:Core/Src/main.c ****   mySoil.N = (uint16_t)((rxbuffer[13] << 8U) | (uint16_t)rxbuffer[14]);
 260              		.loc 1 391 3 is_stmt 1 view .LVU81
 261              		.loc 1 391 34 is_stmt 0 view .LVU82
 262 00aa 627B     		ldrb	r2, [r4, #13]	@ zero_extendqisi2
 263              		.loc 1 391 66 view .LVU83
 264 00ac A37B     		ldrb	r3, [r4, #14]	@ zero_extendqisi2
 265              		.loc 1 391 14 view .LVU84
 266 00ae 43EA0223 		orr	r3, r3, r2, lsl #8
 267              		.loc 1 391 12 view .LVU85
 268 00b2 2B83     		strh	r3, [r5, #24]	@ movhi
 392:Core/Src/main.c ****   mySoil.P = (uint16_t)((rxbuffer[15] << 8U) | (uint16_t)rxbuffer[16]);
 269              		.loc 1 392 3 is_stmt 1 view .LVU86
 270              		.loc 1 392 34 is_stmt 0 view .LVU87
 271 00b4 E27B     		ldrb	r2, [r4, #15]	@ zero_extendqisi2
ARM GAS  C:\Users\Vento\AppData\Local\Temp\ccdqD43g.s 			page 13


 272              		.loc 1 392 66 view .LVU88
 273 00b6 237C     		ldrb	r3, [r4, #16]	@ zero_extendqisi2
 274              		.loc 1 392 14 view .LVU89
 275 00b8 43EA0223 		orr	r3, r3, r2, lsl #8
 276              		.loc 1 392 12 view .LVU90
 277 00bc 6B83     		strh	r3, [r5, #26]	@ movhi
 393:Core/Src/main.c ****   mySoil.K = (uint16_t)((rxbuffer[17] << 8U) | (uint16_t)rxbuffer[18]);
 278              		.loc 1 393 3 is_stmt 1 view .LVU91
 279              		.loc 1 393 34 is_stmt 0 view .LVU92
 280 00be 627C     		ldrb	r2, [r4, #17]	@ zero_extendqisi2
 281              		.loc 1 393 66 view .LVU93
 282 00c0 A37C     		ldrb	r3, [r4, #18]	@ zero_extendqisi2
 283              		.loc 1 393 14 view .LVU94
 284 00c2 43EA0223 		orr	r3, r3, r2, lsl #8
 285              		.loc 1 393 12 view .LVU95
 286 00c6 AB83     		strh	r3, [r5, #28]	@ movhi
 394:Core/Src/main.c **** 
 395:Core/Src/main.c ****   uint16_t calculatedCRC = CRC16(rxbuffer, 19);
 287              		.loc 1 395 3 is_stmt 1 view .LVU96
 288              		.loc 1 395 28 is_stmt 0 view .LVU97
 289 00c8 1321     		movs	r1, #19
 290 00ca 2046     		mov	r0, r4
 291 00cc FFF7FEFF 		bl	CRC16
 292              	.LVL23:
 396:Core/Src/main.c **** 
 397:Core/Src/main.c ****   if (((uint8_t)(calculatedCRC & 0x00FF) != (uint8_t)rxbuffer[19]) || ((uint8_t)((uint16_t)(calcula
 293              		.loc 1 397 3 is_stmt 1 view .LVU98
 294              		.loc 1 397 8 is_stmt 0 view .LVU99
 295 00d0 C2B2     		uxtb	r2, r0
 296              		.loc 1 397 62 view .LVU100
 297 00d2 E37C     		ldrb	r3, [r4, #19]	@ zero_extendqisi2
 298              		.loc 1 397 6 view .LVU101
 299 00d4 9A42     		cmp	r2, r3
 300 00d6 04D1     		bne	.L12
 301              		.loc 1 397 72 discriminator 1 view .LVU102
 302 00d8 C0F30720 		ubfx	r0, r0, #8, #8
 303              	.LVL24:
 304              		.loc 1 397 143 discriminator 1 view .LVU103
 305 00dc 237D     		ldrb	r3, [r4, #20]	@ zero_extendqisi2
 306              		.loc 1 397 68 discriminator 1 view .LVU104
 307 00de 9842     		cmp	r0, r3
 308 00e0 06D0     		beq	.L13
 309              	.L12:
 398:Core/Src/main.c ****   {
 399:Core/Src/main.c ****     memset(&mySoil, '\0', sizeof(mySoil));
 310              		.loc 1 399 5 is_stmt 1 view .LVU105
 311 00e2 2022     		movs	r2, #32
 312 00e4 0021     		movs	r1, #0
 313 00e6 0D48     		ldr	r0, .L16+20
 314 00e8 FFF7FEFF 		bl	memset
 315              	.LVL25:
 400:Core/Src/main.c ****     return false;
 316              		.loc 1 400 5 view .LVU106
 317              		.loc 1 400 12 is_stmt 0 view .LVU107
 318 00ec 0020     		movs	r0, #0
 319              	.L14:
 401:Core/Src/main.c ****   }
ARM GAS  C:\Users\Vento\AppData\Local\Temp\ccdqD43g.s 			page 14


 402:Core/Src/main.c **** 
 403:Core/Src/main.c ****   memset(rxbuffer, '\0', sizeof(rxbuffer));
 404:Core/Src/main.c ****   return true;
 405:Core/Src/main.c **** }
 320              		.loc 1 405 1 view .LVU108
 321 00ee 70BD     		pop	{r4, r5, r6, pc}
 322              	.L13:
 403:Core/Src/main.c ****   return true;
 323              		.loc 1 403 3 is_stmt 1 view .LVU109
 324 00f0 094B     		ldr	r3, .L16+16
 325 00f2 0022     		movs	r2, #0
 326 00f4 1A60     		str	r2, [r3]
 327 00f6 5A60     		str	r2, [r3, #4]
 328 00f8 9A60     		str	r2, [r3, #8]
 329 00fa DA60     		str	r2, [r3, #12]
 330 00fc 1A61     		str	r2, [r3, #16]
 331 00fe 5A61     		str	r2, [r3, #20]
 332 0100 1A76     		strb	r2, [r3, #24]
 404:Core/Src/main.c **** }
 333              		.loc 1 404 3 view .LVU110
 404:Core/Src/main.c **** }
 334              		.loc 1 404 10 is_stmt 0 view .LVU111
 335 0102 0120     		movs	r0, #1
 336 0104 F3E7     		b	.L14
 337              	.L17:
 338 0106 00BF     		.align	2
 339              	.L16:
 340 0108 00080140 		.word	1073809408
 341 010c 000C0140 		.word	1073810432
 342 0110 00000000 		.word	huart1
 343 0114 00000000 		.word	.LANCHOR0
 344 0118 00000000 		.word	.LANCHOR1
 345 011c 00000000 		.word	.LANCHOR2
 346 0120 00002041 		.word	1092616192
 347 0124 0000C842 		.word	1120403456
 348              		.cfi_endproc
 349              	.LFE71:
 351              		.section	.text.goingDark,"ax",%progbits
 352              		.align	1
 353              		.global	goingDark
 354              		.syntax unified
 355              		.thumb
 356              		.thumb_func
 357              		.fpu softvfp
 359              	goingDark:
 360              	.LFB72:
 406:Core/Src/main.c **** 
 407:Core/Src/main.c **** void goingDark(void)
 408:Core/Src/main.c **** {
 361              		.loc 1 408 1 is_stmt 1 view -0
 362              		.cfi_startproc
 363              		@ Volatile: function does not return.
 364              		@ args = 0, pretend = 0, frame = 16
 365              		@ frame_needed = 0, uses_anonymous_args = 0
 366 0000 00B5     		push	{lr}
 367              	.LCFI2:
 368              		.cfi_def_cfa_offset 4
ARM GAS  C:\Users\Vento\AppData\Local\Temp\ccdqD43g.s 			page 15


 369              		.cfi_offset 14, -4
 370 0002 85B0     		sub	sp, sp, #20
 371              	.LCFI3:
 372              		.cfi_def_cfa_offset 24
 409:Core/Src/main.c ****   /* Enable WUPIN PA0 */
 410:Core/Src/main.c ****   SET_BIT(PWR->CSR, PWR_CSR_EWUP);
 373              		.loc 1 410 3 view .LVU113
 374 0004 2A4A     		ldr	r2, .L27
 375 0006 5368     		ldr	r3, [r2, #4]
 376 0008 43F48073 		orr	r3, r3, #256
 377 000c 5360     		str	r3, [r2, #4]
 411:Core/Src/main.c **** 
 412:Core/Src/main.c ****   /* Set RTC Alarm for 300s */
 413:Core/Src/main.c ****   RTC_TimeTypeDef timeNow;
 378              		.loc 1 413 3 view .LVU114
 414:Core/Src/main.c ****   RTC_AlarmTypeDef timeAlarm;
 379              		.loc 1 414 3 view .LVU115
 415:Core/Src/main.c ****   HAL_RTC_GetTime(&hrtc, &timeNow, RTC_FORMAT_BCD);
 380              		.loc 1 415 3 view .LVU116
 381 000e 0122     		movs	r2, #1
 382 0010 03A9     		add	r1, sp, #12
 383 0012 2848     		ldr	r0, .L27+4
 384 0014 FFF7FEFF 		bl	HAL_RTC_GetTime
 385              	.LVL26:
 416:Core/Src/main.c ****   timeAlarm.Alarm = RTC_ALARM_A;
 386              		.loc 1 416 3 view .LVU117
 387              		.loc 1 416 19 is_stmt 0 view .LVU118
 388 0018 0023     		movs	r3, #0
 389 001a 0293     		str	r3, [sp, #8]
 417:Core/Src/main.c ****   timeAlarm.AlarmTime = timeNow;
 390              		.loc 1 417 3 is_stmt 1 view .LVU119
 391              		.loc 1 417 23 is_stmt 0 view .LVU120
 392 001c 039B     		ldr	r3, [sp, #12]
 393 001e ADF80430 		strh	r3, [sp, #4]	@ movhi
 394 0022 1B0C     		lsrs	r3, r3, #16
 395 0024 8DF80630 		strb	r3, [sp, #6]
 418:Core/Src/main.c ****   if (myStatus == NORMAL_MODE)
 396              		.loc 1 418 3 is_stmt 1 view .LVU121
 397              		.loc 1 418 16 is_stmt 0 view .LVU122
 398 0028 234B     		ldr	r3, .L27+8
 399 002a 1B78     		ldrb	r3, [r3]	@ zero_extendqisi2
 400              		.loc 1 418 6 view .LVU123
 401 002c 042B     		cmp	r3, #4
 402 002e 28D0     		beq	.L24
 419:Core/Src/main.c ****   {
 420:Core/Src/main.c ****     timeAlarm.AlarmTime.Seconds += HAL_RTCEx_BKUPRead(&hrtc, RTC_BKP_DR3);
 421:Core/Src/main.c ****   }
 422:Core/Src/main.c ****   else if (myStatus == LINK_MODE)
 403              		.loc 1 422 8 is_stmt 1 view .LVU124
 404              		.loc 1 422 11 is_stmt 0 view .LVU125
 405 0030 022B     		cmp	r3, #2
 406 0032 30D0     		beq	.L25
 423:Core/Src/main.c ****   {
 424:Core/Src/main.c ****     timeAlarm.AlarmTime.Minutes += SLEEPTIME_LINK_MODE_MIN;
 425:Core/Src/main.c ****   }
 426:Core/Src/main.c ****   else if (myStatus == RETRY_MODE)
 407              		.loc 1 426 8 is_stmt 1 view .LVU126
ARM GAS  C:\Users\Vento\AppData\Local\Temp\ccdqD43g.s 			page 16


 408              		.loc 1 426 11 is_stmt 0 view .LVU127
 409 0034 082B     		cmp	r3, #8
 410 0036 34D0     		beq	.L26
 411              	.L20:
 427:Core/Src/main.c ****   {
 428:Core/Src/main.c ****     timeAlarm.AlarmTime.Seconds += SLEEPTIME_RETRY_MODE_SEC;
 429:Core/Src/main.c ****   }
 430:Core/Src/main.c ****   __HAL_RTC_ALARM_CLEAR_FLAG(&hrtc, RTC_FLAG_ALRAF);
 412              		.loc 1 430 3 is_stmt 1 view .LVU128
 413 0038 1E48     		ldr	r0, .L27+4
 414 003a 0268     		ldr	r2, [r0]
 415 003c 5368     		ldr	r3, [r2, #4]
 416 003e 23F00203 		bic	r3, r3, #2
 417 0042 5360     		str	r3, [r2, #4]
 431:Core/Src/main.c ****   HAL_RTC_SetAlarm_IT(&hrtc, &timeAlarm, RTC_FORMAT_BCD);
 418              		.loc 1 431 3 view .LVU129
 419 0044 0122     		movs	r2, #1
 420 0046 01A9     		add	r1, sp, #4
 421 0048 FFF7FEFF 		bl	HAL_RTC_SetAlarm_IT
 422              	.LVL27:
 432:Core/Src/main.c **** 
 433:Core/Src/main.c ****   /* Set SLEEPDEEP bit of Cortex System Control Register */
 434:Core/Src/main.c ****   SET_BIT(SCB->SCR, ((uint32_t)SCB_SCR_SLEEPDEEP_Msk));
 423              		.loc 1 434 3 view .LVU130
 424 004c 1B4A     		ldr	r2, .L27+12
 425 004e 1369     		ldr	r3, [r2, #16]
 426 0050 43F00403 		orr	r3, r3, #4
 427 0054 1361     		str	r3, [r2, #16]
 435:Core/Src/main.c **** 
 436:Core/Src/main.c ****   /* Select Standby mode */
 437:Core/Src/main.c ****   SET_BIT(PWR->CR, PWR_CR_PDDS);
 428              		.loc 1 437 3 view .LVU131
 429 0056 164B     		ldr	r3, .L27
 430 0058 1A68     		ldr	r2, [r3]
 431 005a 42F00202 		orr	r2, r2, #2
 432 005e 1A60     		str	r2, [r3]
 438:Core/Src/main.c **** 
 439:Core/Src/main.c ****   /* Clear WUF bit in Power Control/Status register */
 440:Core/Src/main.c ****   SET_BIT(PWR->CR, PWR_CR_CWUF);
 433              		.loc 1 440 3 view .LVU132
 434 0060 1A68     		ldr	r2, [r3]
 435 0062 42F00402 		orr	r2, r2, #4
 436 0066 1A60     		str	r2, [r3]
 441:Core/Src/main.c **** 
 442:Core/Src/main.c ****   /* Clear SBF bit in Power Control/Status register */
 443:Core/Src/main.c ****   SET_BIT(PWR->CR, PWR_CR_CSBF);
 437              		.loc 1 443 3 view .LVU133
 438 0068 1A68     		ldr	r2, [r3]
 439 006a 42F00802 		orr	r2, r2, #8
 440 006e 1A60     		str	r2, [r3]
 444:Core/Src/main.c **** 
 445:Core/Src/main.c ****   (void)PWR->CR;
 441              		.loc 1 445 3 view .LVU134
 442 0070 1A68     		ldr	r2, [r3]
 446:Core/Src/main.c ****   (void)PWR->CSR;
 443              		.loc 1 446 3 view .LVU135
 444 0072 5B68     		ldr	r3, [r3, #4]
ARM GAS  C:\Users\Vento\AppData\Local\Temp\ccdqD43g.s 			page 17


 447:Core/Src/main.c **** 
 448:Core/Src/main.c ****   // Disable debug, trace and IWDG in low-power modes
 449:Core/Src/main.c ****   DBGMCU->CR = (uint32_t)0x00;
 445              		.loc 1 449 3 view .LVU136
 446              		.loc 1 449 14 is_stmt 0 view .LVU137
 447 0074 124B     		ldr	r3, .L27+16
 448 0076 0022     		movs	r2, #0
 449 0078 5A60     		str	r2, [r3, #4]
 450              	.L22:
 450:Core/Src/main.c **** 
 451:Core/Src/main.c ****   for (;;)
 451              		.loc 1 451 3 is_stmt 1 discriminator 1 view .LVU138
 452:Core/Src/main.c ****   {
 453:Core/Src/main.c ****     __DSB();
 452              		.loc 1 453 5 discriminator 1 view .LVU139
 453              	.LBB12:
 454              	.LBI12:
 455              		.file 2 "Drivers/CMSIS/Include/cmsis_gcc.h"
   1:Drivers/CMSIS/Include/cmsis_gcc.h **** /**************************************************************************//**
   2:Drivers/CMSIS/Include/cmsis_gcc.h ****  * @file     cmsis_gcc.h
   3:Drivers/CMSIS/Include/cmsis_gcc.h ****  * @brief    CMSIS compiler GCC header file
   4:Drivers/CMSIS/Include/cmsis_gcc.h ****  * @version  V5.0.4
   5:Drivers/CMSIS/Include/cmsis_gcc.h ****  * @date     09. April 2018
   6:Drivers/CMSIS/Include/cmsis_gcc.h ****  ******************************************************************************/
   7:Drivers/CMSIS/Include/cmsis_gcc.h **** /*
   8:Drivers/CMSIS/Include/cmsis_gcc.h ****  * Copyright (c) 2009-2018 Arm Limited. All rights reserved.
   9:Drivers/CMSIS/Include/cmsis_gcc.h ****  *
  10:Drivers/CMSIS/Include/cmsis_gcc.h ****  * SPDX-License-Identifier: Apache-2.0
  11:Drivers/CMSIS/Include/cmsis_gcc.h ****  *
  12:Drivers/CMSIS/Include/cmsis_gcc.h ****  * Licensed under the Apache License, Version 2.0 (the License); you may
  13:Drivers/CMSIS/Include/cmsis_gcc.h ****  * not use this file except in compliance with the License.
  14:Drivers/CMSIS/Include/cmsis_gcc.h ****  * You may obtain a copy of the License at
  15:Drivers/CMSIS/Include/cmsis_gcc.h ****  *
  16:Drivers/CMSIS/Include/cmsis_gcc.h ****  * www.apache.org/licenses/LICENSE-2.0
  17:Drivers/CMSIS/Include/cmsis_gcc.h ****  *
  18:Drivers/CMSIS/Include/cmsis_gcc.h ****  * Unless required by applicable law or agreed to in writing, software
  19:Drivers/CMSIS/Include/cmsis_gcc.h ****  * distributed under the License is distributed on an AS IS BASIS, WITHOUT
  20:Drivers/CMSIS/Include/cmsis_gcc.h ****  * WARRANTIES OR CONDITIONS OF ANY KIND, either express or implied.
  21:Drivers/CMSIS/Include/cmsis_gcc.h ****  * See the License for the specific language governing permissions and
  22:Drivers/CMSIS/Include/cmsis_gcc.h ****  * limitations under the License.
  23:Drivers/CMSIS/Include/cmsis_gcc.h ****  */
  24:Drivers/CMSIS/Include/cmsis_gcc.h **** 
  25:Drivers/CMSIS/Include/cmsis_gcc.h **** #ifndef __CMSIS_GCC_H
  26:Drivers/CMSIS/Include/cmsis_gcc.h **** #define __CMSIS_GCC_H
  27:Drivers/CMSIS/Include/cmsis_gcc.h **** 
  28:Drivers/CMSIS/Include/cmsis_gcc.h **** /* ignore some GCC warnings */
  29:Drivers/CMSIS/Include/cmsis_gcc.h **** #pragma GCC diagnostic push
  30:Drivers/CMSIS/Include/cmsis_gcc.h **** #pragma GCC diagnostic ignored "-Wsign-conversion"
  31:Drivers/CMSIS/Include/cmsis_gcc.h **** #pragma GCC diagnostic ignored "-Wconversion"
  32:Drivers/CMSIS/Include/cmsis_gcc.h **** #pragma GCC diagnostic ignored "-Wunused-parameter"
  33:Drivers/CMSIS/Include/cmsis_gcc.h **** 
  34:Drivers/CMSIS/Include/cmsis_gcc.h **** /* Fallback for __has_builtin */
  35:Drivers/CMSIS/Include/cmsis_gcc.h **** #ifndef __has_builtin
  36:Drivers/CMSIS/Include/cmsis_gcc.h ****   #define __has_builtin(x) (0)
  37:Drivers/CMSIS/Include/cmsis_gcc.h **** #endif
  38:Drivers/CMSIS/Include/cmsis_gcc.h **** 
  39:Drivers/CMSIS/Include/cmsis_gcc.h **** /* CMSIS compiler specific defines */
ARM GAS  C:\Users\Vento\AppData\Local\Temp\ccdqD43g.s 			page 18


  40:Drivers/CMSIS/Include/cmsis_gcc.h **** #ifndef   __ASM
  41:Drivers/CMSIS/Include/cmsis_gcc.h ****   #define __ASM                                  __asm
  42:Drivers/CMSIS/Include/cmsis_gcc.h **** #endif
  43:Drivers/CMSIS/Include/cmsis_gcc.h **** #ifndef   __INLINE
  44:Drivers/CMSIS/Include/cmsis_gcc.h ****   #define __INLINE                               inline
  45:Drivers/CMSIS/Include/cmsis_gcc.h **** #endif
  46:Drivers/CMSIS/Include/cmsis_gcc.h **** #ifndef   __STATIC_INLINE
  47:Drivers/CMSIS/Include/cmsis_gcc.h ****   #define __STATIC_INLINE                        static inline
  48:Drivers/CMSIS/Include/cmsis_gcc.h **** #endif
  49:Drivers/CMSIS/Include/cmsis_gcc.h **** #ifndef   __STATIC_FORCEINLINE                 
  50:Drivers/CMSIS/Include/cmsis_gcc.h ****   #define __STATIC_FORCEINLINE                   __attribute__((always_inline)) static inline
  51:Drivers/CMSIS/Include/cmsis_gcc.h **** #endif                                           
  52:Drivers/CMSIS/Include/cmsis_gcc.h **** #ifndef   __NO_RETURN
  53:Drivers/CMSIS/Include/cmsis_gcc.h ****   #define __NO_RETURN                            __attribute__((__noreturn__))
  54:Drivers/CMSIS/Include/cmsis_gcc.h **** #endif
  55:Drivers/CMSIS/Include/cmsis_gcc.h **** #ifndef   __USED
  56:Drivers/CMSIS/Include/cmsis_gcc.h ****   #define __USED                                 __attribute__((used))
  57:Drivers/CMSIS/Include/cmsis_gcc.h **** #endif
  58:Drivers/CMSIS/Include/cmsis_gcc.h **** #ifndef   __WEAK
  59:Drivers/CMSIS/Include/cmsis_gcc.h ****   #define __WEAK                                 __attribute__((weak))
  60:Drivers/CMSIS/Include/cmsis_gcc.h **** #endif
  61:Drivers/CMSIS/Include/cmsis_gcc.h **** #ifndef   __PACKED
  62:Drivers/CMSIS/Include/cmsis_gcc.h ****   #define __PACKED                               __attribute__((packed, aligned(1)))
  63:Drivers/CMSIS/Include/cmsis_gcc.h **** #endif
  64:Drivers/CMSIS/Include/cmsis_gcc.h **** #ifndef   __PACKED_STRUCT
  65:Drivers/CMSIS/Include/cmsis_gcc.h ****   #define __PACKED_STRUCT                        struct __attribute__((packed, aligned(1)))
  66:Drivers/CMSIS/Include/cmsis_gcc.h **** #endif
  67:Drivers/CMSIS/Include/cmsis_gcc.h **** #ifndef   __PACKED_UNION
  68:Drivers/CMSIS/Include/cmsis_gcc.h ****   #define __PACKED_UNION                         union __attribute__((packed, aligned(1)))
  69:Drivers/CMSIS/Include/cmsis_gcc.h **** #endif
  70:Drivers/CMSIS/Include/cmsis_gcc.h **** #ifndef   __UNALIGNED_UINT32        /* deprecated */
  71:Drivers/CMSIS/Include/cmsis_gcc.h ****   #pragma GCC diagnostic push
  72:Drivers/CMSIS/Include/cmsis_gcc.h ****   #pragma GCC diagnostic ignored "-Wpacked"
  73:Drivers/CMSIS/Include/cmsis_gcc.h ****   #pragma GCC diagnostic ignored "-Wattributes"
  74:Drivers/CMSIS/Include/cmsis_gcc.h ****   struct __attribute__((packed)) T_UINT32 { uint32_t v; };
  75:Drivers/CMSIS/Include/cmsis_gcc.h ****   #pragma GCC diagnostic pop
  76:Drivers/CMSIS/Include/cmsis_gcc.h ****   #define __UNALIGNED_UINT32(x)                  (((struct T_UINT32 *)(x))->v)
  77:Drivers/CMSIS/Include/cmsis_gcc.h **** #endif
  78:Drivers/CMSIS/Include/cmsis_gcc.h **** #ifndef   __UNALIGNED_UINT16_WRITE
  79:Drivers/CMSIS/Include/cmsis_gcc.h ****   #pragma GCC diagnostic push
  80:Drivers/CMSIS/Include/cmsis_gcc.h ****   #pragma GCC diagnostic ignored "-Wpacked"
  81:Drivers/CMSIS/Include/cmsis_gcc.h ****   #pragma GCC diagnostic ignored "-Wattributes"
  82:Drivers/CMSIS/Include/cmsis_gcc.h ****   __PACKED_STRUCT T_UINT16_WRITE { uint16_t v; };
  83:Drivers/CMSIS/Include/cmsis_gcc.h ****   #pragma GCC diagnostic pop
  84:Drivers/CMSIS/Include/cmsis_gcc.h ****   #define __UNALIGNED_UINT16_WRITE(addr, val)    (void)((((struct T_UINT16_WRITE *)(void *)(addr))-
  85:Drivers/CMSIS/Include/cmsis_gcc.h **** #endif
  86:Drivers/CMSIS/Include/cmsis_gcc.h **** #ifndef   __UNALIGNED_UINT16_READ
  87:Drivers/CMSIS/Include/cmsis_gcc.h ****   #pragma GCC diagnostic push
  88:Drivers/CMSIS/Include/cmsis_gcc.h ****   #pragma GCC diagnostic ignored "-Wpacked"
  89:Drivers/CMSIS/Include/cmsis_gcc.h ****   #pragma GCC diagnostic ignored "-Wattributes"
  90:Drivers/CMSIS/Include/cmsis_gcc.h ****   __PACKED_STRUCT T_UINT16_READ { uint16_t v; };
  91:Drivers/CMSIS/Include/cmsis_gcc.h ****   #pragma GCC diagnostic pop
  92:Drivers/CMSIS/Include/cmsis_gcc.h ****   #define __UNALIGNED_UINT16_READ(addr)          (((const struct T_UINT16_READ *)(const void *)(add
  93:Drivers/CMSIS/Include/cmsis_gcc.h **** #endif
  94:Drivers/CMSIS/Include/cmsis_gcc.h **** #ifndef   __UNALIGNED_UINT32_WRITE
  95:Drivers/CMSIS/Include/cmsis_gcc.h ****   #pragma GCC diagnostic push
  96:Drivers/CMSIS/Include/cmsis_gcc.h ****   #pragma GCC diagnostic ignored "-Wpacked"
ARM GAS  C:\Users\Vento\AppData\Local\Temp\ccdqD43g.s 			page 19


  97:Drivers/CMSIS/Include/cmsis_gcc.h ****   #pragma GCC diagnostic ignored "-Wattributes"
  98:Drivers/CMSIS/Include/cmsis_gcc.h ****   __PACKED_STRUCT T_UINT32_WRITE { uint32_t v; };
  99:Drivers/CMSIS/Include/cmsis_gcc.h ****   #pragma GCC diagnostic pop
 100:Drivers/CMSIS/Include/cmsis_gcc.h ****   #define __UNALIGNED_UINT32_WRITE(addr, val)    (void)((((struct T_UINT32_WRITE *)(void *)(addr))-
 101:Drivers/CMSIS/Include/cmsis_gcc.h **** #endif
 102:Drivers/CMSIS/Include/cmsis_gcc.h **** #ifndef   __UNALIGNED_UINT32_READ
 103:Drivers/CMSIS/Include/cmsis_gcc.h ****   #pragma GCC diagnostic push
 104:Drivers/CMSIS/Include/cmsis_gcc.h ****   #pragma GCC diagnostic ignored "-Wpacked"
 105:Drivers/CMSIS/Include/cmsis_gcc.h ****   #pragma GCC diagnostic ignored "-Wattributes"
 106:Drivers/CMSIS/Include/cmsis_gcc.h ****   __PACKED_STRUCT T_UINT32_READ { uint32_t v; };
 107:Drivers/CMSIS/Include/cmsis_gcc.h ****   #pragma GCC diagnostic pop
 108:Drivers/CMSIS/Include/cmsis_gcc.h ****   #define __UNALIGNED_UINT32_READ(addr)          (((const struct T_UINT32_READ *)(const void *)(add
 109:Drivers/CMSIS/Include/cmsis_gcc.h **** #endif
 110:Drivers/CMSIS/Include/cmsis_gcc.h **** #ifndef   __ALIGNED
 111:Drivers/CMSIS/Include/cmsis_gcc.h ****   #define __ALIGNED(x)                           __attribute__((aligned(x)))
 112:Drivers/CMSIS/Include/cmsis_gcc.h **** #endif
 113:Drivers/CMSIS/Include/cmsis_gcc.h **** #ifndef   __RESTRICT
 114:Drivers/CMSIS/Include/cmsis_gcc.h ****   #define __RESTRICT                             __restrict
 115:Drivers/CMSIS/Include/cmsis_gcc.h **** #endif
 116:Drivers/CMSIS/Include/cmsis_gcc.h **** 
 117:Drivers/CMSIS/Include/cmsis_gcc.h **** 
 118:Drivers/CMSIS/Include/cmsis_gcc.h **** /* ###########################  Core Function Access  ########################### */
 119:Drivers/CMSIS/Include/cmsis_gcc.h **** /** \ingroup  CMSIS_Core_FunctionInterface
 120:Drivers/CMSIS/Include/cmsis_gcc.h ****     \defgroup CMSIS_Core_RegAccFunctions CMSIS Core Register Access Functions
 121:Drivers/CMSIS/Include/cmsis_gcc.h ****   @{
 122:Drivers/CMSIS/Include/cmsis_gcc.h ****  */
 123:Drivers/CMSIS/Include/cmsis_gcc.h **** 
 124:Drivers/CMSIS/Include/cmsis_gcc.h **** /**
 125:Drivers/CMSIS/Include/cmsis_gcc.h ****   \brief   Enable IRQ Interrupts
 126:Drivers/CMSIS/Include/cmsis_gcc.h ****   \details Enables IRQ interrupts by clearing the I-bit in the CPSR.
 127:Drivers/CMSIS/Include/cmsis_gcc.h ****            Can only be executed in Privileged modes.
 128:Drivers/CMSIS/Include/cmsis_gcc.h ****  */
 129:Drivers/CMSIS/Include/cmsis_gcc.h **** __STATIC_FORCEINLINE void __enable_irq(void)
 130:Drivers/CMSIS/Include/cmsis_gcc.h **** {
 131:Drivers/CMSIS/Include/cmsis_gcc.h ****   __ASM volatile ("cpsie i" : : : "memory");
 132:Drivers/CMSIS/Include/cmsis_gcc.h **** }
 133:Drivers/CMSIS/Include/cmsis_gcc.h **** 
 134:Drivers/CMSIS/Include/cmsis_gcc.h **** 
 135:Drivers/CMSIS/Include/cmsis_gcc.h **** /**
 136:Drivers/CMSIS/Include/cmsis_gcc.h ****   \brief   Disable IRQ Interrupts
 137:Drivers/CMSIS/Include/cmsis_gcc.h ****   \details Disables IRQ interrupts by setting the I-bit in the CPSR.
 138:Drivers/CMSIS/Include/cmsis_gcc.h ****            Can only be executed in Privileged modes.
 139:Drivers/CMSIS/Include/cmsis_gcc.h ****  */
 140:Drivers/CMSIS/Include/cmsis_gcc.h **** __STATIC_FORCEINLINE void __disable_irq(void)
 141:Drivers/CMSIS/Include/cmsis_gcc.h **** {
 142:Drivers/CMSIS/Include/cmsis_gcc.h ****   __ASM volatile ("cpsid i" : : : "memory");
 143:Drivers/CMSIS/Include/cmsis_gcc.h **** }
 144:Drivers/CMSIS/Include/cmsis_gcc.h **** 
 145:Drivers/CMSIS/Include/cmsis_gcc.h **** 
 146:Drivers/CMSIS/Include/cmsis_gcc.h **** /**
 147:Drivers/CMSIS/Include/cmsis_gcc.h ****   \brief   Get Control Register
 148:Drivers/CMSIS/Include/cmsis_gcc.h ****   \details Returns the content of the Control Register.
 149:Drivers/CMSIS/Include/cmsis_gcc.h ****   \return               Control Register value
 150:Drivers/CMSIS/Include/cmsis_gcc.h ****  */
 151:Drivers/CMSIS/Include/cmsis_gcc.h **** __STATIC_FORCEINLINE uint32_t __get_CONTROL(void)
 152:Drivers/CMSIS/Include/cmsis_gcc.h **** {
 153:Drivers/CMSIS/Include/cmsis_gcc.h ****   uint32_t result;
ARM GAS  C:\Users\Vento\AppData\Local\Temp\ccdqD43g.s 			page 20


 154:Drivers/CMSIS/Include/cmsis_gcc.h **** 
 155:Drivers/CMSIS/Include/cmsis_gcc.h ****   __ASM volatile ("MRS %0, control" : "=r" (result) );
 156:Drivers/CMSIS/Include/cmsis_gcc.h ****   return(result);
 157:Drivers/CMSIS/Include/cmsis_gcc.h **** }
 158:Drivers/CMSIS/Include/cmsis_gcc.h **** 
 159:Drivers/CMSIS/Include/cmsis_gcc.h **** 
 160:Drivers/CMSIS/Include/cmsis_gcc.h **** #if (defined (__ARM_FEATURE_CMSE ) && (__ARM_FEATURE_CMSE == 3))
 161:Drivers/CMSIS/Include/cmsis_gcc.h **** /**
 162:Drivers/CMSIS/Include/cmsis_gcc.h ****   \brief   Get Control Register (non-secure)
 163:Drivers/CMSIS/Include/cmsis_gcc.h ****   \details Returns the content of the non-secure Control Register when in secure mode.
 164:Drivers/CMSIS/Include/cmsis_gcc.h ****   \return               non-secure Control Register value
 165:Drivers/CMSIS/Include/cmsis_gcc.h ****  */
 166:Drivers/CMSIS/Include/cmsis_gcc.h **** __STATIC_FORCEINLINE uint32_t __TZ_get_CONTROL_NS(void)
 167:Drivers/CMSIS/Include/cmsis_gcc.h **** {
 168:Drivers/CMSIS/Include/cmsis_gcc.h ****   uint32_t result;
 169:Drivers/CMSIS/Include/cmsis_gcc.h **** 
 170:Drivers/CMSIS/Include/cmsis_gcc.h ****   __ASM volatile ("MRS %0, control_ns" : "=r" (result) );
 171:Drivers/CMSIS/Include/cmsis_gcc.h ****   return(result);
 172:Drivers/CMSIS/Include/cmsis_gcc.h **** }
 173:Drivers/CMSIS/Include/cmsis_gcc.h **** #endif
 174:Drivers/CMSIS/Include/cmsis_gcc.h **** 
 175:Drivers/CMSIS/Include/cmsis_gcc.h **** 
 176:Drivers/CMSIS/Include/cmsis_gcc.h **** /**
 177:Drivers/CMSIS/Include/cmsis_gcc.h ****   \brief   Set Control Register
 178:Drivers/CMSIS/Include/cmsis_gcc.h ****   \details Writes the given value to the Control Register.
 179:Drivers/CMSIS/Include/cmsis_gcc.h ****   \param [in]    control  Control Register value to set
 180:Drivers/CMSIS/Include/cmsis_gcc.h ****  */
 181:Drivers/CMSIS/Include/cmsis_gcc.h **** __STATIC_FORCEINLINE void __set_CONTROL(uint32_t control)
 182:Drivers/CMSIS/Include/cmsis_gcc.h **** {
 183:Drivers/CMSIS/Include/cmsis_gcc.h ****   __ASM volatile ("MSR control, %0" : : "r" (control) : "memory");
 184:Drivers/CMSIS/Include/cmsis_gcc.h **** }
 185:Drivers/CMSIS/Include/cmsis_gcc.h **** 
 186:Drivers/CMSIS/Include/cmsis_gcc.h **** 
 187:Drivers/CMSIS/Include/cmsis_gcc.h **** #if (defined (__ARM_FEATURE_CMSE ) && (__ARM_FEATURE_CMSE == 3))
 188:Drivers/CMSIS/Include/cmsis_gcc.h **** /**
 189:Drivers/CMSIS/Include/cmsis_gcc.h ****   \brief   Set Control Register (non-secure)
 190:Drivers/CMSIS/Include/cmsis_gcc.h ****   \details Writes the given value to the non-secure Control Register when in secure state.
 191:Drivers/CMSIS/Include/cmsis_gcc.h ****   \param [in]    control  Control Register value to set
 192:Drivers/CMSIS/Include/cmsis_gcc.h ****  */
 193:Drivers/CMSIS/Include/cmsis_gcc.h **** __STATIC_FORCEINLINE void __TZ_set_CONTROL_NS(uint32_t control)
 194:Drivers/CMSIS/Include/cmsis_gcc.h **** {
 195:Drivers/CMSIS/Include/cmsis_gcc.h ****   __ASM volatile ("MSR control_ns, %0" : : "r" (control) : "memory");
 196:Drivers/CMSIS/Include/cmsis_gcc.h **** }
 197:Drivers/CMSIS/Include/cmsis_gcc.h **** #endif
 198:Drivers/CMSIS/Include/cmsis_gcc.h **** 
 199:Drivers/CMSIS/Include/cmsis_gcc.h **** 
 200:Drivers/CMSIS/Include/cmsis_gcc.h **** /**
 201:Drivers/CMSIS/Include/cmsis_gcc.h ****   \brief   Get IPSR Register
 202:Drivers/CMSIS/Include/cmsis_gcc.h ****   \details Returns the content of the IPSR Register.
 203:Drivers/CMSIS/Include/cmsis_gcc.h ****   \return               IPSR Register value
 204:Drivers/CMSIS/Include/cmsis_gcc.h ****  */
 205:Drivers/CMSIS/Include/cmsis_gcc.h **** __STATIC_FORCEINLINE uint32_t __get_IPSR(void)
 206:Drivers/CMSIS/Include/cmsis_gcc.h **** {
 207:Drivers/CMSIS/Include/cmsis_gcc.h ****   uint32_t result;
 208:Drivers/CMSIS/Include/cmsis_gcc.h **** 
 209:Drivers/CMSIS/Include/cmsis_gcc.h ****   __ASM volatile ("MRS %0, ipsr" : "=r" (result) );
 210:Drivers/CMSIS/Include/cmsis_gcc.h ****   return(result);
ARM GAS  C:\Users\Vento\AppData\Local\Temp\ccdqD43g.s 			page 21


 211:Drivers/CMSIS/Include/cmsis_gcc.h **** }
 212:Drivers/CMSIS/Include/cmsis_gcc.h **** 
 213:Drivers/CMSIS/Include/cmsis_gcc.h **** 
 214:Drivers/CMSIS/Include/cmsis_gcc.h **** /**
 215:Drivers/CMSIS/Include/cmsis_gcc.h ****   \brief   Get APSR Register
 216:Drivers/CMSIS/Include/cmsis_gcc.h ****   \details Returns the content of the APSR Register.
 217:Drivers/CMSIS/Include/cmsis_gcc.h ****   \return               APSR Register value
 218:Drivers/CMSIS/Include/cmsis_gcc.h ****  */
 219:Drivers/CMSIS/Include/cmsis_gcc.h **** __STATIC_FORCEINLINE uint32_t __get_APSR(void)
 220:Drivers/CMSIS/Include/cmsis_gcc.h **** {
 221:Drivers/CMSIS/Include/cmsis_gcc.h ****   uint32_t result;
 222:Drivers/CMSIS/Include/cmsis_gcc.h **** 
 223:Drivers/CMSIS/Include/cmsis_gcc.h ****   __ASM volatile ("MRS %0, apsr" : "=r" (result) );
 224:Drivers/CMSIS/Include/cmsis_gcc.h ****   return(result);
 225:Drivers/CMSIS/Include/cmsis_gcc.h **** }
 226:Drivers/CMSIS/Include/cmsis_gcc.h **** 
 227:Drivers/CMSIS/Include/cmsis_gcc.h **** 
 228:Drivers/CMSIS/Include/cmsis_gcc.h **** /**
 229:Drivers/CMSIS/Include/cmsis_gcc.h ****   \brief   Get xPSR Register
 230:Drivers/CMSIS/Include/cmsis_gcc.h ****   \details Returns the content of the xPSR Register.
 231:Drivers/CMSIS/Include/cmsis_gcc.h ****   \return               xPSR Register value
 232:Drivers/CMSIS/Include/cmsis_gcc.h ****  */
 233:Drivers/CMSIS/Include/cmsis_gcc.h **** __STATIC_FORCEINLINE uint32_t __get_xPSR(void)
 234:Drivers/CMSIS/Include/cmsis_gcc.h **** {
 235:Drivers/CMSIS/Include/cmsis_gcc.h ****   uint32_t result;
 236:Drivers/CMSIS/Include/cmsis_gcc.h **** 
 237:Drivers/CMSIS/Include/cmsis_gcc.h ****   __ASM volatile ("MRS %0, xpsr" : "=r" (result) );
 238:Drivers/CMSIS/Include/cmsis_gcc.h ****   return(result);
 239:Drivers/CMSIS/Include/cmsis_gcc.h **** }
 240:Drivers/CMSIS/Include/cmsis_gcc.h **** 
 241:Drivers/CMSIS/Include/cmsis_gcc.h **** 
 242:Drivers/CMSIS/Include/cmsis_gcc.h **** /**
 243:Drivers/CMSIS/Include/cmsis_gcc.h ****   \brief   Get Process Stack Pointer
 244:Drivers/CMSIS/Include/cmsis_gcc.h ****   \details Returns the current value of the Process Stack Pointer (PSP).
 245:Drivers/CMSIS/Include/cmsis_gcc.h ****   \return               PSP Register value
 246:Drivers/CMSIS/Include/cmsis_gcc.h ****  */
 247:Drivers/CMSIS/Include/cmsis_gcc.h **** __STATIC_FORCEINLINE uint32_t __get_PSP(void)
 248:Drivers/CMSIS/Include/cmsis_gcc.h **** {
 249:Drivers/CMSIS/Include/cmsis_gcc.h ****   uint32_t result;
 250:Drivers/CMSIS/Include/cmsis_gcc.h **** 
 251:Drivers/CMSIS/Include/cmsis_gcc.h ****   __ASM volatile ("MRS %0, psp"  : "=r" (result) );
 252:Drivers/CMSIS/Include/cmsis_gcc.h ****   return(result);
 253:Drivers/CMSIS/Include/cmsis_gcc.h **** }
 254:Drivers/CMSIS/Include/cmsis_gcc.h **** 
 255:Drivers/CMSIS/Include/cmsis_gcc.h **** 
 256:Drivers/CMSIS/Include/cmsis_gcc.h **** #if (defined (__ARM_FEATURE_CMSE ) && (__ARM_FEATURE_CMSE == 3))
 257:Drivers/CMSIS/Include/cmsis_gcc.h **** /**
 258:Drivers/CMSIS/Include/cmsis_gcc.h ****   \brief   Get Process Stack Pointer (non-secure)
 259:Drivers/CMSIS/Include/cmsis_gcc.h ****   \details Returns the current value of the non-secure Process Stack Pointer (PSP) when in secure s
 260:Drivers/CMSIS/Include/cmsis_gcc.h ****   \return               PSP Register value
 261:Drivers/CMSIS/Include/cmsis_gcc.h ****  */
 262:Drivers/CMSIS/Include/cmsis_gcc.h **** __STATIC_FORCEINLINE uint32_t __TZ_get_PSP_NS(void)
 263:Drivers/CMSIS/Include/cmsis_gcc.h **** {
 264:Drivers/CMSIS/Include/cmsis_gcc.h ****   uint32_t result;
 265:Drivers/CMSIS/Include/cmsis_gcc.h **** 
 266:Drivers/CMSIS/Include/cmsis_gcc.h ****   __ASM volatile ("MRS %0, psp_ns"  : "=r" (result) );
 267:Drivers/CMSIS/Include/cmsis_gcc.h ****   return(result);
ARM GAS  C:\Users\Vento\AppData\Local\Temp\ccdqD43g.s 			page 22


 268:Drivers/CMSIS/Include/cmsis_gcc.h **** }
 269:Drivers/CMSIS/Include/cmsis_gcc.h **** #endif
 270:Drivers/CMSIS/Include/cmsis_gcc.h **** 
 271:Drivers/CMSIS/Include/cmsis_gcc.h **** 
 272:Drivers/CMSIS/Include/cmsis_gcc.h **** /**
 273:Drivers/CMSIS/Include/cmsis_gcc.h ****   \brief   Set Process Stack Pointer
 274:Drivers/CMSIS/Include/cmsis_gcc.h ****   \details Assigns the given value to the Process Stack Pointer (PSP).
 275:Drivers/CMSIS/Include/cmsis_gcc.h ****   \param [in]    topOfProcStack  Process Stack Pointer value to set
 276:Drivers/CMSIS/Include/cmsis_gcc.h ****  */
 277:Drivers/CMSIS/Include/cmsis_gcc.h **** __STATIC_FORCEINLINE void __set_PSP(uint32_t topOfProcStack)
 278:Drivers/CMSIS/Include/cmsis_gcc.h **** {
 279:Drivers/CMSIS/Include/cmsis_gcc.h ****   __ASM volatile ("MSR psp, %0" : : "r" (topOfProcStack) : );
 280:Drivers/CMSIS/Include/cmsis_gcc.h **** }
 281:Drivers/CMSIS/Include/cmsis_gcc.h **** 
 282:Drivers/CMSIS/Include/cmsis_gcc.h **** 
 283:Drivers/CMSIS/Include/cmsis_gcc.h **** #if (defined (__ARM_FEATURE_CMSE ) && (__ARM_FEATURE_CMSE == 3))
 284:Drivers/CMSIS/Include/cmsis_gcc.h **** /**
 285:Drivers/CMSIS/Include/cmsis_gcc.h ****   \brief   Set Process Stack Pointer (non-secure)
 286:Drivers/CMSIS/Include/cmsis_gcc.h ****   \details Assigns the given value to the non-secure Process Stack Pointer (PSP) when in secure sta
 287:Drivers/CMSIS/Include/cmsis_gcc.h ****   \param [in]    topOfProcStack  Process Stack Pointer value to set
 288:Drivers/CMSIS/Include/cmsis_gcc.h ****  */
 289:Drivers/CMSIS/Include/cmsis_gcc.h **** __STATIC_FORCEINLINE void __TZ_set_PSP_NS(uint32_t topOfProcStack)
 290:Drivers/CMSIS/Include/cmsis_gcc.h **** {
 291:Drivers/CMSIS/Include/cmsis_gcc.h ****   __ASM volatile ("MSR psp_ns, %0" : : "r" (topOfProcStack) : );
 292:Drivers/CMSIS/Include/cmsis_gcc.h **** }
 293:Drivers/CMSIS/Include/cmsis_gcc.h **** #endif
 294:Drivers/CMSIS/Include/cmsis_gcc.h **** 
 295:Drivers/CMSIS/Include/cmsis_gcc.h **** 
 296:Drivers/CMSIS/Include/cmsis_gcc.h **** /**
 297:Drivers/CMSIS/Include/cmsis_gcc.h ****   \brief   Get Main Stack Pointer
 298:Drivers/CMSIS/Include/cmsis_gcc.h ****   \details Returns the current value of the Main Stack Pointer (MSP).
 299:Drivers/CMSIS/Include/cmsis_gcc.h ****   \return               MSP Register value
 300:Drivers/CMSIS/Include/cmsis_gcc.h ****  */
 301:Drivers/CMSIS/Include/cmsis_gcc.h **** __STATIC_FORCEINLINE uint32_t __get_MSP(void)
 302:Drivers/CMSIS/Include/cmsis_gcc.h **** {
 303:Drivers/CMSIS/Include/cmsis_gcc.h ****   uint32_t result;
 304:Drivers/CMSIS/Include/cmsis_gcc.h **** 
 305:Drivers/CMSIS/Include/cmsis_gcc.h ****   __ASM volatile ("MRS %0, msp" : "=r" (result) );
 306:Drivers/CMSIS/Include/cmsis_gcc.h ****   return(result);
 307:Drivers/CMSIS/Include/cmsis_gcc.h **** }
 308:Drivers/CMSIS/Include/cmsis_gcc.h **** 
 309:Drivers/CMSIS/Include/cmsis_gcc.h **** 
 310:Drivers/CMSIS/Include/cmsis_gcc.h **** #if (defined (__ARM_FEATURE_CMSE ) && (__ARM_FEATURE_CMSE == 3))
 311:Drivers/CMSIS/Include/cmsis_gcc.h **** /**
 312:Drivers/CMSIS/Include/cmsis_gcc.h ****   \brief   Get Main Stack Pointer (non-secure)
 313:Drivers/CMSIS/Include/cmsis_gcc.h ****   \details Returns the current value of the non-secure Main Stack Pointer (MSP) when in secure stat
 314:Drivers/CMSIS/Include/cmsis_gcc.h ****   \return               MSP Register value
 315:Drivers/CMSIS/Include/cmsis_gcc.h ****  */
 316:Drivers/CMSIS/Include/cmsis_gcc.h **** __STATIC_FORCEINLINE uint32_t __TZ_get_MSP_NS(void)
 317:Drivers/CMSIS/Include/cmsis_gcc.h **** {
 318:Drivers/CMSIS/Include/cmsis_gcc.h ****   uint32_t result;
 319:Drivers/CMSIS/Include/cmsis_gcc.h **** 
 320:Drivers/CMSIS/Include/cmsis_gcc.h ****   __ASM volatile ("MRS %0, msp_ns" : "=r" (result) );
 321:Drivers/CMSIS/Include/cmsis_gcc.h ****   return(result);
 322:Drivers/CMSIS/Include/cmsis_gcc.h **** }
 323:Drivers/CMSIS/Include/cmsis_gcc.h **** #endif
 324:Drivers/CMSIS/Include/cmsis_gcc.h **** 
ARM GAS  C:\Users\Vento\AppData\Local\Temp\ccdqD43g.s 			page 23


 325:Drivers/CMSIS/Include/cmsis_gcc.h **** 
 326:Drivers/CMSIS/Include/cmsis_gcc.h **** /**
 327:Drivers/CMSIS/Include/cmsis_gcc.h ****   \brief   Set Main Stack Pointer
 328:Drivers/CMSIS/Include/cmsis_gcc.h ****   \details Assigns the given value to the Main Stack Pointer (MSP).
 329:Drivers/CMSIS/Include/cmsis_gcc.h ****   \param [in]    topOfMainStack  Main Stack Pointer value to set
 330:Drivers/CMSIS/Include/cmsis_gcc.h ****  */
 331:Drivers/CMSIS/Include/cmsis_gcc.h **** __STATIC_FORCEINLINE void __set_MSP(uint32_t topOfMainStack)
 332:Drivers/CMSIS/Include/cmsis_gcc.h **** {
 333:Drivers/CMSIS/Include/cmsis_gcc.h ****   __ASM volatile ("MSR msp, %0" : : "r" (topOfMainStack) : );
 334:Drivers/CMSIS/Include/cmsis_gcc.h **** }
 335:Drivers/CMSIS/Include/cmsis_gcc.h **** 
 336:Drivers/CMSIS/Include/cmsis_gcc.h **** 
 337:Drivers/CMSIS/Include/cmsis_gcc.h **** #if (defined (__ARM_FEATURE_CMSE ) && (__ARM_FEATURE_CMSE == 3))
 338:Drivers/CMSIS/Include/cmsis_gcc.h **** /**
 339:Drivers/CMSIS/Include/cmsis_gcc.h ****   \brief   Set Main Stack Pointer (non-secure)
 340:Drivers/CMSIS/Include/cmsis_gcc.h ****   \details Assigns the given value to the non-secure Main Stack Pointer (MSP) when in secure state.
 341:Drivers/CMSIS/Include/cmsis_gcc.h ****   \param [in]    topOfMainStack  Main Stack Pointer value to set
 342:Drivers/CMSIS/Include/cmsis_gcc.h ****  */
 343:Drivers/CMSIS/Include/cmsis_gcc.h **** __STATIC_FORCEINLINE void __TZ_set_MSP_NS(uint32_t topOfMainStack)
 344:Drivers/CMSIS/Include/cmsis_gcc.h **** {
 345:Drivers/CMSIS/Include/cmsis_gcc.h ****   __ASM volatile ("MSR msp_ns, %0" : : "r" (topOfMainStack) : );
 346:Drivers/CMSIS/Include/cmsis_gcc.h **** }
 347:Drivers/CMSIS/Include/cmsis_gcc.h **** #endif
 348:Drivers/CMSIS/Include/cmsis_gcc.h **** 
 349:Drivers/CMSIS/Include/cmsis_gcc.h **** 
 350:Drivers/CMSIS/Include/cmsis_gcc.h **** #if (defined (__ARM_FEATURE_CMSE ) && (__ARM_FEATURE_CMSE == 3))
 351:Drivers/CMSIS/Include/cmsis_gcc.h **** /**
 352:Drivers/CMSIS/Include/cmsis_gcc.h ****   \brief   Get Stack Pointer (non-secure)
 353:Drivers/CMSIS/Include/cmsis_gcc.h ****   \details Returns the current value of the non-secure Stack Pointer (SP) when in secure state.
 354:Drivers/CMSIS/Include/cmsis_gcc.h ****   \return               SP Register value
 355:Drivers/CMSIS/Include/cmsis_gcc.h ****  */
 356:Drivers/CMSIS/Include/cmsis_gcc.h **** __STATIC_FORCEINLINE uint32_t __TZ_get_SP_NS(void)
 357:Drivers/CMSIS/Include/cmsis_gcc.h **** {
 358:Drivers/CMSIS/Include/cmsis_gcc.h ****   uint32_t result;
 359:Drivers/CMSIS/Include/cmsis_gcc.h **** 
 360:Drivers/CMSIS/Include/cmsis_gcc.h ****   __ASM volatile ("MRS %0, sp_ns" : "=r" (result) );
 361:Drivers/CMSIS/Include/cmsis_gcc.h ****   return(result);
 362:Drivers/CMSIS/Include/cmsis_gcc.h **** }
 363:Drivers/CMSIS/Include/cmsis_gcc.h **** 
 364:Drivers/CMSIS/Include/cmsis_gcc.h **** 
 365:Drivers/CMSIS/Include/cmsis_gcc.h **** /**
 366:Drivers/CMSIS/Include/cmsis_gcc.h ****   \brief   Set Stack Pointer (non-secure)
 367:Drivers/CMSIS/Include/cmsis_gcc.h ****   \details Assigns the given value to the non-secure Stack Pointer (SP) when in secure state.
 368:Drivers/CMSIS/Include/cmsis_gcc.h ****   \param [in]    topOfStack  Stack Pointer value to set
 369:Drivers/CMSIS/Include/cmsis_gcc.h ****  */
 370:Drivers/CMSIS/Include/cmsis_gcc.h **** __STATIC_FORCEINLINE void __TZ_set_SP_NS(uint32_t topOfStack)
 371:Drivers/CMSIS/Include/cmsis_gcc.h **** {
 372:Drivers/CMSIS/Include/cmsis_gcc.h ****   __ASM volatile ("MSR sp_ns, %0" : : "r" (topOfStack) : );
 373:Drivers/CMSIS/Include/cmsis_gcc.h **** }
 374:Drivers/CMSIS/Include/cmsis_gcc.h **** #endif
 375:Drivers/CMSIS/Include/cmsis_gcc.h **** 
 376:Drivers/CMSIS/Include/cmsis_gcc.h **** 
 377:Drivers/CMSIS/Include/cmsis_gcc.h **** /**
 378:Drivers/CMSIS/Include/cmsis_gcc.h ****   \brief   Get Priority Mask
 379:Drivers/CMSIS/Include/cmsis_gcc.h ****   \details Returns the current state of the priority mask bit from the Priority Mask Register.
 380:Drivers/CMSIS/Include/cmsis_gcc.h ****   \return               Priority Mask value
 381:Drivers/CMSIS/Include/cmsis_gcc.h ****  */
ARM GAS  C:\Users\Vento\AppData\Local\Temp\ccdqD43g.s 			page 24


 382:Drivers/CMSIS/Include/cmsis_gcc.h **** __STATIC_FORCEINLINE uint32_t __get_PRIMASK(void)
 383:Drivers/CMSIS/Include/cmsis_gcc.h **** {
 384:Drivers/CMSIS/Include/cmsis_gcc.h ****   uint32_t result;
 385:Drivers/CMSIS/Include/cmsis_gcc.h **** 
 386:Drivers/CMSIS/Include/cmsis_gcc.h ****   __ASM volatile ("MRS %0, primask" : "=r" (result) :: "memory");
 387:Drivers/CMSIS/Include/cmsis_gcc.h ****   return(result);
 388:Drivers/CMSIS/Include/cmsis_gcc.h **** }
 389:Drivers/CMSIS/Include/cmsis_gcc.h **** 
 390:Drivers/CMSIS/Include/cmsis_gcc.h **** 
 391:Drivers/CMSIS/Include/cmsis_gcc.h **** #if (defined (__ARM_FEATURE_CMSE ) && (__ARM_FEATURE_CMSE == 3))
 392:Drivers/CMSIS/Include/cmsis_gcc.h **** /**
 393:Drivers/CMSIS/Include/cmsis_gcc.h ****   \brief   Get Priority Mask (non-secure)
 394:Drivers/CMSIS/Include/cmsis_gcc.h ****   \details Returns the current state of the non-secure priority mask bit from the Priority Mask Reg
 395:Drivers/CMSIS/Include/cmsis_gcc.h ****   \return               Priority Mask value
 396:Drivers/CMSIS/Include/cmsis_gcc.h ****  */
 397:Drivers/CMSIS/Include/cmsis_gcc.h **** __STATIC_FORCEINLINE uint32_t __TZ_get_PRIMASK_NS(void)
 398:Drivers/CMSIS/Include/cmsis_gcc.h **** {
 399:Drivers/CMSIS/Include/cmsis_gcc.h ****   uint32_t result;
 400:Drivers/CMSIS/Include/cmsis_gcc.h **** 
 401:Drivers/CMSIS/Include/cmsis_gcc.h ****   __ASM volatile ("MRS %0, primask_ns" : "=r" (result) :: "memory");
 402:Drivers/CMSIS/Include/cmsis_gcc.h ****   return(result);
 403:Drivers/CMSIS/Include/cmsis_gcc.h **** }
 404:Drivers/CMSIS/Include/cmsis_gcc.h **** #endif
 405:Drivers/CMSIS/Include/cmsis_gcc.h **** 
 406:Drivers/CMSIS/Include/cmsis_gcc.h **** 
 407:Drivers/CMSIS/Include/cmsis_gcc.h **** /**
 408:Drivers/CMSIS/Include/cmsis_gcc.h ****   \brief   Set Priority Mask
 409:Drivers/CMSIS/Include/cmsis_gcc.h ****   \details Assigns the given value to the Priority Mask Register.
 410:Drivers/CMSIS/Include/cmsis_gcc.h ****   \param [in]    priMask  Priority Mask
 411:Drivers/CMSIS/Include/cmsis_gcc.h ****  */
 412:Drivers/CMSIS/Include/cmsis_gcc.h **** __STATIC_FORCEINLINE void __set_PRIMASK(uint32_t priMask)
 413:Drivers/CMSIS/Include/cmsis_gcc.h **** {
 414:Drivers/CMSIS/Include/cmsis_gcc.h ****   __ASM volatile ("MSR primask, %0" : : "r" (priMask) : "memory");
 415:Drivers/CMSIS/Include/cmsis_gcc.h **** }
 416:Drivers/CMSIS/Include/cmsis_gcc.h **** 
 417:Drivers/CMSIS/Include/cmsis_gcc.h **** 
 418:Drivers/CMSIS/Include/cmsis_gcc.h **** #if (defined (__ARM_FEATURE_CMSE ) && (__ARM_FEATURE_CMSE == 3))
 419:Drivers/CMSIS/Include/cmsis_gcc.h **** /**
 420:Drivers/CMSIS/Include/cmsis_gcc.h ****   \brief   Set Priority Mask (non-secure)
 421:Drivers/CMSIS/Include/cmsis_gcc.h ****   \details Assigns the given value to the non-secure Priority Mask Register when in secure state.
 422:Drivers/CMSIS/Include/cmsis_gcc.h ****   \param [in]    priMask  Priority Mask
 423:Drivers/CMSIS/Include/cmsis_gcc.h ****  */
 424:Drivers/CMSIS/Include/cmsis_gcc.h **** __STATIC_FORCEINLINE void __TZ_set_PRIMASK_NS(uint32_t priMask)
 425:Drivers/CMSIS/Include/cmsis_gcc.h **** {
 426:Drivers/CMSIS/Include/cmsis_gcc.h ****   __ASM volatile ("MSR primask_ns, %0" : : "r" (priMask) : "memory");
 427:Drivers/CMSIS/Include/cmsis_gcc.h **** }
 428:Drivers/CMSIS/Include/cmsis_gcc.h **** #endif
 429:Drivers/CMSIS/Include/cmsis_gcc.h **** 
 430:Drivers/CMSIS/Include/cmsis_gcc.h **** 
 431:Drivers/CMSIS/Include/cmsis_gcc.h **** #if ((defined (__ARM_ARCH_7M__      ) && (__ARM_ARCH_7M__      == 1)) || \
 432:Drivers/CMSIS/Include/cmsis_gcc.h ****      (defined (__ARM_ARCH_7EM__     ) && (__ARM_ARCH_7EM__     == 1)) || \
 433:Drivers/CMSIS/Include/cmsis_gcc.h ****      (defined (__ARM_ARCH_8M_MAIN__ ) && (__ARM_ARCH_8M_MAIN__ == 1))    )
 434:Drivers/CMSIS/Include/cmsis_gcc.h **** /**
 435:Drivers/CMSIS/Include/cmsis_gcc.h ****   \brief   Enable FIQ
 436:Drivers/CMSIS/Include/cmsis_gcc.h ****   \details Enables FIQ interrupts by clearing the F-bit in the CPSR.
 437:Drivers/CMSIS/Include/cmsis_gcc.h ****            Can only be executed in Privileged modes.
 438:Drivers/CMSIS/Include/cmsis_gcc.h ****  */
ARM GAS  C:\Users\Vento\AppData\Local\Temp\ccdqD43g.s 			page 25


 439:Drivers/CMSIS/Include/cmsis_gcc.h **** __STATIC_FORCEINLINE void __enable_fault_irq(void)
 440:Drivers/CMSIS/Include/cmsis_gcc.h **** {
 441:Drivers/CMSIS/Include/cmsis_gcc.h ****   __ASM volatile ("cpsie f" : : : "memory");
 442:Drivers/CMSIS/Include/cmsis_gcc.h **** }
 443:Drivers/CMSIS/Include/cmsis_gcc.h **** 
 444:Drivers/CMSIS/Include/cmsis_gcc.h **** 
 445:Drivers/CMSIS/Include/cmsis_gcc.h **** /**
 446:Drivers/CMSIS/Include/cmsis_gcc.h ****   \brief   Disable FIQ
 447:Drivers/CMSIS/Include/cmsis_gcc.h ****   \details Disables FIQ interrupts by setting the F-bit in the CPSR.
 448:Drivers/CMSIS/Include/cmsis_gcc.h ****            Can only be executed in Privileged modes.
 449:Drivers/CMSIS/Include/cmsis_gcc.h ****  */
 450:Drivers/CMSIS/Include/cmsis_gcc.h **** __STATIC_FORCEINLINE void __disable_fault_irq(void)
 451:Drivers/CMSIS/Include/cmsis_gcc.h **** {
 452:Drivers/CMSIS/Include/cmsis_gcc.h ****   __ASM volatile ("cpsid f" : : : "memory");
 453:Drivers/CMSIS/Include/cmsis_gcc.h **** }
 454:Drivers/CMSIS/Include/cmsis_gcc.h **** 
 455:Drivers/CMSIS/Include/cmsis_gcc.h **** 
 456:Drivers/CMSIS/Include/cmsis_gcc.h **** /**
 457:Drivers/CMSIS/Include/cmsis_gcc.h ****   \brief   Get Base Priority
 458:Drivers/CMSIS/Include/cmsis_gcc.h ****   \details Returns the current value of the Base Priority register.
 459:Drivers/CMSIS/Include/cmsis_gcc.h ****   \return               Base Priority register value
 460:Drivers/CMSIS/Include/cmsis_gcc.h ****  */
 461:Drivers/CMSIS/Include/cmsis_gcc.h **** __STATIC_FORCEINLINE uint32_t __get_BASEPRI(void)
 462:Drivers/CMSIS/Include/cmsis_gcc.h **** {
 463:Drivers/CMSIS/Include/cmsis_gcc.h ****   uint32_t result;
 464:Drivers/CMSIS/Include/cmsis_gcc.h **** 
 465:Drivers/CMSIS/Include/cmsis_gcc.h ****   __ASM volatile ("MRS %0, basepri" : "=r" (result) );
 466:Drivers/CMSIS/Include/cmsis_gcc.h ****   return(result);
 467:Drivers/CMSIS/Include/cmsis_gcc.h **** }
 468:Drivers/CMSIS/Include/cmsis_gcc.h **** 
 469:Drivers/CMSIS/Include/cmsis_gcc.h **** 
 470:Drivers/CMSIS/Include/cmsis_gcc.h **** #if (defined (__ARM_FEATURE_CMSE ) && (__ARM_FEATURE_CMSE == 3))
 471:Drivers/CMSIS/Include/cmsis_gcc.h **** /**
 472:Drivers/CMSIS/Include/cmsis_gcc.h ****   \brief   Get Base Priority (non-secure)
 473:Drivers/CMSIS/Include/cmsis_gcc.h ****   \details Returns the current value of the non-secure Base Priority register when in secure state.
 474:Drivers/CMSIS/Include/cmsis_gcc.h ****   \return               Base Priority register value
 475:Drivers/CMSIS/Include/cmsis_gcc.h ****  */
 476:Drivers/CMSIS/Include/cmsis_gcc.h **** __STATIC_FORCEINLINE uint32_t __TZ_get_BASEPRI_NS(void)
 477:Drivers/CMSIS/Include/cmsis_gcc.h **** {
 478:Drivers/CMSIS/Include/cmsis_gcc.h ****   uint32_t result;
 479:Drivers/CMSIS/Include/cmsis_gcc.h **** 
 480:Drivers/CMSIS/Include/cmsis_gcc.h ****   __ASM volatile ("MRS %0, basepri_ns" : "=r" (result) );
 481:Drivers/CMSIS/Include/cmsis_gcc.h ****   return(result);
 482:Drivers/CMSIS/Include/cmsis_gcc.h **** }
 483:Drivers/CMSIS/Include/cmsis_gcc.h **** #endif
 484:Drivers/CMSIS/Include/cmsis_gcc.h **** 
 485:Drivers/CMSIS/Include/cmsis_gcc.h **** 
 486:Drivers/CMSIS/Include/cmsis_gcc.h **** /**
 487:Drivers/CMSIS/Include/cmsis_gcc.h ****   \brief   Set Base Priority
 488:Drivers/CMSIS/Include/cmsis_gcc.h ****   \details Assigns the given value to the Base Priority register.
 489:Drivers/CMSIS/Include/cmsis_gcc.h ****   \param [in]    basePri  Base Priority value to set
 490:Drivers/CMSIS/Include/cmsis_gcc.h ****  */
 491:Drivers/CMSIS/Include/cmsis_gcc.h **** __STATIC_FORCEINLINE void __set_BASEPRI(uint32_t basePri)
 492:Drivers/CMSIS/Include/cmsis_gcc.h **** {
 493:Drivers/CMSIS/Include/cmsis_gcc.h ****   __ASM volatile ("MSR basepri, %0" : : "r" (basePri) : "memory");
 494:Drivers/CMSIS/Include/cmsis_gcc.h **** }
 495:Drivers/CMSIS/Include/cmsis_gcc.h **** 
ARM GAS  C:\Users\Vento\AppData\Local\Temp\ccdqD43g.s 			page 26


 496:Drivers/CMSIS/Include/cmsis_gcc.h **** 
 497:Drivers/CMSIS/Include/cmsis_gcc.h **** #if (defined (__ARM_FEATURE_CMSE ) && (__ARM_FEATURE_CMSE == 3))
 498:Drivers/CMSIS/Include/cmsis_gcc.h **** /**
 499:Drivers/CMSIS/Include/cmsis_gcc.h ****   \brief   Set Base Priority (non-secure)
 500:Drivers/CMSIS/Include/cmsis_gcc.h ****   \details Assigns the given value to the non-secure Base Priority register when in secure state.
 501:Drivers/CMSIS/Include/cmsis_gcc.h ****   \param [in]    basePri  Base Priority value to set
 502:Drivers/CMSIS/Include/cmsis_gcc.h ****  */
 503:Drivers/CMSIS/Include/cmsis_gcc.h **** __STATIC_FORCEINLINE void __TZ_set_BASEPRI_NS(uint32_t basePri)
 504:Drivers/CMSIS/Include/cmsis_gcc.h **** {
 505:Drivers/CMSIS/Include/cmsis_gcc.h ****   __ASM volatile ("MSR basepri_ns, %0" : : "r" (basePri) : "memory");
 506:Drivers/CMSIS/Include/cmsis_gcc.h **** }
 507:Drivers/CMSIS/Include/cmsis_gcc.h **** #endif
 508:Drivers/CMSIS/Include/cmsis_gcc.h **** 
 509:Drivers/CMSIS/Include/cmsis_gcc.h **** 
 510:Drivers/CMSIS/Include/cmsis_gcc.h **** /**
 511:Drivers/CMSIS/Include/cmsis_gcc.h ****   \brief   Set Base Priority with condition
 512:Drivers/CMSIS/Include/cmsis_gcc.h ****   \details Assigns the given value to the Base Priority register only if BASEPRI masking is disable
 513:Drivers/CMSIS/Include/cmsis_gcc.h ****            or the new value increases the BASEPRI priority level.
 514:Drivers/CMSIS/Include/cmsis_gcc.h ****   \param [in]    basePri  Base Priority value to set
 515:Drivers/CMSIS/Include/cmsis_gcc.h ****  */
 516:Drivers/CMSIS/Include/cmsis_gcc.h **** __STATIC_FORCEINLINE void __set_BASEPRI_MAX(uint32_t basePri)
 517:Drivers/CMSIS/Include/cmsis_gcc.h **** {
 518:Drivers/CMSIS/Include/cmsis_gcc.h ****   __ASM volatile ("MSR basepri_max, %0" : : "r" (basePri) : "memory");
 519:Drivers/CMSIS/Include/cmsis_gcc.h **** }
 520:Drivers/CMSIS/Include/cmsis_gcc.h **** 
 521:Drivers/CMSIS/Include/cmsis_gcc.h **** 
 522:Drivers/CMSIS/Include/cmsis_gcc.h **** /**
 523:Drivers/CMSIS/Include/cmsis_gcc.h ****   \brief   Get Fault Mask
 524:Drivers/CMSIS/Include/cmsis_gcc.h ****   \details Returns the current value of the Fault Mask register.
 525:Drivers/CMSIS/Include/cmsis_gcc.h ****   \return               Fault Mask register value
 526:Drivers/CMSIS/Include/cmsis_gcc.h ****  */
 527:Drivers/CMSIS/Include/cmsis_gcc.h **** __STATIC_FORCEINLINE uint32_t __get_FAULTMASK(void)
 528:Drivers/CMSIS/Include/cmsis_gcc.h **** {
 529:Drivers/CMSIS/Include/cmsis_gcc.h ****   uint32_t result;
 530:Drivers/CMSIS/Include/cmsis_gcc.h **** 
 531:Drivers/CMSIS/Include/cmsis_gcc.h ****   __ASM volatile ("MRS %0, faultmask" : "=r" (result) );
 532:Drivers/CMSIS/Include/cmsis_gcc.h ****   return(result);
 533:Drivers/CMSIS/Include/cmsis_gcc.h **** }
 534:Drivers/CMSIS/Include/cmsis_gcc.h **** 
 535:Drivers/CMSIS/Include/cmsis_gcc.h **** 
 536:Drivers/CMSIS/Include/cmsis_gcc.h **** #if (defined (__ARM_FEATURE_CMSE ) && (__ARM_FEATURE_CMSE == 3))
 537:Drivers/CMSIS/Include/cmsis_gcc.h **** /**
 538:Drivers/CMSIS/Include/cmsis_gcc.h ****   \brief   Get Fault Mask (non-secure)
 539:Drivers/CMSIS/Include/cmsis_gcc.h ****   \details Returns the current value of the non-secure Fault Mask register when in secure state.
 540:Drivers/CMSIS/Include/cmsis_gcc.h ****   \return               Fault Mask register value
 541:Drivers/CMSIS/Include/cmsis_gcc.h ****  */
 542:Drivers/CMSIS/Include/cmsis_gcc.h **** __STATIC_FORCEINLINE uint32_t __TZ_get_FAULTMASK_NS(void)
 543:Drivers/CMSIS/Include/cmsis_gcc.h **** {
 544:Drivers/CMSIS/Include/cmsis_gcc.h ****   uint32_t result;
 545:Drivers/CMSIS/Include/cmsis_gcc.h **** 
 546:Drivers/CMSIS/Include/cmsis_gcc.h ****   __ASM volatile ("MRS %0, faultmask_ns" : "=r" (result) );
 547:Drivers/CMSIS/Include/cmsis_gcc.h ****   return(result);
 548:Drivers/CMSIS/Include/cmsis_gcc.h **** }
 549:Drivers/CMSIS/Include/cmsis_gcc.h **** #endif
 550:Drivers/CMSIS/Include/cmsis_gcc.h **** 
 551:Drivers/CMSIS/Include/cmsis_gcc.h **** 
 552:Drivers/CMSIS/Include/cmsis_gcc.h **** /**
ARM GAS  C:\Users\Vento\AppData\Local\Temp\ccdqD43g.s 			page 27


 553:Drivers/CMSIS/Include/cmsis_gcc.h ****   \brief   Set Fault Mask
 554:Drivers/CMSIS/Include/cmsis_gcc.h ****   \details Assigns the given value to the Fault Mask register.
 555:Drivers/CMSIS/Include/cmsis_gcc.h ****   \param [in]    faultMask  Fault Mask value to set
 556:Drivers/CMSIS/Include/cmsis_gcc.h ****  */
 557:Drivers/CMSIS/Include/cmsis_gcc.h **** __STATIC_FORCEINLINE void __set_FAULTMASK(uint32_t faultMask)
 558:Drivers/CMSIS/Include/cmsis_gcc.h **** {
 559:Drivers/CMSIS/Include/cmsis_gcc.h ****   __ASM volatile ("MSR faultmask, %0" : : "r" (faultMask) : "memory");
 560:Drivers/CMSIS/Include/cmsis_gcc.h **** }
 561:Drivers/CMSIS/Include/cmsis_gcc.h **** 
 562:Drivers/CMSIS/Include/cmsis_gcc.h **** 
 563:Drivers/CMSIS/Include/cmsis_gcc.h **** #if (defined (__ARM_FEATURE_CMSE ) && (__ARM_FEATURE_CMSE == 3))
 564:Drivers/CMSIS/Include/cmsis_gcc.h **** /**
 565:Drivers/CMSIS/Include/cmsis_gcc.h ****   \brief   Set Fault Mask (non-secure)
 566:Drivers/CMSIS/Include/cmsis_gcc.h ****   \details Assigns the given value to the non-secure Fault Mask register when in secure state.
 567:Drivers/CMSIS/Include/cmsis_gcc.h ****   \param [in]    faultMask  Fault Mask value to set
 568:Drivers/CMSIS/Include/cmsis_gcc.h ****  */
 569:Drivers/CMSIS/Include/cmsis_gcc.h **** __STATIC_FORCEINLINE void __TZ_set_FAULTMASK_NS(uint32_t faultMask)
 570:Drivers/CMSIS/Include/cmsis_gcc.h **** {
 571:Drivers/CMSIS/Include/cmsis_gcc.h ****   __ASM volatile ("MSR faultmask_ns, %0" : : "r" (faultMask) : "memory");
 572:Drivers/CMSIS/Include/cmsis_gcc.h **** }
 573:Drivers/CMSIS/Include/cmsis_gcc.h **** #endif
 574:Drivers/CMSIS/Include/cmsis_gcc.h **** 
 575:Drivers/CMSIS/Include/cmsis_gcc.h **** #endif /* ((defined (__ARM_ARCH_7M__      ) && (__ARM_ARCH_7M__      == 1)) || \
 576:Drivers/CMSIS/Include/cmsis_gcc.h ****            (defined (__ARM_ARCH_7EM__     ) && (__ARM_ARCH_7EM__     == 1)) || \
 577:Drivers/CMSIS/Include/cmsis_gcc.h ****            (defined (__ARM_ARCH_8M_MAIN__ ) && (__ARM_ARCH_8M_MAIN__ == 1))    ) */
 578:Drivers/CMSIS/Include/cmsis_gcc.h **** 
 579:Drivers/CMSIS/Include/cmsis_gcc.h **** 
 580:Drivers/CMSIS/Include/cmsis_gcc.h **** #if ((defined (__ARM_ARCH_8M_MAIN__ ) && (__ARM_ARCH_8M_MAIN__ == 1)) || \
 581:Drivers/CMSIS/Include/cmsis_gcc.h ****      (defined (__ARM_ARCH_8M_BASE__ ) && (__ARM_ARCH_8M_BASE__ == 1))    )
 582:Drivers/CMSIS/Include/cmsis_gcc.h **** 
 583:Drivers/CMSIS/Include/cmsis_gcc.h **** /**
 584:Drivers/CMSIS/Include/cmsis_gcc.h ****   \brief   Get Process Stack Pointer Limit
 585:Drivers/CMSIS/Include/cmsis_gcc.h ****   Devices without ARMv8-M Main Extensions (i.e. Cortex-M23) lack the non-secure
 586:Drivers/CMSIS/Include/cmsis_gcc.h ****   Stack Pointer Limit register hence zero is returned always in non-secure
 587:Drivers/CMSIS/Include/cmsis_gcc.h ****   mode.
 588:Drivers/CMSIS/Include/cmsis_gcc.h ****   
 589:Drivers/CMSIS/Include/cmsis_gcc.h ****   \details Returns the current value of the Process Stack Pointer Limit (PSPLIM).
 590:Drivers/CMSIS/Include/cmsis_gcc.h ****   \return               PSPLIM Register value
 591:Drivers/CMSIS/Include/cmsis_gcc.h ****  */
 592:Drivers/CMSIS/Include/cmsis_gcc.h **** __STATIC_FORCEINLINE uint32_t __get_PSPLIM(void)
 593:Drivers/CMSIS/Include/cmsis_gcc.h **** {
 594:Drivers/CMSIS/Include/cmsis_gcc.h **** #if (!(defined (__ARM_ARCH_8M_MAIN__ ) && (__ARM_ARCH_8M_MAIN__ == 1)) && \
 595:Drivers/CMSIS/Include/cmsis_gcc.h ****     (!defined (__ARM_FEATURE_CMSE) || (__ARM_FEATURE_CMSE < 3)))
 596:Drivers/CMSIS/Include/cmsis_gcc.h ****     // without main extensions, the non-secure PSPLIM is RAZ/WI
 597:Drivers/CMSIS/Include/cmsis_gcc.h ****   return 0U;
 598:Drivers/CMSIS/Include/cmsis_gcc.h **** #else
 599:Drivers/CMSIS/Include/cmsis_gcc.h ****   uint32_t result;
 600:Drivers/CMSIS/Include/cmsis_gcc.h ****   __ASM volatile ("MRS %0, psplim"  : "=r" (result) );
 601:Drivers/CMSIS/Include/cmsis_gcc.h ****   return result;
 602:Drivers/CMSIS/Include/cmsis_gcc.h **** #endif
 603:Drivers/CMSIS/Include/cmsis_gcc.h **** }
 604:Drivers/CMSIS/Include/cmsis_gcc.h **** 
 605:Drivers/CMSIS/Include/cmsis_gcc.h **** #if (defined (__ARM_FEATURE_CMSE) && (__ARM_FEATURE_CMSE == 3))
 606:Drivers/CMSIS/Include/cmsis_gcc.h **** /**
 607:Drivers/CMSIS/Include/cmsis_gcc.h ****   \brief   Get Process Stack Pointer Limit (non-secure)
 608:Drivers/CMSIS/Include/cmsis_gcc.h ****   Devices without ARMv8-M Main Extensions (i.e. Cortex-M23) lack the non-secure
 609:Drivers/CMSIS/Include/cmsis_gcc.h ****   Stack Pointer Limit register hence zero is returned always.
ARM GAS  C:\Users\Vento\AppData\Local\Temp\ccdqD43g.s 			page 28


 610:Drivers/CMSIS/Include/cmsis_gcc.h **** 
 611:Drivers/CMSIS/Include/cmsis_gcc.h ****   \details Returns the current value of the non-secure Process Stack Pointer Limit (PSPLIM) when in
 612:Drivers/CMSIS/Include/cmsis_gcc.h ****   \return               PSPLIM Register value
 613:Drivers/CMSIS/Include/cmsis_gcc.h ****  */
 614:Drivers/CMSIS/Include/cmsis_gcc.h **** __STATIC_FORCEINLINE uint32_t __TZ_get_PSPLIM_NS(void)
 615:Drivers/CMSIS/Include/cmsis_gcc.h **** {
 616:Drivers/CMSIS/Include/cmsis_gcc.h **** #if (!(defined (__ARM_ARCH_8M_MAIN__ ) && (__ARM_ARCH_8M_MAIN__ == 1)))
 617:Drivers/CMSIS/Include/cmsis_gcc.h ****   // without main extensions, the non-secure PSPLIM is RAZ/WI
 618:Drivers/CMSIS/Include/cmsis_gcc.h ****   return 0U;
 619:Drivers/CMSIS/Include/cmsis_gcc.h **** #else
 620:Drivers/CMSIS/Include/cmsis_gcc.h ****   uint32_t result;
 621:Drivers/CMSIS/Include/cmsis_gcc.h ****   __ASM volatile ("MRS %0, psplim_ns"  : "=r" (result) );
 622:Drivers/CMSIS/Include/cmsis_gcc.h ****   return result;
 623:Drivers/CMSIS/Include/cmsis_gcc.h **** #endif
 624:Drivers/CMSIS/Include/cmsis_gcc.h **** }
 625:Drivers/CMSIS/Include/cmsis_gcc.h **** #endif
 626:Drivers/CMSIS/Include/cmsis_gcc.h **** 
 627:Drivers/CMSIS/Include/cmsis_gcc.h **** 
 628:Drivers/CMSIS/Include/cmsis_gcc.h **** /**
 629:Drivers/CMSIS/Include/cmsis_gcc.h ****   \brief   Set Process Stack Pointer Limit
 630:Drivers/CMSIS/Include/cmsis_gcc.h ****   Devices without ARMv8-M Main Extensions (i.e. Cortex-M23) lack the non-secure
 631:Drivers/CMSIS/Include/cmsis_gcc.h ****   Stack Pointer Limit register hence the write is silently ignored in non-secure
 632:Drivers/CMSIS/Include/cmsis_gcc.h ****   mode.
 633:Drivers/CMSIS/Include/cmsis_gcc.h ****   
 634:Drivers/CMSIS/Include/cmsis_gcc.h ****   \details Assigns the given value to the Process Stack Pointer Limit (PSPLIM).
 635:Drivers/CMSIS/Include/cmsis_gcc.h ****   \param [in]    ProcStackPtrLimit  Process Stack Pointer Limit value to set
 636:Drivers/CMSIS/Include/cmsis_gcc.h ****  */
 637:Drivers/CMSIS/Include/cmsis_gcc.h **** __STATIC_FORCEINLINE void __set_PSPLIM(uint32_t ProcStackPtrLimit)
 638:Drivers/CMSIS/Include/cmsis_gcc.h **** {
 639:Drivers/CMSIS/Include/cmsis_gcc.h **** #if (!(defined (__ARM_ARCH_8M_MAIN__ ) && (__ARM_ARCH_8M_MAIN__ == 1)) && \
 640:Drivers/CMSIS/Include/cmsis_gcc.h ****     (!defined (__ARM_FEATURE_CMSE) || (__ARM_FEATURE_CMSE < 3)))
 641:Drivers/CMSIS/Include/cmsis_gcc.h ****   // without main extensions, the non-secure PSPLIM is RAZ/WI
 642:Drivers/CMSIS/Include/cmsis_gcc.h ****   (void)ProcStackPtrLimit;
 643:Drivers/CMSIS/Include/cmsis_gcc.h **** #else
 644:Drivers/CMSIS/Include/cmsis_gcc.h ****   __ASM volatile ("MSR psplim, %0" : : "r" (ProcStackPtrLimit));
 645:Drivers/CMSIS/Include/cmsis_gcc.h **** #endif
 646:Drivers/CMSIS/Include/cmsis_gcc.h **** }
 647:Drivers/CMSIS/Include/cmsis_gcc.h **** 
 648:Drivers/CMSIS/Include/cmsis_gcc.h **** 
 649:Drivers/CMSIS/Include/cmsis_gcc.h **** #if (defined (__ARM_FEATURE_CMSE  ) && (__ARM_FEATURE_CMSE   == 3))
 650:Drivers/CMSIS/Include/cmsis_gcc.h **** /**
 651:Drivers/CMSIS/Include/cmsis_gcc.h ****   \brief   Set Process Stack Pointer (non-secure)
 652:Drivers/CMSIS/Include/cmsis_gcc.h ****   Devices without ARMv8-M Main Extensions (i.e. Cortex-M23) lack the non-secure
 653:Drivers/CMSIS/Include/cmsis_gcc.h ****   Stack Pointer Limit register hence the write is silently ignored.
 654:Drivers/CMSIS/Include/cmsis_gcc.h **** 
 655:Drivers/CMSIS/Include/cmsis_gcc.h ****   \details Assigns the given value to the non-secure Process Stack Pointer Limit (PSPLIM) when in s
 656:Drivers/CMSIS/Include/cmsis_gcc.h ****   \param [in]    ProcStackPtrLimit  Process Stack Pointer Limit value to set
 657:Drivers/CMSIS/Include/cmsis_gcc.h ****  */
 658:Drivers/CMSIS/Include/cmsis_gcc.h **** __STATIC_FORCEINLINE void __TZ_set_PSPLIM_NS(uint32_t ProcStackPtrLimit)
 659:Drivers/CMSIS/Include/cmsis_gcc.h **** {
 660:Drivers/CMSIS/Include/cmsis_gcc.h **** #if (!(defined (__ARM_ARCH_8M_MAIN__ ) && (__ARM_ARCH_8M_MAIN__ == 1)))
 661:Drivers/CMSIS/Include/cmsis_gcc.h ****   // without main extensions, the non-secure PSPLIM is RAZ/WI
 662:Drivers/CMSIS/Include/cmsis_gcc.h ****   (void)ProcStackPtrLimit;
 663:Drivers/CMSIS/Include/cmsis_gcc.h **** #else
 664:Drivers/CMSIS/Include/cmsis_gcc.h ****   __ASM volatile ("MSR psplim_ns, %0\n" : : "r" (ProcStackPtrLimit));
 665:Drivers/CMSIS/Include/cmsis_gcc.h **** #endif
 666:Drivers/CMSIS/Include/cmsis_gcc.h **** }
ARM GAS  C:\Users\Vento\AppData\Local\Temp\ccdqD43g.s 			page 29


 667:Drivers/CMSIS/Include/cmsis_gcc.h **** #endif
 668:Drivers/CMSIS/Include/cmsis_gcc.h **** 
 669:Drivers/CMSIS/Include/cmsis_gcc.h **** 
 670:Drivers/CMSIS/Include/cmsis_gcc.h **** /**
 671:Drivers/CMSIS/Include/cmsis_gcc.h ****   \brief   Get Main Stack Pointer Limit
 672:Drivers/CMSIS/Include/cmsis_gcc.h ****   Devices without ARMv8-M Main Extensions (i.e. Cortex-M23) lack the non-secure
 673:Drivers/CMSIS/Include/cmsis_gcc.h ****   Stack Pointer Limit register hence zero is returned always in non-secure
 674:Drivers/CMSIS/Include/cmsis_gcc.h ****   mode.
 675:Drivers/CMSIS/Include/cmsis_gcc.h **** 
 676:Drivers/CMSIS/Include/cmsis_gcc.h ****   \details Returns the current value of the Main Stack Pointer Limit (MSPLIM).
 677:Drivers/CMSIS/Include/cmsis_gcc.h ****   \return               MSPLIM Register value
 678:Drivers/CMSIS/Include/cmsis_gcc.h ****  */
 679:Drivers/CMSIS/Include/cmsis_gcc.h **** __STATIC_FORCEINLINE uint32_t __get_MSPLIM(void)
 680:Drivers/CMSIS/Include/cmsis_gcc.h **** {
 681:Drivers/CMSIS/Include/cmsis_gcc.h **** #if (!(defined (__ARM_ARCH_8M_MAIN__ ) && (__ARM_ARCH_8M_MAIN__ == 1)) && \
 682:Drivers/CMSIS/Include/cmsis_gcc.h ****     (!defined (__ARM_FEATURE_CMSE) || (__ARM_FEATURE_CMSE < 3)))
 683:Drivers/CMSIS/Include/cmsis_gcc.h ****   // without main extensions, the non-secure MSPLIM is RAZ/WI
 684:Drivers/CMSIS/Include/cmsis_gcc.h ****   return 0U;
 685:Drivers/CMSIS/Include/cmsis_gcc.h **** #else
 686:Drivers/CMSIS/Include/cmsis_gcc.h ****   uint32_t result;
 687:Drivers/CMSIS/Include/cmsis_gcc.h ****   __ASM volatile ("MRS %0, msplim" : "=r" (result) );
 688:Drivers/CMSIS/Include/cmsis_gcc.h ****   return result;
 689:Drivers/CMSIS/Include/cmsis_gcc.h **** #endif
 690:Drivers/CMSIS/Include/cmsis_gcc.h **** }
 691:Drivers/CMSIS/Include/cmsis_gcc.h **** 
 692:Drivers/CMSIS/Include/cmsis_gcc.h **** 
 693:Drivers/CMSIS/Include/cmsis_gcc.h **** #if (defined (__ARM_FEATURE_CMSE  ) && (__ARM_FEATURE_CMSE   == 3))
 694:Drivers/CMSIS/Include/cmsis_gcc.h **** /**
 695:Drivers/CMSIS/Include/cmsis_gcc.h ****   \brief   Get Main Stack Pointer Limit (non-secure)
 696:Drivers/CMSIS/Include/cmsis_gcc.h ****   Devices without ARMv8-M Main Extensions (i.e. Cortex-M23) lack the non-secure
 697:Drivers/CMSIS/Include/cmsis_gcc.h ****   Stack Pointer Limit register hence zero is returned always.
 698:Drivers/CMSIS/Include/cmsis_gcc.h **** 
 699:Drivers/CMSIS/Include/cmsis_gcc.h ****   \details Returns the current value of the non-secure Main Stack Pointer Limit(MSPLIM) when in sec
 700:Drivers/CMSIS/Include/cmsis_gcc.h ****   \return               MSPLIM Register value
 701:Drivers/CMSIS/Include/cmsis_gcc.h ****  */
 702:Drivers/CMSIS/Include/cmsis_gcc.h **** __STATIC_FORCEINLINE uint32_t __TZ_get_MSPLIM_NS(void)
 703:Drivers/CMSIS/Include/cmsis_gcc.h **** {
 704:Drivers/CMSIS/Include/cmsis_gcc.h **** #if (!(defined (__ARM_ARCH_8M_MAIN__ ) && (__ARM_ARCH_8M_MAIN__ == 1)))
 705:Drivers/CMSIS/Include/cmsis_gcc.h ****   // without main extensions, the non-secure MSPLIM is RAZ/WI
 706:Drivers/CMSIS/Include/cmsis_gcc.h ****   return 0U;
 707:Drivers/CMSIS/Include/cmsis_gcc.h **** #else
 708:Drivers/CMSIS/Include/cmsis_gcc.h ****   uint32_t result;
 709:Drivers/CMSIS/Include/cmsis_gcc.h ****   __ASM volatile ("MRS %0, msplim_ns" : "=r" (result) );
 710:Drivers/CMSIS/Include/cmsis_gcc.h ****   return result;
 711:Drivers/CMSIS/Include/cmsis_gcc.h **** #endif
 712:Drivers/CMSIS/Include/cmsis_gcc.h **** }
 713:Drivers/CMSIS/Include/cmsis_gcc.h **** #endif
 714:Drivers/CMSIS/Include/cmsis_gcc.h **** 
 715:Drivers/CMSIS/Include/cmsis_gcc.h **** 
 716:Drivers/CMSIS/Include/cmsis_gcc.h **** /**
 717:Drivers/CMSIS/Include/cmsis_gcc.h ****   \brief   Set Main Stack Pointer Limit
 718:Drivers/CMSIS/Include/cmsis_gcc.h ****   Devices without ARMv8-M Main Extensions (i.e. Cortex-M23) lack the non-secure
 719:Drivers/CMSIS/Include/cmsis_gcc.h ****   Stack Pointer Limit register hence the write is silently ignored in non-secure
 720:Drivers/CMSIS/Include/cmsis_gcc.h ****   mode.
 721:Drivers/CMSIS/Include/cmsis_gcc.h **** 
 722:Drivers/CMSIS/Include/cmsis_gcc.h ****   \details Assigns the given value to the Main Stack Pointer Limit (MSPLIM).
 723:Drivers/CMSIS/Include/cmsis_gcc.h ****   \param [in]    MainStackPtrLimit  Main Stack Pointer Limit value to set
ARM GAS  C:\Users\Vento\AppData\Local\Temp\ccdqD43g.s 			page 30


 724:Drivers/CMSIS/Include/cmsis_gcc.h ****  */
 725:Drivers/CMSIS/Include/cmsis_gcc.h **** __STATIC_FORCEINLINE void __set_MSPLIM(uint32_t MainStackPtrLimit)
 726:Drivers/CMSIS/Include/cmsis_gcc.h **** {
 727:Drivers/CMSIS/Include/cmsis_gcc.h **** #if (!(defined (__ARM_ARCH_8M_MAIN__ ) && (__ARM_ARCH_8M_MAIN__ == 1)) && \
 728:Drivers/CMSIS/Include/cmsis_gcc.h ****     (!defined (__ARM_FEATURE_CMSE) || (__ARM_FEATURE_CMSE < 3)))
 729:Drivers/CMSIS/Include/cmsis_gcc.h ****   // without main extensions, the non-secure MSPLIM is RAZ/WI
 730:Drivers/CMSIS/Include/cmsis_gcc.h ****   (void)MainStackPtrLimit;
 731:Drivers/CMSIS/Include/cmsis_gcc.h **** #else
 732:Drivers/CMSIS/Include/cmsis_gcc.h ****   __ASM volatile ("MSR msplim, %0" : : "r" (MainStackPtrLimit));
 733:Drivers/CMSIS/Include/cmsis_gcc.h **** #endif
 734:Drivers/CMSIS/Include/cmsis_gcc.h **** }
 735:Drivers/CMSIS/Include/cmsis_gcc.h **** 
 736:Drivers/CMSIS/Include/cmsis_gcc.h **** 
 737:Drivers/CMSIS/Include/cmsis_gcc.h **** #if (defined (__ARM_FEATURE_CMSE  ) && (__ARM_FEATURE_CMSE   == 3))
 738:Drivers/CMSIS/Include/cmsis_gcc.h **** /**
 739:Drivers/CMSIS/Include/cmsis_gcc.h ****   \brief   Set Main Stack Pointer Limit (non-secure)
 740:Drivers/CMSIS/Include/cmsis_gcc.h ****   Devices without ARMv8-M Main Extensions (i.e. Cortex-M23) lack the non-secure
 741:Drivers/CMSIS/Include/cmsis_gcc.h ****   Stack Pointer Limit register hence the write is silently ignored.
 742:Drivers/CMSIS/Include/cmsis_gcc.h **** 
 743:Drivers/CMSIS/Include/cmsis_gcc.h ****   \details Assigns the given value to the non-secure Main Stack Pointer Limit (MSPLIM) when in secu
 744:Drivers/CMSIS/Include/cmsis_gcc.h ****   \param [in]    MainStackPtrLimit  Main Stack Pointer value to set
 745:Drivers/CMSIS/Include/cmsis_gcc.h ****  */
 746:Drivers/CMSIS/Include/cmsis_gcc.h **** __STATIC_FORCEINLINE void __TZ_set_MSPLIM_NS(uint32_t MainStackPtrLimit)
 747:Drivers/CMSIS/Include/cmsis_gcc.h **** {
 748:Drivers/CMSIS/Include/cmsis_gcc.h **** #if (!(defined (__ARM_ARCH_8M_MAIN__ ) && (__ARM_ARCH_8M_MAIN__ == 1)))
 749:Drivers/CMSIS/Include/cmsis_gcc.h ****   // without main extensions, the non-secure MSPLIM is RAZ/WI
 750:Drivers/CMSIS/Include/cmsis_gcc.h ****   (void)MainStackPtrLimit;
 751:Drivers/CMSIS/Include/cmsis_gcc.h **** #else
 752:Drivers/CMSIS/Include/cmsis_gcc.h ****   __ASM volatile ("MSR msplim_ns, %0" : : "r" (MainStackPtrLimit));
 753:Drivers/CMSIS/Include/cmsis_gcc.h **** #endif
 754:Drivers/CMSIS/Include/cmsis_gcc.h **** }
 755:Drivers/CMSIS/Include/cmsis_gcc.h **** #endif
 756:Drivers/CMSIS/Include/cmsis_gcc.h **** 
 757:Drivers/CMSIS/Include/cmsis_gcc.h **** #endif /* ((defined (__ARM_ARCH_8M_MAIN__ ) && (__ARM_ARCH_8M_MAIN__ == 1)) || \
 758:Drivers/CMSIS/Include/cmsis_gcc.h ****            (defined (__ARM_ARCH_8M_BASE__ ) && (__ARM_ARCH_8M_BASE__ == 1))    ) */
 759:Drivers/CMSIS/Include/cmsis_gcc.h **** 
 760:Drivers/CMSIS/Include/cmsis_gcc.h **** 
 761:Drivers/CMSIS/Include/cmsis_gcc.h **** /**
 762:Drivers/CMSIS/Include/cmsis_gcc.h ****   \brief   Get FPSCR
 763:Drivers/CMSIS/Include/cmsis_gcc.h ****   \details Returns the current value of the Floating Point Status/Control register.
 764:Drivers/CMSIS/Include/cmsis_gcc.h ****   \return               Floating Point Status/Control register value
 765:Drivers/CMSIS/Include/cmsis_gcc.h ****  */
 766:Drivers/CMSIS/Include/cmsis_gcc.h **** __STATIC_FORCEINLINE uint32_t __get_FPSCR(void)
 767:Drivers/CMSIS/Include/cmsis_gcc.h **** {
 768:Drivers/CMSIS/Include/cmsis_gcc.h **** #if ((defined (__FPU_PRESENT) && (__FPU_PRESENT == 1U)) && \
 769:Drivers/CMSIS/Include/cmsis_gcc.h ****      (defined (__FPU_USED   ) && (__FPU_USED    == 1U))     )
 770:Drivers/CMSIS/Include/cmsis_gcc.h **** #if __has_builtin(__builtin_arm_get_fpscr) 
 771:Drivers/CMSIS/Include/cmsis_gcc.h **** // Re-enable using built-in when GCC has been fixed
 772:Drivers/CMSIS/Include/cmsis_gcc.h **** // || (__GNUC__ > 7) || (__GNUC__ == 7 && __GNUC_MINOR__ >= 2)
 773:Drivers/CMSIS/Include/cmsis_gcc.h ****   /* see https://gcc.gnu.org/ml/gcc-patches/2017-04/msg00443.html */
 774:Drivers/CMSIS/Include/cmsis_gcc.h ****   return __builtin_arm_get_fpscr();
 775:Drivers/CMSIS/Include/cmsis_gcc.h **** #else
 776:Drivers/CMSIS/Include/cmsis_gcc.h ****   uint32_t result;
 777:Drivers/CMSIS/Include/cmsis_gcc.h **** 
 778:Drivers/CMSIS/Include/cmsis_gcc.h ****   __ASM volatile ("VMRS %0, fpscr" : "=r" (result) );
 779:Drivers/CMSIS/Include/cmsis_gcc.h ****   return(result);
 780:Drivers/CMSIS/Include/cmsis_gcc.h **** #endif
ARM GAS  C:\Users\Vento\AppData\Local\Temp\ccdqD43g.s 			page 31


 781:Drivers/CMSIS/Include/cmsis_gcc.h **** #else
 782:Drivers/CMSIS/Include/cmsis_gcc.h ****   return(0U);
 783:Drivers/CMSIS/Include/cmsis_gcc.h **** #endif
 784:Drivers/CMSIS/Include/cmsis_gcc.h **** }
 785:Drivers/CMSIS/Include/cmsis_gcc.h **** 
 786:Drivers/CMSIS/Include/cmsis_gcc.h **** 
 787:Drivers/CMSIS/Include/cmsis_gcc.h **** /**
 788:Drivers/CMSIS/Include/cmsis_gcc.h ****   \brief   Set FPSCR
 789:Drivers/CMSIS/Include/cmsis_gcc.h ****   \details Assigns the given value to the Floating Point Status/Control register.
 790:Drivers/CMSIS/Include/cmsis_gcc.h ****   \param [in]    fpscr  Floating Point Status/Control value to set
 791:Drivers/CMSIS/Include/cmsis_gcc.h ****  */
 792:Drivers/CMSIS/Include/cmsis_gcc.h **** __STATIC_FORCEINLINE void __set_FPSCR(uint32_t fpscr)
 793:Drivers/CMSIS/Include/cmsis_gcc.h **** {
 794:Drivers/CMSIS/Include/cmsis_gcc.h **** #if ((defined (__FPU_PRESENT) && (__FPU_PRESENT == 1U)) && \
 795:Drivers/CMSIS/Include/cmsis_gcc.h ****      (defined (__FPU_USED   ) && (__FPU_USED    == 1U))     )
 796:Drivers/CMSIS/Include/cmsis_gcc.h **** #if __has_builtin(__builtin_arm_set_fpscr)
 797:Drivers/CMSIS/Include/cmsis_gcc.h **** // Re-enable using built-in when GCC has been fixed
 798:Drivers/CMSIS/Include/cmsis_gcc.h **** // || (__GNUC__ > 7) || (__GNUC__ == 7 && __GNUC_MINOR__ >= 2)
 799:Drivers/CMSIS/Include/cmsis_gcc.h ****   /* see https://gcc.gnu.org/ml/gcc-patches/2017-04/msg00443.html */
 800:Drivers/CMSIS/Include/cmsis_gcc.h ****   __builtin_arm_set_fpscr(fpscr);
 801:Drivers/CMSIS/Include/cmsis_gcc.h **** #else
 802:Drivers/CMSIS/Include/cmsis_gcc.h ****   __ASM volatile ("VMSR fpscr, %0" : : "r" (fpscr) : "vfpcc", "memory");
 803:Drivers/CMSIS/Include/cmsis_gcc.h **** #endif
 804:Drivers/CMSIS/Include/cmsis_gcc.h **** #else
 805:Drivers/CMSIS/Include/cmsis_gcc.h ****   (void)fpscr;
 806:Drivers/CMSIS/Include/cmsis_gcc.h **** #endif
 807:Drivers/CMSIS/Include/cmsis_gcc.h **** }
 808:Drivers/CMSIS/Include/cmsis_gcc.h **** 
 809:Drivers/CMSIS/Include/cmsis_gcc.h **** 
 810:Drivers/CMSIS/Include/cmsis_gcc.h **** /*@} end of CMSIS_Core_RegAccFunctions */
 811:Drivers/CMSIS/Include/cmsis_gcc.h **** 
 812:Drivers/CMSIS/Include/cmsis_gcc.h **** 
 813:Drivers/CMSIS/Include/cmsis_gcc.h **** /* ##########################  Core Instruction Access  ######################### */
 814:Drivers/CMSIS/Include/cmsis_gcc.h **** /** \defgroup CMSIS_Core_InstructionInterface CMSIS Core Instruction Interface
 815:Drivers/CMSIS/Include/cmsis_gcc.h ****   Access to dedicated instructions
 816:Drivers/CMSIS/Include/cmsis_gcc.h ****   @{
 817:Drivers/CMSIS/Include/cmsis_gcc.h **** */
 818:Drivers/CMSIS/Include/cmsis_gcc.h **** 
 819:Drivers/CMSIS/Include/cmsis_gcc.h **** /* Define macros for porting to both thumb1 and thumb2.
 820:Drivers/CMSIS/Include/cmsis_gcc.h ****  * For thumb1, use low register (r0-r7), specified by constraint "l"
 821:Drivers/CMSIS/Include/cmsis_gcc.h ****  * Otherwise, use general registers, specified by constraint "r" */
 822:Drivers/CMSIS/Include/cmsis_gcc.h **** #if defined (__thumb__) && !defined (__thumb2__)
 823:Drivers/CMSIS/Include/cmsis_gcc.h **** #define __CMSIS_GCC_OUT_REG(r) "=l" (r)
 824:Drivers/CMSIS/Include/cmsis_gcc.h **** #define __CMSIS_GCC_RW_REG(r) "+l" (r)
 825:Drivers/CMSIS/Include/cmsis_gcc.h **** #define __CMSIS_GCC_USE_REG(r) "l" (r)
 826:Drivers/CMSIS/Include/cmsis_gcc.h **** #else
 827:Drivers/CMSIS/Include/cmsis_gcc.h **** #define __CMSIS_GCC_OUT_REG(r) "=r" (r)
 828:Drivers/CMSIS/Include/cmsis_gcc.h **** #define __CMSIS_GCC_RW_REG(r) "+r" (r)
 829:Drivers/CMSIS/Include/cmsis_gcc.h **** #define __CMSIS_GCC_USE_REG(r) "r" (r)
 830:Drivers/CMSIS/Include/cmsis_gcc.h **** #endif
 831:Drivers/CMSIS/Include/cmsis_gcc.h **** 
 832:Drivers/CMSIS/Include/cmsis_gcc.h **** /**
 833:Drivers/CMSIS/Include/cmsis_gcc.h ****   \brief   No Operation
 834:Drivers/CMSIS/Include/cmsis_gcc.h ****   \details No Operation does nothing. This instruction can be used for code alignment purposes.
 835:Drivers/CMSIS/Include/cmsis_gcc.h ****  */
 836:Drivers/CMSIS/Include/cmsis_gcc.h **** #define __NOP()                             __ASM volatile ("nop")
 837:Drivers/CMSIS/Include/cmsis_gcc.h **** 
ARM GAS  C:\Users\Vento\AppData\Local\Temp\ccdqD43g.s 			page 32


 838:Drivers/CMSIS/Include/cmsis_gcc.h **** /**
 839:Drivers/CMSIS/Include/cmsis_gcc.h ****   \brief   Wait For Interrupt
 840:Drivers/CMSIS/Include/cmsis_gcc.h ****   \details Wait For Interrupt is a hint instruction that suspends execution until one of a number o
 841:Drivers/CMSIS/Include/cmsis_gcc.h ****  */
 842:Drivers/CMSIS/Include/cmsis_gcc.h **** #define __WFI()                             __ASM volatile ("wfi")
 843:Drivers/CMSIS/Include/cmsis_gcc.h **** 
 844:Drivers/CMSIS/Include/cmsis_gcc.h **** 
 845:Drivers/CMSIS/Include/cmsis_gcc.h **** /**
 846:Drivers/CMSIS/Include/cmsis_gcc.h ****   \brief   Wait For Event
 847:Drivers/CMSIS/Include/cmsis_gcc.h ****   \details Wait For Event is a hint instruction that permits the processor to enter
 848:Drivers/CMSIS/Include/cmsis_gcc.h ****            a low-power state until one of a number of events occurs.
 849:Drivers/CMSIS/Include/cmsis_gcc.h ****  */
 850:Drivers/CMSIS/Include/cmsis_gcc.h **** #define __WFE()                             __ASM volatile ("wfe")
 851:Drivers/CMSIS/Include/cmsis_gcc.h **** 
 852:Drivers/CMSIS/Include/cmsis_gcc.h **** 
 853:Drivers/CMSIS/Include/cmsis_gcc.h **** /**
 854:Drivers/CMSIS/Include/cmsis_gcc.h ****   \brief   Send Event
 855:Drivers/CMSIS/Include/cmsis_gcc.h ****   \details Send Event is a hint instruction. It causes an event to be signaled to the CPU.
 856:Drivers/CMSIS/Include/cmsis_gcc.h ****  */
 857:Drivers/CMSIS/Include/cmsis_gcc.h **** #define __SEV()                             __ASM volatile ("sev")
 858:Drivers/CMSIS/Include/cmsis_gcc.h **** 
 859:Drivers/CMSIS/Include/cmsis_gcc.h **** 
 860:Drivers/CMSIS/Include/cmsis_gcc.h **** /**
 861:Drivers/CMSIS/Include/cmsis_gcc.h ****   \brief   Instruction Synchronization Barrier
 862:Drivers/CMSIS/Include/cmsis_gcc.h ****   \details Instruction Synchronization Barrier flushes the pipeline in the processor,
 863:Drivers/CMSIS/Include/cmsis_gcc.h ****            so that all instructions following the ISB are fetched from cache or memory,
 864:Drivers/CMSIS/Include/cmsis_gcc.h ****            after the instruction has been completed.
 865:Drivers/CMSIS/Include/cmsis_gcc.h ****  */
 866:Drivers/CMSIS/Include/cmsis_gcc.h **** __STATIC_FORCEINLINE void __ISB(void)
 867:Drivers/CMSIS/Include/cmsis_gcc.h **** {
 868:Drivers/CMSIS/Include/cmsis_gcc.h ****   __ASM volatile ("isb 0xF":::"memory");
 869:Drivers/CMSIS/Include/cmsis_gcc.h **** }
 870:Drivers/CMSIS/Include/cmsis_gcc.h **** 
 871:Drivers/CMSIS/Include/cmsis_gcc.h **** 
 872:Drivers/CMSIS/Include/cmsis_gcc.h **** /**
 873:Drivers/CMSIS/Include/cmsis_gcc.h ****   \brief   Data Synchronization Barrier
 874:Drivers/CMSIS/Include/cmsis_gcc.h ****   \details Acts as a special kind of Data Memory Barrier.
 875:Drivers/CMSIS/Include/cmsis_gcc.h ****            It completes when all explicit memory accesses before this instruction complete.
 876:Drivers/CMSIS/Include/cmsis_gcc.h ****  */
 877:Drivers/CMSIS/Include/cmsis_gcc.h **** __STATIC_FORCEINLINE void __DSB(void)
 456              		.loc 2 877 27 discriminator 1 view .LVU140
 457              	.LBB13:
 878:Drivers/CMSIS/Include/cmsis_gcc.h **** {
 879:Drivers/CMSIS/Include/cmsis_gcc.h ****   __ASM volatile ("dsb 0xF":::"memory");
 458              		.loc 2 879 3 discriminator 1 view .LVU141
 459              		.syntax unified
 460              	@ 879 "Drivers/CMSIS/Include/cmsis_gcc.h" 1
 461 007a BFF34F8F 		dsb 0xF
 462              	@ 0 "" 2
 463              		.thumb
 464              		.syntax unified
 465              	.LBE13:
 466              	.LBE12:
 454:Core/Src/main.c ****     __WFI();
 467              		.loc 1 454 5 discriminator 1 view .LVU142
 468              		.syntax unified
 469              	@ 454 "Core/Src/main.c" 1
ARM GAS  C:\Users\Vento\AppData\Local\Temp\ccdqD43g.s 			page 33


 470 007e 30BF     		wfi
 471              	@ 0 "" 2
 451:Core/Src/main.c ****   {
 472              		.loc 1 451 9 discriminator 1 view .LVU143
 473              		.thumb
 474              		.syntax unified
 475 0080 FBE7     		b	.L22
 476              	.L24:
 420:Core/Src/main.c ****   }
 477              		.loc 1 420 5 view .LVU144
 420:Core/Src/main.c ****   }
 478              		.loc 1 420 36 is_stmt 0 view .LVU145
 479 0082 0321     		movs	r1, #3
 480 0084 0B48     		ldr	r0, .L27+4
 481 0086 FFF7FEFF 		bl	HAL_RTCEx_BKUPRead
 482              	.LVL28:
 420:Core/Src/main.c ****   }
 483              		.loc 1 420 33 view .LVU146
 484 008a 9DF80630 		ldrb	r3, [sp, #6]	@ zero_extendqisi2
 485 008e 0344     		add	r3, r3, r0
 486 0090 8DF80630 		strb	r3, [sp, #6]
 487 0094 D0E7     		b	.L20
 488              	.L25:
 424:Core/Src/main.c ****   }
 489              		.loc 1 424 5 is_stmt 1 view .LVU147
 424:Core/Src/main.c ****   }
 490              		.loc 1 424 33 is_stmt 0 view .LVU148
 491 0096 9DF80530 		ldrb	r3, [sp, #5]	@ zero_extendqisi2
 492 009a 0133     		adds	r3, r3, #1
 493 009c 8DF80530 		strb	r3, [sp, #5]
 494 00a0 CAE7     		b	.L20
 495              	.L26:
 428:Core/Src/main.c ****   }
 496              		.loc 1 428 5 is_stmt 1 view .LVU149
 428:Core/Src/main.c ****   }
 497              		.loc 1 428 33 is_stmt 0 view .LVU150
 498 00a2 9DF80630 		ldrb	r3, [sp, #6]	@ zero_extendqisi2
 499 00a6 0F33     		adds	r3, r3, #15
 500 00a8 8DF80630 		strb	r3, [sp, #6]
 501 00ac C4E7     		b	.L20
 502              	.L28:
 503 00ae 00BF     		.align	2
 504              	.L27:
 505 00b0 00700040 		.word	1073770496
 506 00b4 00000000 		.word	hrtc
 507 00b8 00000000 		.word	.LANCHOR3
 508 00bc 00ED00E0 		.word	-536810240
 509 00c0 002004E0 		.word	-536600576
 510              		.cfi_endproc
 511              	.LFE72:
 513              		.section	.text.sleep4ever,"ax",%progbits
 514              		.align	1
 515              		.global	sleep4ever
 516              		.syntax unified
 517              		.thumb
 518              		.thumb_func
 519              		.fpu softvfp
ARM GAS  C:\Users\Vento\AppData\Local\Temp\ccdqD43g.s 			page 34


 521              	sleep4ever:
 522              	.LFB73:
 455:Core/Src/main.c ****   }
 456:Core/Src/main.c **** }
 457:Core/Src/main.c **** 
 458:Core/Src/main.c **** void sleep4ever(void)
 459:Core/Src/main.c **** {
 523              		.loc 1 459 1 is_stmt 1 view -0
 524              		.cfi_startproc
 525              		@ Volatile: function does not return.
 526              		@ args = 0, pretend = 0, frame = 0
 527              		@ frame_needed = 0, uses_anonymous_args = 0
 528              		@ link register save eliminated.
 460:Core/Src/main.c ****   /* Enable WUPIN PA0 */
 461:Core/Src/main.c ****   SET_BIT(PWR->CSR, PWR_CSR_EWUP);
 529              		.loc 1 461 3 view .LVU152
 530 0000 124B     		ldr	r3, .L31
 531 0002 5A68     		ldr	r2, [r3, #4]
 532 0004 42F48072 		orr	r2, r2, #256
 533 0008 5A60     		str	r2, [r3, #4]
 462:Core/Src/main.c **** 
 463:Core/Src/main.c ****   __HAL_RTC_ALARM_CLEAR_FLAG(&hrtc, RTC_FLAG_ALRAF);
 534              		.loc 1 463 3 view .LVU153
 535 000a 114A     		ldr	r2, .L31+4
 536 000c 1168     		ldr	r1, [r2]
 537 000e 4A68     		ldr	r2, [r1, #4]
 538 0010 22F00202 		bic	r2, r2, #2
 539 0014 4A60     		str	r2, [r1, #4]
 464:Core/Src/main.c **** 
 465:Core/Src/main.c ****   /* Set SLEEPDEEP bit of Cortex System Control Register */
 466:Core/Src/main.c ****   SET_BIT(SCB->SCR, ((uint32_t)SCB_SCR_SLEEPDEEP_Msk));
 540              		.loc 1 466 3 view .LVU154
 541 0016 0F49     		ldr	r1, .L31+8
 542 0018 0A69     		ldr	r2, [r1, #16]
 543 001a 42F00402 		orr	r2, r2, #4
 544 001e 0A61     		str	r2, [r1, #16]
 467:Core/Src/main.c **** 
 468:Core/Src/main.c ****   /* Select Standby mode */
 469:Core/Src/main.c ****   SET_BIT(PWR->CR, PWR_CR_PDDS);
 545              		.loc 1 469 3 view .LVU155
 546 0020 1A68     		ldr	r2, [r3]
 547 0022 42F00202 		orr	r2, r2, #2
 548 0026 1A60     		str	r2, [r3]
 470:Core/Src/main.c **** 
 471:Core/Src/main.c ****   /* Clear WUF bit in Power Control/Status register */
 472:Core/Src/main.c ****   SET_BIT(PWR->CR, PWR_CR_CWUF);
 549              		.loc 1 472 3 view .LVU156
 550 0028 1A68     		ldr	r2, [r3]
 551 002a 42F00402 		orr	r2, r2, #4
 552 002e 1A60     		str	r2, [r3]
 473:Core/Src/main.c **** 
 474:Core/Src/main.c ****   /* Clear SBF bit in Power Control/Status register */
 475:Core/Src/main.c ****   SET_BIT(PWR->CR, PWR_CR_CSBF);
 553              		.loc 1 475 3 view .LVU157
 554 0030 1A68     		ldr	r2, [r3]
 555 0032 42F00802 		orr	r2, r2, #8
 556 0036 1A60     		str	r2, [r3]
ARM GAS  C:\Users\Vento\AppData\Local\Temp\ccdqD43g.s 			page 35


 476:Core/Src/main.c **** 
 477:Core/Src/main.c ****   (void)PWR->CR;
 557              		.loc 1 477 3 view .LVU158
 558 0038 1A68     		ldr	r2, [r3]
 478:Core/Src/main.c ****   (void)PWR->CSR;
 559              		.loc 1 478 3 view .LVU159
 560 003a 5B68     		ldr	r3, [r3, #4]
 479:Core/Src/main.c **** 
 480:Core/Src/main.c ****   // Disable debug, trace and IWDG in low-power modes
 481:Core/Src/main.c ****   DBGMCU->CR = (uint32_t)0x00;
 561              		.loc 1 481 3 view .LVU160
 562              		.loc 1 481 14 is_stmt 0 view .LVU161
 563 003c 064B     		ldr	r3, .L31+12
 564 003e 0022     		movs	r2, #0
 565 0040 5A60     		str	r2, [r3, #4]
 566              	.L30:
 482:Core/Src/main.c **** 
 483:Core/Src/main.c ****   for (;;)
 567              		.loc 1 483 3 is_stmt 1 discriminator 1 view .LVU162
 484:Core/Src/main.c ****   {
 485:Core/Src/main.c ****     __DSB();
 568              		.loc 1 485 5 discriminator 1 view .LVU163
 569              	.LBB14:
 570              	.LBI14:
 877:Drivers/CMSIS/Include/cmsis_gcc.h **** {
 571              		.loc 2 877 27 discriminator 1 view .LVU164
 572              	.LBB15:
 573              		.loc 2 879 3 discriminator 1 view .LVU165
 574              		.syntax unified
 575              	@ 879 "Drivers/CMSIS/Include/cmsis_gcc.h" 1
 576 0042 BFF34F8F 		dsb 0xF
 577              	@ 0 "" 2
 578              		.thumb
 579              		.syntax unified
 580              	.LBE15:
 581              	.LBE14:
 486:Core/Src/main.c ****     __WFI();
 582              		.loc 1 486 5 discriminator 1 view .LVU166
 583              		.syntax unified
 584              	@ 486 "Core/Src/main.c" 1
 585 0046 30BF     		wfi
 586              	@ 0 "" 2
 483:Core/Src/main.c ****   {
 587              		.loc 1 483 9 discriminator 1 view .LVU167
 588              		.thumb
 589              		.syntax unified
 590 0048 FBE7     		b	.L30
 591              	.L32:
 592 004a 00BF     		.align	2
 593              	.L31:
 594 004c 00700040 		.word	1073770496
 595 0050 00000000 		.word	hrtc
 596 0054 00ED00E0 		.word	-536810240
 597 0058 002004E0 		.word	-536600576
 598              		.cfi_endproc
 599              	.LFE73:
 601              		.section	.text.is_OK_2_Talk,"ax",%progbits
ARM GAS  C:\Users\Vento\AppData\Local\Temp\ccdqD43g.s 			page 36


 602              		.align	1
 603              		.global	is_OK_2_Talk
 604              		.syntax unified
 605              		.thumb
 606              		.thumb_func
 607              		.fpu softvfp
 609              	is_OK_2_Talk:
 610              	.LFB74:
 487:Core/Src/main.c ****   }
 488:Core/Src/main.c **** }
 489:Core/Src/main.c **** 
 490:Core/Src/main.c **** bool is_OK_2_Talk(void)
 491:Core/Src/main.c **** {
 611              		.loc 1 491 1 view -0
 612              		.cfi_startproc
 613              		@ args = 0, pretend = 0, frame = 0
 614              		@ frame_needed = 0, uses_anonymous_args = 0
 615 0000 38B5     		push	{r3, r4, r5, lr}
 616              	.LCFI4:
 617              		.cfi_def_cfa_offset 16
 618              		.cfi_offset 3, -16
 619              		.cfi_offset 4, -12
 620              		.cfi_offset 5, -8
 621              		.cfi_offset 14, -4
 492:Core/Src/main.c ****   sx1278_standby();
 622              		.loc 1 492 3 view .LVU169
 623 0002 FFF7FEFF 		bl	sx1278_standby
 624              	.LVL29:
 493:Core/Src/main.c ****   uint32_t checkTimeout = HAL_GetTick();
 625              		.loc 1 493 3 view .LVU170
 626              		.loc 1 493 27 is_stmt 0 view .LVU171
 627 0006 FFF7FEFF 		bl	HAL_GetTick
 628              	.LVL30:
 629 000a 0446     		mov	r4, r0
 630              	.LVL31:
 494:Core/Src/main.c ****   uint8_t irq = sx1278_read_reg(REG_IRQ_FLAGS);
 631              		.loc 1 494 3 is_stmt 1 view .LVU172
 632              		.loc 1 494 17 is_stmt 0 view .LVU173
 633 000c 1220     		movs	r0, #18
 634              	.LVL32:
 635              		.loc 1 494 17 view .LVU174
 636 000e FFF7FEFF 		bl	sx1278_read_reg
 637              	.LVL33:
 638 0012 0146     		mov	r1, r0
 639              	.LVL34:
 495:Core/Src/main.c ****   sx1278_write_reg(REG_IRQ_FLAGS, irq);     //reset irq
 640              		.loc 1 495 3 is_stmt 1 view .LVU175
 641 0014 1220     		movs	r0, #18
 642 0016 FFF7FEFF 		bl	sx1278_write_reg
 643              	.LVL35:
 496:Core/Src/main.c ****   is_LoRa_EXTI = false;
 644              		.loc 1 496 3 view .LVU176
 645              		.loc 1 496 16 is_stmt 0 view .LVU177
 646 001a 144B     		ldr	r3, .L40
 647 001c 0022     		movs	r2, #0
 648 001e 1A70     		strb	r2, [r3]
 497:Core/Src/main.c ****   sx1278_cad();
ARM GAS  C:\Users\Vento\AppData\Local\Temp\ccdqD43g.s 			page 37


 649              		.loc 1 497 3 is_stmt 1 view .LVU178
 650 0020 FFF7FEFF 		bl	sx1278_cad
 651              	.LVL36:
 498:Core/Src/main.c ****   while ((is_LoRa_EXTI == false) && ((HAL_GetTick() - checkTimeout) < TIMEOUT_MS));
 652              		.loc 1 498 3 view .LVU179
 653              	.L35:
 654              		.loc 1 498 83 discriminator 2 view .LVU180
 655              		.loc 1 498 9 discriminator 2 view .LVU181
 656              		.loc 1 498 24 is_stmt 0 discriminator 2 view .LVU182
 657 0024 114B     		ldr	r3, .L40
 658 0026 1B78     		ldrb	r3, [r3]	@ zero_extendqisi2
 659              		.loc 1 498 9 discriminator 2 view .LVU183
 660 0028 23B9     		cbnz	r3, .L34
 661              		.loc 1 498 39 discriminator 1 view .LVU184
 662 002a FFF7FEFF 		bl	HAL_GetTick
 663              	.LVL37:
 664              		.loc 1 498 53 discriminator 1 view .LVU185
 665 002e 001B     		subs	r0, r0, r4
 666              		.loc 1 498 34 discriminator 1 view .LVU186
 667 0030 3128     		cmp	r0, #49
 668 0032 F7D9     		bls	.L35
 669              	.L34:
 499:Core/Src/main.c ****   if (is_LoRa_EXTI == false)  return false;
 670              		.loc 1 499 3 is_stmt 1 view .LVU187
 671              		.loc 1 499 20 is_stmt 0 view .LVU188
 672 0034 0D4B     		ldr	r3, .L40
 673 0036 1B78     		ldrb	r3, [r3]	@ zero_extendqisi2
 674              		.loc 1 499 6 view .LVU189
 675 0038 03F0FF05 		and	r5, r3, #255
 676 003c 0BB9     		cbnz	r3, .L39
 677              	.LVL38:
 678              	.L36:
 500:Core/Src/main.c ****   irq = sx1278_read_reg(REG_IRQ_FLAGS);
 501:Core/Src/main.c ****   sx1278_write_reg(REG_IRQ_FLAGS, irq);     //reset irq
 502:Core/Src/main.c ****   sx1278_standby();
 503:Core/Src/main.c ****   if (((irq & 0x01U) != 0U) && ((irq & 0x04U) != 0U))
 504:Core/Src/main.c ****   {
 505:Core/Src/main.c ****     return false;
 506:Core/Src/main.c ****   }
 507:Core/Src/main.c ****   else if (((irq & 0x01U) == 0U) && ((irq & 0x04U) != 0U))
 508:Core/Src/main.c ****   {
 509:Core/Src/main.c ****     return true;
 510:Core/Src/main.c ****   }
 511:Core/Src/main.c ****   return false;
 512:Core/Src/main.c **** }
 679              		.loc 1 512 1 view .LVU190
 680 003e 2846     		mov	r0, r5
 681 0040 38BD     		pop	{r3, r4, r5, pc}
 682              	.LVL39:
 683              	.L39:
 500:Core/Src/main.c ****   irq = sx1278_read_reg(REG_IRQ_FLAGS);
 684              		.loc 1 500 3 is_stmt 1 view .LVU191
 500:Core/Src/main.c ****   irq = sx1278_read_reg(REG_IRQ_FLAGS);
 685              		.loc 1 500 9 is_stmt 0 view .LVU192
 686 0042 1220     		movs	r0, #18
 687 0044 FFF7FEFF 		bl	sx1278_read_reg
 688              	.LVL40:
ARM GAS  C:\Users\Vento\AppData\Local\Temp\ccdqD43g.s 			page 38


 689 0048 0446     		mov	r4, r0
 690              	.LVL41:
 501:Core/Src/main.c ****   sx1278_standby();
 691              		.loc 1 501 3 is_stmt 1 view .LVU193
 692 004a 0146     		mov	r1, r0
 693 004c 1220     		movs	r0, #18
 694              	.LVL42:
 501:Core/Src/main.c ****   sx1278_standby();
 695              		.loc 1 501 3 is_stmt 0 view .LVU194
 696 004e FFF7FEFF 		bl	sx1278_write_reg
 697              	.LVL43:
 502:Core/Src/main.c ****   if (((irq & 0x01U) != 0U) && ((irq & 0x04U) != 0U))
 698              		.loc 1 502 3 is_stmt 1 view .LVU195
 699 0052 FFF7FEFF 		bl	sx1278_standby
 700              	.LVL44:
 503:Core/Src/main.c ****   {
 701              		.loc 1 503 3 view .LVU196
 702 0056 04F00504 		and	r4, r4, #5
 503:Core/Src/main.c ****   {
 703              		.loc 1 503 6 is_stmt 0 view .LVU197
 704 005a 052C     		cmp	r4, #5
 705 005c 03D0     		beq	.L37
 507:Core/Src/main.c ****   {
 706              		.loc 1 507 8 is_stmt 1 view .LVU198
 507:Core/Src/main.c ****   {
 707              		.loc 1 507 11 is_stmt 0 view .LVU199
 708 005e 042C     		cmp	r4, #4
 709 0060 EDD0     		beq	.L36
 511:Core/Src/main.c **** }
 710              		.loc 1 511 10 view .LVU200
 711 0062 0025     		movs	r5, #0
 712 0064 EBE7     		b	.L36
 713              	.L37:
 505:Core/Src/main.c ****   }
 714              		.loc 1 505 12 view .LVU201
 715 0066 0025     		movs	r5, #0
 716 0068 E9E7     		b	.L36
 717              	.L41:
 718 006a 00BF     		.align	2
 719              	.L40:
 720 006c 00000000 		.word	.LANCHOR4
 721              		.cfi_endproc
 722              	.LFE74:
 724              		.section	.text.Response_Handle,"ax",%progbits
 725              		.align	1
 726              		.global	Response_Handle
 727              		.syntax unified
 728              		.thumb
 729              		.thumb_func
 730              		.fpu softvfp
 732              	Response_Handle:
 733              	.LFB78:
 513:Core/Src/main.c **** 
 514:Core/Src/main.c **** void Link_Mode_Handle(void)
 515:Core/Src/main.c **** {
 516:Core/Src/main.c ****   HAL_ADC_Start(&hadc1);
 517:Core/Src/main.c ****   HAL_ADC_PollForConversion(&hadc1, 200);
ARM GAS  C:\Users\Vento\AppData\Local\Temp\ccdqD43g.s 			page 39


 518:Core/Src/main.c ****   backupStorage = HAL_ADC_GetValue(&hadc1);
 519:Core/Src/main.c ****   HAL_RTCEx_BKUPWrite(&hrtc, RTC_BKP_DR1, backupStorage);
 520:Core/Src/main.c ****   HAL_ADC_Stop(&hadc1);
 521:Core/Src/main.c ****   HAL_ADC_DeInit(&hadc1);
 522:Core/Src/main.c **** 
 523:Core/Src/main.c ****   HAL_I2C_DeInit(&hi2c1);
 524:Core/Src/main.c ****   HAL_UART_DeInit(&huart1);
 525:Core/Src/main.c **** 
 526:Core/Src/main.c ****   HAL_GPIO_WritePin(LED0_GPIO_Port, LED0_Pin, GPIO_PIN_RESET);
 527:Core/Src/main.c **** 
 528:Core/Src/main.c ****   sx1278_init();
 529:Core/Src/main.c **** 
 530:Core/Src/main.c ****   Link_Packet_t LinkReq;
 531:Core/Src/main.c ****   LinkReq.Packet_ID = LINK_PACKET_ID;
 532:Core/Src/main.c ****   LinkReq.Payload.Node_ID = NODE_ID;
 533:Core/Src/main.c ****   LinkReq.Payload.Node_Status = myStatus;
 534:Core/Src/main.c ****   LinkReq.Payload.Node_Battery_Voltage = (uint16_t)((double)backupStorage  * 2847.868f  * 3.3f / 40
 535:Core/Src/main.c ****   LinkReq.Payload.Node_Period = (uint16_t)(HAL_RTCEx_BKUPRead(&hrtc, RTC_BKP_DR3));
 536:Core/Src/main.c ****   memcpy((uint8_t*)&payload, (uint8_t*)&LinkReq, sizeof(Link_Packet_t));
 537:Core/Src/main.c ****   
 538:Core/Src/main.c ****   uint8_t nTry = 0;
 539:Core/Src/main.c ****   while ((is_OK_2_Talk() == false) && (nTry < 10))
 540:Core/Src/main.c ****   {
 541:Core/Src/main.c ****     nTry++;
 542:Core/Src/main.c ****     HAL_Delay(TIMEOUT_MS);
 543:Core/Src/main.c ****   }
 544:Core/Src/main.c ****   if (nTry == 10)
 545:Core/Src/main.c ****   {
 546:Core/Src/main.c ****     myStatus = LINK_MODE;
 547:Core/Src/main.c ****     return;
 548:Core/Src/main.c ****   }
 549:Core/Src/main.c **** 
 550:Core/Src/main.c ****   sx1278_send_data((uint8_t *)&payload, sizeof(Link_Packet_t));
 551:Core/Src/main.c **** 
 552:Core/Src/main.c ****   Response_Handle();
 553:Core/Src/main.c **** 
 554:Core/Src/main.c ****   sx1278_sleep();
 555:Core/Src/main.c ****   HAL_SPI_DeInit(&hspi1);
 556:Core/Src/main.c **** 
 557:Core/Src/main.c ****   HAL_GPIO_WritePin(LED0_GPIO_Port, LED0_Pin, GPIO_PIN_SET);
 558:Core/Src/main.c **** }
 559:Core/Src/main.c **** 
 560:Core/Src/main.c **** void Normal_Mode_Handle(void)
 561:Core/Src/main.c **** {
 562:Core/Src/main.c ****   HAL_ADC_Start(&hadc1);
 563:Core/Src/main.c ****   HAL_ADC_PollForConversion(&hadc1, 200);
 564:Core/Src/main.c ****   backupStorage = HAL_ADC_GetValue(&hadc1);
 565:Core/Src/main.c ****   HAL_RTCEx_BKUPWrite(&hrtc, RTC_BKP_DR1, backupStorage);
 566:Core/Src/main.c ****   HAL_ADC_Stop(&hadc1);
 567:Core/Src/main.c ****   HAL_ADC_DeInit(&hadc1);
 568:Core/Src/main.c **** 
 569:Core/Src/main.c ****   HAL_GPIO_WritePin(LED0_GPIO_Port, LED0_Pin, GPIO_PIN_RESET);
 570:Core/Src/main.c ****   HAL_GPIO_WritePin(PWR_CTRL_GPIO_Port, PWR_CTRL_Pin, GPIO_PIN_SET);
 571:Core/Src/main.c ****   HAL_GPIO_WritePin(LED1_GPIO_Port, LED1_Pin, GPIO_PIN_RESET);
 572:Core/Src/main.c **** 
 573:Core/Src/main.c ****   HAL_Delay(READ_SENSORS_DURATION_MS);
 574:Core/Src/main.c ****   readSensor();
ARM GAS  C:\Users\Vento\AppData\Local\Temp\ccdqD43g.s 			page 40


 575:Core/Src/main.c **** 
 576:Core/Src/main.c ****   HAL_GPIO_WritePin(PWR_CTRL_GPIO_Port, PWR_CTRL_Pin, GPIO_PIN_RESET);
 577:Core/Src/main.c ****   HAL_GPIO_WritePin(LED1_GPIO_Port, LED1_Pin, GPIO_PIN_SET);
 578:Core/Src/main.c ****   HAL_I2C_DeInit(&hi2c1);
 579:Core/Src/main.c ****   HAL_UART_DeInit(&huart1);
 580:Core/Src/main.c **** 
 581:Core/Src/main.c ****   sx1278_init();
 582:Core/Src/main.c **** 
 583:Core/Src/main.c ****   Data_Packet_t data_packet;
 584:Core/Src/main.c ****   data_packet.Packet_ID = DATA_PACKET_ID;
 585:Core/Src/main.c ****   data_packet.Payload.Link.Node_ID = NODE_ID;
 586:Core/Src/main.c ****   data_packet.Payload.Link.Node_Status = myStatus;
 587:Core/Src/main.c ****   data_packet.Payload.Link.Node_Battery_Voltage = (uint16_t)((double)backupStorage  * 2847.868f  * 
 588:Core/Src/main.c ****   data_packet.Payload.Link.Node_Period = (uint16_t)(HAL_RTCEx_BKUPRead(&hrtc, RTC_BKP_DR3));
 589:Core/Src/main.c ****   data_packet.Payload.Node_Soil_Temperature = mySoil.rawTemperature;
 590:Core/Src/main.c ****   data_packet.Payload.Node_Air_Temperature = get_random_value(HAL_GetTick(), 260, 275);
 591:Core/Src/main.c ****   data_packet.Payload.Node_Soil_Humidity = mySoil.rawHumidity;
 592:Core/Src/main.c ****   data_packet.Payload.Node_Air_Humidity = get_random_value(HAL_GetTick(), 650, 750);
 593:Core/Src/main.c ****   data_packet.Payload.Node_Salinity = mySoil.Salinity;
 594:Core/Src/main.c ****   data_packet.Payload.Node_Conductivity = mySoil.Conductivity;
 595:Core/Src/main.c ****   data_packet.Payload.Node_pH = get_random_value(HAL_GetTick(), 65, 75);
 596:Core/Src/main.c ****   data_packet.Payload.Node_N = mySoil.N;
 597:Core/Src/main.c ****   data_packet.Payload.Node_P = mySoil.P;
 598:Core/Src/main.c ****   data_packet.Payload.Node_K = mySoil.K;
 599:Core/Src/main.c ****   memset(payload, '\0', sizeof(payload));
 600:Core/Src/main.c ****   memcpy((uint8_t *)payload, (uint8_t *)&data_packet, sizeof(Data_Packet_t));
 601:Core/Src/main.c ****   
 602:Core/Src/main.c ****   uint8_t nTry = 0;
 603:Core/Src/main.c ****   while ((is_OK_2_Talk() == false) && (nTry < 10))
 604:Core/Src/main.c ****   {
 605:Core/Src/main.c ****     nTry++;
 606:Core/Src/main.c ****     HAL_Delay(TIMEOUT_MS);
 607:Core/Src/main.c ****   }
 608:Core/Src/main.c ****   if (nTry == 10)
 609:Core/Src/main.c ****   {
 610:Core/Src/main.c ****     myStatus = RETRY_MODE;
 611:Core/Src/main.c ****     HAL_GPIO_WritePin(LED0_GPIO_Port, LED0_Pin, GPIO_PIN_SET);
 612:Core/Src/main.c ****     return;
 613:Core/Src/main.c ****   }
 614:Core/Src/main.c **** 
 615:Core/Src/main.c ****   sx1278_send_data(payload, sizeof(Data_Packet_t));
 616:Core/Src/main.c **** 
 617:Core/Src/main.c ****   Response_Handle();
 618:Core/Src/main.c **** 
 619:Core/Src/main.c ****   if (myStatus == RETRY_MODE)
 620:Core/Src/main.c ****   {
 621:Core/Src/main.c ****     memset(array2store, '\0', sizeof(array2store));
 622:Core/Src/main.c ****     memcpy((uint8_t *)&array2store, (uint8_t *)&data_packet, sizeof(Data_Packet_t));
 623:Core/Src/main.c ****     Flash_Write_Data(SAVE_ADDR, (uint32_t*)&array2store, 8U);
 624:Core/Src/main.c ****   }
 625:Core/Src/main.c **** 
 626:Core/Src/main.c ****   sx1278_sleep();
 627:Core/Src/main.c ****   HAL_SPI_DeInit(&hspi1);
 628:Core/Src/main.c **** 
 629:Core/Src/main.c ****   HAL_GPIO_WritePin(LED0_GPIO_Port, LED0_Pin, GPIO_PIN_SET);
 630:Core/Src/main.c **** }
 631:Core/Src/main.c **** 
ARM GAS  C:\Users\Vento\AppData\Local\Temp\ccdqD43g.s 			page 41


 632:Core/Src/main.c **** void Retry_Mode_Handle(void)
 633:Core/Src/main.c **** {
 634:Core/Src/main.c ****   HAL_ADC_DeInit(&hadc1);
 635:Core/Src/main.c ****   HAL_I2C_DeInit(&hi2c1);
 636:Core/Src/main.c ****   HAL_UART_DeInit(&huart1);
 637:Core/Src/main.c ****   HAL_GPIO_WritePin(LED0_GPIO_Port, LED0_Pin, GPIO_PIN_RESET);
 638:Core/Src/main.c **** 
 639:Core/Src/main.c ****   sx1278_init();
 640:Core/Src/main.c ****   Flash_Read_Data(SAVE_ADDR, (uint32_t *)&array2store, sizeof(array2store));
 641:Core/Src/main.c ****   memcpy((uint8_t *)payload, (uint8_t *)&array2store, sizeof(Data_Packet_t));
 642:Core/Src/main.c ****   
 643:Core/Src/main.c ****   uint8_t nTry = 0;
 644:Core/Src/main.c ****   while ((is_OK_2_Talk() == false) && (nTry < 10))
 645:Core/Src/main.c ****   {
 646:Core/Src/main.c ****     nTry++;
 647:Core/Src/main.c ****     HAL_Delay(TIMEOUT_MS);
 648:Core/Src/main.c ****   }
 649:Core/Src/main.c ****   if (nTry == 10)
 650:Core/Src/main.c ****   {
 651:Core/Src/main.c ****     myStatus = RETRY_MODE;
 652:Core/Src/main.c ****     HAL_GPIO_WritePin(LED0_GPIO_Port, LED0_Pin, GPIO_PIN_SET);
 653:Core/Src/main.c ****     return;
 654:Core/Src/main.c ****   }
 655:Core/Src/main.c **** 
 656:Core/Src/main.c ****   sx1278_send_data(payload, sizeof(Data_Packet_t));
 657:Core/Src/main.c **** 
 658:Core/Src/main.c ****   Response_Handle();
 659:Core/Src/main.c **** 
 660:Core/Src/main.c ****   sx1278_sleep();
 661:Core/Src/main.c ****   HAL_SPI_DeInit(&hspi1);
 662:Core/Src/main.c **** 
 663:Core/Src/main.c ****   HAL_GPIO_WritePin(LED0_GPIO_Port, LED0_Pin, GPIO_PIN_SET);
 664:Core/Src/main.c **** }
 665:Core/Src/main.c **** 
 666:Core/Src/main.c **** void Response_Handle(void)
 667:Core/Src/main.c **** {
 734              		.loc 1 667 1 is_stmt 1 view -0
 735              		.cfi_startproc
 736              		@ args = 0, pretend = 0, frame = 0
 737              		@ frame_needed = 0, uses_anonymous_args = 0
 738 0000 30B5     		push	{r4, r5, lr}
 739              	.LCFI5:
 740              		.cfi_def_cfa_offset 12
 741              		.cfi_offset 4, -12
 742              		.cfi_offset 5, -8
 743              		.cfi_offset 14, -4
 744 0002 83B0     		sub	sp, sp, #12
 745              	.LCFI6:
 746              		.cfi_def_cfa_offset 24
 668:Core/Src/main.c ****   static ResponsePacket_t resp;
 747              		.loc 1 668 3 view .LVU203
 669:Core/Src/main.c ****   static uint8_t data[100] = {0};
 748              		.loc 1 669 3 view .LVU204
 670:Core/Src/main.c ****   static uint32_t nByteRx = 0;
 749              		.loc 1 670 3 view .LVU205
 671:Core/Src/main.c ****   static int rssi = -1;
 750              		.loc 1 671 3 view .LVU206
ARM GAS  C:\Users\Vento\AppData\Local\Temp\ccdqD43g.s 			page 42


 672:Core/Src/main.c ****   static float snr = -1;
 751              		.loc 1 672 3 view .LVU207
 673:Core/Src/main.c **** 
 674:Core/Src/main.c ****   is_LoRa_EXTI = false;
 752              		.loc 1 674 3 view .LVU208
 753              		.loc 1 674 16 is_stmt 0 view .LVU209
 754 0004 5B4B     		ldr	r3, .L72
 755 0006 0022     		movs	r2, #0
 756 0008 1A70     		strb	r2, [r3]
 675:Core/Src/main.c ****   sx1278_start_recv_data();
 757              		.loc 1 675 3 is_stmt 1 view .LVU210
 758 000a FFF7FEFF 		bl	sx1278_start_recv_data
 759              	.LVL45:
 676:Core/Src/main.c **** 
 677:Core/Src/main.c ****   uint32_t timeOut = HAL_GetTick();
 760              		.loc 1 677 3 view .LVU211
 761              		.loc 1 677 22 is_stmt 0 view .LVU212
 762 000e FFF7FEFF 		bl	HAL_GetTick
 763              	.LVL46:
 764 0012 0446     		mov	r4, r0
 765              	.LVL47:
 678:Core/Src/main.c ****   while ((HAL_GetTick() - timeOut) < 5000U)
 766              		.loc 1 678 3 is_stmt 1 view .LVU213
 767              	.L44:
 768              		.loc 1 678 9 view .LVU214
 769              		.loc 1 678 11 is_stmt 0 view .LVU215
 770 0014 FFF7FEFF 		bl	HAL_GetTick
 771              	.LVL48:
 772              		.loc 1 678 25 view .LVU216
 773 0018 001B     		subs	r0, r0, r4
 774              		.loc 1 678 9 view .LVU217
 775 001a 41F28733 		movw	r3, #4999
 776 001e 9842     		cmp	r0, r3
 777 0020 00F29280 		bhi	.L65
 679:Core/Src/main.c ****   {
 680:Core/Src/main.c ****     if (is_LoRa_EXTI == true)
 778              		.loc 1 680 5 is_stmt 1 view .LVU218
 779              		.loc 1 680 22 is_stmt 0 view .LVU219
 780 0024 534B     		ldr	r3, .L72
 781 0026 1B78     		ldrb	r3, [r3]	@ zero_extendqisi2
 782              		.loc 1 680 8 view .LVU220
 783 0028 002B     		cmp	r3, #0
 784 002a F3D0     		beq	.L44
 681:Core/Src/main.c ****     {
 682:Core/Src/main.c ****       if (sx1278_recv_data((uint8_t *)data, &nByteRx, &rssi, &snr, false) == SX1278_OK)
 785              		.loc 1 682 7 is_stmt 1 view .LVU221
 786              		.loc 1 682 11 is_stmt 0 view .LVU222
 787 002c 0023     		movs	r3, #0
 788 002e 0093     		str	r3, [sp]
 789 0030 514B     		ldr	r3, .L72+4
 790 0032 524A     		ldr	r2, .L72+8
 791 0034 5249     		ldr	r1, .L72+12
 792 0036 5348     		ldr	r0, .L72+16
 793 0038 FFF7FEFF 		bl	sx1278_recv_data
 794              	.LVL49:
 795              		.loc 1 682 10 view .LVU223
 796 003c 0028     		cmp	r0, #0
ARM GAS  C:\Users\Vento\AppData\Local\Temp\ccdqD43g.s 			page 43


 797 003e 76D1     		bne	.L45
 683:Core/Src/main.c ****       {
 684:Core/Src/main.c ****         if (nByteRx == sizeof(ResponsePacket_t))  memcpy(&resp, &data, sizeof(ResponsePacket_t));
 798              		.loc 1 684 9 is_stmt 1 view .LVU224
 799              		.loc 1 684 21 is_stmt 0 view .LVU225
 800 0040 4F4B     		ldr	r3, .L72+12
 801 0042 1B68     		ldr	r3, [r3]
 802              		.loc 1 684 12 view .LVU226
 803 0044 0A2B     		cmp	r3, #10
 804 0046 21D1     		bne	.L46
 805              		.loc 1 684 51 is_stmt 1 discriminator 1 view .LVU227
 806 0048 4F4D     		ldr	r5, .L72+20
 807 004a 4E4A     		ldr	r2, .L72+16
 808 004c 2B46     		mov	r3, r5
 809 004e 07CA     		ldm	r2, {r0, r1, r2}
 810 0050 03C3     		stmia	r3!, {r0, r1}
 811 0052 1A80     		strh	r2, [r3]	@ movhi
 685:Core/Src/main.c ****         else
 686:Core/Src/main.c ****         {
 687:Core/Src/main.c ****           is_LoRa_EXTI = false;
 688:Core/Src/main.c ****           sx1278_set_irq(0x00);
 689:Core/Src/main.c ****           sx1278_write_reg(REG_IRQ_FLAGS, sx1278_read_reg(REG_IRQ_FLAGS));
 690:Core/Src/main.c ****           continue;
 691:Core/Src/main.c ****         }
 692:Core/Src/main.c ****         
 693:Core/Src/main.c ****         if ((resp.Packet_ID != RESPONSE_PACKET_ID) || (resp.Target_Node_ID != NODE_ID))
 812              		.loc 1 693 9 discriminator 1 view .LVU228
 813              		.loc 1 693 18 is_stmt 0 discriminator 1 view .LVU229
 814 0054 2A88     		ldrh	r2, [r5]
 815              		.loc 1 693 12 discriminator 1 view .LVU230
 816 0056 45F25553 		movw	r3, #21845
 817 005a 9A42     		cmp	r2, r3
 818 005c 23D1     		bne	.L47
 819              		.loc 1 693 60 discriminator 1 view .LVU231
 820 005e 4A4B     		ldr	r3, .L72+20
 821 0060 5A88     		ldrh	r2, [r3, #2]
 822              		.loc 1 693 52 discriminator 1 view .LVU232
 823 0062 41F20413 		movw	r3, #4356
 824 0066 9A42     		cmp	r2, r3
 825 0068 1DD1     		bne	.L47
 694:Core/Src/main.c ****         {
 695:Core/Src/main.c ****           // this is not what I want OR this is not for me
 696:Core/Src/main.c ****           is_LoRa_EXTI = false;
 697:Core/Src/main.c ****           sx1278_start_recv_data();
 698:Core/Src/main.c ****           continue;
 699:Core/Src/main.c ****         }
 700:Core/Src/main.c ****         else
 701:Core/Src/main.c ****         {
 702:Core/Src/main.c ****           // Yep ok this is my packet and ID
 703:Core/Src/main.c ****           if (myStatus == LINK_MODE)
 826              		.loc 1 703 11 is_stmt 1 view .LVU233
 827              		.loc 1 703 24 is_stmt 0 view .LVU234
 828 006a 484B     		ldr	r3, .L72+24
 829 006c 1B78     		ldrb	r3, [r3]	@ zero_extendqisi2
 830              		.loc 1 703 14 view .LVU235
 831 006e 022B     		cmp	r3, #2
 832 0070 1FD0     		beq	.L66
ARM GAS  C:\Users\Vento\AppData\Local\Temp\ccdqD43g.s 			page 44


 704:Core/Src/main.c ****           {
 705:Core/Src/main.c ****             if ((resp.Target_Node_Response & 0x00FF) != LINK_ACK) {myStatus = LINK_MODE; return;}
 706:Core/Src/main.c ****             if      (((resp.Target_Node_Response >> 8) & 0x00FF) == LINK_ACCEPT)    myStatus = NORM
 707:Core/Src/main.c ****             else if (((resp.Target_Node_Response >> 8) & 0x00FF) == LINK_REJECT)    myStatus = (uin
 708:Core/Src/main.c ****           }
 709:Core/Src/main.c ****           else if (myStatus == NORMAL_MODE)
 833              		.loc 1 709 16 is_stmt 1 view .LVU236
 834              		.loc 1 709 19 is_stmt 0 view .LVU237
 835 0072 042B     		cmp	r3, #4
 836 0074 3BD0     		beq	.L67
 710:Core/Src/main.c ****           {
 711:Core/Src/main.c ****             if ((resp.Target_Node_Response & 0x00FF) != LINK_ACK) {myStatus = RETRY_MODE; return;}
 712:Core/Src/main.c ****             if      (((resp.Target_Node_Response >> 8) & 0x00FF) == LINK_CARRYON)   myStatus = NORM
 713:Core/Src/main.c ****             else if (((resp.Target_Node_Response >> 8) & 0x00FF) == LINK_DISMISS)   myStatus = LINK
 714:Core/Src/main.c ****           }
 715:Core/Src/main.c ****           else if (myStatus == RETRY_MODE)
 837              		.loc 1 715 16 is_stmt 1 view .LVU238
 838              		.loc 1 715 19 is_stmt 0 view .LVU239
 839 0076 082B     		cmp	r3, #8
 840 0078 29D1     		bne	.L55
 716:Core/Src/main.c ****           {
 717:Core/Src/main.c ****             if      ((resp.Target_Node_Response & 0x00FF) != LINK_ACK) {myStatus = RETRY_MODE;  ret
 841              		.loc 1 717 13 is_stmt 1 view .LVU240
 842              		.loc 1 717 27 is_stmt 0 view .LVU241
 843 007a 434B     		ldr	r3, .L72+20
 844 007c 1B89     		ldrh	r3, [r3, #8]
 845              		.loc 1 717 21 view .LVU242
 846 007e DAB2     		uxtb	r2, r3
 847 0080 AB2A     		cmp	r2, #171
 848 0082 49D0     		beq	.L59
 849              		.loc 1 717 73 is_stmt 1 discriminator 1 view .LVU243
 850              		.loc 1 717 82 is_stmt 0 discriminator 1 view .LVU244
 851 0084 414B     		ldr	r3, .L72+24
 852 0086 0822     		movs	r2, #8
 853 0088 1A70     		strb	r2, [r3]
 854              		.loc 1 717 97 is_stmt 1 discriminator 1 view .LVU245
 855 008a 6CE0     		b	.L42
 856              	.L46:
 687:Core/Src/main.c ****           sx1278_set_irq(0x00);
 857              		.loc 1 687 11 view .LVU246
 687:Core/Src/main.c ****           sx1278_set_irq(0x00);
 858              		.loc 1 687 24 is_stmt 0 view .LVU247
 859 008c 0020     		movs	r0, #0
 860 008e 394B     		ldr	r3, .L72
 861 0090 1870     		strb	r0, [r3]
 688:Core/Src/main.c ****           sx1278_write_reg(REG_IRQ_FLAGS, sx1278_read_reg(REG_IRQ_FLAGS));
 862              		.loc 1 688 11 is_stmt 1 view .LVU248
 863 0092 FFF7FEFF 		bl	sx1278_set_irq
 864              	.LVL50:
 689:Core/Src/main.c ****           continue;
 865              		.loc 1 689 11 view .LVU249
 866 0096 1220     		movs	r0, #18
 867 0098 FFF7FEFF 		bl	sx1278_read_reg
 868              	.LVL51:
 869 009c 0146     		mov	r1, r0
 870 009e 1220     		movs	r0, #18
 871 00a0 FFF7FEFF 		bl	sx1278_write_reg
ARM GAS  C:\Users\Vento\AppData\Local\Temp\ccdqD43g.s 			page 45


 872              	.LVL52:
 690:Core/Src/main.c ****         }
 873              		.loc 1 690 11 view .LVU250
 874 00a4 B6E7     		b	.L44
 875              	.L47:
 696:Core/Src/main.c ****           sx1278_start_recv_data();
 876              		.loc 1 696 11 view .LVU251
 696:Core/Src/main.c ****           sx1278_start_recv_data();
 877              		.loc 1 696 24 is_stmt 0 view .LVU252
 878 00a6 334B     		ldr	r3, .L72
 879 00a8 0022     		movs	r2, #0
 880 00aa 1A70     		strb	r2, [r3]
 697:Core/Src/main.c ****           continue;
 881              		.loc 1 697 11 is_stmt 1 view .LVU253
 882 00ac FFF7FEFF 		bl	sx1278_start_recv_data
 883              	.LVL53:
 698:Core/Src/main.c ****         }
 884              		.loc 1 698 11 view .LVU254
 885 00b0 B0E7     		b	.L44
 886              	.L66:
 705:Core/Src/main.c ****             if      (((resp.Target_Node_Response >> 8) & 0x00FF) == LINK_ACCEPT)    myStatus = NORM
 887              		.loc 1 705 13 view .LVU255
 705:Core/Src/main.c ****             if      (((resp.Target_Node_Response >> 8) & 0x00FF) == LINK_ACCEPT)    myStatus = NORM
 888              		.loc 1 705 22 is_stmt 0 view .LVU256
 889 00b2 354B     		ldr	r3, .L72+20
 890 00b4 1B89     		ldrh	r3, [r3, #8]
 705:Core/Src/main.c ****             if      (((resp.Target_Node_Response >> 8) & 0x00FF) == LINK_ACCEPT)    myStatus = NORM
 891              		.loc 1 705 16 view .LVU257
 892 00b6 DAB2     		uxtb	r2, r3
 893 00b8 AB2A     		cmp	r2, #171
 894 00ba 03D0     		beq	.L52
 705:Core/Src/main.c ****             if      (((resp.Target_Node_Response >> 8) & 0x00FF) == LINK_ACCEPT)    myStatus = NORM
 895              		.loc 1 705 68 is_stmt 1 discriminator 1 view .LVU258
 705:Core/Src/main.c ****             if      (((resp.Target_Node_Response >> 8) & 0x00FF) == LINK_ACCEPT)    myStatus = NORM
 896              		.loc 1 705 77 is_stmt 0 discriminator 1 view .LVU259
 897 00bc 334B     		ldr	r3, .L72+24
 898 00be 0222     		movs	r2, #2
 899 00c0 1A70     		strb	r2, [r3]
 705:Core/Src/main.c ****             if      (((resp.Target_Node_Response >> 8) & 0x00FF) == LINK_ACCEPT)    myStatus = NORM
 900              		.loc 1 705 90 is_stmt 1 discriminator 1 view .LVU260
 901 00c2 50E0     		b	.L42
 902              	.L52:
 706:Core/Src/main.c ****             else if (((resp.Target_Node_Response >> 8) & 0x00FF) == LINK_REJECT)    myStatus = (uin
 903              		.loc 1 706 13 view .LVU261
 706:Core/Src/main.c ****             else if (((resp.Target_Node_Response >> 8) & 0x00FF) == LINK_REJECT)    myStatus = (uin
 904              		.loc 1 706 56 is_stmt 0 view .LVU262
 905 00c4 1B0A     		lsrs	r3, r3, #8
 706:Core/Src/main.c ****             else if (((resp.Target_Node_Response >> 8) & 0x00FF) == LINK_REJECT)    myStatus = (uin
 906              		.loc 1 706 21 view .LVU263
 907 00c6 AA2B     		cmp	r3, #170
 908 00c8 08D0     		beq	.L68
 707:Core/Src/main.c ****           }
 909              		.loc 1 707 18 is_stmt 1 view .LVU264
 707:Core/Src/main.c ****           }
 910              		.loc 1 707 21 is_stmt 0 view .LVU265
 911 00ca 552B     		cmp	r3, #85
 912 00cc 0AD0     		beq	.L69
ARM GAS  C:\Users\Vento\AppData\Local\Temp\ccdqD43g.s 			page 46


 913              	.L55:
 718:Core/Src/main.c ****             else if ((resp.Target_Node_Response & 0x00FF) == LINK_ACK) {myStatus = NORMAL_MODE;}
 719:Core/Src/main.c ****             if      (((resp.Target_Node_Response >> 8) & 0x00FF) == LINK_CARRYON)   myStatus = NORM
 720:Core/Src/main.c ****             else if (((resp.Target_Node_Response >> 8) & 0x00FF) == LINK_DISMISS)   myStatus = LINK
 721:Core/Src/main.c ****           }
 722:Core/Src/main.c ****           HAL_RTCEx_BKUPWrite(&hrtc, RTC_BKP_DR3, resp.Target_Node_Period);
 914              		.loc 1 722 11 is_stmt 1 view .LVU266
 915 00ce 2E4B     		ldr	r3, .L72+20
 916 00d0 DA88     		ldrh	r2, [r3, #6]
 917 00d2 0321     		movs	r1, #3
 918 00d4 2E48     		ldr	r0, .L72+28
 919 00d6 FFF7FEFF 		bl	HAL_RTCEx_BKUPWrite
 920              	.LVL54:
 723:Core/Src/main.c ****           return;
 921              		.loc 1 723 11 view .LVU267
 922 00da 44E0     		b	.L42
 923              	.L68:
 706:Core/Src/main.c ****             else if (((resp.Target_Node_Response >> 8) & 0x00FF) == LINK_REJECT)    myStatus = (uin
 924              		.loc 1 706 85 discriminator 1 view .LVU268
 706:Core/Src/main.c ****             else if (((resp.Target_Node_Response >> 8) & 0x00FF) == LINK_REJECT)    myStatus = (uin
 925              		.loc 1 706 94 is_stmt 0 discriminator 1 view .LVU269
 926 00dc 2B4B     		ldr	r3, .L72+24
 927 00de 0422     		movs	r2, #4
 928 00e0 1A70     		strb	r2, [r3]
 929 00e2 F4E7     		b	.L55
 930              	.L69:
 707:Core/Src/main.c ****           }
 931              		.loc 1 707 85 is_stmt 1 discriminator 1 view .LVU270
 707:Core/Src/main.c ****           }
 932              		.loc 1 707 96 is_stmt 0 discriminator 1 view .LVU271
 933 00e4 284B     		ldr	r3, .L72+20
 934 00e6 1A79     		ldrb	r2, [r3, #4]	@ zero_extendqisi2
 707:Core/Src/main.c ****           }
 935              		.loc 1 707 94 discriminator 1 view .LVU272
 936 00e8 284B     		ldr	r3, .L72+24
 937 00ea 1A70     		strb	r2, [r3]
 938 00ec EFE7     		b	.L55
 939              	.L67:
 711:Core/Src/main.c ****             if      (((resp.Target_Node_Response >> 8) & 0x00FF) == LINK_CARRYON)   myStatus = NORM
 940              		.loc 1 711 13 is_stmt 1 view .LVU273
 711:Core/Src/main.c ****             if      (((resp.Target_Node_Response >> 8) & 0x00FF) == LINK_CARRYON)   myStatus = NORM
 941              		.loc 1 711 22 is_stmt 0 view .LVU274
 942 00ee 264B     		ldr	r3, .L72+20
 943 00f0 1B89     		ldrh	r3, [r3, #8]
 711:Core/Src/main.c ****             if      (((resp.Target_Node_Response >> 8) & 0x00FF) == LINK_CARRYON)   myStatus = NORM
 944              		.loc 1 711 16 view .LVU275
 945 00f2 DAB2     		uxtb	r2, r3
 946 00f4 AB2A     		cmp	r2, #171
 947 00f6 03D0     		beq	.L57
 711:Core/Src/main.c ****             if      (((resp.Target_Node_Response >> 8) & 0x00FF) == LINK_CARRYON)   myStatus = NORM
 948              		.loc 1 711 68 is_stmt 1 discriminator 1 view .LVU276
 711:Core/Src/main.c ****             if      (((resp.Target_Node_Response >> 8) & 0x00FF) == LINK_CARRYON)   myStatus = NORM
 949              		.loc 1 711 77 is_stmt 0 discriminator 1 view .LVU277
 950 00f8 244B     		ldr	r3, .L72+24
 951 00fa 0822     		movs	r2, #8
 952 00fc 1A70     		strb	r2, [r3]
 711:Core/Src/main.c ****             if      (((resp.Target_Node_Response >> 8) & 0x00FF) == LINK_CARRYON)   myStatus = NORM
ARM GAS  C:\Users\Vento\AppData\Local\Temp\ccdqD43g.s 			page 47


 953              		.loc 1 711 91 is_stmt 1 discriminator 1 view .LVU278
 954 00fe 32E0     		b	.L42
 955              	.L57:
 712:Core/Src/main.c ****             else if (((resp.Target_Node_Response >> 8) & 0x00FF) == LINK_DISMISS)   myStatus = LINK
 956              		.loc 1 712 13 view .LVU279
 712:Core/Src/main.c ****             else if (((resp.Target_Node_Response >> 8) & 0x00FF) == LINK_DISMISS)   myStatus = LINK
 957              		.loc 1 712 21 is_stmt 0 view .LVU280
 958 0100 1B0A     		lsrs	r3, r3, #8
 959 0102 03D1     		bne	.L58
 712:Core/Src/main.c ****             else if (((resp.Target_Node_Response >> 8) & 0x00FF) == LINK_DISMISS)   myStatus = LINK
 960              		.loc 1 712 85 is_stmt 1 discriminator 1 view .LVU281
 712:Core/Src/main.c ****             else if (((resp.Target_Node_Response >> 8) & 0x00FF) == LINK_DISMISS)   myStatus = LINK
 961              		.loc 1 712 94 is_stmt 0 discriminator 1 view .LVU282
 962 0104 214B     		ldr	r3, .L72+24
 963 0106 0422     		movs	r2, #4
 964 0108 1A70     		strb	r2, [r3]
 965 010a E0E7     		b	.L55
 966              	.L58:
 713:Core/Src/main.c ****           }
 967              		.loc 1 713 18 is_stmt 1 view .LVU283
 713:Core/Src/main.c ****           }
 968              		.loc 1 713 21 is_stmt 0 view .LVU284
 969 010c FF2B     		cmp	r3, #255
 970 010e DED1     		bne	.L55
 713:Core/Src/main.c ****           }
 971              		.loc 1 713 85 is_stmt 1 discriminator 1 view .LVU285
 713:Core/Src/main.c ****           }
 972              		.loc 1 713 94 is_stmt 0 discriminator 1 view .LVU286
 973 0110 1E4B     		ldr	r3, .L72+24
 974 0112 0222     		movs	r2, #2
 975 0114 1A70     		strb	r2, [r3]
 976 0116 DAE7     		b	.L55
 977              	.L59:
 718:Core/Src/main.c ****             if      (((resp.Target_Node_Response >> 8) & 0x00FF) == LINK_CARRYON)   myStatus = NORM
 978              		.loc 1 718 18 is_stmt 1 discriminator 1 view .LVU287
 718:Core/Src/main.c ****             if      (((resp.Target_Node_Response >> 8) & 0x00FF) == LINK_CARRYON)   myStatus = NORM
 979              		.loc 1 718 73 discriminator 1 view .LVU288
 718:Core/Src/main.c ****             if      (((resp.Target_Node_Response >> 8) & 0x00FF) == LINK_CARRYON)   myStatus = NORM
 980              		.loc 1 718 82 is_stmt 0 discriminator 1 view .LVU289
 981 0118 1C4A     		ldr	r2, .L72+24
 982 011a 0421     		movs	r1, #4
 983 011c 1170     		strb	r1, [r2]
 719:Core/Src/main.c ****             else if (((resp.Target_Node_Response >> 8) & 0x00FF) == LINK_DISMISS)   myStatus = LINK
 984              		.loc 1 719 13 is_stmt 1 discriminator 1 view .LVU290
 719:Core/Src/main.c ****             else if (((resp.Target_Node_Response >> 8) & 0x00FF) == LINK_DISMISS)   myStatus = LINK
 985              		.loc 1 719 21 is_stmt 0 discriminator 1 view .LVU291
 986 011e 1B0A     		lsrs	r3, r3, #8
 987 0120 D5D0     		beq	.L55
 720:Core/Src/main.c ****           }
 988              		.loc 1 720 18 is_stmt 1 view .LVU292
 720:Core/Src/main.c ****           }
 989              		.loc 1 720 21 is_stmt 0 view .LVU293
 990 0122 FF2B     		cmp	r3, #255
 991 0124 D3D1     		bne	.L55
 720:Core/Src/main.c ****           }
 992              		.loc 1 720 85 is_stmt 1 discriminator 1 view .LVU294
 720:Core/Src/main.c ****           }
ARM GAS  C:\Users\Vento\AppData\Local\Temp\ccdqD43g.s 			page 48


 993              		.loc 1 720 94 is_stmt 0 discriminator 1 view .LVU295
 994 0126 1346     		mov	r3, r2
 995 0128 0222     		movs	r2, #2
 996 012a 1A70     		strb	r2, [r3]
 997 012c CFE7     		b	.L55
 998              	.L45:
 724:Core/Src/main.c ****         }
 725:Core/Src/main.c ****       }
 726:Core/Src/main.c ****       else
 727:Core/Src/main.c ****       {
 728:Core/Src/main.c ****         is_LoRa_EXTI = false;
 999              		.loc 1 728 9 is_stmt 1 view .LVU296
 1000              		.loc 1 728 22 is_stmt 0 view .LVU297
 1001 012e 0020     		movs	r0, #0
 1002 0130 104B     		ldr	r3, .L72
 1003 0132 1870     		strb	r0, [r3]
 729:Core/Src/main.c ****         sx1278_set_irq(0x00);
 1004              		.loc 1 729 9 is_stmt 1 view .LVU298
 1005 0134 FFF7FEFF 		bl	sx1278_set_irq
 1006              	.LVL55:
 730:Core/Src/main.c ****         sx1278_write_reg(REG_IRQ_FLAGS, sx1278_read_reg(REG_IRQ_FLAGS));
 1007              		.loc 1 730 9 view .LVU299
 1008 0138 1220     		movs	r0, #18
 1009 013a FFF7FEFF 		bl	sx1278_read_reg
 1010              	.LVL56:
 1011 013e 0146     		mov	r1, r0
 1012 0140 1220     		movs	r0, #18
 1013 0142 FFF7FEFF 		bl	sx1278_write_reg
 1014              	.LVL57:
 731:Core/Src/main.c ****         continue;
 1015              		.loc 1 731 9 view .LVU300
 1016 0146 65E7     		b	.L44
 1017              	.L65:
 732:Core/Src/main.c ****       }
 733:Core/Src/main.c ****     }
 734:Core/Src/main.c ****   }
 735:Core/Src/main.c ****   
 736:Core/Src/main.c ****   if (myStatus == LINK_MODE)
 1018              		.loc 1 736 3 view .LVU301
 1019              		.loc 1 736 16 is_stmt 0 view .LVU302
 1020 0148 104B     		ldr	r3, .L72+24
 1021 014a 1B78     		ldrb	r3, [r3]	@ zero_extendqisi2
 1022              		.loc 1 736 6 view .LVU303
 1023 014c 022B     		cmp	r3, #2
 1024 014e 07D0     		beq	.L70
 737:Core/Src/main.c ****   {
 738:Core/Src/main.c ****     myStatus = LINK_MODE;
 739:Core/Src/main.c ****   }
 740:Core/Src/main.c ****   else if (myStatus == NORMAL_MODE)
 1025              		.loc 1 740 8 is_stmt 1 view .LVU304
 1026              		.loc 1 740 11 is_stmt 0 view .LVU305
 1027 0150 042B     		cmp	r3, #4
 1028 0152 0AD0     		beq	.L71
 741:Core/Src/main.c ****   {
 742:Core/Src/main.c ****     myStatus = RETRY_MODE;
 743:Core/Src/main.c ****   }
 744:Core/Src/main.c ****   else if (myStatus == RETRY_MODE)
ARM GAS  C:\Users\Vento\AppData\Local\Temp\ccdqD43g.s 			page 49


 1029              		.loc 1 744 8 is_stmt 1 view .LVU306
 1030              		.loc 1 744 11 is_stmt 0 view .LVU307
 1031 0154 082B     		cmp	r3, #8
 1032 0156 06D1     		bne	.L42
 745:Core/Src/main.c ****   {
 746:Core/Src/main.c ****     myStatus = RETRY_MODE;
 1033              		.loc 1 746 5 is_stmt 1 view .LVU308
 1034              		.loc 1 746 14 is_stmt 0 view .LVU309
 1035 0158 0C4B     		ldr	r3, .L72+24
 1036 015a 0822     		movs	r2, #8
 1037 015c 1A70     		strb	r2, [r3]
 1038 015e 02E0     		b	.L42
 1039              	.L70:
 738:Core/Src/main.c ****   }
 1040              		.loc 1 738 5 is_stmt 1 view .LVU310
 738:Core/Src/main.c ****   }
 1041              		.loc 1 738 14 is_stmt 0 view .LVU311
 1042 0160 0A4B     		ldr	r3, .L72+24
 1043 0162 0222     		movs	r2, #2
 1044 0164 1A70     		strb	r2, [r3]
 1045              	.L42:
 747:Core/Src/main.c ****   }
 748:Core/Src/main.c **** }
 1046              		.loc 1 748 1 view .LVU312
 1047 0166 03B0     		add	sp, sp, #12
 1048              	.LCFI7:
 1049              		.cfi_remember_state
 1050              		.cfi_def_cfa_offset 12
 1051              		@ sp needed
 1052 0168 30BD     		pop	{r4, r5, pc}
 1053              	.LVL58:
 1054              	.L71:
 1055              	.LCFI8:
 1056              		.cfi_restore_state
 742:Core/Src/main.c ****   }
 1057              		.loc 1 742 5 is_stmt 1 view .LVU313
 742:Core/Src/main.c ****   }
 1058              		.loc 1 742 14 is_stmt 0 view .LVU314
 1059 016a 084B     		ldr	r3, .L72+24
 1060 016c 0822     		movs	r2, #8
 1061 016e 1A70     		strb	r2, [r3]
 1062 0170 F9E7     		b	.L42
 1063              	.L73:
 1064 0172 00BF     		.align	2
 1065              	.L72:
 1066 0174 00000000 		.word	.LANCHOR4
 1067 0178 00000000 		.word	.LANCHOR5
 1068 017c 00000000 		.word	.LANCHOR6
 1069 0180 00000000 		.word	.LANCHOR7
 1070 0184 00000000 		.word	.LANCHOR8
 1071 0188 00000000 		.word	.LANCHOR9
 1072 018c 00000000 		.word	.LANCHOR3
 1073 0190 00000000 		.word	hrtc
 1074              		.cfi_endproc
 1075              	.LFE78:
 1077              		.global	__aeabi_ui2d
 1078              		.global	__aeabi_dmul
ARM GAS  C:\Users\Vento\AppData\Local\Temp\ccdqD43g.s 			page 50


 1079              		.global	__aeabi_ddiv
 1080              		.global	__aeabi_d2uiz
 1081              		.section	.text.Link_Mode_Handle,"ax",%progbits
 1082              		.align	1
 1083              		.global	Link_Mode_Handle
 1084              		.syntax unified
 1085              		.thumb
 1086              		.thumb_func
 1087              		.fpu softvfp
 1089              	Link_Mode_Handle:
 1090              	.LFB75:
 515:Core/Src/main.c ****   HAL_ADC_Start(&hadc1);
 1091              		.loc 1 515 1 is_stmt 1 view -0
 1092              		.cfi_startproc
 1093              		@ args = 0, pretend = 0, frame = 16
 1094              		@ frame_needed = 0, uses_anonymous_args = 0
 1095 0000 70B5     		push	{r4, r5, r6, lr}
 1096              	.LCFI9:
 1097              		.cfi_def_cfa_offset 16
 1098              		.cfi_offset 4, -16
 1099              		.cfi_offset 5, -12
 1100              		.cfi_offset 6, -8
 1101              		.cfi_offset 14, -4
 1102 0002 84B0     		sub	sp, sp, #16
 1103              	.LCFI10:
 1104              		.cfi_def_cfa_offset 32
 516:Core/Src/main.c ****   HAL_ADC_PollForConversion(&hadc1, 200);
 1105              		.loc 1 516 3 view .LVU316
 1106 0004 444C     		ldr	r4, .L82+24
 1107 0006 2046     		mov	r0, r4
 1108 0008 FFF7FEFF 		bl	HAL_ADC_Start
 1109              	.LVL59:
 517:Core/Src/main.c ****   backupStorage = HAL_ADC_GetValue(&hadc1);
 1110              		.loc 1 517 3 view .LVU317
 1111 000c C821     		movs	r1, #200
 1112 000e 2046     		mov	r0, r4
 1113 0010 FFF7FEFF 		bl	HAL_ADC_PollForConversion
 1114              	.LVL60:
 518:Core/Src/main.c ****   HAL_RTCEx_BKUPWrite(&hrtc, RTC_BKP_DR1, backupStorage);
 1115              		.loc 1 518 3 view .LVU318
 518:Core/Src/main.c ****   HAL_RTCEx_BKUPWrite(&hrtc, RTC_BKP_DR1, backupStorage);
 1116              		.loc 1 518 19 is_stmt 0 view .LVU319
 1117 0014 2046     		mov	r0, r4
 1118 0016 FFF7FEFF 		bl	HAL_ADC_GetValue
 1119              	.LVL61:
 1120 001a 0246     		mov	r2, r0
 518:Core/Src/main.c ****   HAL_RTCEx_BKUPWrite(&hrtc, RTC_BKP_DR1, backupStorage);
 1121              		.loc 1 518 17 view .LVU320
 1122 001c 3F4E     		ldr	r6, .L82+28
 1123 001e 3060     		str	r0, [r6]
 519:Core/Src/main.c ****   HAL_ADC_Stop(&hadc1);
 1124              		.loc 1 519 3 is_stmt 1 view .LVU321
 1125 0020 3F4D     		ldr	r5, .L82+32
 1126 0022 0121     		movs	r1, #1
 1127 0024 2846     		mov	r0, r5
 1128 0026 FFF7FEFF 		bl	HAL_RTCEx_BKUPWrite
 1129              	.LVL62:
ARM GAS  C:\Users\Vento\AppData\Local\Temp\ccdqD43g.s 			page 51


 520:Core/Src/main.c ****   HAL_ADC_DeInit(&hadc1);
 1130              		.loc 1 520 3 view .LVU322
 1131 002a 2046     		mov	r0, r4
 1132 002c FFF7FEFF 		bl	HAL_ADC_Stop
 1133              	.LVL63:
 521:Core/Src/main.c **** 
 1134              		.loc 1 521 3 view .LVU323
 1135 0030 2046     		mov	r0, r4
 1136 0032 FFF7FEFF 		bl	HAL_ADC_DeInit
 1137              	.LVL64:
 523:Core/Src/main.c ****   HAL_UART_DeInit(&huart1);
 1138              		.loc 1 523 3 view .LVU324
 1139 0036 3B48     		ldr	r0, .L82+36
 1140 0038 FFF7FEFF 		bl	HAL_I2C_DeInit
 1141              	.LVL65:
 524:Core/Src/main.c **** 
 1142              		.loc 1 524 3 view .LVU325
 1143 003c 3A48     		ldr	r0, .L82+40
 1144 003e FFF7FEFF 		bl	HAL_UART_DeInit
 1145              	.LVL66:
 526:Core/Src/main.c **** 
 1146              		.loc 1 526 3 view .LVU326
 1147 0042 0022     		movs	r2, #0
 1148 0044 4FF40051 		mov	r1, #8192
 1149 0048 3848     		ldr	r0, .L82+44
 1150 004a FFF7FEFF 		bl	HAL_GPIO_WritePin
 1151              	.LVL67:
 528:Core/Src/main.c **** 
 1152              		.loc 1 528 3 view .LVU327
 1153 004e FFF7FEFF 		bl	sx1278_init
 1154              	.LVL68:
 530:Core/Src/main.c ****   LinkReq.Packet_ID = LINK_PACKET_ID;
 1155              		.loc 1 530 3 view .LVU328
 531:Core/Src/main.c ****   LinkReq.Payload.Node_ID = NODE_ID;
 1156              		.loc 1 531 3 view .LVU329
 531:Core/Src/main.c ****   LinkReq.Payload.Node_ID = NODE_ID;
 1157              		.loc 1 531 21 is_stmt 0 view .LVU330
 1158 0052 4AF6AA23 		movw	r3, #43690
 1159 0056 ADF80430 		strh	r3, [sp, #4]	@ movhi
 532:Core/Src/main.c ****   LinkReq.Payload.Node_Status = myStatus;
 1160              		.loc 1 532 3 is_stmt 1 view .LVU331
 532:Core/Src/main.c ****   LinkReq.Payload.Node_Status = myStatus;
 1161              		.loc 1 532 27 is_stmt 0 view .LVU332
 1162 005a 41F20413 		movw	r3, #4356
 1163 005e ADF80630 		strh	r3, [sp, #6]	@ movhi
 533:Core/Src/main.c ****   LinkReq.Payload.Node_Battery_Voltage = (uint16_t)((double)backupStorage  * 2847.868f  * 3.3f / 40
 1164              		.loc 1 533 3 is_stmt 1 view .LVU333
 533:Core/Src/main.c ****   LinkReq.Payload.Node_Battery_Voltage = (uint16_t)((double)backupStorage  * 2847.868f  * 3.3f / 40
 1165              		.loc 1 533 31 is_stmt 0 view .LVU334
 1166 0062 334B     		ldr	r3, .L82+48
 1167 0064 1B78     		ldrb	r3, [r3]	@ zero_extendqisi2
 1168 0066 ADF80830 		strh	r3, [sp, #8]	@ movhi
 534:Core/Src/main.c ****   LinkReq.Payload.Node_Period = (uint16_t)(HAL_RTCEx_BKUPRead(&hrtc, RTC_BKP_DR3));
 1169              		.loc 1 534 3 is_stmt 1 view .LVU335
 534:Core/Src/main.c ****   LinkReq.Payload.Node_Period = (uint16_t)(HAL_RTCEx_BKUPRead(&hrtc, RTC_BKP_DR3));
 1170              		.loc 1 534 53 is_stmt 0 view .LVU336
 1171 006a 3068     		ldr	r0, [r6]
ARM GAS  C:\Users\Vento\AppData\Local\Temp\ccdqD43g.s 			page 52


 1172 006c FFF7FEFF 		bl	__aeabi_ui2d
 1173              	.LVL69:
 534:Core/Src/main.c ****   LinkReq.Payload.Node_Period = (uint16_t)(HAL_RTCEx_BKUPRead(&hrtc, RTC_BKP_DR3));
 1174              		.loc 1 534 76 view .LVU337
 1175 0070 23A3     		adr	r3, .L82
 1176 0072 D3E90023 		ldrd	r2, [r3]
 1177 0076 FFF7FEFF 		bl	__aeabi_dmul
 1178              	.LVL70:
 534:Core/Src/main.c ****   LinkReq.Payload.Node_Period = (uint16_t)(HAL_RTCEx_BKUPRead(&hrtc, RTC_BKP_DR3));
 1179              		.loc 1 534 89 view .LVU338
 1180 007a 23A3     		adr	r3, .L82+8
 1181 007c D3E90023 		ldrd	r2, [r3]
 1182 0080 FFF7FEFF 		bl	__aeabi_dmul
 1183              	.LVL71:
 534:Core/Src/main.c ****   LinkReq.Payload.Node_Period = (uint16_t)(HAL_RTCEx_BKUPRead(&hrtc, RTC_BKP_DR3));
 1184              		.loc 1 534 96 view .LVU339
 1185 0084 22A3     		adr	r3, .L82+16
 1186 0086 D3E90023 		ldrd	r2, [r3]
 1187 008a FFF7FEFF 		bl	__aeabi_ddiv
 1188              	.LVL72:
 534:Core/Src/main.c ****   LinkReq.Payload.Node_Period = (uint16_t)(HAL_RTCEx_BKUPRead(&hrtc, RTC_BKP_DR3));
 1189              		.loc 1 534 42 view .LVU340
 1190 008e FFF7FEFF 		bl	__aeabi_d2uiz
 1191              	.LVL73:
 1192 0092 80B2     		uxth	r0, r0
 534:Core/Src/main.c ****   LinkReq.Payload.Node_Period = (uint16_t)(HAL_RTCEx_BKUPRead(&hrtc, RTC_BKP_DR3));
 1193              		.loc 1 534 107 view .LVU341
 1194 0094 4638     		subs	r0, r0, #70
 534:Core/Src/main.c ****   LinkReq.Payload.Node_Period = (uint16_t)(HAL_RTCEx_BKUPRead(&hrtc, RTC_BKP_DR3));
 1195              		.loc 1 534 40 view .LVU342
 1196 0096 ADF80A00 		strh	r0, [sp, #10]	@ movhi
 535:Core/Src/main.c ****   memcpy((uint8_t*)&payload, (uint8_t*)&LinkReq, sizeof(Link_Packet_t));
 1197              		.loc 1 535 3 is_stmt 1 view .LVU343
 535:Core/Src/main.c ****   memcpy((uint8_t*)&payload, (uint8_t*)&LinkReq, sizeof(Link_Packet_t));
 1198              		.loc 1 535 44 is_stmt 0 view .LVU344
 1199 009a 0321     		movs	r1, #3
 1200 009c 2846     		mov	r0, r5
 1201 009e FFF7FEFF 		bl	HAL_RTCEx_BKUPRead
 1202              	.LVL74:
 535:Core/Src/main.c ****   memcpy((uint8_t*)&payload, (uint8_t*)&LinkReq, sizeof(Link_Packet_t));
 1203              		.loc 1 535 31 view .LVU345
 1204 00a2 ADF80C00 		strh	r0, [sp, #12]	@ movhi
 536:Core/Src/main.c ****   
 1205              		.loc 1 536 3 is_stmt 1 view .LVU346
 1206 00a6 234B     		ldr	r3, .L82+52
 1207 00a8 04AA     		add	r2, sp, #16
 1208 00aa 12E90700 		ldmdb	r2, {r0, r1, r2}
 1209 00ae 03C3     		stmia	r3!, {r0, r1}
 1210 00b0 1A80     		strh	r2, [r3]	@ movhi
 538:Core/Src/main.c ****   while ((is_OK_2_Talk() == false) && (nTry < 10))
 1211              		.loc 1 538 3 view .LVU347
 1212              	.LVL75:
 539:Core/Src/main.c ****   {
 1213              		.loc 1 539 3 view .LVU348
 538:Core/Src/main.c ****   while ((is_OK_2_Talk() == false) && (nTry < 10))
 1214              		.loc 1 538 11 is_stmt 0 view .LVU349
 1215 00b2 0024     		movs	r4, #0
ARM GAS  C:\Users\Vento\AppData\Local\Temp\ccdqD43g.s 			page 53


 539:Core/Src/main.c ****   {
 1216              		.loc 1 539 9 view .LVU350
 1217 00b4 04E0     		b	.L75
 1218              	.LVL76:
 1219              	.L77:
 541:Core/Src/main.c ****     HAL_Delay(TIMEOUT_MS);
 1220              		.loc 1 541 5 is_stmt 1 view .LVU351
 541:Core/Src/main.c ****     HAL_Delay(TIMEOUT_MS);
 1221              		.loc 1 541 9 is_stmt 0 view .LVU352
 1222 00b6 0134     		adds	r4, r4, #1
 1223              	.LVL77:
 541:Core/Src/main.c ****     HAL_Delay(TIMEOUT_MS);
 1224              		.loc 1 541 9 view .LVU353
 1225 00b8 E4B2     		uxtb	r4, r4
 1226              	.LVL78:
 542:Core/Src/main.c ****   }
 1227              		.loc 1 542 5 is_stmt 1 view .LVU354
 1228 00ba 3220     		movs	r0, #50
 1229 00bc FFF7FEFF 		bl	HAL_Delay
 1230              	.LVL79:
 1231              	.L75:
 539:Core/Src/main.c ****   {
 1232              		.loc 1 539 9 view .LVU355
 539:Core/Src/main.c ****   {
 1233              		.loc 1 539 11 is_stmt 0 view .LVU356
 1234 00c0 FFF7FEFF 		bl	is_OK_2_Talk
 1235              	.LVL80:
 539:Core/Src/main.c ****   {
 1236              		.loc 1 539 9 view .LVU357
 1237 00c4 08B9     		cbnz	r0, .L76
 539:Core/Src/main.c ****   {
 1238              		.loc 1 539 36 discriminator 1 view .LVU358
 1239 00c6 092C     		cmp	r4, #9
 1240 00c8 F5D9     		bls	.L77
 1241              	.L76:
 544:Core/Src/main.c ****   {
 1242              		.loc 1 544 3 is_stmt 1 view .LVU359
 544:Core/Src/main.c ****   {
 1243              		.loc 1 544 6 is_stmt 0 view .LVU360
 1244 00ca 0A2C     		cmp	r4, #10
 1245 00cc 12D0     		beq	.L81
 550:Core/Src/main.c **** 
 1246              		.loc 1 550 3 is_stmt 1 view .LVU361
 1247 00ce 0A21     		movs	r1, #10
 1248 00d0 1848     		ldr	r0, .L82+52
 1249 00d2 FFF7FEFF 		bl	sx1278_send_data
 1250              	.LVL81:
 552:Core/Src/main.c **** 
 1251              		.loc 1 552 3 view .LVU362
 1252 00d6 FFF7FEFF 		bl	Response_Handle
 1253              	.LVL82:
 554:Core/Src/main.c ****   HAL_SPI_DeInit(&hspi1);
 1254              		.loc 1 554 3 view .LVU363
 1255 00da FFF7FEFF 		bl	sx1278_sleep
 1256              	.LVL83:
 555:Core/Src/main.c **** 
 1257              		.loc 1 555 3 view .LVU364
ARM GAS  C:\Users\Vento\AppData\Local\Temp\ccdqD43g.s 			page 54


 1258 00de 1648     		ldr	r0, .L82+56
 1259 00e0 FFF7FEFF 		bl	HAL_SPI_DeInit
 1260              	.LVL84:
 557:Core/Src/main.c **** }
 1261              		.loc 1 557 3 view .LVU365
 1262 00e4 0122     		movs	r2, #1
 1263 00e6 4FF40051 		mov	r1, #8192
 1264 00ea 1048     		ldr	r0, .L82+44
 1265 00ec FFF7FEFF 		bl	HAL_GPIO_WritePin
 1266              	.LVL85:
 1267              	.L74:
 558:Core/Src/main.c **** 
 1268              		.loc 1 558 1 is_stmt 0 view .LVU366
 1269 00f0 04B0     		add	sp, sp, #16
 1270              	.LCFI11:
 1271              		.cfi_remember_state
 1272              		.cfi_def_cfa_offset 16
 1273              		@ sp needed
 1274 00f2 70BD     		pop	{r4, r5, r6, pc}
 1275              	.LVL86:
 1276              	.L81:
 1277              	.LCFI12:
 1278              		.cfi_restore_state
 546:Core/Src/main.c ****     return;
 1279              		.loc 1 546 5 is_stmt 1 view .LVU367
 546:Core/Src/main.c ****     return;
 1280              		.loc 1 546 14 is_stmt 0 view .LVU368
 1281 00f4 0E4B     		ldr	r3, .L82+48
 1282 00f6 0222     		movs	r2, #2
 1283 00f8 1A70     		strb	r2, [r3]
 547:Core/Src/main.c ****   }
 1284              		.loc 1 547 5 is_stmt 1 view .LVU369
 1285 00fa F9E7     		b	.L74
 1286              	.L83:
 1287 00fc AFF30080 		.align	3
 1288              	.L82:
 1289 0100 00000060 		.word	1610612736
 1290 0104 BC3FA640 		.word	1084637116
 1291 0108 00000060 		.word	1610612736
 1292 010c 66660A40 		.word	1074423398
 1293 0110 00000000 		.word	0
 1294 0114 00FEAF40 		.word	1085275648
 1295 0118 00000000 		.word	hadc1
 1296 011c 00000000 		.word	.LANCHOR10
 1297 0120 00000000 		.word	hrtc
 1298 0124 00000000 		.word	hi2c1
 1299 0128 00000000 		.word	huart1
 1300 012c 00100140 		.word	1073811456
 1301 0130 00000000 		.word	.LANCHOR3
 1302 0134 00000000 		.word	.LANCHOR11
 1303 0138 00000000 		.word	hspi1
 1304              		.cfi_endproc
 1305              	.LFE75:
 1307              		.section	.text.Normal_Mode_Handle,"ax",%progbits
 1308              		.align	1
 1309              		.global	Normal_Mode_Handle
 1310              		.syntax unified
ARM GAS  C:\Users\Vento\AppData\Local\Temp\ccdqD43g.s 			page 55


 1311              		.thumb
 1312              		.thumb_func
 1313              		.fpu softvfp
 1315              	Normal_Mode_Handle:
 1316              	.LFB76:
 561:Core/Src/main.c ****   HAL_ADC_Start(&hadc1);
 1317              		.loc 1 561 1 view -0
 1318              		.cfi_startproc
 1319              		@ args = 0, pretend = 0, frame = 32
 1320              		@ frame_needed = 0, uses_anonymous_args = 0
 1321 0000 F0B5     		push	{r4, r5, r6, r7, lr}
 1322              	.LCFI13:
 1323              		.cfi_def_cfa_offset 20
 1324              		.cfi_offset 4, -20
 1325              		.cfi_offset 5, -16
 1326              		.cfi_offset 6, -12
 1327              		.cfi_offset 7, -8
 1328              		.cfi_offset 14, -4
 1329 0002 89B0     		sub	sp, sp, #36
 1330              	.LCFI14:
 1331              		.cfi_def_cfa_offset 56
 562:Core/Src/main.c ****   HAL_ADC_PollForConversion(&hadc1, 200);
 1332              		.loc 1 562 3 view .LVU371
 1333 0004 804C     		ldr	r4, .L94+24
 1334 0006 2046     		mov	r0, r4
 1335 0008 FFF7FEFF 		bl	HAL_ADC_Start
 1336              	.LVL87:
 563:Core/Src/main.c ****   backupStorage = HAL_ADC_GetValue(&hadc1);
 1337              		.loc 1 563 3 view .LVU372
 1338 000c C821     		movs	r1, #200
 1339 000e 2046     		mov	r0, r4
 1340 0010 FFF7FEFF 		bl	HAL_ADC_PollForConversion
 1341              	.LVL88:
 564:Core/Src/main.c ****   HAL_RTCEx_BKUPWrite(&hrtc, RTC_BKP_DR1, backupStorage);
 1342              		.loc 1 564 3 view .LVU373
 564:Core/Src/main.c ****   HAL_RTCEx_BKUPWrite(&hrtc, RTC_BKP_DR1, backupStorage);
 1343              		.loc 1 564 19 is_stmt 0 view .LVU374
 1344 0014 2046     		mov	r0, r4
 1345 0016 FFF7FEFF 		bl	HAL_ADC_GetValue
 1346              	.LVL89:
 1347 001a 0246     		mov	r2, r0
 564:Core/Src/main.c ****   HAL_RTCEx_BKUPWrite(&hrtc, RTC_BKP_DR1, backupStorage);
 1348              		.loc 1 564 17 view .LVU375
 1349 001c 7B4E     		ldr	r6, .L94+28
 1350 001e 3060     		str	r0, [r6]
 565:Core/Src/main.c ****   HAL_ADC_Stop(&hadc1);
 1351              		.loc 1 565 3 is_stmt 1 view .LVU376
 1352 0020 7B4D     		ldr	r5, .L94+32
 1353 0022 0121     		movs	r1, #1
 1354 0024 2846     		mov	r0, r5
 1355 0026 FFF7FEFF 		bl	HAL_RTCEx_BKUPWrite
 1356              	.LVL90:
 566:Core/Src/main.c ****   HAL_ADC_DeInit(&hadc1);
 1357              		.loc 1 566 3 view .LVU377
 1358 002a 2046     		mov	r0, r4
 1359 002c FFF7FEFF 		bl	HAL_ADC_Stop
 1360              	.LVL91:
ARM GAS  C:\Users\Vento\AppData\Local\Temp\ccdqD43g.s 			page 56


 567:Core/Src/main.c **** 
 1361              		.loc 1 567 3 view .LVU378
 1362 0030 2046     		mov	r0, r4
 1363 0032 FFF7FEFF 		bl	HAL_ADC_DeInit
 1364              	.LVL92:
 569:Core/Src/main.c ****   HAL_GPIO_WritePin(PWR_CTRL_GPIO_Port, PWR_CTRL_Pin, GPIO_PIN_SET);
 1365              		.loc 1 569 3 view .LVU379
 1366 0036 0022     		movs	r2, #0
 1367 0038 4FF40051 		mov	r1, #8192
 1368 003c 7548     		ldr	r0, .L94+36
 1369 003e FFF7FEFF 		bl	HAL_GPIO_WritePin
 1370              	.LVL93:
 570:Core/Src/main.c ****   HAL_GPIO_WritePin(LED1_GPIO_Port, LED1_Pin, GPIO_PIN_RESET);
 1371              		.loc 1 570 3 view .LVU380
 1372 0042 754F     		ldr	r7, .L94+40
 1373 0044 0122     		movs	r2, #1
 1374 0046 4FF48041 		mov	r1, #16384
 1375 004a 3846     		mov	r0, r7
 1376 004c FFF7FEFF 		bl	HAL_GPIO_WritePin
 1377              	.LVL94:
 571:Core/Src/main.c **** 
 1378              		.loc 1 571 3 view .LVU381
 1379 0050 724C     		ldr	r4, .L94+44
 1380 0052 0022     		movs	r2, #0
 1381 0054 4FF40041 		mov	r1, #32768
 1382 0058 2046     		mov	r0, r4
 1383 005a FFF7FEFF 		bl	HAL_GPIO_WritePin
 1384              	.LVL95:
 573:Core/Src/main.c ****   readSensor();
 1385              		.loc 1 573 3 view .LVU382
 1386 005e 41F28830 		movw	r0, #5000
 1387 0062 FFF7FEFF 		bl	HAL_Delay
 1388              	.LVL96:
 574:Core/Src/main.c **** 
 1389              		.loc 1 574 3 view .LVU383
 1390 0066 FFF7FEFF 		bl	readSensor
 1391              	.LVL97:
 576:Core/Src/main.c ****   HAL_GPIO_WritePin(LED1_GPIO_Port, LED1_Pin, GPIO_PIN_SET);
 1392              		.loc 1 576 3 view .LVU384
 1393 006a 0022     		movs	r2, #0
 1394 006c 4FF48041 		mov	r1, #16384
 1395 0070 3846     		mov	r0, r7
 1396 0072 FFF7FEFF 		bl	HAL_GPIO_WritePin
 1397              	.LVL98:
 577:Core/Src/main.c ****   HAL_I2C_DeInit(&hi2c1);
 1398              		.loc 1 577 3 view .LVU385
 1399 0076 0122     		movs	r2, #1
 1400 0078 4FF40041 		mov	r1, #32768
 1401 007c 2046     		mov	r0, r4
 1402 007e FFF7FEFF 		bl	HAL_GPIO_WritePin
 1403              	.LVL99:
 578:Core/Src/main.c ****   HAL_UART_DeInit(&huart1);
 1404              		.loc 1 578 3 view .LVU386
 1405 0082 6748     		ldr	r0, .L94+48
 1406 0084 FFF7FEFF 		bl	HAL_I2C_DeInit
 1407              	.LVL100:
 579:Core/Src/main.c **** 
ARM GAS  C:\Users\Vento\AppData\Local\Temp\ccdqD43g.s 			page 57


 1408              		.loc 1 579 3 view .LVU387
 1409 0088 6648     		ldr	r0, .L94+52
 1410 008a FFF7FEFF 		bl	HAL_UART_DeInit
 1411              	.LVL101:
 581:Core/Src/main.c **** 
 1412              		.loc 1 581 3 view .LVU388
 1413 008e FFF7FEFF 		bl	sx1278_init
 1414              	.LVL102:
 583:Core/Src/main.c ****   data_packet.Packet_ID = DATA_PACKET_ID;
 1415              		.loc 1 583 3 view .LVU389
 584:Core/Src/main.c ****   data_packet.Payload.Link.Node_ID = NODE_ID;
 1416              		.loc 1 584 3 view .LVU390
 584:Core/Src/main.c ****   data_packet.Payload.Link.Node_ID = NODE_ID;
 1417              		.loc 1 584 25 is_stmt 0 view .LVU391
 1418 0092 45F65A23 		movw	r3, #23130
 1419 0096 ADF80030 		strh	r3, [sp]	@ movhi
 585:Core/Src/main.c ****   data_packet.Payload.Link.Node_Status = myStatus;
 1420              		.loc 1 585 3 is_stmt 1 view .LVU392
 585:Core/Src/main.c ****   data_packet.Payload.Link.Node_Status = myStatus;
 1421              		.loc 1 585 36 is_stmt 0 view .LVU393
 1422 009a 41F20413 		movw	r3, #4356
 1423 009e ADF80230 		strh	r3, [sp, #2]	@ movhi
 586:Core/Src/main.c ****   data_packet.Payload.Link.Node_Battery_Voltage = (uint16_t)((double)backupStorage  * 2847.868f  * 
 1424              		.loc 1 586 3 is_stmt 1 view .LVU394
 586:Core/Src/main.c ****   data_packet.Payload.Link.Node_Battery_Voltage = (uint16_t)((double)backupStorage  * 2847.868f  * 
 1425              		.loc 1 586 40 is_stmt 0 view .LVU395
 1426 00a2 614B     		ldr	r3, .L94+56
 1427 00a4 1B78     		ldrb	r3, [r3]	@ zero_extendqisi2
 1428 00a6 ADF80430 		strh	r3, [sp, #4]	@ movhi
 587:Core/Src/main.c ****   data_packet.Payload.Link.Node_Period = (uint16_t)(HAL_RTCEx_BKUPRead(&hrtc, RTC_BKP_DR3));
 1429              		.loc 1 587 3 is_stmt 1 view .LVU396
 587:Core/Src/main.c ****   data_packet.Payload.Link.Node_Period = (uint16_t)(HAL_RTCEx_BKUPRead(&hrtc, RTC_BKP_DR3));
 1430              		.loc 1 587 62 is_stmt 0 view .LVU397
 1431 00aa 3068     		ldr	r0, [r6]
 1432 00ac FFF7FEFF 		bl	__aeabi_ui2d
 1433              	.LVL103:
 587:Core/Src/main.c ****   data_packet.Payload.Link.Node_Period = (uint16_t)(HAL_RTCEx_BKUPRead(&hrtc, RTC_BKP_DR3));
 1434              		.loc 1 587 85 view .LVU398
 1435 00b0 4FA3     		adr	r3, .L94
 1436 00b2 D3E90023 		ldrd	r2, [r3]
 1437 00b6 FFF7FEFF 		bl	__aeabi_dmul
 1438              	.LVL104:
 587:Core/Src/main.c ****   data_packet.Payload.Link.Node_Period = (uint16_t)(HAL_RTCEx_BKUPRead(&hrtc, RTC_BKP_DR3));
 1439              		.loc 1 587 98 view .LVU399
 1440 00ba 4FA3     		adr	r3, .L94+8
 1441 00bc D3E90023 		ldrd	r2, [r3]
 1442 00c0 FFF7FEFF 		bl	__aeabi_dmul
 1443              	.LVL105:
 587:Core/Src/main.c ****   data_packet.Payload.Link.Node_Period = (uint16_t)(HAL_RTCEx_BKUPRead(&hrtc, RTC_BKP_DR3));
 1444              		.loc 1 587 106 view .LVU400
 1445 00c4 4EA3     		adr	r3, .L94+16
 1446 00c6 D3E90023 		ldrd	r2, [r3]
 1447 00ca FFF7FEFF 		bl	__aeabi_ddiv
 1448              	.LVL106:
 587:Core/Src/main.c ****   data_packet.Payload.Link.Node_Period = (uint16_t)(HAL_RTCEx_BKUPRead(&hrtc, RTC_BKP_DR3));
 1449              		.loc 1 587 51 view .LVU401
 1450 00ce FFF7FEFF 		bl	__aeabi_d2uiz
ARM GAS  C:\Users\Vento\AppData\Local\Temp\ccdqD43g.s 			page 58


 1451              	.LVL107:
 1452 00d2 80B2     		uxth	r0, r0
 587:Core/Src/main.c ****   data_packet.Payload.Link.Node_Period = (uint16_t)(HAL_RTCEx_BKUPRead(&hrtc, RTC_BKP_DR3));
 1453              		.loc 1 587 117 view .LVU402
 1454 00d4 4638     		subs	r0, r0, #70
 587:Core/Src/main.c ****   data_packet.Payload.Link.Node_Period = (uint16_t)(HAL_RTCEx_BKUPRead(&hrtc, RTC_BKP_DR3));
 1455              		.loc 1 587 49 view .LVU403
 1456 00d6 ADF80600 		strh	r0, [sp, #6]	@ movhi
 588:Core/Src/main.c ****   data_packet.Payload.Node_Soil_Temperature = mySoil.rawTemperature;
 1457              		.loc 1 588 3 is_stmt 1 view .LVU404
 588:Core/Src/main.c ****   data_packet.Payload.Node_Soil_Temperature = mySoil.rawTemperature;
 1458              		.loc 1 588 53 is_stmt 0 view .LVU405
 1459 00da 0321     		movs	r1, #3
 1460 00dc 2846     		mov	r0, r5
 1461 00de FFF7FEFF 		bl	HAL_RTCEx_BKUPRead
 1462              	.LVL108:
 588:Core/Src/main.c ****   data_packet.Payload.Node_Soil_Temperature = mySoil.rawTemperature;
 1463              		.loc 1 588 40 view .LVU406
 1464 00e2 ADF80800 		strh	r0, [sp, #8]	@ movhi
 589:Core/Src/main.c ****   data_packet.Payload.Node_Air_Temperature = get_random_value(HAL_GetTick(), 260, 275);
 1465              		.loc 1 589 3 is_stmt 1 view .LVU407
 589:Core/Src/main.c ****   data_packet.Payload.Node_Air_Temperature = get_random_value(HAL_GetTick(), 260, 275);
 1466              		.loc 1 589 53 is_stmt 0 view .LVU408
 1467 00e6 514C     		ldr	r4, .L94+60
 1468 00e8 2388     		ldrh	r3, [r4]
 589:Core/Src/main.c ****   data_packet.Payload.Node_Air_Temperature = get_random_value(HAL_GetTick(), 260, 275);
 1469              		.loc 1 589 45 view .LVU409
 1470 00ea ADF80A30 		strh	r3, [sp, #10]	@ movhi
 590:Core/Src/main.c ****   data_packet.Payload.Node_Soil_Humidity = mySoil.rawHumidity;
 1471              		.loc 1 590 3 is_stmt 1 view .LVU410
 590:Core/Src/main.c ****   data_packet.Payload.Node_Soil_Humidity = mySoil.rawHumidity;
 1472              		.loc 1 590 46 is_stmt 0 view .LVU411
 1473 00ee FFF7FEFF 		bl	HAL_GetTick
 1474              	.LVL109:
 1475 00f2 40F21312 		movw	r2, #275
 1476 00f6 4FF48271 		mov	r1, #260
 1477 00fa FFF7FEFF 		bl	get_random_value
 1478              	.LVL110:
 590:Core/Src/main.c ****   data_packet.Payload.Node_Soil_Humidity = mySoil.rawHumidity;
 1479              		.loc 1 590 44 view .LVU412
 1480 00fe ADF80C00 		strh	r0, [sp, #12]	@ movhi
 591:Core/Src/main.c ****   data_packet.Payload.Node_Air_Humidity = get_random_value(HAL_GetTick(), 650, 750);
 1481              		.loc 1 591 3 is_stmt 1 view .LVU413
 591:Core/Src/main.c ****   data_packet.Payload.Node_Air_Humidity = get_random_value(HAL_GetTick(), 650, 750);
 1482              		.loc 1 591 50 is_stmt 0 view .LVU414
 1483 0102 6388     		ldrh	r3, [r4, #2]
 591:Core/Src/main.c ****   data_packet.Payload.Node_Air_Humidity = get_random_value(HAL_GetTick(), 650, 750);
 1484              		.loc 1 591 42 view .LVU415
 1485 0104 ADF80E30 		strh	r3, [sp, #14]	@ movhi
 592:Core/Src/main.c ****   data_packet.Payload.Node_Salinity = mySoil.Salinity;
 1486              		.loc 1 592 3 is_stmt 1 view .LVU416
 592:Core/Src/main.c ****   data_packet.Payload.Node_Salinity = mySoil.Salinity;
 1487              		.loc 1 592 43 is_stmt 0 view .LVU417
 1488 0108 FFF7FEFF 		bl	HAL_GetTick
 1489              	.LVL111:
 1490 010c 40F2EE22 		movw	r2, #750
 1491 0110 40F28A21 		movw	r1, #650
ARM GAS  C:\Users\Vento\AppData\Local\Temp\ccdqD43g.s 			page 59


 1492 0114 FFF7FEFF 		bl	get_random_value
 1493              	.LVL112:
 592:Core/Src/main.c ****   data_packet.Payload.Node_Salinity = mySoil.Salinity;
 1494              		.loc 1 592 41 view .LVU418
 1495 0118 ADF81000 		strh	r0, [sp, #16]	@ movhi
 593:Core/Src/main.c ****   data_packet.Payload.Node_Conductivity = mySoil.Conductivity;
 1496              		.loc 1 593 3 is_stmt 1 view .LVU419
 593:Core/Src/main.c ****   data_packet.Payload.Node_Conductivity = mySoil.Conductivity;
 1497              		.loc 1 593 45 is_stmt 0 view .LVU420
 1498 011c A389     		ldrh	r3, [r4, #12]
 593:Core/Src/main.c ****   data_packet.Payload.Node_Conductivity = mySoil.Conductivity;
 1499              		.loc 1 593 37 view .LVU421
 1500 011e ADF81230 		strh	r3, [sp, #18]	@ movhi
 594:Core/Src/main.c ****   data_packet.Payload.Node_pH = get_random_value(HAL_GetTick(), 65, 75);
 1501              		.loc 1 594 3 is_stmt 1 view .LVU422
 594:Core/Src/main.c ****   data_packet.Payload.Node_pH = get_random_value(HAL_GetTick(), 65, 75);
 1502              		.loc 1 594 49 is_stmt 0 view .LVU423
 1503 0122 E389     		ldrh	r3, [r4, #14]
 594:Core/Src/main.c ****   data_packet.Payload.Node_pH = get_random_value(HAL_GetTick(), 65, 75);
 1504              		.loc 1 594 41 view .LVU424
 1505 0124 ADF81430 		strh	r3, [sp, #20]	@ movhi
 595:Core/Src/main.c ****   data_packet.Payload.Node_N = mySoil.N;
 1506              		.loc 1 595 3 is_stmt 1 view .LVU425
 595:Core/Src/main.c ****   data_packet.Payload.Node_N = mySoil.N;
 1507              		.loc 1 595 33 is_stmt 0 view .LVU426
 1508 0128 FFF7FEFF 		bl	HAL_GetTick
 1509              	.LVL113:
 1510 012c 4B22     		movs	r2, #75
 1511 012e 4121     		movs	r1, #65
 1512 0130 FFF7FEFF 		bl	get_random_value
 1513              	.LVL114:
 595:Core/Src/main.c ****   data_packet.Payload.Node_N = mySoil.N;
 1514              		.loc 1 595 31 view .LVU427
 1515 0134 ADF81600 		strh	r0, [sp, #22]	@ movhi
 596:Core/Src/main.c ****   data_packet.Payload.Node_P = mySoil.P;
 1516              		.loc 1 596 3 is_stmt 1 view .LVU428
 596:Core/Src/main.c ****   data_packet.Payload.Node_P = mySoil.P;
 1517              		.loc 1 596 38 is_stmt 0 view .LVU429
 1518 0138 238B     		ldrh	r3, [r4, #24]
 596:Core/Src/main.c ****   data_packet.Payload.Node_P = mySoil.P;
 1519              		.loc 1 596 30 view .LVU430
 1520 013a ADF81830 		strh	r3, [sp, #24]	@ movhi
 597:Core/Src/main.c ****   data_packet.Payload.Node_K = mySoil.K;
 1521              		.loc 1 597 3 is_stmt 1 view .LVU431
 597:Core/Src/main.c ****   data_packet.Payload.Node_K = mySoil.K;
 1522              		.loc 1 597 38 is_stmt 0 view .LVU432
 1523 013e 638B     		ldrh	r3, [r4, #26]
 597:Core/Src/main.c ****   data_packet.Payload.Node_K = mySoil.K;
 1524              		.loc 1 597 30 view .LVU433
 1525 0140 ADF81A30 		strh	r3, [sp, #26]	@ movhi
 598:Core/Src/main.c ****   memset(payload, '\0', sizeof(payload));
 1526              		.loc 1 598 3 is_stmt 1 view .LVU434
 598:Core/Src/main.c ****   memset(payload, '\0', sizeof(payload));
 1527              		.loc 1 598 38 is_stmt 0 view .LVU435
 1528 0144 A38B     		ldrh	r3, [r4, #28]
 598:Core/Src/main.c ****   memset(payload, '\0', sizeof(payload));
 1529              		.loc 1 598 30 view .LVU436
ARM GAS  C:\Users\Vento\AppData\Local\Temp\ccdqD43g.s 			page 60


 1530 0146 ADF81C30 		strh	r3, [sp, #28]	@ movhi
 599:Core/Src/main.c ****   memcpy((uint8_t *)payload, (uint8_t *)&data_packet, sizeof(Data_Packet_t));
 1531              		.loc 1 599 3 is_stmt 1 view .LVU437
 1532 014a 394C     		ldr	r4, .L94+64
 1533 014c 6422     		movs	r2, #100
 1534 014e 0021     		movs	r1, #0
 1535 0150 2046     		mov	r0, r4
 1536 0152 FFF7FEFF 		bl	memset
 1537              	.LVL115:
 600:Core/Src/main.c ****   
 1538              		.loc 1 600 3 view .LVU438
 1539 0156 EC46     		mov	ip, sp
 1540 0158 BCE80F00 		ldmia	ip!, {r0, r1, r2, r3}
 1541 015c 0FC4     		stmia	r4!, {r0, r1, r2, r3}
 1542 015e 9CE80F00 		ldm	ip, {r0, r1, r2, r3}
 1543 0162 07C4     		stmia	r4!, {r0, r1, r2}
 1544 0164 2380     		strh	r3, [r4]	@ movhi
 602:Core/Src/main.c ****   while ((is_OK_2_Talk() == false) && (nTry < 10))
 1545              		.loc 1 602 3 view .LVU439
 1546              	.LVL116:
 603:Core/Src/main.c ****   {
 1547              		.loc 1 603 3 view .LVU440
 602:Core/Src/main.c ****   while ((is_OK_2_Talk() == false) && (nTry < 10))
 1548              		.loc 1 602 11 is_stmt 0 view .LVU441
 1549 0166 0024     		movs	r4, #0
 603:Core/Src/main.c ****   {
 1550              		.loc 1 603 9 view .LVU442
 1551 0168 04E0     		b	.L85
 1552              	.LVL117:
 1553              	.L87:
 605:Core/Src/main.c ****     HAL_Delay(TIMEOUT_MS);
 1554              		.loc 1 605 5 is_stmt 1 view .LVU443
 605:Core/Src/main.c ****     HAL_Delay(TIMEOUT_MS);
 1555              		.loc 1 605 9 is_stmt 0 view .LVU444
 1556 016a 0134     		adds	r4, r4, #1
 1557              	.LVL118:
 605:Core/Src/main.c ****     HAL_Delay(TIMEOUT_MS);
 1558              		.loc 1 605 9 view .LVU445
 1559 016c E4B2     		uxtb	r4, r4
 1560              	.LVL119:
 606:Core/Src/main.c ****   }
 1561              		.loc 1 606 5 is_stmt 1 view .LVU446
 1562 016e 3220     		movs	r0, #50
 1563 0170 FFF7FEFF 		bl	HAL_Delay
 1564              	.LVL120:
 1565              	.L85:
 603:Core/Src/main.c ****   {
 1566              		.loc 1 603 9 view .LVU447
 603:Core/Src/main.c ****   {
 1567              		.loc 1 603 11 is_stmt 0 view .LVU448
 1568 0174 FFF7FEFF 		bl	is_OK_2_Talk
 1569              	.LVL121:
 603:Core/Src/main.c ****   {
 1570              		.loc 1 603 9 view .LVU449
 1571 0178 08B9     		cbnz	r0, .L86
 603:Core/Src/main.c ****   {
 1572              		.loc 1 603 36 discriminator 1 view .LVU450
ARM GAS  C:\Users\Vento\AppData\Local\Temp\ccdqD43g.s 			page 61


 1573 017a 092C     		cmp	r4, #9
 1574 017c F5D9     		bls	.L87
 1575              	.L86:
 608:Core/Src/main.c ****   {
 1576              		.loc 1 608 3 is_stmt 1 view .LVU451
 608:Core/Src/main.c ****   {
 1577              		.loc 1 608 6 is_stmt 0 view .LVU452
 1578 017e 0A2C     		cmp	r4, #10
 1579 0180 16D0     		beq	.L92
 615:Core/Src/main.c **** 
 1580              		.loc 1 615 3 is_stmt 1 view .LVU453
 1581 0182 1E21     		movs	r1, #30
 1582 0184 2A48     		ldr	r0, .L94+64
 1583 0186 FFF7FEFF 		bl	sx1278_send_data
 1584              	.LVL122:
 617:Core/Src/main.c **** 
 1585              		.loc 1 617 3 view .LVU454
 1586 018a FFF7FEFF 		bl	Response_Handle
 1587              	.LVL123:
 619:Core/Src/main.c ****   {
 1588              		.loc 1 619 3 view .LVU455
 619:Core/Src/main.c ****   {
 1589              		.loc 1 619 16 is_stmt 0 view .LVU456
 1590 018e 264B     		ldr	r3, .L94+56
 1591 0190 1B78     		ldrb	r3, [r3]	@ zero_extendqisi2
 619:Core/Src/main.c ****   {
 1592              		.loc 1 619 6 view .LVU457
 1593 0192 082B     		cmp	r3, #8
 1594 0194 16D0     		beq	.L93
 1595              	.LVL124:
 1596              	.L90:
 626:Core/Src/main.c ****   HAL_SPI_DeInit(&hspi1);
 1597              		.loc 1 626 3 is_stmt 1 view .LVU458
 1598 0196 FFF7FEFF 		bl	sx1278_sleep
 1599              	.LVL125:
 627:Core/Src/main.c **** 
 1600              		.loc 1 627 3 view .LVU459
 1601 019a 2648     		ldr	r0, .L94+68
 1602 019c FFF7FEFF 		bl	HAL_SPI_DeInit
 1603              	.LVL126:
 629:Core/Src/main.c **** }
 1604              		.loc 1 629 3 view .LVU460
 1605 01a0 0122     		movs	r2, #1
 1606 01a2 4FF40051 		mov	r1, #8192
 1607 01a6 1B48     		ldr	r0, .L94+36
 1608 01a8 FFF7FEFF 		bl	HAL_GPIO_WritePin
 1609              	.LVL127:
 1610              	.L84:
 630:Core/Src/main.c **** 
 1611              		.loc 1 630 1 is_stmt 0 view .LVU461
 1612 01ac 09B0     		add	sp, sp, #36
 1613              	.LCFI15:
 1614              		.cfi_remember_state
 1615              		.cfi_def_cfa_offset 20
 1616              		@ sp needed
 1617 01ae F0BD     		pop	{r4, r5, r6, r7, pc}
 1618              	.LVL128:
ARM GAS  C:\Users\Vento\AppData\Local\Temp\ccdqD43g.s 			page 62


 1619              	.L92:
 1620              	.LCFI16:
 1621              		.cfi_restore_state
 610:Core/Src/main.c ****     HAL_GPIO_WritePin(LED0_GPIO_Port, LED0_Pin, GPIO_PIN_SET);
 1622              		.loc 1 610 5 is_stmt 1 view .LVU462
 610:Core/Src/main.c ****     HAL_GPIO_WritePin(LED0_GPIO_Port, LED0_Pin, GPIO_PIN_SET);
 1623              		.loc 1 610 14 is_stmt 0 view .LVU463
 1624 01b0 1D4B     		ldr	r3, .L94+56
 1625 01b2 0822     		movs	r2, #8
 1626 01b4 1A70     		strb	r2, [r3]
 611:Core/Src/main.c ****     return;
 1627              		.loc 1 611 5 is_stmt 1 view .LVU464
 1628 01b6 0122     		movs	r2, #1
 1629 01b8 4FF40051 		mov	r1, #8192
 1630 01bc 1548     		ldr	r0, .L94+36
 1631 01be FFF7FEFF 		bl	HAL_GPIO_WritePin
 1632              	.LVL129:
 612:Core/Src/main.c ****   }
 1633              		.loc 1 612 5 view .LVU465
 1634 01c2 F3E7     		b	.L84
 1635              	.L93:
 621:Core/Src/main.c ****     memcpy((uint8_t *)&array2store, (uint8_t *)&data_packet, sizeof(Data_Packet_t));
 1636              		.loc 1 621 5 view .LVU466
 1637 01c4 1C4E     		ldr	r6, .L94+72
 1638 01c6 2022     		movs	r2, #32
 1639 01c8 0021     		movs	r1, #0
 1640 01ca 3046     		mov	r0, r6
 1641 01cc FFF7FEFF 		bl	memset
 1642              	.LVL130:
 622:Core/Src/main.c ****     Flash_Write_Data(SAVE_ADDR, (uint32_t*)&array2store, 8U);
 1643              		.loc 1 622 5 view .LVU467
 1644 01d0 3446     		mov	r4, r6
 1645              	.LVL131:
 622:Core/Src/main.c ****     Flash_Write_Data(SAVE_ADDR, (uint32_t*)&array2store, 8U);
 1646              		.loc 1 622 5 is_stmt 0 view .LVU468
 1647 01d2 6D46     		mov	r5, sp
 1648 01d4 0FCD     		ldmia	r5!, {r0, r1, r2, r3}
 1649 01d6 0FC4     		stmia	r4!, {r0, r1, r2, r3}
 1650 01d8 95E80F00 		ldm	r5, {r0, r1, r2, r3}
 1651 01dc 07C4     		stmia	r4!, {r0, r1, r2}
 1652 01de 2380     		strh	r3, [r4]	@ movhi
 623:Core/Src/main.c ****   }
 1653              		.loc 1 623 5 is_stmt 1 view .LVU469
 1654 01e0 0822     		movs	r2, #8
 1655 01e2 3146     		mov	r1, r6
 1656 01e4 1548     		ldr	r0, .L94+76
 1657 01e6 FFF7FEFF 		bl	Flash_Write_Data
 1658              	.LVL132:
 1659 01ea D4E7     		b	.L90
 1660              	.L95:
 1661 01ec AFF30080 		.align	3
 1662              	.L94:
 1663 01f0 00000060 		.word	1610612736
 1664 01f4 BC3FA640 		.word	1084637116
 1665 01f8 00000080 		.word	-2147483648
 1666 01fc 3D0A0B40 		.word	1074465341
 1667 0200 00000000 		.word	0
ARM GAS  C:\Users\Vento\AppData\Local\Temp\ccdqD43g.s 			page 63


 1668 0204 00FEAF40 		.word	1085275648
 1669 0208 00000000 		.word	hadc1
 1670 020c 00000000 		.word	.LANCHOR10
 1671 0210 00000000 		.word	hrtc
 1672 0214 00100140 		.word	1073811456
 1673 0218 000C0140 		.word	1073810432
 1674 021c 00080140 		.word	1073809408
 1675 0220 00000000 		.word	hi2c1
 1676 0224 00000000 		.word	huart1
 1677 0228 00000000 		.word	.LANCHOR3
 1678 022c 00000000 		.word	.LANCHOR2
 1679 0230 00000000 		.word	.LANCHOR11
 1680 0234 00000000 		.word	hspi1
 1681 0238 00000000 		.word	.LANCHOR12
 1682 023c 30300108 		.word	134295600
 1683              		.cfi_endproc
 1684              	.LFE76:
 1686              		.section	.text.Retry_Mode_Handle,"ax",%progbits
 1687              		.align	1
 1688              		.global	Retry_Mode_Handle
 1689              		.syntax unified
 1690              		.thumb
 1691              		.thumb_func
 1692              		.fpu softvfp
 1694              	Retry_Mode_Handle:
 1695              	.LFB77:
 633:Core/Src/main.c ****   HAL_ADC_DeInit(&hadc1);
 1696              		.loc 1 633 1 view -0
 1697              		.cfi_startproc
 1698              		@ args = 0, pretend = 0, frame = 0
 1699              		@ frame_needed = 0, uses_anonymous_args = 0
 1700 0000 38B5     		push	{r3, r4, r5, lr}
 1701              	.LCFI17:
 1702              		.cfi_def_cfa_offset 16
 1703              		.cfi_offset 3, -16
 1704              		.cfi_offset 4, -12
 1705              		.cfi_offset 5, -8
 1706              		.cfi_offset 14, -4
 634:Core/Src/main.c ****   HAL_I2C_DeInit(&hi2c1);
 1707              		.loc 1 634 3 view .LVU471
 1708 0002 2448     		ldr	r0, .L104
 1709 0004 FFF7FEFF 		bl	HAL_ADC_DeInit
 1710              	.LVL133:
 635:Core/Src/main.c ****   HAL_UART_DeInit(&huart1);
 1711              		.loc 1 635 3 view .LVU472
 1712 0008 2348     		ldr	r0, .L104+4
 1713 000a FFF7FEFF 		bl	HAL_I2C_DeInit
 1714              	.LVL134:
 636:Core/Src/main.c ****   HAL_GPIO_WritePin(LED0_GPIO_Port, LED0_Pin, GPIO_PIN_RESET);
 1715              		.loc 1 636 3 view .LVU473
 1716 000e 2348     		ldr	r0, .L104+8
 1717 0010 FFF7FEFF 		bl	HAL_UART_DeInit
 1718              	.LVL135:
 637:Core/Src/main.c **** 
 1719              		.loc 1 637 3 view .LVU474
 1720 0014 0022     		movs	r2, #0
 1721 0016 4FF40051 		mov	r1, #8192
ARM GAS  C:\Users\Vento\AppData\Local\Temp\ccdqD43g.s 			page 64


 1722 001a 2148     		ldr	r0, .L104+12
 1723 001c FFF7FEFF 		bl	HAL_GPIO_WritePin
 1724              	.LVL136:
 639:Core/Src/main.c ****   Flash_Read_Data(SAVE_ADDR, (uint32_t *)&array2store, sizeof(array2store));
 1725              		.loc 1 639 3 view .LVU475
 1726 0020 FFF7FEFF 		bl	sx1278_init
 1727              	.LVL137:
 640:Core/Src/main.c ****   memcpy((uint8_t *)payload, (uint8_t *)&array2store, sizeof(Data_Packet_t));
 1728              		.loc 1 640 3 view .LVU476
 1729 0024 1F4C     		ldr	r4, .L104+16
 1730 0026 2022     		movs	r2, #32
 1731 0028 2146     		mov	r1, r4
 1732 002a 1F48     		ldr	r0, .L104+20
 1733 002c FFF7FEFF 		bl	Flash_Read_Data
 1734              	.LVL138:
 641:Core/Src/main.c ****   
 1735              		.loc 1 641 3 view .LVU477
 1736 0030 1E4D     		ldr	r5, .L104+24
 1737 0032 0FCC     		ldmia	r4!, {r0, r1, r2, r3}
 1738 0034 0FC5     		stmia	r5!, {r0, r1, r2, r3}
 1739 0036 94E80F00 		ldm	r4, {r0, r1, r2, r3}
 1740 003a 07C5     		stmia	r5!, {r0, r1, r2}
 1741 003c 2B80     		strh	r3, [r5]	@ movhi
 643:Core/Src/main.c ****   while ((is_OK_2_Talk() == false) && (nTry < 10))
 1742              		.loc 1 643 3 view .LVU478
 1743              	.LVL139:
 644:Core/Src/main.c ****   {
 1744              		.loc 1 644 3 view .LVU479
 643:Core/Src/main.c ****   while ((is_OK_2_Talk() == false) && (nTry < 10))
 1745              		.loc 1 643 11 is_stmt 0 view .LVU480
 1746 003e 0024     		movs	r4, #0
 644:Core/Src/main.c ****   {
 1747              		.loc 1 644 9 view .LVU481
 1748 0040 04E0     		b	.L97
 1749              	.LVL140:
 1750              	.L99:
 646:Core/Src/main.c ****     HAL_Delay(TIMEOUT_MS);
 1751              		.loc 1 646 5 is_stmt 1 view .LVU482
 646:Core/Src/main.c ****     HAL_Delay(TIMEOUT_MS);
 1752              		.loc 1 646 9 is_stmt 0 view .LVU483
 1753 0042 0134     		adds	r4, r4, #1
 1754              	.LVL141:
 646:Core/Src/main.c ****     HAL_Delay(TIMEOUT_MS);
 1755              		.loc 1 646 9 view .LVU484
 1756 0044 E4B2     		uxtb	r4, r4
 1757              	.LVL142:
 647:Core/Src/main.c ****   }
 1758              		.loc 1 647 5 is_stmt 1 view .LVU485
 1759 0046 3220     		movs	r0, #50
 1760 0048 FFF7FEFF 		bl	HAL_Delay
 1761              	.LVL143:
 1762              	.L97:
 644:Core/Src/main.c ****   {
 1763              		.loc 1 644 9 view .LVU486
 644:Core/Src/main.c ****   {
 1764              		.loc 1 644 11 is_stmt 0 view .LVU487
 1765 004c FFF7FEFF 		bl	is_OK_2_Talk
ARM GAS  C:\Users\Vento\AppData\Local\Temp\ccdqD43g.s 			page 65


 1766              	.LVL144:
 644:Core/Src/main.c ****   {
 1767              		.loc 1 644 9 view .LVU488
 1768 0050 08B9     		cbnz	r0, .L98
 644:Core/Src/main.c ****   {
 1769              		.loc 1 644 36 discriminator 1 view .LVU489
 1770 0052 092C     		cmp	r4, #9
 1771 0054 F5D9     		bls	.L99
 1772              	.L98:
 649:Core/Src/main.c ****   {
 1773              		.loc 1 649 3 is_stmt 1 view .LVU490
 649:Core/Src/main.c ****   {
 1774              		.loc 1 649 6 is_stmt 0 view .LVU491
 1775 0056 0A2C     		cmp	r4, #10
 1776 0058 11D0     		beq	.L103
 656:Core/Src/main.c **** 
 1777              		.loc 1 656 3 is_stmt 1 view .LVU492
 1778 005a 1E21     		movs	r1, #30
 1779 005c 1348     		ldr	r0, .L104+24
 1780 005e FFF7FEFF 		bl	sx1278_send_data
 1781              	.LVL145:
 658:Core/Src/main.c **** 
 1782              		.loc 1 658 3 view .LVU493
 1783 0062 FFF7FEFF 		bl	Response_Handle
 1784              	.LVL146:
 660:Core/Src/main.c ****   HAL_SPI_DeInit(&hspi1);
 1785              		.loc 1 660 3 view .LVU494
 1786 0066 FFF7FEFF 		bl	sx1278_sleep
 1787              	.LVL147:
 661:Core/Src/main.c **** 
 1788              		.loc 1 661 3 view .LVU495
 1789 006a 1148     		ldr	r0, .L104+28
 1790 006c FFF7FEFF 		bl	HAL_SPI_DeInit
 1791              	.LVL148:
 663:Core/Src/main.c **** }
 1792              		.loc 1 663 3 view .LVU496
 1793 0070 0122     		movs	r2, #1
 1794 0072 4FF40051 		mov	r1, #8192
 1795 0076 0A48     		ldr	r0, .L104+12
 1796 0078 FFF7FEFF 		bl	HAL_GPIO_WritePin
 1797              	.LVL149:
 1798              	.L96:
 664:Core/Src/main.c **** 
 1799              		.loc 1 664 1 is_stmt 0 view .LVU497
 1800 007c 38BD     		pop	{r3, r4, r5, pc}
 1801              	.LVL150:
 1802              	.L103:
 651:Core/Src/main.c ****     HAL_GPIO_WritePin(LED0_GPIO_Port, LED0_Pin, GPIO_PIN_SET);
 1803              		.loc 1 651 5 is_stmt 1 view .LVU498
 651:Core/Src/main.c ****     HAL_GPIO_WritePin(LED0_GPIO_Port, LED0_Pin, GPIO_PIN_SET);
 1804              		.loc 1 651 14 is_stmt 0 view .LVU499
 1805 007e 0D4B     		ldr	r3, .L104+32
 1806 0080 0822     		movs	r2, #8
 1807 0082 1A70     		strb	r2, [r3]
 652:Core/Src/main.c ****     return;
 1808              		.loc 1 652 5 is_stmt 1 view .LVU500
 1809 0084 0122     		movs	r2, #1
ARM GAS  C:\Users\Vento\AppData\Local\Temp\ccdqD43g.s 			page 66


 1810 0086 4FF40051 		mov	r1, #8192
 1811 008a 0548     		ldr	r0, .L104+12
 1812 008c FFF7FEFF 		bl	HAL_GPIO_WritePin
 1813              	.LVL151:
 653:Core/Src/main.c ****   }
 1814              		.loc 1 653 5 view .LVU501
 1815 0090 F4E7     		b	.L96
 1816              	.L105:
 1817 0092 00BF     		.align	2
 1818              	.L104:
 1819 0094 00000000 		.word	hadc1
 1820 0098 00000000 		.word	hi2c1
 1821 009c 00000000 		.word	huart1
 1822 00a0 00100140 		.word	1073811456
 1823 00a4 00000000 		.word	.LANCHOR12
 1824 00a8 30300108 		.word	134295600
 1825 00ac 00000000 		.word	.LANCHOR11
 1826 00b0 00000000 		.word	hspi1
 1827 00b4 00000000 		.word	.LANCHOR3
 1828              		.cfi_endproc
 1829              	.LFE77:
 1831              		.section	.text.HAL_GPIO_EXTI_Callback,"ax",%progbits
 1832              		.align	1
 1833              		.global	HAL_GPIO_EXTI_Callback
 1834              		.syntax unified
 1835              		.thumb
 1836              		.thumb_func
 1837              		.fpu softvfp
 1839              	HAL_GPIO_EXTI_Callback:
 1840              	.LVL152:
 1841              	.LFB79:
 749:Core/Src/main.c **** 
 750:Core/Src/main.c **** void HAL_GPIO_EXTI_Callback(uint16_t GPIO_Pin)
 751:Core/Src/main.c **** {
 1842              		.loc 1 751 1 view -0
 1843              		.cfi_startproc
 1844              		@ args = 0, pretend = 0, frame = 0
 1845              		@ frame_needed = 0, uses_anonymous_args = 0
 752:Core/Src/main.c ****   if ((GPIO_Pin == LoRa_EXT0_Pin) && (HAL_GPIO_ReadPin(LoRa_EXT0_GPIO_Port, LoRa_EXT0_Pin) == GPIO_
 1846              		.loc 1 752 3 view .LVU503
 1847              		.loc 1 752 6 is_stmt 0 view .LVU504
 1848 0000 0228     		cmp	r0, #2
 1849 0002 00D0     		beq	.L112
 1850 0004 7047     		bx	lr
 1851              	.L112:
 751:Core/Src/main.c ****   if ((GPIO_Pin == LoRa_EXT0_Pin) && (HAL_GPIO_ReadPin(LoRa_EXT0_GPIO_Port, LoRa_EXT0_Pin) == GPIO_
 1852              		.loc 1 751 1 discriminator 1 view .LVU505
 1853 0006 08B5     		push	{r3, lr}
 1854              	.LCFI18:
 1855              		.cfi_def_cfa_offset 8
 1856              		.cfi_offset 3, -8
 1857              		.cfi_offset 14, -4
 1858              		.loc 1 752 39 discriminator 1 view .LVU506
 1859 0008 0221     		movs	r1, #2
 1860 000a 0748     		ldr	r0, .L114
 1861              	.LVL153:
 1862              		.loc 1 752 39 discriminator 1 view .LVU507
ARM GAS  C:\Users\Vento\AppData\Local\Temp\ccdqD43g.s 			page 67


 1863 000c FFF7FEFF 		bl	HAL_GPIO_ReadPin
 1864              	.LVL154:
 1865              		.loc 1 752 35 discriminator 1 view .LVU508
 1866 0010 0128     		cmp	r0, #1
 1867 0012 00D0     		beq	.L113
 1868              	.L106:
 753:Core/Src/main.c ****   {
 754:Core/Src/main.c ****     is_LoRa_EXTI = true;
 755:Core/Src/main.c ****   }
 756:Core/Src/main.c **** }
 1869              		.loc 1 756 1 view .LVU509
 1870 0014 08BD     		pop	{r3, pc}
 1871              	.L113:
 752:Core/Src/main.c ****   {
 1872              		.loc 1 752 126 discriminator 2 view .LVU510
 1873 0016 054B     		ldr	r3, .L114+4
 1874 0018 1B78     		ldrb	r3, [r3]	@ zero_extendqisi2
 752:Core/Src/main.c ****   {
 1875              		.loc 1 752 109 discriminator 2 view .LVU511
 1876 001a 002B     		cmp	r3, #0
 1877 001c FAD1     		bne	.L106
 754:Core/Src/main.c ****   }
 1878              		.loc 1 754 5 is_stmt 1 view .LVU512
 754:Core/Src/main.c ****   }
 1879              		.loc 1 754 18 is_stmt 0 view .LVU513
 1880 001e 034B     		ldr	r3, .L114+4
 1881 0020 0122     		movs	r2, #1
 1882 0022 1A70     		strb	r2, [r3]
 1883              		.loc 1 756 1 view .LVU514
 1884 0024 F6E7     		b	.L106
 1885              	.L115:
 1886 0026 00BF     		.align	2
 1887              	.L114:
 1888 0028 000C0140 		.word	1073810432
 1889 002c 00000000 		.word	.LANCHOR4
 1890              		.cfi_endproc
 1891              	.LFE79:
 1893              		.section	.text.Error_Handler,"ax",%progbits
 1894              		.align	1
 1895              		.global	Error_Handler
 1896              		.syntax unified
 1897              		.thumb
 1898              		.thumb_func
 1899              		.fpu softvfp
 1901              	Error_Handler:
 1902              	.LFB80:
 757:Core/Src/main.c **** 
 758:Core/Src/main.c **** /* USER CODE END 4 */
 759:Core/Src/main.c **** 
 760:Core/Src/main.c **** /**
 761:Core/Src/main.c ****   * @brief  This function is executed in case of error occurrence.
 762:Core/Src/main.c ****   * @retval None
 763:Core/Src/main.c ****   */
 764:Core/Src/main.c **** void Error_Handler(void)
 765:Core/Src/main.c **** {
 1903              		.loc 1 765 1 is_stmt 1 view -0
 1904              		.cfi_startproc
ARM GAS  C:\Users\Vento\AppData\Local\Temp\ccdqD43g.s 			page 68


 1905              		@ Volatile: function does not return.
 1906              		@ args = 0, pretend = 0, frame = 0
 1907              		@ frame_needed = 0, uses_anonymous_args = 0
 1908              		@ link register save eliminated.
 766:Core/Src/main.c ****   /* USER CODE BEGIN Error_Handler_Debug */
 767:Core/Src/main.c ****   /* User can add his own implementation to report the HAL error return state */
 768:Core/Src/main.c ****   __disable_irq();
 1909              		.loc 1 768 3 view .LVU516
 1910              	.LBB16:
 1911              	.LBI16:
 140:Drivers/CMSIS/Include/cmsis_gcc.h **** {
 1912              		.loc 2 140 27 view .LVU517
 1913              	.LBB17:
 142:Drivers/CMSIS/Include/cmsis_gcc.h **** }
 1914              		.loc 2 142 3 view .LVU518
 1915              		.syntax unified
 1916              	@ 142 "Drivers/CMSIS/Include/cmsis_gcc.h" 1
 1917 0000 72B6     		cpsid i
 1918              	@ 0 "" 2
 1919              		.thumb
 1920              		.syntax unified
 1921              	.L117:
 1922              	.LBE17:
 1923              	.LBE16:
 769:Core/Src/main.c ****   while (1)
 1924              		.loc 1 769 3 discriminator 1 view .LVU519
 770:Core/Src/main.c ****   {
 771:Core/Src/main.c ****   }
 1925              		.loc 1 771 3 discriminator 1 view .LVU520
 769:Core/Src/main.c ****   while (1)
 1926              		.loc 1 769 9 discriminator 1 view .LVU521
 1927 0002 FEE7     		b	.L117
 1928              		.cfi_endproc
 1929              	.LFE80:
 1931              		.section	.text.SystemClock_Config,"ax",%progbits
 1932              		.align	1
 1933              		.global	SystemClock_Config
 1934              		.syntax unified
 1935              		.thumb
 1936              		.thumb_func
 1937              		.fpu softvfp
 1939              	SystemClock_Config:
 1940              	.LFB69:
 298:Core/Src/main.c ****   RCC_OscInitTypeDef RCC_OscInitStruct = {0};
 1941              		.loc 1 298 1 view -0
 1942              		.cfi_startproc
 1943              		@ args = 0, pretend = 0, frame = 80
 1944              		@ frame_needed = 0, uses_anonymous_args = 0
 1945 0000 00B5     		push	{lr}
 1946              	.LCFI19:
 1947              		.cfi_def_cfa_offset 4
 1948              		.cfi_offset 14, -4
 1949 0002 95B0     		sub	sp, sp, #84
 1950              	.LCFI20:
 1951              		.cfi_def_cfa_offset 88
 299:Core/Src/main.c ****   RCC_ClkInitTypeDef RCC_ClkInitStruct = {0};
 1952              		.loc 1 299 3 view .LVU523
ARM GAS  C:\Users\Vento\AppData\Local\Temp\ccdqD43g.s 			page 69


 299:Core/Src/main.c ****   RCC_ClkInitTypeDef RCC_ClkInitStruct = {0};
 1953              		.loc 1 299 22 is_stmt 0 view .LVU524
 1954 0004 2822     		movs	r2, #40
 1955 0006 0021     		movs	r1, #0
 1956 0008 0DEB0200 		add	r0, sp, r2
 1957 000c FFF7FEFF 		bl	memset
 1958              	.LVL155:
 300:Core/Src/main.c ****   RCC_PeriphCLKInitTypeDef PeriphClkInit = {0};
 1959              		.loc 1 300 3 is_stmt 1 view .LVU525
 300:Core/Src/main.c ****   RCC_PeriphCLKInitTypeDef PeriphClkInit = {0};
 1960              		.loc 1 300 22 is_stmt 0 view .LVU526
 1961 0010 0023     		movs	r3, #0
 1962 0012 0593     		str	r3, [sp, #20]
 1963 0014 0693     		str	r3, [sp, #24]
 1964 0016 0793     		str	r3, [sp, #28]
 1965 0018 0893     		str	r3, [sp, #32]
 1966 001a 0993     		str	r3, [sp, #36]
 301:Core/Src/main.c **** 
 1967              		.loc 1 301 3 is_stmt 1 view .LVU527
 301:Core/Src/main.c **** 
 1968              		.loc 1 301 28 is_stmt 0 view .LVU528
 1969 001c 0193     		str	r3, [sp, #4]
 1970 001e 0293     		str	r3, [sp, #8]
 1971 0020 0393     		str	r3, [sp, #12]
 1972 0022 0493     		str	r3, [sp, #16]
 306:Core/Src/main.c ****   RCC_OscInitStruct.HSIState = RCC_HSI_ON;
 1973              		.loc 1 306 3 is_stmt 1 view .LVU529
 306:Core/Src/main.c ****   RCC_OscInitStruct.HSIState = RCC_HSI_ON;
 1974              		.loc 1 306 36 is_stmt 0 view .LVU530
 1975 0024 0A23     		movs	r3, #10
 1976 0026 0A93     		str	r3, [sp, #40]
 307:Core/Src/main.c ****   RCC_OscInitStruct.HSICalibrationValue = RCC_HSICALIBRATION_DEFAULT;
 1977              		.loc 1 307 3 is_stmt 1 view .LVU531
 307:Core/Src/main.c ****   RCC_OscInitStruct.HSICalibrationValue = RCC_HSICALIBRATION_DEFAULT;
 1978              		.loc 1 307 30 is_stmt 0 view .LVU532
 1979 0028 0123     		movs	r3, #1
 1980 002a 0E93     		str	r3, [sp, #56]
 308:Core/Src/main.c ****   RCC_OscInitStruct.LSIState = RCC_LSI_ON;
 1981              		.loc 1 308 3 is_stmt 1 view .LVU533
 308:Core/Src/main.c ****   RCC_OscInitStruct.LSIState = RCC_LSI_ON;
 1982              		.loc 1 308 41 is_stmt 0 view .LVU534
 1983 002c 1022     		movs	r2, #16
 1984 002e 0F92     		str	r2, [sp, #60]
 309:Core/Src/main.c ****   RCC_OscInitStruct.PLL.PLLState = RCC_PLL_NONE;
 1985              		.loc 1 309 3 is_stmt 1 view .LVU535
 309:Core/Src/main.c ****   RCC_OscInitStruct.PLL.PLLState = RCC_PLL_NONE;
 1986              		.loc 1 309 30 is_stmt 0 view .LVU536
 1987 0030 1093     		str	r3, [sp, #64]
 310:Core/Src/main.c ****   if (HAL_RCC_OscConfig(&RCC_OscInitStruct) != HAL_OK)
 1988              		.loc 1 310 3 is_stmt 1 view .LVU537
 311:Core/Src/main.c ****   {
 1989              		.loc 1 311 3 view .LVU538
 311:Core/Src/main.c ****   {
 1990              		.loc 1 311 7 is_stmt 0 view .LVU539
 1991 0032 0AA8     		add	r0, sp, #40
 1992 0034 FFF7FEFF 		bl	HAL_RCC_OscConfig
 1993              	.LVL156:
ARM GAS  C:\Users\Vento\AppData\Local\Temp\ccdqD43g.s 			page 70


 311:Core/Src/main.c ****   {
 1994              		.loc 1 311 6 view .LVU540
 1995 0038 C0B9     		cbnz	r0, .L123
 318:Core/Src/main.c ****                               |RCC_CLOCKTYPE_PCLK1|RCC_CLOCKTYPE_PCLK2;
 1996              		.loc 1 318 3 is_stmt 1 view .LVU541
 318:Core/Src/main.c ****                               |RCC_CLOCKTYPE_PCLK1|RCC_CLOCKTYPE_PCLK2;
 1997              		.loc 1 318 31 is_stmt 0 view .LVU542
 1998 003a 0F23     		movs	r3, #15
 1999 003c 0593     		str	r3, [sp, #20]
 320:Core/Src/main.c ****   RCC_ClkInitStruct.AHBCLKDivider = RCC_SYSCLK_DIV1;
 2000              		.loc 1 320 3 is_stmt 1 view .LVU543
 320:Core/Src/main.c ****   RCC_ClkInitStruct.AHBCLKDivider = RCC_SYSCLK_DIV1;
 2001              		.loc 1 320 34 is_stmt 0 view .LVU544
 2002 003e 0021     		movs	r1, #0
 2003 0040 0691     		str	r1, [sp, #24]
 321:Core/Src/main.c ****   RCC_ClkInitStruct.APB1CLKDivider = RCC_HCLK_DIV1;
 2004              		.loc 1 321 3 is_stmt 1 view .LVU545
 321:Core/Src/main.c ****   RCC_ClkInitStruct.APB1CLKDivider = RCC_HCLK_DIV1;
 2005              		.loc 1 321 35 is_stmt 0 view .LVU546
 2006 0042 0791     		str	r1, [sp, #28]
 322:Core/Src/main.c ****   RCC_ClkInitStruct.APB2CLKDivider = RCC_HCLK_DIV1;
 2007              		.loc 1 322 3 is_stmt 1 view .LVU547
 322:Core/Src/main.c ****   RCC_ClkInitStruct.APB2CLKDivider = RCC_HCLK_DIV1;
 2008              		.loc 1 322 36 is_stmt 0 view .LVU548
 2009 0044 0891     		str	r1, [sp, #32]
 323:Core/Src/main.c **** 
 2010              		.loc 1 323 3 is_stmt 1 view .LVU549
 323:Core/Src/main.c **** 
 2011              		.loc 1 323 36 is_stmt 0 view .LVU550
 2012 0046 0991     		str	r1, [sp, #36]
 325:Core/Src/main.c ****   {
 2013              		.loc 1 325 3 is_stmt 1 view .LVU551
 325:Core/Src/main.c ****   {
 2014              		.loc 1 325 7 is_stmt 0 view .LVU552
 2015 0048 05A8     		add	r0, sp, #20
 2016 004a FFF7FEFF 		bl	HAL_RCC_ClockConfig
 2017              	.LVL157:
 325:Core/Src/main.c ****   {
 2018              		.loc 1 325 6 view .LVU553
 2019 004e 78B9     		cbnz	r0, .L124
 329:Core/Src/main.c ****   PeriphClkInit.RTCClockSelection = RCC_RTCCLKSOURCE_LSI;
 2020              		.loc 1 329 3 is_stmt 1 view .LVU554
 329:Core/Src/main.c ****   PeriphClkInit.RTCClockSelection = RCC_RTCCLKSOURCE_LSI;
 2021              		.loc 1 329 38 is_stmt 0 view .LVU555
 2022 0050 0323     		movs	r3, #3
 2023 0052 0193     		str	r3, [sp, #4]
 330:Core/Src/main.c ****   PeriphClkInit.AdcClockSelection = RCC_ADCPCLK2_DIV2;
 2024              		.loc 1 330 3 is_stmt 1 view .LVU556
 330:Core/Src/main.c ****   PeriphClkInit.AdcClockSelection = RCC_ADCPCLK2_DIV2;
 2025              		.loc 1 330 35 is_stmt 0 view .LVU557
 2026 0054 4FF40073 		mov	r3, #512
 2027 0058 0293     		str	r3, [sp, #8]
 331:Core/Src/main.c ****   if (HAL_RCCEx_PeriphCLKConfig(&PeriphClkInit) != HAL_OK)
 2028              		.loc 1 331 3 is_stmt 1 view .LVU558
 331:Core/Src/main.c ****   if (HAL_RCCEx_PeriphCLKConfig(&PeriphClkInit) != HAL_OK)
 2029              		.loc 1 331 35 is_stmt 0 view .LVU559
 2030 005a 0023     		movs	r3, #0
ARM GAS  C:\Users\Vento\AppData\Local\Temp\ccdqD43g.s 			page 71


 2031 005c 0393     		str	r3, [sp, #12]
 332:Core/Src/main.c ****   {
 2032              		.loc 1 332 3 is_stmt 1 view .LVU560
 332:Core/Src/main.c ****   {
 2033              		.loc 1 332 7 is_stmt 0 view .LVU561
 2034 005e 01A8     		add	r0, sp, #4
 2035 0060 FFF7FEFF 		bl	HAL_RCCEx_PeriphCLKConfig
 2036              	.LVL158:
 332:Core/Src/main.c ****   {
 2037              		.loc 1 332 6 view .LVU562
 2038 0064 30B9     		cbnz	r0, .L125
 336:Core/Src/main.c **** 
 2039              		.loc 1 336 1 view .LVU563
 2040 0066 15B0     		add	sp, sp, #84
 2041              	.LCFI21:
 2042              		.cfi_remember_state
 2043              		.cfi_def_cfa_offset 4
 2044              		@ sp needed
 2045 0068 5DF804FB 		ldr	pc, [sp], #4
 2046              	.L123:
 2047              	.LCFI22:
 2048              		.cfi_restore_state
 313:Core/Src/main.c ****   }
 2049              		.loc 1 313 5 is_stmt 1 view .LVU564
 2050 006c FFF7FEFF 		bl	Error_Handler
 2051              	.LVL159:
 2052              	.L124:
 327:Core/Src/main.c ****   }
 2053              		.loc 1 327 5 view .LVU565
 2054 0070 FFF7FEFF 		bl	Error_Handler
 2055              	.LVL160:
 2056              	.L125:
 334:Core/Src/main.c ****   }
 2057              		.loc 1 334 5 view .LVU566
 2058 0074 FFF7FEFF 		bl	Error_Handler
 2059              	.LVL161:
 2060              		.cfi_endproc
 2061              	.LFE69:
 2063              		.section	.text.main,"ax",%progbits
 2064              		.align	1
 2065              		.global	main
 2066              		.syntax unified
 2067              		.thumb
 2068              		.thumb_func
 2069              		.fpu softvfp
 2071              	main:
 2072              	.LFB68:
 208:Core/Src/main.c ****   /* USER CODE BEGIN 1 */
 2073              		.loc 1 208 1 view -0
 2074              		.cfi_startproc
 2075              		@ Volatile: function does not return.
 2076              		@ args = 0, pretend = 0, frame = 0
 2077              		@ frame_needed = 0, uses_anonymous_args = 0
 2078 0000 08B5     		push	{r3, lr}
 2079              	.LCFI23:
 2080              		.cfi_def_cfa_offset 8
 2081              		.cfi_offset 3, -8
ARM GAS  C:\Users\Vento\AppData\Local\Temp\ccdqD43g.s 			page 72


 2082              		.cfi_offset 14, -4
 216:Core/Src/main.c **** 
 2083              		.loc 1 216 3 view .LVU568
 2084 0002 FFF7FEFF 		bl	HAL_Init
 2085              	.LVL162:
 222:Core/Src/main.c **** 
 2086              		.loc 1 222 3 view .LVU569
 2087 0006 FFF7FEFF 		bl	SystemClock_Config
 2088              	.LVL163:
 229:Core/Src/main.c ****   MX_ADC1_Init();
 2089              		.loc 1 229 3 view .LVU570
 2090 000a FFF7FEFF 		bl	MX_GPIO_Init
 2091              	.LVL164:
 230:Core/Src/main.c ****   MX_I2C1_Init();
 2092              		.loc 1 230 3 view .LVU571
 2093 000e FFF7FEFF 		bl	MX_ADC1_Init
 2094              	.LVL165:
 231:Core/Src/main.c ****   MX_SPI1_Init();
 2095              		.loc 1 231 3 view .LVU572
 2096 0012 FFF7FEFF 		bl	MX_I2C1_Init
 2097              	.LVL166:
 232:Core/Src/main.c ****   MX_USART1_UART_Init();
 2098              		.loc 1 232 3 view .LVU573
 2099 0016 FFF7FEFF 		bl	MX_SPI1_Init
 2100              	.LVL167:
 233:Core/Src/main.c ****   MX_RTC_Init();
 2101              		.loc 1 233 3 view .LVU574
 2102 001a FFF7FEFF 		bl	MX_USART1_UART_Init
 2103              	.LVL168:
 234:Core/Src/main.c ****   /* USER CODE BEGIN 2 */
 2104              		.loc 1 234 3 view .LVU575
 2105 001e FFF7FEFF 		bl	MX_RTC_Init
 2106              	.LVL169:
 237:Core/Src/main.c ****   HAL_GPIO_WritePin(LED1_GPIO_Port, LED1_Pin, GPIO_PIN_SET);
 2107              		.loc 1 237 3 view .LVU576
 2108 0022 0122     		movs	r2, #1
 2109 0024 4FF40051 		mov	r1, #8192
 2110 0028 2C48     		ldr	r0, .L138
 2111 002a FFF7FEFF 		bl	HAL_GPIO_WritePin
 2112              	.LVL170:
 238:Core/Src/main.c **** 
 2113              		.loc 1 238 3 view .LVU577
 2114 002e 0122     		movs	r2, #1
 2115 0030 4FF40041 		mov	r1, #32768
 2116 0034 2A48     		ldr	r0, .L138+4
 2117 0036 FFF7FEFF 		bl	HAL_GPIO_WritePin
 2118              	.LVL171:
 240:Core/Src/main.c **** 
 2119              		.loc 1 240 3 view .LVU578
 240:Core/Src/main.c **** 
 2120              		.loc 1 240 14 is_stmt 0 view .LVU579
 2121 003a 0221     		movs	r1, #2
 2122 003c 2948     		ldr	r0, .L138+8
 2123 003e FFF7FEFF 		bl	HAL_RTCEx_BKUPRead
 2124              	.LVL172:
 2125 0042 C0B2     		uxtb	r0, r0
 240:Core/Src/main.c **** 
ARM GAS  C:\Users\Vento\AppData\Local\Temp\ccdqD43g.s 			page 73


 2126              		.loc 1 240 12 view .LVU580
 2127 0044 284B     		ldr	r3, .L138+12
 2128 0046 1870     		strb	r0, [r3]
 244:Core/Src/main.c ****   {
 2129              		.loc 1 244 3 is_stmt 1 view .LVU581
 244:Core/Src/main.c ****   {
 2130              		.loc 1 244 6 is_stmt 0 view .LVU582
 2131 0048 68B1     		cbz	r0, .L135
 2132              	.L127:
 251:Core/Src/main.c ****   {
 2133              		.loc 1 251 3 is_stmt 1 view .LVU583
 251:Core/Src/main.c ****   {
 2134              		.loc 1 251 17 is_stmt 0 view .LVU584
 2135 004a 274B     		ldr	r3, .L138+12
 2136 004c 1B78     		ldrb	r3, [r3]	@ zero_extendqisi2
 251:Core/Src/main.c ****   {
 2137              		.loc 1 251 6 view .LVU585
 2138 004e 13F0020F 		tst	r3, #2
 2139 0052 11D1     		bne	.L136
 255:Core/Src/main.c ****   {
 2140              		.loc 1 255 8 is_stmt 1 view .LVU586
 255:Core/Src/main.c ****   {
 2141              		.loc 1 255 11 is_stmt 0 view .LVU587
 2142 0054 13F0040F 		tst	r3, #4
 2143 0058 11D1     		bne	.L137
 259:Core/Src/main.c ****   {
 2144              		.loc 1 259 8 is_stmt 1 view .LVU588
 259:Core/Src/main.c ****   {
 2145              		.loc 1 259 11 is_stmt 0 view .LVU589
 2146 005a 13F0080F 		tst	r3, #8
 2147 005e 15D0     		beq	.L131
 261:Core/Src/main.c ****   }
 2148              		.loc 1 261 5 is_stmt 1 view .LVU590
 2149 0060 FFF7FEFF 		bl	Retry_Mode_Handle
 2150              	.LVL173:
 2151 0064 12E0     		b	.L131
 2152              	.L135:
 246:Core/Src/main.c ****     myStatus = LINK_MODE;
 2153              		.loc 1 246 5 view .LVU591
 2154 0066 B422     		movs	r2, #180
 2155 0068 0321     		movs	r1, #3
 2156 006a 1E48     		ldr	r0, .L138+8
 2157 006c FFF7FEFF 		bl	HAL_RTCEx_BKUPWrite
 2158              	.LVL174:
 247:Core/Src/main.c ****     // HAL_Delay(20000);
 2159              		.loc 1 247 5 view .LVU592
 247:Core/Src/main.c ****     // HAL_Delay(20000);
 2160              		.loc 1 247 14 is_stmt 0 view .LVU593
 2161 0070 1D4B     		ldr	r3, .L138+12
 2162 0072 0222     		movs	r2, #2
 2163 0074 1A70     		strb	r2, [r3]
 2164 0076 E8E7     		b	.L127
 2165              	.L136:
 253:Core/Src/main.c ****   }
 2166              		.loc 1 253 5 is_stmt 1 view .LVU594
 2167 0078 FFF7FEFF 		bl	Link_Mode_Handle
 2168              	.LVL175:
ARM GAS  C:\Users\Vento\AppData\Local\Temp\ccdqD43g.s 			page 74


 2169 007c 06E0     		b	.L131
 2170              	.L137:
 257:Core/Src/main.c ****   }
 2171              		.loc 1 257 5 view .LVU595
 2172 007e FFF7FEFF 		bl	Normal_Mode_Handle
 2173              	.LVL176:
 2174 0082 03E0     		b	.L131
 2175              	.L132:
 264:Core/Src/main.c **** 
 2176              		.loc 1 264 63 discriminator 2 view .LVU596
 2177 0084 0221     		movs	r1, #2
 2178 0086 1748     		ldr	r0, .L138+8
 2179 0088 FFF7FEFF 		bl	HAL_RTCEx_BKUPWrite
 2180              	.LVL177:
 2181              	.L131:
 264:Core/Src/main.c **** 
 2182              		.loc 1 264 9 discriminator 1 view .LVU597
 264:Core/Src/main.c **** 
 2183              		.loc 1 264 10 is_stmt 0 discriminator 1 view .LVU598
 2184 008c 0221     		movs	r1, #2
 2185 008e 1548     		ldr	r0, .L138+8
 2186 0090 FFF7FEFF 		bl	HAL_RTCEx_BKUPRead
 2187              	.LVL178:
 264:Core/Src/main.c **** 
 2188              		.loc 1 264 49 discriminator 1 view .LVU599
 2189 0094 144B     		ldr	r3, .L138+12
 2190 0096 1A78     		ldrb	r2, [r3]	@ zero_extendqisi2
 264:Core/Src/main.c **** 
 2191              		.loc 1 264 9 discriminator 1 view .LVU600
 2192 0098 9042     		cmp	r0, r2
 2193 009a F3D1     		bne	.L132
 266:Core/Src/main.c ****   {
 2194              		.loc 1 266 3 is_stmt 1 view .LVU601
 266:Core/Src/main.c ****   {
 2195              		.loc 1 266 6 is_stmt 0 view .LVU602
 2196 009c 12F0100F 		tst	r2, #16
 2197 00a0 01D0     		beq	.L133
 268:Core/Src/main.c ****     while (1);
 2198              		.loc 1 268 5 is_stmt 1 view .LVU603
 2199 00a2 FFF7FEFF 		bl	sleep4ever
 2200              	.LVL179:
 2201              	.L133:
 272:Core/Src/main.c ****   HAL_GPIO_TogglePin(LED0_GPIO_Port, LED0_Pin);
 2202              		.loc 1 272 3 view .LVU604
 2203 00a6 0E4D     		ldr	r5, .L138+4
 2204 00a8 4FF40041 		mov	r1, #32768
 2205 00ac 2846     		mov	r0, r5
 2206 00ae FFF7FEFF 		bl	HAL_GPIO_TogglePin
 2207              	.LVL180:
 273:Core/Src/main.c ****   HAL_Delay(100);
 2208              		.loc 1 273 3 view .LVU605
 2209 00b2 0A4C     		ldr	r4, .L138
 2210 00b4 4FF40051 		mov	r1, #8192
 2211 00b8 2046     		mov	r0, r4
 2212 00ba FFF7FEFF 		bl	HAL_GPIO_TogglePin
 2213              	.LVL181:
 274:Core/Src/main.c ****   HAL_GPIO_TogglePin(LED1_GPIO_Port, LED1_Pin);
ARM GAS  C:\Users\Vento\AppData\Local\Temp\ccdqD43g.s 			page 75


 2214              		.loc 1 274 3 view .LVU606
 2215 00be 6420     		movs	r0, #100
 2216 00c0 FFF7FEFF 		bl	HAL_Delay
 2217              	.LVL182:
 275:Core/Src/main.c ****   HAL_GPIO_TogglePin(LED0_GPIO_Port, LED0_Pin);
 2218              		.loc 1 275 3 view .LVU607
 2219 00c4 4FF40041 		mov	r1, #32768
 2220 00c8 2846     		mov	r0, r5
 2221 00ca FFF7FEFF 		bl	HAL_GPIO_TogglePin
 2222              	.LVL183:
 276:Core/Src/main.c **** 
 2223              		.loc 1 276 3 view .LVU608
 2224 00ce 4FF40051 		mov	r1, #8192
 2225 00d2 2046     		mov	r0, r4
 2226 00d4 FFF7FEFF 		bl	HAL_GPIO_TogglePin
 2227              	.LVL184:
 278:Core/Src/main.c **** 
 2228              		.loc 1 278 3 view .LVU609
 2229 00d8 FFF7FEFF 		bl	goingDark
 2230              	.LVL185:
 2231              	.L139:
 2232              		.align	2
 2233              	.L138:
 2234 00dc 00100140 		.word	1073811456
 2235 00e0 00080140 		.word	1073809408
 2236 00e4 00000000 		.word	hrtc
 2237 00e8 00000000 		.word	.LANCHOR3
 2238              		.cfi_endproc
 2239              	.LFE68:
 2241              		.section	.bss.array2store,"aw",%nobits
 2242              		.align	2
 2243              		.set	.LANCHOR12,. + 0
 2246              	array2store:
 2247 0000 00000000 		.space	32
 2247      00000000 
 2247      00000000 
 2247      00000000 
 2247      00000000 
 2248              		.section	.bss.backupStorage,"aw",%nobits
 2249              		.align	2
 2250              		.set	.LANCHOR10,. + 0
 2253              	backupStorage:
 2254 0000 00000000 		.space	4
 2255              		.section	.bss.data.4,"aw",%nobits
 2256              		.align	2
 2257              		.set	.LANCHOR8,. + 0
 2260              	data.4:
 2261 0000 00000000 		.space	100
 2261      00000000 
 2261      00000000 
 2261      00000000 
 2261      00000000 
 2262              		.section	.bss.is_LoRa_EXTI,"aw",%nobits
 2263              		.set	.LANCHOR4,. + 0
 2266              	is_LoRa_EXTI:
 2267 0000 00       		.space	1
 2268              		.section	.bss.mySoil,"aw",%nobits
ARM GAS  C:\Users\Vento\AppData\Local\Temp\ccdqD43g.s 			page 76


 2269              		.align	2
 2270              		.set	.LANCHOR2,. + 0
 2273              	mySoil:
 2274 0000 00000000 		.space	32
 2274      00000000 
 2274      00000000 
 2274      00000000 
 2274      00000000 
 2275              		.section	.bss.myStatus,"aw",%nobits
 2276              		.set	.LANCHOR3,. + 0
 2279              	myStatus:
 2280 0000 00       		.space	1
 2281              		.section	.bss.nByteRx.3,"aw",%nobits
 2282              		.align	2
 2283              		.set	.LANCHOR7,. + 0
 2286              	nByteRx.3:
 2287 0000 00000000 		.space	4
 2288              		.section	.bss.payload,"aw",%nobits
 2289              		.align	2
 2290              		.set	.LANCHOR11,. + 0
 2293              	payload:
 2294 0000 00000000 		.space	100
 2294      00000000 
 2294      00000000 
 2294      00000000 
 2294      00000000 
 2295              		.section	.bss.resp.0,"aw",%nobits
 2296              		.align	2
 2297              		.set	.LANCHOR9,. + 0
 2300              	resp.0:
 2301 0000 00000000 		.space	10
 2301      00000000 
 2301      0000
 2302              		.section	.bss.rxbuffer.5,"aw",%nobits
 2303              		.align	2
 2304              		.set	.LANCHOR1,. + 0
 2307              	rxbuffer.5:
 2308 0000 00000000 		.space	25
 2308      00000000 
 2308      00000000 
 2308      00000000 
 2308      00000000 
 2309              		.section	.data.rssi.2,"aw"
 2310              		.align	2
 2311              		.set	.LANCHOR6,. + 0
 2314              	rssi.2:
 2315 0000 FFFFFFFF 		.word	-1
 2316              		.section	.data.snr.1,"aw"
 2317              		.align	2
 2318              		.set	.LANCHOR5,. + 0
 2321              	snr.1:
 2322 0000 000080BF 		.word	-1082130432
 2323              		.section	.data.txbuffer.6,"aw"
 2324              		.align	2
 2325              		.set	.LANCHOR0,. + 0
 2328              	txbuffer.6:
 2329 0000 01030000 		.ascii	"\001\003\000\000\000\010D\014\000"
ARM GAS  C:\Users\Vento\AppData\Local\Temp\ccdqD43g.s 			page 77


 2329      0008440C 
 2329      00
 2330 0009 00       		.space	1
 2331              		.text
 2332              	.Letext0:
 2333              		.file 3 "d:\\tools\\gcc-arm-none-eabi-10.3-2021.07\\arm-none-eabi\\include\\machine\\_default_type
 2334              		.file 4 "d:\\tools\\gcc-arm-none-eabi-10.3-2021.07\\arm-none-eabi\\include\\sys\\_stdint.h"
 2335              		.file 5 "Drivers/CMSIS/Include/core_cm3.h"
 2336              		.file 6 "Drivers/CMSIS/Device/ST/STM32F1xx/Include/stm32f103xb.h"
 2337              		.file 7 "Drivers/CMSIS/Device/ST/STM32F1xx/Include/stm32f1xx.h"
 2338              		.file 8 "Drivers/STM32F1xx_HAL_Driver/Inc/stm32f1xx_hal_def.h"
 2339              		.file 9 "Drivers/STM32F1xx_HAL_Driver/Inc/stm32f1xx_hal_rcc.h"
 2340              		.file 10 "Drivers/STM32F1xx_HAL_Driver/Inc/stm32f1xx_hal_rcc_ex.h"
 2341              		.file 11 "Drivers/STM32F1xx_HAL_Driver/Inc/stm32f1xx_hal_gpio.h"
 2342              		.file 12 "Drivers/STM32F1xx_HAL_Driver/Inc/stm32f1xx_hal_dma.h"
 2343              		.file 13 "Drivers/STM32F1xx_HAL_Driver/Inc/stm32f1xx_hal_adc.h"
 2344              		.file 14 "Drivers/STM32F1xx_HAL_Driver/Inc/stm32f1xx_hal_i2c.h"
 2345              		.file 15 "Drivers/STM32F1xx_HAL_Driver/Inc/stm32f1xx_hal_rtc.h"
 2346              		.file 16 "Drivers/STM32F1xx_HAL_Driver/Inc/stm32f1xx_hal_spi.h"
 2347              		.file 17 "Drivers/STM32F1xx_HAL_Driver/Inc/stm32f1xx_hal_uart.h"
 2348              		.file 18 "Core/Inc/adc.h"
 2349              		.file 19 "Core/Inc/i2c.h"
 2350              		.file 20 "Core/Inc/rtc.h"
 2351              		.file 21 "Core/Inc/spi.h"
 2352              		.file 22 "Core/Inc/usart.h"
 2353              		.file 23 "Core/Inc/sx1278.h"
 2354              		.file 24 "Drivers/STM32F1xx_HAL_Driver/Inc/stm32f1xx_hal.h"
 2355              		.file 25 "Drivers/STM32F1xx_HAL_Driver/Inc/stm32f1xx_hal_rtc_ex.h"
 2356              		.file 26 "Core/Inc/flash.h"
 2357              		.file 27 "Core/Inc/gpio.h"
 2358              		.file 28 "<built-in>"
ARM GAS  C:\Users\Vento\AppData\Local\Temp\ccdqD43g.s 			page 78

