ARM GAS  C:\Users\Vento\AppData\Local\Temp\cclmUhoh.s 			page 1


   1              		.cpu cortex-m3
   2              		.eabi_attribute 20, 1
   3              		.eabi_attribute 21, 1
   4              		.eabi_attribute 23, 3
   5              		.eabi_attribute 24, 1
   6              		.eabi_attribute 25, 1
   7              		.eabi_attribute 26, 1
   8              		.eabi_attribute 30, 1
   9              		.eabi_attribute 34, 1
  10              		.eabi_attribute 18, 4
  11              		.file	"usbd_msc_scsi.c"
  12              		.text
  13              	.Ltext0:
  14              		.cfi_sections	.debug_frame
  15              		.section	.text.SCSI_Inquiry,"ax",%progbits
  16              		.align	1
  17              		.arch armv7-m
  18              		.syntax unified
  19              		.thumb
  20              		.thumb_func
  21              		.fpu softvfp
  23              	SCSI_Inquiry:
  24              	.LVL0:
  25              	.LFB70:
  26              		.file 1 "Middlewares/ST/STM32_USB_Device_Library/Class/MSC/Src/usbd_msc_scsi.c"
   1:Middlewares/ST/STM32_USB_Device_Library/Class/MSC/Src/usbd_msc_scsi.c **** /**
   2:Middlewares/ST/STM32_USB_Device_Library/Class/MSC/Src/usbd_msc_scsi.c ****   ******************************************************************************
   3:Middlewares/ST/STM32_USB_Device_Library/Class/MSC/Src/usbd_msc_scsi.c ****   * @file    usbd_msc_scsi.c
   4:Middlewares/ST/STM32_USB_Device_Library/Class/MSC/Src/usbd_msc_scsi.c ****   * @author  MCD Application Team
   5:Middlewares/ST/STM32_USB_Device_Library/Class/MSC/Src/usbd_msc_scsi.c ****   * @brief   This file provides all the USBD SCSI layer functions.
   6:Middlewares/ST/STM32_USB_Device_Library/Class/MSC/Src/usbd_msc_scsi.c ****   ******************************************************************************
   7:Middlewares/ST/STM32_USB_Device_Library/Class/MSC/Src/usbd_msc_scsi.c ****   * @attention
   8:Middlewares/ST/STM32_USB_Device_Library/Class/MSC/Src/usbd_msc_scsi.c ****   *
   9:Middlewares/ST/STM32_USB_Device_Library/Class/MSC/Src/usbd_msc_scsi.c ****   * <h2><center>&copy; Copyright (c) 2015 STMicroelectronics.
  10:Middlewares/ST/STM32_USB_Device_Library/Class/MSC/Src/usbd_msc_scsi.c ****   * All rights reserved.</center></h2>
  11:Middlewares/ST/STM32_USB_Device_Library/Class/MSC/Src/usbd_msc_scsi.c ****   *
  12:Middlewares/ST/STM32_USB_Device_Library/Class/MSC/Src/usbd_msc_scsi.c ****   * This software component is licensed by ST under Ultimate Liberty license
  13:Middlewares/ST/STM32_USB_Device_Library/Class/MSC/Src/usbd_msc_scsi.c ****   * SLA0044, the "License"; You may not use this file except in compliance with
  14:Middlewares/ST/STM32_USB_Device_Library/Class/MSC/Src/usbd_msc_scsi.c ****   * the License. You may obtain a copy of the License at:
  15:Middlewares/ST/STM32_USB_Device_Library/Class/MSC/Src/usbd_msc_scsi.c ****   *                      www.st.com/SLA0044
  16:Middlewares/ST/STM32_USB_Device_Library/Class/MSC/Src/usbd_msc_scsi.c ****   *
  17:Middlewares/ST/STM32_USB_Device_Library/Class/MSC/Src/usbd_msc_scsi.c ****   ******************************************************************************
  18:Middlewares/ST/STM32_USB_Device_Library/Class/MSC/Src/usbd_msc_scsi.c ****   */
  19:Middlewares/ST/STM32_USB_Device_Library/Class/MSC/Src/usbd_msc_scsi.c **** 
  20:Middlewares/ST/STM32_USB_Device_Library/Class/MSC/Src/usbd_msc_scsi.c **** /* BSPDependencies
  21:Middlewares/ST/STM32_USB_Device_Library/Class/MSC/Src/usbd_msc_scsi.c **** - "stm32xxxxx_{eval}{discovery}{nucleo_144}.c"
  22:Middlewares/ST/STM32_USB_Device_Library/Class/MSC/Src/usbd_msc_scsi.c **** - "stm32xxxxx_{eval}{discovery}_io.c"
  23:Middlewares/ST/STM32_USB_Device_Library/Class/MSC/Src/usbd_msc_scsi.c **** - "stm32xxxxx_{eval}{discovery}{adafruit}_sd.c"
  24:Middlewares/ST/STM32_USB_Device_Library/Class/MSC/Src/usbd_msc_scsi.c **** EndBSPDependencies */
  25:Middlewares/ST/STM32_USB_Device_Library/Class/MSC/Src/usbd_msc_scsi.c **** 
  26:Middlewares/ST/STM32_USB_Device_Library/Class/MSC/Src/usbd_msc_scsi.c **** /* Includes ------------------------------------------------------------------*/
  27:Middlewares/ST/STM32_USB_Device_Library/Class/MSC/Src/usbd_msc_scsi.c **** #include "usbd_msc_bot.h"
  28:Middlewares/ST/STM32_USB_Device_Library/Class/MSC/Src/usbd_msc_scsi.c **** #include "usbd_msc_scsi.h"
  29:Middlewares/ST/STM32_USB_Device_Library/Class/MSC/Src/usbd_msc_scsi.c **** #include "usbd_msc.h"
  30:Middlewares/ST/STM32_USB_Device_Library/Class/MSC/Src/usbd_msc_scsi.c **** #include "usbd_msc_data.h"
  31:Middlewares/ST/STM32_USB_Device_Library/Class/MSC/Src/usbd_msc_scsi.c **** 
  32:Middlewares/ST/STM32_USB_Device_Library/Class/MSC/Src/usbd_msc_scsi.c **** 
ARM GAS  C:\Users\Vento\AppData\Local\Temp\cclmUhoh.s 			page 2


  33:Middlewares/ST/STM32_USB_Device_Library/Class/MSC/Src/usbd_msc_scsi.c **** 
  34:Middlewares/ST/STM32_USB_Device_Library/Class/MSC/Src/usbd_msc_scsi.c **** /** @addtogroup STM32_USB_DEVICE_LIBRARY
  35:Middlewares/ST/STM32_USB_Device_Library/Class/MSC/Src/usbd_msc_scsi.c ****   * @{
  36:Middlewares/ST/STM32_USB_Device_Library/Class/MSC/Src/usbd_msc_scsi.c ****   */
  37:Middlewares/ST/STM32_USB_Device_Library/Class/MSC/Src/usbd_msc_scsi.c **** 
  38:Middlewares/ST/STM32_USB_Device_Library/Class/MSC/Src/usbd_msc_scsi.c **** 
  39:Middlewares/ST/STM32_USB_Device_Library/Class/MSC/Src/usbd_msc_scsi.c **** /** @defgroup MSC_SCSI
  40:Middlewares/ST/STM32_USB_Device_Library/Class/MSC/Src/usbd_msc_scsi.c ****   * @brief Mass storage SCSI layer module
  41:Middlewares/ST/STM32_USB_Device_Library/Class/MSC/Src/usbd_msc_scsi.c ****   * @{
  42:Middlewares/ST/STM32_USB_Device_Library/Class/MSC/Src/usbd_msc_scsi.c ****   */
  43:Middlewares/ST/STM32_USB_Device_Library/Class/MSC/Src/usbd_msc_scsi.c **** 
  44:Middlewares/ST/STM32_USB_Device_Library/Class/MSC/Src/usbd_msc_scsi.c **** /** @defgroup MSC_SCSI_Private_TypesDefinitions
  45:Middlewares/ST/STM32_USB_Device_Library/Class/MSC/Src/usbd_msc_scsi.c ****   * @{
  46:Middlewares/ST/STM32_USB_Device_Library/Class/MSC/Src/usbd_msc_scsi.c ****   */
  47:Middlewares/ST/STM32_USB_Device_Library/Class/MSC/Src/usbd_msc_scsi.c **** /**
  48:Middlewares/ST/STM32_USB_Device_Library/Class/MSC/Src/usbd_msc_scsi.c ****   * @}
  49:Middlewares/ST/STM32_USB_Device_Library/Class/MSC/Src/usbd_msc_scsi.c ****   */
  50:Middlewares/ST/STM32_USB_Device_Library/Class/MSC/Src/usbd_msc_scsi.c **** 
  51:Middlewares/ST/STM32_USB_Device_Library/Class/MSC/Src/usbd_msc_scsi.c **** 
  52:Middlewares/ST/STM32_USB_Device_Library/Class/MSC/Src/usbd_msc_scsi.c **** /** @defgroup MSC_SCSI_Private_Defines
  53:Middlewares/ST/STM32_USB_Device_Library/Class/MSC/Src/usbd_msc_scsi.c ****   * @{
  54:Middlewares/ST/STM32_USB_Device_Library/Class/MSC/Src/usbd_msc_scsi.c ****   */
  55:Middlewares/ST/STM32_USB_Device_Library/Class/MSC/Src/usbd_msc_scsi.c **** 
  56:Middlewares/ST/STM32_USB_Device_Library/Class/MSC/Src/usbd_msc_scsi.c **** /**
  57:Middlewares/ST/STM32_USB_Device_Library/Class/MSC/Src/usbd_msc_scsi.c ****   * @}
  58:Middlewares/ST/STM32_USB_Device_Library/Class/MSC/Src/usbd_msc_scsi.c ****   */
  59:Middlewares/ST/STM32_USB_Device_Library/Class/MSC/Src/usbd_msc_scsi.c **** 
  60:Middlewares/ST/STM32_USB_Device_Library/Class/MSC/Src/usbd_msc_scsi.c **** 
  61:Middlewares/ST/STM32_USB_Device_Library/Class/MSC/Src/usbd_msc_scsi.c **** /** @defgroup MSC_SCSI_Private_Macros
  62:Middlewares/ST/STM32_USB_Device_Library/Class/MSC/Src/usbd_msc_scsi.c ****   * @{
  63:Middlewares/ST/STM32_USB_Device_Library/Class/MSC/Src/usbd_msc_scsi.c ****   */
  64:Middlewares/ST/STM32_USB_Device_Library/Class/MSC/Src/usbd_msc_scsi.c **** /**
  65:Middlewares/ST/STM32_USB_Device_Library/Class/MSC/Src/usbd_msc_scsi.c ****   * @}
  66:Middlewares/ST/STM32_USB_Device_Library/Class/MSC/Src/usbd_msc_scsi.c ****   */
  67:Middlewares/ST/STM32_USB_Device_Library/Class/MSC/Src/usbd_msc_scsi.c **** 
  68:Middlewares/ST/STM32_USB_Device_Library/Class/MSC/Src/usbd_msc_scsi.c **** 
  69:Middlewares/ST/STM32_USB_Device_Library/Class/MSC/Src/usbd_msc_scsi.c **** /** @defgroup MSC_SCSI_Private_Variables
  70:Middlewares/ST/STM32_USB_Device_Library/Class/MSC/Src/usbd_msc_scsi.c ****   * @{
  71:Middlewares/ST/STM32_USB_Device_Library/Class/MSC/Src/usbd_msc_scsi.c ****   */
  72:Middlewares/ST/STM32_USB_Device_Library/Class/MSC/Src/usbd_msc_scsi.c **** 
  73:Middlewares/ST/STM32_USB_Device_Library/Class/MSC/Src/usbd_msc_scsi.c **** /**
  74:Middlewares/ST/STM32_USB_Device_Library/Class/MSC/Src/usbd_msc_scsi.c ****   * @}
  75:Middlewares/ST/STM32_USB_Device_Library/Class/MSC/Src/usbd_msc_scsi.c ****   */
  76:Middlewares/ST/STM32_USB_Device_Library/Class/MSC/Src/usbd_msc_scsi.c **** 
  77:Middlewares/ST/STM32_USB_Device_Library/Class/MSC/Src/usbd_msc_scsi.c **** 
  78:Middlewares/ST/STM32_USB_Device_Library/Class/MSC/Src/usbd_msc_scsi.c **** /** @defgroup MSC_SCSI_Private_FunctionPrototypes
  79:Middlewares/ST/STM32_USB_Device_Library/Class/MSC/Src/usbd_msc_scsi.c ****   * @{
  80:Middlewares/ST/STM32_USB_Device_Library/Class/MSC/Src/usbd_msc_scsi.c ****   */
  81:Middlewares/ST/STM32_USB_Device_Library/Class/MSC/Src/usbd_msc_scsi.c **** static int8_t SCSI_TestUnitReady(USBD_HandleTypeDef *pdev, uint8_t lun, uint8_t *params);
  82:Middlewares/ST/STM32_USB_Device_Library/Class/MSC/Src/usbd_msc_scsi.c **** static int8_t SCSI_Inquiry(USBD_HandleTypeDef *pdev, uint8_t lun, uint8_t *params);
  83:Middlewares/ST/STM32_USB_Device_Library/Class/MSC/Src/usbd_msc_scsi.c **** static int8_t SCSI_ReadFormatCapacity(USBD_HandleTypeDef *pdev, uint8_t lun, uint8_t *params);
  84:Middlewares/ST/STM32_USB_Device_Library/Class/MSC/Src/usbd_msc_scsi.c **** static int8_t SCSI_ReadCapacity10(USBD_HandleTypeDef *pdev, uint8_t lun, uint8_t *params);
  85:Middlewares/ST/STM32_USB_Device_Library/Class/MSC/Src/usbd_msc_scsi.c **** static int8_t SCSI_RequestSense(USBD_HandleTypeDef *pdev, uint8_t lun, uint8_t *params);
  86:Middlewares/ST/STM32_USB_Device_Library/Class/MSC/Src/usbd_msc_scsi.c **** static int8_t SCSI_StartStopUnit(USBD_HandleTypeDef *pdev, uint8_t lun, uint8_t *params);
  87:Middlewares/ST/STM32_USB_Device_Library/Class/MSC/Src/usbd_msc_scsi.c **** static int8_t SCSI_ModeSense6(USBD_HandleTypeDef *pdev, uint8_t lun, uint8_t *params);
  88:Middlewares/ST/STM32_USB_Device_Library/Class/MSC/Src/usbd_msc_scsi.c **** static int8_t SCSI_ModeSense10(USBD_HandleTypeDef *pdev, uint8_t lun, uint8_t *params);
  89:Middlewares/ST/STM32_USB_Device_Library/Class/MSC/Src/usbd_msc_scsi.c **** static int8_t SCSI_Write10(USBD_HandleTypeDef *pdev, uint8_t lun, uint8_t *params);
ARM GAS  C:\Users\Vento\AppData\Local\Temp\cclmUhoh.s 			page 3


  90:Middlewares/ST/STM32_USB_Device_Library/Class/MSC/Src/usbd_msc_scsi.c **** static int8_t SCSI_Read10(USBD_HandleTypeDef *pdev, uint8_t lun, uint8_t *params);
  91:Middlewares/ST/STM32_USB_Device_Library/Class/MSC/Src/usbd_msc_scsi.c **** static int8_t SCSI_Verify10(USBD_HandleTypeDef *pdev, uint8_t lun, uint8_t *params);
  92:Middlewares/ST/STM32_USB_Device_Library/Class/MSC/Src/usbd_msc_scsi.c **** static int8_t SCSI_CheckAddressRange(USBD_HandleTypeDef *pdev, uint8_t lun,
  93:Middlewares/ST/STM32_USB_Device_Library/Class/MSC/Src/usbd_msc_scsi.c ****                                      uint32_t blk_offset, uint32_t blk_nbr);
  94:Middlewares/ST/STM32_USB_Device_Library/Class/MSC/Src/usbd_msc_scsi.c **** 
  95:Middlewares/ST/STM32_USB_Device_Library/Class/MSC/Src/usbd_msc_scsi.c **** static int8_t SCSI_ProcessRead(USBD_HandleTypeDef *pdev, uint8_t lun);
  96:Middlewares/ST/STM32_USB_Device_Library/Class/MSC/Src/usbd_msc_scsi.c **** static int8_t SCSI_ProcessWrite(USBD_HandleTypeDef *pdev, uint8_t lun);
  97:Middlewares/ST/STM32_USB_Device_Library/Class/MSC/Src/usbd_msc_scsi.c **** /**
  98:Middlewares/ST/STM32_USB_Device_Library/Class/MSC/Src/usbd_msc_scsi.c ****   * @}
  99:Middlewares/ST/STM32_USB_Device_Library/Class/MSC/Src/usbd_msc_scsi.c ****   */
 100:Middlewares/ST/STM32_USB_Device_Library/Class/MSC/Src/usbd_msc_scsi.c **** 
 101:Middlewares/ST/STM32_USB_Device_Library/Class/MSC/Src/usbd_msc_scsi.c **** 
 102:Middlewares/ST/STM32_USB_Device_Library/Class/MSC/Src/usbd_msc_scsi.c **** /** @defgroup MSC_SCSI_Private_Functions
 103:Middlewares/ST/STM32_USB_Device_Library/Class/MSC/Src/usbd_msc_scsi.c ****   * @{
 104:Middlewares/ST/STM32_USB_Device_Library/Class/MSC/Src/usbd_msc_scsi.c ****   */
 105:Middlewares/ST/STM32_USB_Device_Library/Class/MSC/Src/usbd_msc_scsi.c **** 
 106:Middlewares/ST/STM32_USB_Device_Library/Class/MSC/Src/usbd_msc_scsi.c **** 
 107:Middlewares/ST/STM32_USB_Device_Library/Class/MSC/Src/usbd_msc_scsi.c **** /**
 108:Middlewares/ST/STM32_USB_Device_Library/Class/MSC/Src/usbd_msc_scsi.c **** * @brief  SCSI_ProcessCmd
 109:Middlewares/ST/STM32_USB_Device_Library/Class/MSC/Src/usbd_msc_scsi.c **** *         Process SCSI commands
 110:Middlewares/ST/STM32_USB_Device_Library/Class/MSC/Src/usbd_msc_scsi.c **** * @param  pdev: device instance
 111:Middlewares/ST/STM32_USB_Device_Library/Class/MSC/Src/usbd_msc_scsi.c **** * @param  lun: Logical unit number
 112:Middlewares/ST/STM32_USB_Device_Library/Class/MSC/Src/usbd_msc_scsi.c **** * @param  params: Command parameters
 113:Middlewares/ST/STM32_USB_Device_Library/Class/MSC/Src/usbd_msc_scsi.c **** * @retval status
 114:Middlewares/ST/STM32_USB_Device_Library/Class/MSC/Src/usbd_msc_scsi.c **** */
 115:Middlewares/ST/STM32_USB_Device_Library/Class/MSC/Src/usbd_msc_scsi.c **** int8_t SCSI_ProcessCmd(USBD_HandleTypeDef *pdev, uint8_t lun, uint8_t *cmd)
 116:Middlewares/ST/STM32_USB_Device_Library/Class/MSC/Src/usbd_msc_scsi.c **** {
 117:Middlewares/ST/STM32_USB_Device_Library/Class/MSC/Src/usbd_msc_scsi.c ****   switch (cmd[0])
 118:Middlewares/ST/STM32_USB_Device_Library/Class/MSC/Src/usbd_msc_scsi.c ****   {
 119:Middlewares/ST/STM32_USB_Device_Library/Class/MSC/Src/usbd_msc_scsi.c ****     case SCSI_TEST_UNIT_READY:
 120:Middlewares/ST/STM32_USB_Device_Library/Class/MSC/Src/usbd_msc_scsi.c ****       SCSI_TestUnitReady(pdev, lun, cmd);
 121:Middlewares/ST/STM32_USB_Device_Library/Class/MSC/Src/usbd_msc_scsi.c ****       break;
 122:Middlewares/ST/STM32_USB_Device_Library/Class/MSC/Src/usbd_msc_scsi.c **** 
 123:Middlewares/ST/STM32_USB_Device_Library/Class/MSC/Src/usbd_msc_scsi.c ****     case SCSI_REQUEST_SENSE:
 124:Middlewares/ST/STM32_USB_Device_Library/Class/MSC/Src/usbd_msc_scsi.c ****       SCSI_RequestSense(pdev, lun, cmd);
 125:Middlewares/ST/STM32_USB_Device_Library/Class/MSC/Src/usbd_msc_scsi.c ****       break;
 126:Middlewares/ST/STM32_USB_Device_Library/Class/MSC/Src/usbd_msc_scsi.c ****     case SCSI_INQUIRY:
 127:Middlewares/ST/STM32_USB_Device_Library/Class/MSC/Src/usbd_msc_scsi.c ****       SCSI_Inquiry(pdev, lun, cmd);
 128:Middlewares/ST/STM32_USB_Device_Library/Class/MSC/Src/usbd_msc_scsi.c ****       break;
 129:Middlewares/ST/STM32_USB_Device_Library/Class/MSC/Src/usbd_msc_scsi.c **** 
 130:Middlewares/ST/STM32_USB_Device_Library/Class/MSC/Src/usbd_msc_scsi.c ****     case SCSI_START_STOP_UNIT:
 131:Middlewares/ST/STM32_USB_Device_Library/Class/MSC/Src/usbd_msc_scsi.c ****       SCSI_StartStopUnit(pdev, lun, cmd);
 132:Middlewares/ST/STM32_USB_Device_Library/Class/MSC/Src/usbd_msc_scsi.c ****       break;
 133:Middlewares/ST/STM32_USB_Device_Library/Class/MSC/Src/usbd_msc_scsi.c **** 
 134:Middlewares/ST/STM32_USB_Device_Library/Class/MSC/Src/usbd_msc_scsi.c ****     case SCSI_ALLOW_MEDIUM_REMOVAL:
 135:Middlewares/ST/STM32_USB_Device_Library/Class/MSC/Src/usbd_msc_scsi.c ****       SCSI_StartStopUnit(pdev, lun, cmd);
 136:Middlewares/ST/STM32_USB_Device_Library/Class/MSC/Src/usbd_msc_scsi.c ****       break;
 137:Middlewares/ST/STM32_USB_Device_Library/Class/MSC/Src/usbd_msc_scsi.c **** 
 138:Middlewares/ST/STM32_USB_Device_Library/Class/MSC/Src/usbd_msc_scsi.c ****     case SCSI_MODE_SENSE6:
 139:Middlewares/ST/STM32_USB_Device_Library/Class/MSC/Src/usbd_msc_scsi.c ****       SCSI_ModeSense6(pdev, lun, cmd);
 140:Middlewares/ST/STM32_USB_Device_Library/Class/MSC/Src/usbd_msc_scsi.c ****       break;
 141:Middlewares/ST/STM32_USB_Device_Library/Class/MSC/Src/usbd_msc_scsi.c **** 
 142:Middlewares/ST/STM32_USB_Device_Library/Class/MSC/Src/usbd_msc_scsi.c ****     case SCSI_MODE_SENSE10:
 143:Middlewares/ST/STM32_USB_Device_Library/Class/MSC/Src/usbd_msc_scsi.c ****       SCSI_ModeSense10(pdev, lun, cmd);
 144:Middlewares/ST/STM32_USB_Device_Library/Class/MSC/Src/usbd_msc_scsi.c ****       break;
 145:Middlewares/ST/STM32_USB_Device_Library/Class/MSC/Src/usbd_msc_scsi.c **** 
 146:Middlewares/ST/STM32_USB_Device_Library/Class/MSC/Src/usbd_msc_scsi.c ****     case SCSI_READ_FORMAT_CAPACITIES:
ARM GAS  C:\Users\Vento\AppData\Local\Temp\cclmUhoh.s 			page 4


 147:Middlewares/ST/STM32_USB_Device_Library/Class/MSC/Src/usbd_msc_scsi.c ****       SCSI_ReadFormatCapacity(pdev, lun, cmd);
 148:Middlewares/ST/STM32_USB_Device_Library/Class/MSC/Src/usbd_msc_scsi.c ****       break;
 149:Middlewares/ST/STM32_USB_Device_Library/Class/MSC/Src/usbd_msc_scsi.c **** 
 150:Middlewares/ST/STM32_USB_Device_Library/Class/MSC/Src/usbd_msc_scsi.c ****     case SCSI_READ_CAPACITY10:
 151:Middlewares/ST/STM32_USB_Device_Library/Class/MSC/Src/usbd_msc_scsi.c ****       SCSI_ReadCapacity10(pdev, lun, cmd);
 152:Middlewares/ST/STM32_USB_Device_Library/Class/MSC/Src/usbd_msc_scsi.c ****       break;
 153:Middlewares/ST/STM32_USB_Device_Library/Class/MSC/Src/usbd_msc_scsi.c **** 
 154:Middlewares/ST/STM32_USB_Device_Library/Class/MSC/Src/usbd_msc_scsi.c ****     case SCSI_READ10:
 155:Middlewares/ST/STM32_USB_Device_Library/Class/MSC/Src/usbd_msc_scsi.c ****       SCSI_Read10(pdev, lun, cmd);
 156:Middlewares/ST/STM32_USB_Device_Library/Class/MSC/Src/usbd_msc_scsi.c ****       break;
 157:Middlewares/ST/STM32_USB_Device_Library/Class/MSC/Src/usbd_msc_scsi.c **** 
 158:Middlewares/ST/STM32_USB_Device_Library/Class/MSC/Src/usbd_msc_scsi.c ****     case SCSI_WRITE10:
 159:Middlewares/ST/STM32_USB_Device_Library/Class/MSC/Src/usbd_msc_scsi.c ****       SCSI_Write10(pdev, lun, cmd);
 160:Middlewares/ST/STM32_USB_Device_Library/Class/MSC/Src/usbd_msc_scsi.c ****       break;
 161:Middlewares/ST/STM32_USB_Device_Library/Class/MSC/Src/usbd_msc_scsi.c **** 
 162:Middlewares/ST/STM32_USB_Device_Library/Class/MSC/Src/usbd_msc_scsi.c ****     case SCSI_VERIFY10:
 163:Middlewares/ST/STM32_USB_Device_Library/Class/MSC/Src/usbd_msc_scsi.c ****       SCSI_Verify10(pdev, lun, cmd);
 164:Middlewares/ST/STM32_USB_Device_Library/Class/MSC/Src/usbd_msc_scsi.c ****       break;
 165:Middlewares/ST/STM32_USB_Device_Library/Class/MSC/Src/usbd_msc_scsi.c **** 
 166:Middlewares/ST/STM32_USB_Device_Library/Class/MSC/Src/usbd_msc_scsi.c ****     default:
 167:Middlewares/ST/STM32_USB_Device_Library/Class/MSC/Src/usbd_msc_scsi.c ****       SCSI_SenseCode(pdev, lun, ILLEGAL_REQUEST, INVALID_CDB);
 168:Middlewares/ST/STM32_USB_Device_Library/Class/MSC/Src/usbd_msc_scsi.c ****       return -1;
 169:Middlewares/ST/STM32_USB_Device_Library/Class/MSC/Src/usbd_msc_scsi.c ****   }
 170:Middlewares/ST/STM32_USB_Device_Library/Class/MSC/Src/usbd_msc_scsi.c **** 
 171:Middlewares/ST/STM32_USB_Device_Library/Class/MSC/Src/usbd_msc_scsi.c ****   return 0;
 172:Middlewares/ST/STM32_USB_Device_Library/Class/MSC/Src/usbd_msc_scsi.c **** }
 173:Middlewares/ST/STM32_USB_Device_Library/Class/MSC/Src/usbd_msc_scsi.c **** 
 174:Middlewares/ST/STM32_USB_Device_Library/Class/MSC/Src/usbd_msc_scsi.c **** 
 175:Middlewares/ST/STM32_USB_Device_Library/Class/MSC/Src/usbd_msc_scsi.c **** /**
 176:Middlewares/ST/STM32_USB_Device_Library/Class/MSC/Src/usbd_msc_scsi.c **** * @brief  SCSI_TestUnitReady
 177:Middlewares/ST/STM32_USB_Device_Library/Class/MSC/Src/usbd_msc_scsi.c **** *         Process SCSI Test Unit Ready Command
 178:Middlewares/ST/STM32_USB_Device_Library/Class/MSC/Src/usbd_msc_scsi.c **** * @param  lun: Logical unit number
 179:Middlewares/ST/STM32_USB_Device_Library/Class/MSC/Src/usbd_msc_scsi.c **** * @param  params: Command parameters
 180:Middlewares/ST/STM32_USB_Device_Library/Class/MSC/Src/usbd_msc_scsi.c **** * @retval status
 181:Middlewares/ST/STM32_USB_Device_Library/Class/MSC/Src/usbd_msc_scsi.c **** */
 182:Middlewares/ST/STM32_USB_Device_Library/Class/MSC/Src/usbd_msc_scsi.c **** static int8_t SCSI_TestUnitReady(USBD_HandleTypeDef  *pdev, uint8_t lun, uint8_t *params)
 183:Middlewares/ST/STM32_USB_Device_Library/Class/MSC/Src/usbd_msc_scsi.c **** {
 184:Middlewares/ST/STM32_USB_Device_Library/Class/MSC/Src/usbd_msc_scsi.c ****   USBD_MSC_BOT_HandleTypeDef  *hmsc = (USBD_MSC_BOT_HandleTypeDef *)pdev->pClassData;
 185:Middlewares/ST/STM32_USB_Device_Library/Class/MSC/Src/usbd_msc_scsi.c **** 
 186:Middlewares/ST/STM32_USB_Device_Library/Class/MSC/Src/usbd_msc_scsi.c ****   /* case 9 : Hi > D0 */
 187:Middlewares/ST/STM32_USB_Device_Library/Class/MSC/Src/usbd_msc_scsi.c ****   if (hmsc->cbw.dDataLength != 0U)
 188:Middlewares/ST/STM32_USB_Device_Library/Class/MSC/Src/usbd_msc_scsi.c ****   {
 189:Middlewares/ST/STM32_USB_Device_Library/Class/MSC/Src/usbd_msc_scsi.c ****     SCSI_SenseCode(pdev, hmsc->cbw.bLUN, ILLEGAL_REQUEST, INVALID_CDB);
 190:Middlewares/ST/STM32_USB_Device_Library/Class/MSC/Src/usbd_msc_scsi.c **** 
 191:Middlewares/ST/STM32_USB_Device_Library/Class/MSC/Src/usbd_msc_scsi.c ****     return -1;
 192:Middlewares/ST/STM32_USB_Device_Library/Class/MSC/Src/usbd_msc_scsi.c ****   }
 193:Middlewares/ST/STM32_USB_Device_Library/Class/MSC/Src/usbd_msc_scsi.c **** 
 194:Middlewares/ST/STM32_USB_Device_Library/Class/MSC/Src/usbd_msc_scsi.c ****   if (((USBD_StorageTypeDef *)pdev->pUserData)->IsReady(lun) != 0)
 195:Middlewares/ST/STM32_USB_Device_Library/Class/MSC/Src/usbd_msc_scsi.c ****   {
 196:Middlewares/ST/STM32_USB_Device_Library/Class/MSC/Src/usbd_msc_scsi.c ****     SCSI_SenseCode(pdev, lun, NOT_READY, MEDIUM_NOT_PRESENT);
 197:Middlewares/ST/STM32_USB_Device_Library/Class/MSC/Src/usbd_msc_scsi.c ****     hmsc->bot_state = USBD_BOT_NO_DATA;
 198:Middlewares/ST/STM32_USB_Device_Library/Class/MSC/Src/usbd_msc_scsi.c **** 
 199:Middlewares/ST/STM32_USB_Device_Library/Class/MSC/Src/usbd_msc_scsi.c ****     return -1;
 200:Middlewares/ST/STM32_USB_Device_Library/Class/MSC/Src/usbd_msc_scsi.c ****   }
 201:Middlewares/ST/STM32_USB_Device_Library/Class/MSC/Src/usbd_msc_scsi.c ****   hmsc->bot_data_length = 0U;
 202:Middlewares/ST/STM32_USB_Device_Library/Class/MSC/Src/usbd_msc_scsi.c **** 
 203:Middlewares/ST/STM32_USB_Device_Library/Class/MSC/Src/usbd_msc_scsi.c ****   return 0;
ARM GAS  C:\Users\Vento\AppData\Local\Temp\cclmUhoh.s 			page 5


 204:Middlewares/ST/STM32_USB_Device_Library/Class/MSC/Src/usbd_msc_scsi.c **** }
 205:Middlewares/ST/STM32_USB_Device_Library/Class/MSC/Src/usbd_msc_scsi.c **** 
 206:Middlewares/ST/STM32_USB_Device_Library/Class/MSC/Src/usbd_msc_scsi.c **** /**
 207:Middlewares/ST/STM32_USB_Device_Library/Class/MSC/Src/usbd_msc_scsi.c **** * @brief  SCSI_Inquiry
 208:Middlewares/ST/STM32_USB_Device_Library/Class/MSC/Src/usbd_msc_scsi.c **** *         Process Inquiry command
 209:Middlewares/ST/STM32_USB_Device_Library/Class/MSC/Src/usbd_msc_scsi.c **** * @param  lun: Logical unit number
 210:Middlewares/ST/STM32_USB_Device_Library/Class/MSC/Src/usbd_msc_scsi.c **** * @param  params: Command parameters
 211:Middlewares/ST/STM32_USB_Device_Library/Class/MSC/Src/usbd_msc_scsi.c **** * @retval status
 212:Middlewares/ST/STM32_USB_Device_Library/Class/MSC/Src/usbd_msc_scsi.c **** */
 213:Middlewares/ST/STM32_USB_Device_Library/Class/MSC/Src/usbd_msc_scsi.c **** static int8_t  SCSI_Inquiry(USBD_HandleTypeDef  *pdev, uint8_t lun, uint8_t *params)
 214:Middlewares/ST/STM32_USB_Device_Library/Class/MSC/Src/usbd_msc_scsi.c **** {
  27              		.loc 1 214 1 view -0
  28              		.cfi_startproc
  29              		@ args = 0, pretend = 0, frame = 0
  30              		@ frame_needed = 0, uses_anonymous_args = 0
  31              		@ link register save eliminated.
  32              		.loc 1 214 1 is_stmt 0 view .LVU1
  33 0000 10B4     		push	{r4}
  34              	.LCFI0:
  35              		.cfi_def_cfa_offset 4
  36              		.cfi_offset 4, -4
 215:Middlewares/ST/STM32_USB_Device_Library/Class/MSC/Src/usbd_msc_scsi.c ****   uint8_t *pPage;
  37              		.loc 1 215 3 is_stmt 1 view .LVU2
 216:Middlewares/ST/STM32_USB_Device_Library/Class/MSC/Src/usbd_msc_scsi.c ****   uint16_t len;
  38              		.loc 1 216 3 view .LVU3
 217:Middlewares/ST/STM32_USB_Device_Library/Class/MSC/Src/usbd_msc_scsi.c ****   USBD_MSC_BOT_HandleTypeDef  *hmsc = (USBD_MSC_BOT_HandleTypeDef *)pdev->pClassData;
  39              		.loc 1 217 3 view .LVU4
  40              		.loc 1 217 32 is_stmt 0 view .LVU5
  41 0002 D0F8B842 		ldr	r4, [r0, #696]
  42              	.LVL1:
 218:Middlewares/ST/STM32_USB_Device_Library/Class/MSC/Src/usbd_msc_scsi.c **** 
 219:Middlewares/ST/STM32_USB_Device_Library/Class/MSC/Src/usbd_msc_scsi.c ****   if (params[1] & 0x01U)/*Evpd is set*/
  43              		.loc 1 219 3 is_stmt 1 view .LVU6
  44              		.loc 1 219 13 is_stmt 0 view .LVU7
  45 0006 5378     		ldrb	r3, [r2, #1]	@ zero_extendqisi2
  46              		.loc 1 219 6 view .LVU8
  47 0008 13F0010F 		tst	r3, #1
  48 000c 0DD0     		beq	.L2
 220:Middlewares/ST/STM32_USB_Device_Library/Class/MSC/Src/usbd_msc_scsi.c ****   {
 221:Middlewares/ST/STM32_USB_Device_Library/Class/MSC/Src/usbd_msc_scsi.c ****     len = LENGTH_INQUIRY_PAGE00;
  49              		.loc 1 221 5 is_stmt 1 view .LVU9
  50              	.LVL2:
 222:Middlewares/ST/STM32_USB_Device_Library/Class/MSC/Src/usbd_msc_scsi.c ****     hmsc->bot_data_length = len;
  51              		.loc 1 222 5 view .LVU10
  52              		.loc 1 222 27 is_stmt 0 view .LVU11
  53 000e 0723     		movs	r3, #7
  54 0010 6381     		strh	r3, [r4, #10]	@ movhi
 223:Middlewares/ST/STM32_USB_Device_Library/Class/MSC/Src/usbd_msc_scsi.c **** 
 224:Middlewares/ST/STM32_USB_Device_Library/Class/MSC/Src/usbd_msc_scsi.c ****     while (len)
  55              		.loc 1 224 5 is_stmt 1 view .LVU12
  56              		.loc 1 224 11 is_stmt 0 view .LVU13
  57 0012 05E0     		b	.L3
  58              	.LVL3:
  59              	.L4:
 225:Middlewares/ST/STM32_USB_Device_Library/Class/MSC/Src/usbd_msc_scsi.c ****     {
 226:Middlewares/ST/STM32_USB_Device_Library/Class/MSC/Src/usbd_msc_scsi.c ****       len--;
  60              		.loc 1 226 7 is_stmt 1 view .LVU14
ARM GAS  C:\Users\Vento\AppData\Local\Temp\cclmUhoh.s 			page 6


  61              		.loc 1 226 10 is_stmt 0 view .LVU15
  62 0014 013B     		subs	r3, r3, #1
  63              	.LVL4:
  64              		.loc 1 226 10 view .LVU16
  65 0016 9BB2     		uxth	r3, r3
  66              	.LVL5:
 227:Middlewares/ST/STM32_USB_Device_Library/Class/MSC/Src/usbd_msc_scsi.c ****       hmsc->bot_data[len] = MSC_Page00_Inquiry_Data[len];
  67              		.loc 1 227 7 is_stmt 1 view .LVU17
  68              		.loc 1 227 52 is_stmt 0 view .LVU18
  69 0018 0F4A     		ldr	r2, .L10
  70 001a D15C     		ldrb	r1, [r2, r3]	@ zero_extendqisi2
  71              		.loc 1 227 27 view .LVU19
  72 001c E218     		adds	r2, r4, r3
  73 001e 1173     		strb	r1, [r2, #12]
  74              	.LVL6:
  75              	.L3:
 224:Middlewares/ST/STM32_USB_Device_Library/Class/MSC/Src/usbd_msc_scsi.c ****     {
  76              		.loc 1 224 11 is_stmt 1 view .LVU20
  77 0020 002B     		cmp	r3, #0
  78 0022 F7D1     		bne	.L4
  79              	.LVL7:
  80              	.L5:
 228:Middlewares/ST/STM32_USB_Device_Library/Class/MSC/Src/usbd_msc_scsi.c ****     }
 229:Middlewares/ST/STM32_USB_Device_Library/Class/MSC/Src/usbd_msc_scsi.c ****   }
 230:Middlewares/ST/STM32_USB_Device_Library/Class/MSC/Src/usbd_msc_scsi.c ****   else
 231:Middlewares/ST/STM32_USB_Device_Library/Class/MSC/Src/usbd_msc_scsi.c ****   {
 232:Middlewares/ST/STM32_USB_Device_Library/Class/MSC/Src/usbd_msc_scsi.c ****     pPage = (uint8_t *)(void *) & ((USBD_StorageTypeDef *)pdev->pUserData)->pInquiry[lun * STANDARD
 233:Middlewares/ST/STM32_USB_Device_Library/Class/MSC/Src/usbd_msc_scsi.c ****     len = (uint16_t)pPage[4] + 5U;
 234:Middlewares/ST/STM32_USB_Device_Library/Class/MSC/Src/usbd_msc_scsi.c **** 
 235:Middlewares/ST/STM32_USB_Device_Library/Class/MSC/Src/usbd_msc_scsi.c ****     if (params[4] <= len)
 236:Middlewares/ST/STM32_USB_Device_Library/Class/MSC/Src/usbd_msc_scsi.c ****     {
 237:Middlewares/ST/STM32_USB_Device_Library/Class/MSC/Src/usbd_msc_scsi.c ****       len = params[4];
 238:Middlewares/ST/STM32_USB_Device_Library/Class/MSC/Src/usbd_msc_scsi.c ****     }
 239:Middlewares/ST/STM32_USB_Device_Library/Class/MSC/Src/usbd_msc_scsi.c ****     hmsc->bot_data_length = len;
 240:Middlewares/ST/STM32_USB_Device_Library/Class/MSC/Src/usbd_msc_scsi.c **** 
 241:Middlewares/ST/STM32_USB_Device_Library/Class/MSC/Src/usbd_msc_scsi.c ****     while (len)
 242:Middlewares/ST/STM32_USB_Device_Library/Class/MSC/Src/usbd_msc_scsi.c ****     {
 243:Middlewares/ST/STM32_USB_Device_Library/Class/MSC/Src/usbd_msc_scsi.c ****       len--;
 244:Middlewares/ST/STM32_USB_Device_Library/Class/MSC/Src/usbd_msc_scsi.c ****       hmsc->bot_data[len] = pPage[len];
 245:Middlewares/ST/STM32_USB_Device_Library/Class/MSC/Src/usbd_msc_scsi.c ****     }
 246:Middlewares/ST/STM32_USB_Device_Library/Class/MSC/Src/usbd_msc_scsi.c ****   }
 247:Middlewares/ST/STM32_USB_Device_Library/Class/MSC/Src/usbd_msc_scsi.c **** 
 248:Middlewares/ST/STM32_USB_Device_Library/Class/MSC/Src/usbd_msc_scsi.c ****   return 0;
  81              		.loc 1 248 3 view .LVU21
 249:Middlewares/ST/STM32_USB_Device_Library/Class/MSC/Src/usbd_msc_scsi.c **** }
  82              		.loc 1 249 1 is_stmt 0 view .LVU22
  83 0024 0020     		movs	r0, #0
  84 0026 10BC     		pop	{r4}
  85              	.LCFI1:
  86              		.cfi_remember_state
  87              		.cfi_restore 4
  88              		.cfi_def_cfa_offset 0
  89              	.LVL8:
  90              		.loc 1 249 1 view .LVU23
  91 0028 7047     		bx	lr
  92              	.LVL9:
  93              	.L2:
ARM GAS  C:\Users\Vento\AppData\Local\Temp\cclmUhoh.s 			page 7


  94              	.LCFI2:
  95              		.cfi_restore_state
 232:Middlewares/ST/STM32_USB_Device_Library/Class/MSC/Src/usbd_msc_scsi.c ****     len = (uint16_t)pPage[4] + 5U;
  96              		.loc 1 232 5 is_stmt 1 view .LVU24
 232:Middlewares/ST/STM32_USB_Device_Library/Class/MSC/Src/usbd_msc_scsi.c ****     len = (uint16_t)pPage[4] + 5U;
  97              		.loc 1 232 63 is_stmt 0 view .LVU25
  98 002a D0F8BC32 		ldr	r3, [r0, #700]
 232:Middlewares/ST/STM32_USB_Device_Library/Class/MSC/Src/usbd_msc_scsi.c ****     len = (uint16_t)pPage[4] + 5U;
  99              		.loc 1 232 75 view .LVU26
 100 002e D869     		ldr	r0, [r3, #28]
 101              	.LVL10:
 232:Middlewares/ST/STM32_USB_Device_Library/Class/MSC/Src/usbd_msc_scsi.c ****     len = (uint16_t)pPage[4] + 5U;
 102              		.loc 1 232 90 view .LVU27
 103 0030 01EBC101 		add	r1, r1, r1, lsl #3
 104              	.LVL11:
 232:Middlewares/ST/STM32_USB_Device_Library/Class/MSC/Src/usbd_msc_scsi.c ****     len = (uint16_t)pPage[4] + 5U;
 105              		.loc 1 232 11 view .LVU28
 106 0034 00EB8100 		add	r0, r0, r1, lsl #2
 107              	.LVL12:
 233:Middlewares/ST/STM32_USB_Device_Library/Class/MSC/Src/usbd_msc_scsi.c **** 
 108              		.loc 1 233 5 is_stmt 1 view .LVU29
 233:Middlewares/ST/STM32_USB_Device_Library/Class/MSC/Src/usbd_msc_scsi.c **** 
 109              		.loc 1 233 26 is_stmt 0 view .LVU30
 110 0038 0179     		ldrb	r1, [r0, #4]	@ zero_extendqisi2
 233:Middlewares/ST/STM32_USB_Device_Library/Class/MSC/Src/usbd_msc_scsi.c **** 
 111              		.loc 1 233 9 view .LVU31
 112 003a 0531     		adds	r1, r1, #5
 113              	.LVL13:
 235:Middlewares/ST/STM32_USB_Device_Library/Class/MSC/Src/usbd_msc_scsi.c ****     {
 114              		.loc 1 235 5 is_stmt 1 view .LVU32
 235:Middlewares/ST/STM32_USB_Device_Library/Class/MSC/Src/usbd_msc_scsi.c ****     {
 115              		.loc 1 235 15 is_stmt 0 view .LVU33
 116 003c 1379     		ldrb	r3, [r2, #4]	@ zero_extendqisi2
 235:Middlewares/ST/STM32_USB_Device_Library/Class/MSC/Src/usbd_msc_scsi.c ****     {
 117              		.loc 1 235 8 view .LVU34
 118 003e 8B42     		cmp	r3, r1
 119 0040 00D9     		bls	.L6
 233:Middlewares/ST/STM32_USB_Device_Library/Class/MSC/Src/usbd_msc_scsi.c **** 
 120              		.loc 1 233 9 view .LVU35
 121 0042 0B46     		mov	r3, r1
 122              	.L6:
 123              	.LVL14:
 239:Middlewares/ST/STM32_USB_Device_Library/Class/MSC/Src/usbd_msc_scsi.c **** 
 124              		.loc 1 239 5 is_stmt 1 view .LVU36
 239:Middlewares/ST/STM32_USB_Device_Library/Class/MSC/Src/usbd_msc_scsi.c **** 
 125              		.loc 1 239 27 is_stmt 0 view .LVU37
 126 0044 6381     		strh	r3, [r4, #10]	@ movhi
 241:Middlewares/ST/STM32_USB_Device_Library/Class/MSC/Src/usbd_msc_scsi.c ****     {
 127              		.loc 1 241 5 is_stmt 1 view .LVU38
 241:Middlewares/ST/STM32_USB_Device_Library/Class/MSC/Src/usbd_msc_scsi.c ****     {
 128              		.loc 1 241 11 is_stmt 0 view .LVU39
 129 0046 04E0     		b	.L7
 130              	.LVL15:
 131              	.L8:
 243:Middlewares/ST/STM32_USB_Device_Library/Class/MSC/Src/usbd_msc_scsi.c ****       hmsc->bot_data[len] = pPage[len];
 132              		.loc 1 243 7 is_stmt 1 view .LVU40
 243:Middlewares/ST/STM32_USB_Device_Library/Class/MSC/Src/usbd_msc_scsi.c ****       hmsc->bot_data[len] = pPage[len];
ARM GAS  C:\Users\Vento\AppData\Local\Temp\cclmUhoh.s 			page 8


 133              		.loc 1 243 10 is_stmt 0 view .LVU41
 134 0048 013B     		subs	r3, r3, #1
 135              	.LVL16:
 243:Middlewares/ST/STM32_USB_Device_Library/Class/MSC/Src/usbd_msc_scsi.c ****       hmsc->bot_data[len] = pPage[len];
 136              		.loc 1 243 10 view .LVU42
 137 004a 9BB2     		uxth	r3, r3
 138              	.LVL17:
 244:Middlewares/ST/STM32_USB_Device_Library/Class/MSC/Src/usbd_msc_scsi.c ****     }
 139              		.loc 1 244 7 is_stmt 1 view .LVU43
 244:Middlewares/ST/STM32_USB_Device_Library/Class/MSC/Src/usbd_msc_scsi.c ****     }
 140              		.loc 1 244 34 is_stmt 0 view .LVU44
 141 004c C15C     		ldrb	r1, [r0, r3]	@ zero_extendqisi2
 244:Middlewares/ST/STM32_USB_Device_Library/Class/MSC/Src/usbd_msc_scsi.c ****     }
 142              		.loc 1 244 27 view .LVU45
 143 004e E218     		adds	r2, r4, r3
 144 0050 1173     		strb	r1, [r2, #12]
 145              	.L7:
 241:Middlewares/ST/STM32_USB_Device_Library/Class/MSC/Src/usbd_msc_scsi.c ****     {
 146              		.loc 1 241 11 is_stmt 1 view .LVU46
 147 0052 002B     		cmp	r3, #0
 148 0054 F8D1     		bne	.L8
 241:Middlewares/ST/STM32_USB_Device_Library/Class/MSC/Src/usbd_msc_scsi.c ****     {
 149              		.loc 1 241 11 is_stmt 0 view .LVU47
 150 0056 E5E7     		b	.L5
 151              	.L11:
 152              		.align	2
 153              	.L10:
 154 0058 00000000 		.word	MSC_Page00_Inquiry_Data
 155              		.cfi_endproc
 156              	.LFE70:
 158              		.section	.text.SCSI_ModeSense6,"ax",%progbits
 159              		.align	1
 160              		.syntax unified
 161              		.thumb
 162              		.thumb_func
 163              		.fpu softvfp
 165              	SCSI_ModeSense6:
 166              	.LVL18:
 167              	.LFB73:
 250:Middlewares/ST/STM32_USB_Device_Library/Class/MSC/Src/usbd_msc_scsi.c **** 
 251:Middlewares/ST/STM32_USB_Device_Library/Class/MSC/Src/usbd_msc_scsi.c **** /**
 252:Middlewares/ST/STM32_USB_Device_Library/Class/MSC/Src/usbd_msc_scsi.c **** * @brief  SCSI_ReadCapacity10
 253:Middlewares/ST/STM32_USB_Device_Library/Class/MSC/Src/usbd_msc_scsi.c **** *         Process Read Capacity 10 command
 254:Middlewares/ST/STM32_USB_Device_Library/Class/MSC/Src/usbd_msc_scsi.c **** * @param  lun: Logical unit number
 255:Middlewares/ST/STM32_USB_Device_Library/Class/MSC/Src/usbd_msc_scsi.c **** * @param  params: Command parameters
 256:Middlewares/ST/STM32_USB_Device_Library/Class/MSC/Src/usbd_msc_scsi.c **** * @retval status
 257:Middlewares/ST/STM32_USB_Device_Library/Class/MSC/Src/usbd_msc_scsi.c **** */
 258:Middlewares/ST/STM32_USB_Device_Library/Class/MSC/Src/usbd_msc_scsi.c **** static int8_t SCSI_ReadCapacity10(USBD_HandleTypeDef  *pdev, uint8_t lun, uint8_t *params)
 259:Middlewares/ST/STM32_USB_Device_Library/Class/MSC/Src/usbd_msc_scsi.c **** {
 260:Middlewares/ST/STM32_USB_Device_Library/Class/MSC/Src/usbd_msc_scsi.c ****   USBD_MSC_BOT_HandleTypeDef  *hmsc = (USBD_MSC_BOT_HandleTypeDef *)pdev->pClassData;
 261:Middlewares/ST/STM32_USB_Device_Library/Class/MSC/Src/usbd_msc_scsi.c **** 
 262:Middlewares/ST/STM32_USB_Device_Library/Class/MSC/Src/usbd_msc_scsi.c ****   if (((USBD_StorageTypeDef *)pdev->pUserData)->GetCapacity(lun, &hmsc->scsi_blk_nbr, &hmsc->scsi_b
 263:Middlewares/ST/STM32_USB_Device_Library/Class/MSC/Src/usbd_msc_scsi.c ****   {
 264:Middlewares/ST/STM32_USB_Device_Library/Class/MSC/Src/usbd_msc_scsi.c ****     SCSI_SenseCode(pdev, lun, NOT_READY, MEDIUM_NOT_PRESENT);
 265:Middlewares/ST/STM32_USB_Device_Library/Class/MSC/Src/usbd_msc_scsi.c ****     return -1;
 266:Middlewares/ST/STM32_USB_Device_Library/Class/MSC/Src/usbd_msc_scsi.c ****   }
 267:Middlewares/ST/STM32_USB_Device_Library/Class/MSC/Src/usbd_msc_scsi.c ****   else
ARM GAS  C:\Users\Vento\AppData\Local\Temp\cclmUhoh.s 			page 9


 268:Middlewares/ST/STM32_USB_Device_Library/Class/MSC/Src/usbd_msc_scsi.c ****   {
 269:Middlewares/ST/STM32_USB_Device_Library/Class/MSC/Src/usbd_msc_scsi.c **** 
 270:Middlewares/ST/STM32_USB_Device_Library/Class/MSC/Src/usbd_msc_scsi.c ****     hmsc->bot_data[0] = (uint8_t)((hmsc->scsi_blk_nbr - 1U) >> 24);
 271:Middlewares/ST/STM32_USB_Device_Library/Class/MSC/Src/usbd_msc_scsi.c ****     hmsc->bot_data[1] = (uint8_t)((hmsc->scsi_blk_nbr - 1U) >> 16);
 272:Middlewares/ST/STM32_USB_Device_Library/Class/MSC/Src/usbd_msc_scsi.c ****     hmsc->bot_data[2] = (uint8_t)((hmsc->scsi_blk_nbr - 1U) >>  8);
 273:Middlewares/ST/STM32_USB_Device_Library/Class/MSC/Src/usbd_msc_scsi.c ****     hmsc->bot_data[3] = (uint8_t)(hmsc->scsi_blk_nbr - 1U);
 274:Middlewares/ST/STM32_USB_Device_Library/Class/MSC/Src/usbd_msc_scsi.c **** 
 275:Middlewares/ST/STM32_USB_Device_Library/Class/MSC/Src/usbd_msc_scsi.c ****     hmsc->bot_data[4] = (uint8_t)(hmsc->scsi_blk_size >>  24);
 276:Middlewares/ST/STM32_USB_Device_Library/Class/MSC/Src/usbd_msc_scsi.c ****     hmsc->bot_data[5] = (uint8_t)(hmsc->scsi_blk_size >>  16);
 277:Middlewares/ST/STM32_USB_Device_Library/Class/MSC/Src/usbd_msc_scsi.c ****     hmsc->bot_data[6] = (uint8_t)(hmsc->scsi_blk_size >>  8);
 278:Middlewares/ST/STM32_USB_Device_Library/Class/MSC/Src/usbd_msc_scsi.c ****     hmsc->bot_data[7] = (uint8_t)(hmsc->scsi_blk_size);
 279:Middlewares/ST/STM32_USB_Device_Library/Class/MSC/Src/usbd_msc_scsi.c **** 
 280:Middlewares/ST/STM32_USB_Device_Library/Class/MSC/Src/usbd_msc_scsi.c ****     hmsc->bot_data_length = 8U;
 281:Middlewares/ST/STM32_USB_Device_Library/Class/MSC/Src/usbd_msc_scsi.c ****     return 0;
 282:Middlewares/ST/STM32_USB_Device_Library/Class/MSC/Src/usbd_msc_scsi.c ****   }
 283:Middlewares/ST/STM32_USB_Device_Library/Class/MSC/Src/usbd_msc_scsi.c **** }
 284:Middlewares/ST/STM32_USB_Device_Library/Class/MSC/Src/usbd_msc_scsi.c **** /**
 285:Middlewares/ST/STM32_USB_Device_Library/Class/MSC/Src/usbd_msc_scsi.c **** * @brief  SCSI_ReadFormatCapacity
 286:Middlewares/ST/STM32_USB_Device_Library/Class/MSC/Src/usbd_msc_scsi.c **** *         Process Read Format Capacity command
 287:Middlewares/ST/STM32_USB_Device_Library/Class/MSC/Src/usbd_msc_scsi.c **** * @param  lun: Logical unit number
 288:Middlewares/ST/STM32_USB_Device_Library/Class/MSC/Src/usbd_msc_scsi.c **** * @param  params: Command parameters
 289:Middlewares/ST/STM32_USB_Device_Library/Class/MSC/Src/usbd_msc_scsi.c **** * @retval status
 290:Middlewares/ST/STM32_USB_Device_Library/Class/MSC/Src/usbd_msc_scsi.c **** */
 291:Middlewares/ST/STM32_USB_Device_Library/Class/MSC/Src/usbd_msc_scsi.c **** static int8_t SCSI_ReadFormatCapacity(USBD_HandleTypeDef  *pdev, uint8_t lun, uint8_t *params)
 292:Middlewares/ST/STM32_USB_Device_Library/Class/MSC/Src/usbd_msc_scsi.c **** {
 293:Middlewares/ST/STM32_USB_Device_Library/Class/MSC/Src/usbd_msc_scsi.c ****   USBD_MSC_BOT_HandleTypeDef  *hmsc = (USBD_MSC_BOT_HandleTypeDef *)pdev->pClassData;
 294:Middlewares/ST/STM32_USB_Device_Library/Class/MSC/Src/usbd_msc_scsi.c **** 
 295:Middlewares/ST/STM32_USB_Device_Library/Class/MSC/Src/usbd_msc_scsi.c ****   uint16_t blk_size;
 296:Middlewares/ST/STM32_USB_Device_Library/Class/MSC/Src/usbd_msc_scsi.c ****   uint32_t blk_nbr;
 297:Middlewares/ST/STM32_USB_Device_Library/Class/MSC/Src/usbd_msc_scsi.c ****   uint16_t i;
 298:Middlewares/ST/STM32_USB_Device_Library/Class/MSC/Src/usbd_msc_scsi.c **** 
 299:Middlewares/ST/STM32_USB_Device_Library/Class/MSC/Src/usbd_msc_scsi.c ****   for (i = 0U; i < 12U ; i++)
 300:Middlewares/ST/STM32_USB_Device_Library/Class/MSC/Src/usbd_msc_scsi.c ****   {
 301:Middlewares/ST/STM32_USB_Device_Library/Class/MSC/Src/usbd_msc_scsi.c ****     hmsc->bot_data[i] = 0U;
 302:Middlewares/ST/STM32_USB_Device_Library/Class/MSC/Src/usbd_msc_scsi.c ****   }
 303:Middlewares/ST/STM32_USB_Device_Library/Class/MSC/Src/usbd_msc_scsi.c **** 
 304:Middlewares/ST/STM32_USB_Device_Library/Class/MSC/Src/usbd_msc_scsi.c ****   if (((USBD_StorageTypeDef *)pdev->pUserData)->GetCapacity(lun, &blk_nbr, &blk_size) != 0U)
 305:Middlewares/ST/STM32_USB_Device_Library/Class/MSC/Src/usbd_msc_scsi.c ****   {
 306:Middlewares/ST/STM32_USB_Device_Library/Class/MSC/Src/usbd_msc_scsi.c ****     SCSI_SenseCode(pdev, lun, NOT_READY, MEDIUM_NOT_PRESENT);
 307:Middlewares/ST/STM32_USB_Device_Library/Class/MSC/Src/usbd_msc_scsi.c ****     return -1;
 308:Middlewares/ST/STM32_USB_Device_Library/Class/MSC/Src/usbd_msc_scsi.c ****   }
 309:Middlewares/ST/STM32_USB_Device_Library/Class/MSC/Src/usbd_msc_scsi.c ****   else
 310:Middlewares/ST/STM32_USB_Device_Library/Class/MSC/Src/usbd_msc_scsi.c ****   {
 311:Middlewares/ST/STM32_USB_Device_Library/Class/MSC/Src/usbd_msc_scsi.c ****     hmsc->bot_data[3] = 0x08U;
 312:Middlewares/ST/STM32_USB_Device_Library/Class/MSC/Src/usbd_msc_scsi.c ****     hmsc->bot_data[4] = (uint8_t)((blk_nbr - 1U) >> 24);
 313:Middlewares/ST/STM32_USB_Device_Library/Class/MSC/Src/usbd_msc_scsi.c ****     hmsc->bot_data[5] = (uint8_t)((blk_nbr - 1U) >> 16);
 314:Middlewares/ST/STM32_USB_Device_Library/Class/MSC/Src/usbd_msc_scsi.c ****     hmsc->bot_data[6] = (uint8_t)((blk_nbr - 1U) >>  8);
 315:Middlewares/ST/STM32_USB_Device_Library/Class/MSC/Src/usbd_msc_scsi.c ****     hmsc->bot_data[7] = (uint8_t)(blk_nbr - 1U);
 316:Middlewares/ST/STM32_USB_Device_Library/Class/MSC/Src/usbd_msc_scsi.c **** 
 317:Middlewares/ST/STM32_USB_Device_Library/Class/MSC/Src/usbd_msc_scsi.c ****     hmsc->bot_data[8] = 0x02U;
 318:Middlewares/ST/STM32_USB_Device_Library/Class/MSC/Src/usbd_msc_scsi.c ****     hmsc->bot_data[9] = (uint8_t)(blk_size >>  16);
 319:Middlewares/ST/STM32_USB_Device_Library/Class/MSC/Src/usbd_msc_scsi.c ****     hmsc->bot_data[10] = (uint8_t)(blk_size >>  8);
 320:Middlewares/ST/STM32_USB_Device_Library/Class/MSC/Src/usbd_msc_scsi.c ****     hmsc->bot_data[11] = (uint8_t)(blk_size);
 321:Middlewares/ST/STM32_USB_Device_Library/Class/MSC/Src/usbd_msc_scsi.c **** 
 322:Middlewares/ST/STM32_USB_Device_Library/Class/MSC/Src/usbd_msc_scsi.c ****     hmsc->bot_data_length = 12U;
 323:Middlewares/ST/STM32_USB_Device_Library/Class/MSC/Src/usbd_msc_scsi.c ****     return 0;
 324:Middlewares/ST/STM32_USB_Device_Library/Class/MSC/Src/usbd_msc_scsi.c ****   }
ARM GAS  C:\Users\Vento\AppData\Local\Temp\cclmUhoh.s 			page 10


 325:Middlewares/ST/STM32_USB_Device_Library/Class/MSC/Src/usbd_msc_scsi.c **** }
 326:Middlewares/ST/STM32_USB_Device_Library/Class/MSC/Src/usbd_msc_scsi.c **** /**
 327:Middlewares/ST/STM32_USB_Device_Library/Class/MSC/Src/usbd_msc_scsi.c **** * @brief  SCSI_ModeSense6
 328:Middlewares/ST/STM32_USB_Device_Library/Class/MSC/Src/usbd_msc_scsi.c **** *         Process Mode Sense6 command
 329:Middlewares/ST/STM32_USB_Device_Library/Class/MSC/Src/usbd_msc_scsi.c **** * @param  lun: Logical unit number
 330:Middlewares/ST/STM32_USB_Device_Library/Class/MSC/Src/usbd_msc_scsi.c **** * @param  params: Command parameters
 331:Middlewares/ST/STM32_USB_Device_Library/Class/MSC/Src/usbd_msc_scsi.c **** * @retval status
 332:Middlewares/ST/STM32_USB_Device_Library/Class/MSC/Src/usbd_msc_scsi.c **** */
 333:Middlewares/ST/STM32_USB_Device_Library/Class/MSC/Src/usbd_msc_scsi.c **** static int8_t SCSI_ModeSense6(USBD_HandleTypeDef  *pdev, uint8_t lun, uint8_t *params)
 334:Middlewares/ST/STM32_USB_Device_Library/Class/MSC/Src/usbd_msc_scsi.c **** {
 168              		.loc 1 334 1 is_stmt 1 view -0
 169              		.cfi_startproc
 170              		@ args = 0, pretend = 0, frame = 0
 171              		@ frame_needed = 0, uses_anonymous_args = 0
 172              		@ link register save eliminated.
 335:Middlewares/ST/STM32_USB_Device_Library/Class/MSC/Src/usbd_msc_scsi.c ****   USBD_MSC_BOT_HandleTypeDef  *hmsc = (USBD_MSC_BOT_HandleTypeDef *)pdev->pClassData;
 173              		.loc 1 335 3 view .LVU49
 174              		.loc 1 335 32 is_stmt 0 view .LVU50
 175 0000 D0F8B802 		ldr	r0, [r0, #696]
 176              	.LVL19:
 336:Middlewares/ST/STM32_USB_Device_Library/Class/MSC/Src/usbd_msc_scsi.c ****   uint16_t len = 8U;
 177              		.loc 1 336 3 is_stmt 1 view .LVU51
 337:Middlewares/ST/STM32_USB_Device_Library/Class/MSC/Src/usbd_msc_scsi.c ****   hmsc->bot_data_length = len;
 178              		.loc 1 337 3 view .LVU52
 179              		.loc 1 337 25 is_stmt 0 view .LVU53
 180 0004 0823     		movs	r3, #8
 181 0006 4381     		strh	r3, [r0, #10]	@ movhi
 338:Middlewares/ST/STM32_USB_Device_Library/Class/MSC/Src/usbd_msc_scsi.c **** 
 339:Middlewares/ST/STM32_USB_Device_Library/Class/MSC/Src/usbd_msc_scsi.c ****   while (len)
 182              		.loc 1 339 3 is_stmt 1 view .LVU54
 183              		.loc 1 339 9 is_stmt 0 view .LVU55
 184 0008 05E0     		b	.L13
 185              	.LVL20:
 186              	.L14:
 340:Middlewares/ST/STM32_USB_Device_Library/Class/MSC/Src/usbd_msc_scsi.c ****   {
 341:Middlewares/ST/STM32_USB_Device_Library/Class/MSC/Src/usbd_msc_scsi.c ****     len--;
 187              		.loc 1 341 5 is_stmt 1 view .LVU56
 188              		.loc 1 341 8 is_stmt 0 view .LVU57
 189 000a 013B     		subs	r3, r3, #1
 190              	.LVL21:
 191              		.loc 1 341 8 view .LVU58
 192 000c 9BB2     		uxth	r3, r3
 193              	.LVL22:
 342:Middlewares/ST/STM32_USB_Device_Library/Class/MSC/Src/usbd_msc_scsi.c ****     hmsc->bot_data[len] = MSC_Mode_Sense6_data[len];
 194              		.loc 1 342 5 is_stmt 1 view .LVU59
 195              		.loc 1 342 47 is_stmt 0 view .LVU60
 196 000e 044A     		ldr	r2, .L15
 197 0010 D15C     		ldrb	r1, [r2, r3]	@ zero_extendqisi2
 198              		.loc 1 342 25 view .LVU61
 199 0012 C218     		adds	r2, r0, r3
 200 0014 1173     		strb	r1, [r2, #12]
 201              	.LVL23:
 202              	.L13:
 339:Middlewares/ST/STM32_USB_Device_Library/Class/MSC/Src/usbd_msc_scsi.c ****   {
 203              		.loc 1 339 9 is_stmt 1 view .LVU62
 204 0016 002B     		cmp	r3, #0
 205 0018 F7D1     		bne	.L14
ARM GAS  C:\Users\Vento\AppData\Local\Temp\cclmUhoh.s 			page 11


 343:Middlewares/ST/STM32_USB_Device_Library/Class/MSC/Src/usbd_msc_scsi.c ****   }
 344:Middlewares/ST/STM32_USB_Device_Library/Class/MSC/Src/usbd_msc_scsi.c ****   return 0;
 206              		.loc 1 344 3 view .LVU63
 345:Middlewares/ST/STM32_USB_Device_Library/Class/MSC/Src/usbd_msc_scsi.c **** }
 207              		.loc 1 345 1 is_stmt 0 view .LVU64
 208 001a 0020     		movs	r0, #0
 209              	.LVL24:
 210              		.loc 1 345 1 view .LVU65
 211 001c 7047     		bx	lr
 212              	.L16:
 213 001e 00BF     		.align	2
 214              	.L15:
 215 0020 00000000 		.word	MSC_Mode_Sense6_data
 216              		.cfi_endproc
 217              	.LFE73:
 219              		.section	.text.SCSI_ModeSense10,"ax",%progbits
 220              		.align	1
 221              		.syntax unified
 222              		.thumb
 223              		.thumb_func
 224              		.fpu softvfp
 226              	SCSI_ModeSense10:
 227              	.LVL25:
 228              	.LFB74:
 346:Middlewares/ST/STM32_USB_Device_Library/Class/MSC/Src/usbd_msc_scsi.c **** 
 347:Middlewares/ST/STM32_USB_Device_Library/Class/MSC/Src/usbd_msc_scsi.c **** /**
 348:Middlewares/ST/STM32_USB_Device_Library/Class/MSC/Src/usbd_msc_scsi.c **** * @brief  SCSI_ModeSense10
 349:Middlewares/ST/STM32_USB_Device_Library/Class/MSC/Src/usbd_msc_scsi.c **** *         Process Mode Sense10 command
 350:Middlewares/ST/STM32_USB_Device_Library/Class/MSC/Src/usbd_msc_scsi.c **** * @param  lun: Logical unit number
 351:Middlewares/ST/STM32_USB_Device_Library/Class/MSC/Src/usbd_msc_scsi.c **** * @param  params: Command parameters
 352:Middlewares/ST/STM32_USB_Device_Library/Class/MSC/Src/usbd_msc_scsi.c **** * @retval status
 353:Middlewares/ST/STM32_USB_Device_Library/Class/MSC/Src/usbd_msc_scsi.c **** */
 354:Middlewares/ST/STM32_USB_Device_Library/Class/MSC/Src/usbd_msc_scsi.c **** static int8_t SCSI_ModeSense10(USBD_HandleTypeDef  *pdev, uint8_t lun, uint8_t *params)
 355:Middlewares/ST/STM32_USB_Device_Library/Class/MSC/Src/usbd_msc_scsi.c **** {
 229              		.loc 1 355 1 is_stmt 1 view -0
 230              		.cfi_startproc
 231              		@ args = 0, pretend = 0, frame = 0
 232              		@ frame_needed = 0, uses_anonymous_args = 0
 233              		@ link register save eliminated.
 356:Middlewares/ST/STM32_USB_Device_Library/Class/MSC/Src/usbd_msc_scsi.c ****   uint16_t len = 8U;
 234              		.loc 1 356 3 view .LVU67
 357:Middlewares/ST/STM32_USB_Device_Library/Class/MSC/Src/usbd_msc_scsi.c ****   USBD_MSC_BOT_HandleTypeDef  *hmsc = (USBD_MSC_BOT_HandleTypeDef *)pdev->pClassData;
 235              		.loc 1 357 3 view .LVU68
 236              		.loc 1 357 32 is_stmt 0 view .LVU69
 237 0000 D0F8B802 		ldr	r0, [r0, #696]
 238              	.LVL26:
 358:Middlewares/ST/STM32_USB_Device_Library/Class/MSC/Src/usbd_msc_scsi.c **** 
 359:Middlewares/ST/STM32_USB_Device_Library/Class/MSC/Src/usbd_msc_scsi.c ****   hmsc->bot_data_length = len;
 239              		.loc 1 359 3 is_stmt 1 view .LVU70
 240              		.loc 1 359 25 is_stmt 0 view .LVU71
 241 0004 0823     		movs	r3, #8
 242 0006 4381     		strh	r3, [r0, #10]	@ movhi
 360:Middlewares/ST/STM32_USB_Device_Library/Class/MSC/Src/usbd_msc_scsi.c **** 
 361:Middlewares/ST/STM32_USB_Device_Library/Class/MSC/Src/usbd_msc_scsi.c ****   while (len)
 243              		.loc 1 361 3 is_stmt 1 view .LVU72
 244              		.loc 1 361 9 is_stmt 0 view .LVU73
 245 0008 05E0     		b	.L18
ARM GAS  C:\Users\Vento\AppData\Local\Temp\cclmUhoh.s 			page 12


 246              	.LVL27:
 247              	.L19:
 362:Middlewares/ST/STM32_USB_Device_Library/Class/MSC/Src/usbd_msc_scsi.c ****   {
 363:Middlewares/ST/STM32_USB_Device_Library/Class/MSC/Src/usbd_msc_scsi.c ****     len--;
 248              		.loc 1 363 5 is_stmt 1 view .LVU74
 249              		.loc 1 363 8 is_stmt 0 view .LVU75
 250 000a 013B     		subs	r3, r3, #1
 251              	.LVL28:
 252              		.loc 1 363 8 view .LVU76
 253 000c 9BB2     		uxth	r3, r3
 254              	.LVL29:
 364:Middlewares/ST/STM32_USB_Device_Library/Class/MSC/Src/usbd_msc_scsi.c ****     hmsc->bot_data[len] = MSC_Mode_Sense10_data[len];
 255              		.loc 1 364 5 is_stmt 1 view .LVU77
 256              		.loc 1 364 48 is_stmt 0 view .LVU78
 257 000e 044A     		ldr	r2, .L20
 258 0010 D15C     		ldrb	r1, [r2, r3]	@ zero_extendqisi2
 259              		.loc 1 364 25 view .LVU79
 260 0012 C218     		adds	r2, r0, r3
 261 0014 1173     		strb	r1, [r2, #12]
 262              	.LVL30:
 263              	.L18:
 361:Middlewares/ST/STM32_USB_Device_Library/Class/MSC/Src/usbd_msc_scsi.c ****   {
 264              		.loc 1 361 9 is_stmt 1 view .LVU80
 265 0016 002B     		cmp	r3, #0
 266 0018 F7D1     		bne	.L19
 365:Middlewares/ST/STM32_USB_Device_Library/Class/MSC/Src/usbd_msc_scsi.c ****   }
 366:Middlewares/ST/STM32_USB_Device_Library/Class/MSC/Src/usbd_msc_scsi.c **** 
 367:Middlewares/ST/STM32_USB_Device_Library/Class/MSC/Src/usbd_msc_scsi.c ****   return 0;
 267              		.loc 1 367 3 view .LVU81
 368:Middlewares/ST/STM32_USB_Device_Library/Class/MSC/Src/usbd_msc_scsi.c **** }
 268              		.loc 1 368 1 is_stmt 0 view .LVU82
 269 001a 0020     		movs	r0, #0
 270              	.LVL31:
 271              		.loc 1 368 1 view .LVU83
 272 001c 7047     		bx	lr
 273              	.L21:
 274 001e 00BF     		.align	2
 275              	.L20:
 276 0020 00000000 		.word	MSC_Mode_Sense10_data
 277              		.cfi_endproc
 278              	.LFE74:
 280              		.section	.text.SCSI_RequestSense,"ax",%progbits
 281              		.align	1
 282              		.syntax unified
 283              		.thumb
 284              		.thumb_func
 285              		.fpu softvfp
 287              	SCSI_RequestSense:
 288              	.LVL32:
 289              	.LFB75:
 369:Middlewares/ST/STM32_USB_Device_Library/Class/MSC/Src/usbd_msc_scsi.c **** 
 370:Middlewares/ST/STM32_USB_Device_Library/Class/MSC/Src/usbd_msc_scsi.c **** /**
 371:Middlewares/ST/STM32_USB_Device_Library/Class/MSC/Src/usbd_msc_scsi.c **** * @brief  SCSI_RequestSense
 372:Middlewares/ST/STM32_USB_Device_Library/Class/MSC/Src/usbd_msc_scsi.c **** *         Process Request Sense command
 373:Middlewares/ST/STM32_USB_Device_Library/Class/MSC/Src/usbd_msc_scsi.c **** * @param  lun: Logical unit number
 374:Middlewares/ST/STM32_USB_Device_Library/Class/MSC/Src/usbd_msc_scsi.c **** * @param  params: Command parameters
 375:Middlewares/ST/STM32_USB_Device_Library/Class/MSC/Src/usbd_msc_scsi.c **** * @retval status
ARM GAS  C:\Users\Vento\AppData\Local\Temp\cclmUhoh.s 			page 13


 376:Middlewares/ST/STM32_USB_Device_Library/Class/MSC/Src/usbd_msc_scsi.c **** */
 377:Middlewares/ST/STM32_USB_Device_Library/Class/MSC/Src/usbd_msc_scsi.c **** 
 378:Middlewares/ST/STM32_USB_Device_Library/Class/MSC/Src/usbd_msc_scsi.c **** static int8_t SCSI_RequestSense(USBD_HandleTypeDef  *pdev, uint8_t lun, uint8_t *params)
 379:Middlewares/ST/STM32_USB_Device_Library/Class/MSC/Src/usbd_msc_scsi.c **** {
 290              		.loc 1 379 1 is_stmt 1 view -0
 291              		.cfi_startproc
 292              		@ args = 0, pretend = 0, frame = 0
 293              		@ frame_needed = 0, uses_anonymous_args = 0
 294              		@ link register save eliminated.
 295              		.loc 1 379 1 is_stmt 0 view .LVU85
 296 0000 10B4     		push	{r4}
 297              	.LCFI3:
 298              		.cfi_def_cfa_offset 4
 299              		.cfi_offset 4, -4
 380:Middlewares/ST/STM32_USB_Device_Library/Class/MSC/Src/usbd_msc_scsi.c ****   uint8_t i;
 300              		.loc 1 380 3 is_stmt 1 view .LVU86
 381:Middlewares/ST/STM32_USB_Device_Library/Class/MSC/Src/usbd_msc_scsi.c ****   USBD_MSC_BOT_HandleTypeDef  *hmsc = (USBD_MSC_BOT_HandleTypeDef *)pdev->pClassData;
 301              		.loc 1 381 3 view .LVU87
 302              		.loc 1 381 32 is_stmt 0 view .LVU88
 303 0002 D0F8B842 		ldr	r4, [r0, #696]
 304              	.LVL33:
 382:Middlewares/ST/STM32_USB_Device_Library/Class/MSC/Src/usbd_msc_scsi.c **** 
 383:Middlewares/ST/STM32_USB_Device_Library/Class/MSC/Src/usbd_msc_scsi.c ****   for (i = 0U ; i < REQUEST_SENSE_DATA_LEN; i++)
 305              		.loc 1 383 3 is_stmt 1 view .LVU89
 306              		.loc 1 383 10 is_stmt 0 view .LVU90
 307 0006 0023     		movs	r3, #0
 308              		.loc 1 383 3 view .LVU91
 309 0008 04E0     		b	.L23
 310              	.LVL34:
 311              	.L24:
 384:Middlewares/ST/STM32_USB_Device_Library/Class/MSC/Src/usbd_msc_scsi.c ****   {
 385:Middlewares/ST/STM32_USB_Device_Library/Class/MSC/Src/usbd_msc_scsi.c ****     hmsc->bot_data[i] = 0U;
 312              		.loc 1 385 5 is_stmt 1 discriminator 3 view .LVU92
 313              		.loc 1 385 23 is_stmt 0 discriminator 3 view .LVU93
 314 000a E118     		adds	r1, r4, r3
 315 000c 0020     		movs	r0, #0
 316 000e 0873     		strb	r0, [r1, #12]
 383:Middlewares/ST/STM32_USB_Device_Library/Class/MSC/Src/usbd_msc_scsi.c ****   {
 317              		.loc 1 383 45 is_stmt 1 discriminator 3 view .LVU94
 383:Middlewares/ST/STM32_USB_Device_Library/Class/MSC/Src/usbd_msc_scsi.c ****   {
 318              		.loc 1 383 46 is_stmt 0 discriminator 3 view .LVU95
 319 0010 0133     		adds	r3, r3, #1
 320              	.LVL35:
 383:Middlewares/ST/STM32_USB_Device_Library/Class/MSC/Src/usbd_msc_scsi.c ****   {
 321              		.loc 1 383 46 discriminator 3 view .LVU96
 322 0012 DBB2     		uxtb	r3, r3
 323              	.LVL36:
 324              	.L23:
 383:Middlewares/ST/STM32_USB_Device_Library/Class/MSC/Src/usbd_msc_scsi.c ****   {
 325              		.loc 1 383 17 is_stmt 1 discriminator 1 view .LVU97
 383:Middlewares/ST/STM32_USB_Device_Library/Class/MSC/Src/usbd_msc_scsi.c ****   {
 326              		.loc 1 383 3 is_stmt 0 discriminator 1 view .LVU98
 327 0014 112B     		cmp	r3, #17
 328 0016 F8D9     		bls	.L24
 386:Middlewares/ST/STM32_USB_Device_Library/Class/MSC/Src/usbd_msc_scsi.c ****   }
 387:Middlewares/ST/STM32_USB_Device_Library/Class/MSC/Src/usbd_msc_scsi.c **** 
 388:Middlewares/ST/STM32_USB_Device_Library/Class/MSC/Src/usbd_msc_scsi.c ****   hmsc->bot_data[0] = 0x70U;
ARM GAS  C:\Users\Vento\AppData\Local\Temp\cclmUhoh.s 			page 14


 329              		.loc 1 388 3 is_stmt 1 view .LVU99
 330              		.loc 1 388 21 is_stmt 0 view .LVU100
 331 0018 7023     		movs	r3, #112
 332              	.LVL37:
 333              		.loc 1 388 21 view .LVU101
 334 001a 2373     		strb	r3, [r4, #12]
 389:Middlewares/ST/STM32_USB_Device_Library/Class/MSC/Src/usbd_msc_scsi.c ****   hmsc->bot_data[7] = REQUEST_SENSE_DATA_LEN - 6U;
 335              		.loc 1 389 3 is_stmt 1 view .LVU102
 336              		.loc 1 389 21 is_stmt 0 view .LVU103
 337 001c 0C23     		movs	r3, #12
 338 001e E374     		strb	r3, [r4, #19]
 390:Middlewares/ST/STM32_USB_Device_Library/Class/MSC/Src/usbd_msc_scsi.c **** 
 391:Middlewares/ST/STM32_USB_Device_Library/Class/MSC/Src/usbd_msc_scsi.c ****   if ((hmsc->scsi_sense_head != hmsc->scsi_sense_tail))
 339              		.loc 1 391 3 is_stmt 1 view .LVU104
 340              		.loc 1 391 12 is_stmt 0 view .LVU105
 341 0020 94F85C32 		ldrb	r3, [r4, #604]	@ zero_extendqisi2
 342              		.loc 1 391 37 view .LVU106
 343 0024 94F85D12 		ldrb	r1, [r4, #605]	@ zero_extendqisi2
 344              		.loc 1 391 6 view .LVU107
 345 0028 8B42     		cmp	r3, r1
 346 002a 0FD0     		beq	.L25
 392:Middlewares/ST/STM32_USB_Device_Library/Class/MSC/Src/usbd_msc_scsi.c ****   {
 393:Middlewares/ST/STM32_USB_Device_Library/Class/MSC/Src/usbd_msc_scsi.c **** 
 394:Middlewares/ST/STM32_USB_Device_Library/Class/MSC/Src/usbd_msc_scsi.c ****     hmsc->bot_data[2]     = hmsc->scsi_sense[hmsc->scsi_sense_head].Skey;
 347              		.loc 1 394 5 is_stmt 1 view .LVU108
 348              		.loc 1 394 68 is_stmt 0 view .LVU109
 349 002c 03F14701 		add	r1, r3, #71
 350 0030 04EBC101 		add	r1, r4, r1, lsl #3
 351 0034 0879     		ldrb	r0, [r1, #4]	@ zero_extendqisi2
 352              		.loc 1 394 27 view .LVU110
 353 0036 A073     		strb	r0, [r4, #14]
 395:Middlewares/ST/STM32_USB_Device_Library/Class/MSC/Src/usbd_msc_scsi.c ****     hmsc->bot_data[12]    = hmsc->scsi_sense[hmsc->scsi_sense_head].w.b.ASCQ;
 354              		.loc 1 395 5 is_stmt 1 view .LVU111
 355              		.loc 1 395 72 is_stmt 0 view .LVU112
 356 0038 487A     		ldrb	r0, [r1, #9]	@ zero_extendqisi2
 357              		.loc 1 395 27 view .LVU113
 358 003a 2076     		strb	r0, [r4, #24]
 396:Middlewares/ST/STM32_USB_Device_Library/Class/MSC/Src/usbd_msc_scsi.c ****     hmsc->bot_data[13]    = hmsc->scsi_sense[hmsc->scsi_sense_head].w.b.ASC;
 359              		.loc 1 396 5 is_stmt 1 view .LVU114
 360              		.loc 1 396 72 is_stmt 0 view .LVU115
 361 003c 097A     		ldrb	r1, [r1, #8]	@ zero_extendqisi2
 362              		.loc 1 396 27 view .LVU116
 363 003e 6176     		strb	r1, [r4, #25]
 397:Middlewares/ST/STM32_USB_Device_Library/Class/MSC/Src/usbd_msc_scsi.c ****     hmsc->scsi_sense_head++;
 364              		.loc 1 397 5 is_stmt 1 view .LVU117
 365              		.loc 1 397 26 is_stmt 0 view .LVU118
 366 0040 0133     		adds	r3, r3, #1
 367 0042 DBB2     		uxtb	r3, r3
 368 0044 84F85C32 		strb	r3, [r4, #604]
 398:Middlewares/ST/STM32_USB_Device_Library/Class/MSC/Src/usbd_msc_scsi.c **** 
 399:Middlewares/ST/STM32_USB_Device_Library/Class/MSC/Src/usbd_msc_scsi.c ****     if (hmsc->scsi_sense_head == SENSE_LIST_DEEPTH)
 369              		.loc 1 399 5 is_stmt 1 view .LVU119
 370              		.loc 1 399 8 is_stmt 0 view .LVU120
 371 0048 042B     		cmp	r3, #4
 372 004a 08D0     		beq	.L28
 373              	.L25:
 400:Middlewares/ST/STM32_USB_Device_Library/Class/MSC/Src/usbd_msc_scsi.c ****     {
ARM GAS  C:\Users\Vento\AppData\Local\Temp\cclmUhoh.s 			page 15


 401:Middlewares/ST/STM32_USB_Device_Library/Class/MSC/Src/usbd_msc_scsi.c ****       hmsc->scsi_sense_head = 0U;
 402:Middlewares/ST/STM32_USB_Device_Library/Class/MSC/Src/usbd_msc_scsi.c ****     }
 403:Middlewares/ST/STM32_USB_Device_Library/Class/MSC/Src/usbd_msc_scsi.c ****   }
 404:Middlewares/ST/STM32_USB_Device_Library/Class/MSC/Src/usbd_msc_scsi.c ****   hmsc->bot_data_length = REQUEST_SENSE_DATA_LEN;
 374              		.loc 1 404 3 is_stmt 1 view .LVU121
 375              		.loc 1 404 25 is_stmt 0 view .LVU122
 376 004c 1223     		movs	r3, #18
 377 004e 6381     		strh	r3, [r4, #10]	@ movhi
 405:Middlewares/ST/STM32_USB_Device_Library/Class/MSC/Src/usbd_msc_scsi.c **** 
 406:Middlewares/ST/STM32_USB_Device_Library/Class/MSC/Src/usbd_msc_scsi.c ****   if (params[4] <= REQUEST_SENSE_DATA_LEN)
 378              		.loc 1 406 3 is_stmt 1 view .LVU123
 379              		.loc 1 406 13 is_stmt 0 view .LVU124
 380 0050 1379     		ldrb	r3, [r2, #4]	@ zero_extendqisi2
 381              		.loc 1 406 6 view .LVU125
 382 0052 122B     		cmp	r3, #18
 383 0054 00D8     		bhi	.L26
 407:Middlewares/ST/STM32_USB_Device_Library/Class/MSC/Src/usbd_msc_scsi.c ****   {
 408:Middlewares/ST/STM32_USB_Device_Library/Class/MSC/Src/usbd_msc_scsi.c ****     hmsc->bot_data_length = params[4];
 384              		.loc 1 408 5 is_stmt 1 view .LVU126
 385              		.loc 1 408 27 is_stmt 0 view .LVU127
 386 0056 6381     		strh	r3, [r4, #10]	@ movhi
 387              	.L26:
 409:Middlewares/ST/STM32_USB_Device_Library/Class/MSC/Src/usbd_msc_scsi.c ****   }
 410:Middlewares/ST/STM32_USB_Device_Library/Class/MSC/Src/usbd_msc_scsi.c ****   return 0;
 388              		.loc 1 410 3 is_stmt 1 view .LVU128
 411:Middlewares/ST/STM32_USB_Device_Library/Class/MSC/Src/usbd_msc_scsi.c **** }
 389              		.loc 1 411 1 is_stmt 0 view .LVU129
 390 0058 0020     		movs	r0, #0
 391 005a 10BC     		pop	{r4}
 392              	.LCFI4:
 393              		.cfi_remember_state
 394              		.cfi_restore 4
 395              		.cfi_def_cfa_offset 0
 396              	.LVL38:
 397              		.loc 1 411 1 view .LVU130
 398 005c 7047     		bx	lr
 399              	.LVL39:
 400              	.L28:
 401              	.LCFI5:
 402              		.cfi_restore_state
 401:Middlewares/ST/STM32_USB_Device_Library/Class/MSC/Src/usbd_msc_scsi.c ****     }
 403              		.loc 1 401 7 is_stmt 1 view .LVU131
 401:Middlewares/ST/STM32_USB_Device_Library/Class/MSC/Src/usbd_msc_scsi.c ****     }
 404              		.loc 1 401 29 is_stmt 0 view .LVU132
 405 005e 0023     		movs	r3, #0
 406 0060 84F85C32 		strb	r3, [r4, #604]
 407 0064 F2E7     		b	.L25
 408              		.cfi_endproc
 409              	.LFE75:
 411              		.section	.text.SCSI_StartStopUnit,"ax",%progbits
 412              		.align	1
 413              		.syntax unified
 414              		.thumb
 415              		.thumb_func
 416              		.fpu softvfp
 418              	SCSI_StartStopUnit:
 419              	.LVL40:
ARM GAS  C:\Users\Vento\AppData\Local\Temp\cclmUhoh.s 			page 16


 420              	.LFB77:
 412:Middlewares/ST/STM32_USB_Device_Library/Class/MSC/Src/usbd_msc_scsi.c **** 
 413:Middlewares/ST/STM32_USB_Device_Library/Class/MSC/Src/usbd_msc_scsi.c **** /**
 414:Middlewares/ST/STM32_USB_Device_Library/Class/MSC/Src/usbd_msc_scsi.c **** * @brief  SCSI_SenseCode
 415:Middlewares/ST/STM32_USB_Device_Library/Class/MSC/Src/usbd_msc_scsi.c **** *         Load the last error code in the error list
 416:Middlewares/ST/STM32_USB_Device_Library/Class/MSC/Src/usbd_msc_scsi.c **** * @param  lun: Logical unit number
 417:Middlewares/ST/STM32_USB_Device_Library/Class/MSC/Src/usbd_msc_scsi.c **** * @param  sKey: Sense Key
 418:Middlewares/ST/STM32_USB_Device_Library/Class/MSC/Src/usbd_msc_scsi.c **** * @param  ASC: Additional Sense Key
 419:Middlewares/ST/STM32_USB_Device_Library/Class/MSC/Src/usbd_msc_scsi.c **** * @retval none
 420:Middlewares/ST/STM32_USB_Device_Library/Class/MSC/Src/usbd_msc_scsi.c **** 
 421:Middlewares/ST/STM32_USB_Device_Library/Class/MSC/Src/usbd_msc_scsi.c **** */
 422:Middlewares/ST/STM32_USB_Device_Library/Class/MSC/Src/usbd_msc_scsi.c **** void SCSI_SenseCode(USBD_HandleTypeDef  *pdev, uint8_t lun, uint8_t sKey, uint8_t ASC)
 423:Middlewares/ST/STM32_USB_Device_Library/Class/MSC/Src/usbd_msc_scsi.c **** {
 424:Middlewares/ST/STM32_USB_Device_Library/Class/MSC/Src/usbd_msc_scsi.c ****   USBD_MSC_BOT_HandleTypeDef  *hmsc = (USBD_MSC_BOT_HandleTypeDef *)pdev->pClassData;
 425:Middlewares/ST/STM32_USB_Device_Library/Class/MSC/Src/usbd_msc_scsi.c **** 
 426:Middlewares/ST/STM32_USB_Device_Library/Class/MSC/Src/usbd_msc_scsi.c ****   hmsc->scsi_sense[hmsc->scsi_sense_tail].Skey  = sKey;
 427:Middlewares/ST/STM32_USB_Device_Library/Class/MSC/Src/usbd_msc_scsi.c ****   hmsc->scsi_sense[hmsc->scsi_sense_tail].w.ASC = ASC << 8;
 428:Middlewares/ST/STM32_USB_Device_Library/Class/MSC/Src/usbd_msc_scsi.c ****   hmsc->scsi_sense_tail++;
 429:Middlewares/ST/STM32_USB_Device_Library/Class/MSC/Src/usbd_msc_scsi.c ****   if (hmsc->scsi_sense_tail == SENSE_LIST_DEEPTH)
 430:Middlewares/ST/STM32_USB_Device_Library/Class/MSC/Src/usbd_msc_scsi.c ****   {
 431:Middlewares/ST/STM32_USB_Device_Library/Class/MSC/Src/usbd_msc_scsi.c ****     hmsc->scsi_sense_tail = 0U;
 432:Middlewares/ST/STM32_USB_Device_Library/Class/MSC/Src/usbd_msc_scsi.c ****   }
 433:Middlewares/ST/STM32_USB_Device_Library/Class/MSC/Src/usbd_msc_scsi.c **** }
 434:Middlewares/ST/STM32_USB_Device_Library/Class/MSC/Src/usbd_msc_scsi.c **** /**
 435:Middlewares/ST/STM32_USB_Device_Library/Class/MSC/Src/usbd_msc_scsi.c **** * @brief  SCSI_StartStopUnit
 436:Middlewares/ST/STM32_USB_Device_Library/Class/MSC/Src/usbd_msc_scsi.c **** *         Process Start Stop Unit command
 437:Middlewares/ST/STM32_USB_Device_Library/Class/MSC/Src/usbd_msc_scsi.c **** * @param  lun: Logical unit number
 438:Middlewares/ST/STM32_USB_Device_Library/Class/MSC/Src/usbd_msc_scsi.c **** * @param  params: Command parameters
 439:Middlewares/ST/STM32_USB_Device_Library/Class/MSC/Src/usbd_msc_scsi.c **** * @retval status
 440:Middlewares/ST/STM32_USB_Device_Library/Class/MSC/Src/usbd_msc_scsi.c **** */
 441:Middlewares/ST/STM32_USB_Device_Library/Class/MSC/Src/usbd_msc_scsi.c **** static int8_t SCSI_StartStopUnit(USBD_HandleTypeDef  *pdev, uint8_t lun, uint8_t *params)
 442:Middlewares/ST/STM32_USB_Device_Library/Class/MSC/Src/usbd_msc_scsi.c **** {
 421              		.loc 1 442 1 is_stmt 1 view -0
 422              		.cfi_startproc
 423              		@ args = 0, pretend = 0, frame = 0
 424              		@ frame_needed = 0, uses_anonymous_args = 0
 425              		@ link register save eliminated.
 443:Middlewares/ST/STM32_USB_Device_Library/Class/MSC/Src/usbd_msc_scsi.c ****   USBD_MSC_BOT_HandleTypeDef  *hmsc = (USBD_MSC_BOT_HandleTypeDef *) pdev->pClassData;
 426              		.loc 1 443 3 view .LVU134
 427              		.loc 1 443 32 is_stmt 0 view .LVU135
 428 0000 D0F8B832 		ldr	r3, [r0, #696]
 429              	.LVL41:
 444:Middlewares/ST/STM32_USB_Device_Library/Class/MSC/Src/usbd_msc_scsi.c ****   hmsc->bot_data_length = 0U;
 430              		.loc 1 444 3 is_stmt 1 view .LVU136
 431              		.loc 1 444 25 is_stmt 0 view .LVU137
 432 0004 0020     		movs	r0, #0
 433              	.LVL42:
 434              		.loc 1 444 25 view .LVU138
 435 0006 5881     		strh	r0, [r3, #10]	@ movhi
 445:Middlewares/ST/STM32_USB_Device_Library/Class/MSC/Src/usbd_msc_scsi.c ****   return 0;
 436              		.loc 1 445 3 is_stmt 1 view .LVU139
 446:Middlewares/ST/STM32_USB_Device_Library/Class/MSC/Src/usbd_msc_scsi.c **** }
 437              		.loc 1 446 1 is_stmt 0 view .LVU140
 438 0008 7047     		bx	lr
 439              		.cfi_endproc
 440              	.LFE77:
 442              		.section	.text.SCSI_SenseCode,"ax",%progbits
ARM GAS  C:\Users\Vento\AppData\Local\Temp\cclmUhoh.s 			page 17


 443              		.align	1
 444              		.global	SCSI_SenseCode
 445              		.syntax unified
 446              		.thumb
 447              		.thumb_func
 448              		.fpu softvfp
 450              	SCSI_SenseCode:
 451              	.LVL43:
 452              	.LFB76:
 423:Middlewares/ST/STM32_USB_Device_Library/Class/MSC/Src/usbd_msc_scsi.c ****   USBD_MSC_BOT_HandleTypeDef  *hmsc = (USBD_MSC_BOT_HandleTypeDef *)pdev->pClassData;
 453              		.loc 1 423 1 is_stmt 1 view -0
 454              		.cfi_startproc
 455              		@ args = 0, pretend = 0, frame = 0
 456              		@ frame_needed = 0, uses_anonymous_args = 0
 457              		@ link register save eliminated.
 424:Middlewares/ST/STM32_USB_Device_Library/Class/MSC/Src/usbd_msc_scsi.c **** 
 458              		.loc 1 424 3 view .LVU142
 424:Middlewares/ST/STM32_USB_Device_Library/Class/MSC/Src/usbd_msc_scsi.c **** 
 459              		.loc 1 424 32 is_stmt 0 view .LVU143
 460 0000 D0F8B802 		ldr	r0, [r0, #696]
 461              	.LVL44:
 426:Middlewares/ST/STM32_USB_Device_Library/Class/MSC/Src/usbd_msc_scsi.c ****   hmsc->scsi_sense[hmsc->scsi_sense_tail].w.ASC = ASC << 8;
 462              		.loc 1 426 3 is_stmt 1 view .LVU144
 426:Middlewares/ST/STM32_USB_Device_Library/Class/MSC/Src/usbd_msc_scsi.c ****   hmsc->scsi_sense[hmsc->scsi_sense_tail].w.ASC = ASC << 8;
 463              		.loc 1 426 24 is_stmt 0 view .LVU145
 464 0004 90F85D32 		ldrb	r3, [r0, #605]	@ zero_extendqisi2
 465              	.LVL45:
 426:Middlewares/ST/STM32_USB_Device_Library/Class/MSC/Src/usbd_msc_scsi.c ****   hmsc->scsi_sense[hmsc->scsi_sense_tail].w.ASC = ASC << 8;
 466              		.loc 1 426 49 view .LVU146
 467 0008 03F14701 		add	r1, r3, #71
 468              	.LVL46:
 426:Middlewares/ST/STM32_USB_Device_Library/Class/MSC/Src/usbd_msc_scsi.c ****   hmsc->scsi_sense[hmsc->scsi_sense_tail].w.ASC = ASC << 8;
 469              		.loc 1 426 49 view .LVU147
 470 000c 00EBC101 		add	r1, r0, r1, lsl #3
 471 0010 0A71     		strb	r2, [r1, #4]
 427:Middlewares/ST/STM32_USB_Device_Library/Class/MSC/Src/usbd_msc_scsi.c ****   hmsc->scsi_sense_tail++;
 472              		.loc 1 427 3 is_stmt 1 view .LVU148
 427:Middlewares/ST/STM32_USB_Device_Library/Class/MSC/Src/usbd_msc_scsi.c ****   hmsc->scsi_sense_tail++;
 473              		.loc 1 427 49 is_stmt 0 view .LVU149
 474 0012 0022     		movs	r2, #0
 475              	.LVL47:
 427:Middlewares/ST/STM32_USB_Device_Library/Class/MSC/Src/usbd_msc_scsi.c ****   hmsc->scsi_sense_tail++;
 476              		.loc 1 427 49 view .LVU150
 477 0014 0A72     		strb	r2, [r1, #8]
 428:Middlewares/ST/STM32_USB_Device_Library/Class/MSC/Src/usbd_msc_scsi.c ****   if (hmsc->scsi_sense_tail == SENSE_LIST_DEEPTH)
 478              		.loc 1 428 3 is_stmt 1 view .LVU151
 428:Middlewares/ST/STM32_USB_Device_Library/Class/MSC/Src/usbd_msc_scsi.c ****   if (hmsc->scsi_sense_tail == SENSE_LIST_DEEPTH)
 479              		.loc 1 428 24 is_stmt 0 view .LVU152
 480 0016 0133     		adds	r3, r3, #1
 481 0018 DBB2     		uxtb	r3, r3
 482 001a 80F85D32 		strb	r3, [r0, #605]
 483              	.LVL48:
 429:Middlewares/ST/STM32_USB_Device_Library/Class/MSC/Src/usbd_msc_scsi.c ****   {
 484              		.loc 1 429 3 is_stmt 1 view .LVU153
 429:Middlewares/ST/STM32_USB_Device_Library/Class/MSC/Src/usbd_msc_scsi.c ****   {
 485              		.loc 1 429 6 is_stmt 0 view .LVU154
 486 001e 042B     		cmp	r3, #4
ARM GAS  C:\Users\Vento\AppData\Local\Temp\cclmUhoh.s 			page 18


 487 0020 00D0     		beq	.L32
 488              	.L30:
 433:Middlewares/ST/STM32_USB_Device_Library/Class/MSC/Src/usbd_msc_scsi.c **** /**
 489              		.loc 1 433 1 view .LVU155
 490 0022 7047     		bx	lr
 491              	.L32:
 431:Middlewares/ST/STM32_USB_Device_Library/Class/MSC/Src/usbd_msc_scsi.c ****   }
 492              		.loc 1 431 5 is_stmt 1 view .LVU156
 431:Middlewares/ST/STM32_USB_Device_Library/Class/MSC/Src/usbd_msc_scsi.c ****   }
 493              		.loc 1 431 27 is_stmt 0 view .LVU157
 494 0024 80F85D22 		strb	r2, [r0, #605]
 433:Middlewares/ST/STM32_USB_Device_Library/Class/MSC/Src/usbd_msc_scsi.c **** /**
 495              		.loc 1 433 1 view .LVU158
 496 0028 FBE7     		b	.L30
 497              		.cfi_endproc
 498              	.LFE76:
 500              		.section	.text.SCSI_TestUnitReady,"ax",%progbits
 501              		.align	1
 502              		.syntax unified
 503              		.thumb
 504              		.thumb_func
 505              		.fpu softvfp
 507              	SCSI_TestUnitReady:
 508              	.LVL49:
 509              	.LFB69:
 183:Middlewares/ST/STM32_USB_Device_Library/Class/MSC/Src/usbd_msc_scsi.c ****   USBD_MSC_BOT_HandleTypeDef  *hmsc = (USBD_MSC_BOT_HandleTypeDef *)pdev->pClassData;
 510              		.loc 1 183 1 is_stmt 1 view -0
 511              		.cfi_startproc
 512              		@ args = 0, pretend = 0, frame = 0
 513              		@ frame_needed = 0, uses_anonymous_args = 0
 183:Middlewares/ST/STM32_USB_Device_Library/Class/MSC/Src/usbd_msc_scsi.c ****   USBD_MSC_BOT_HandleTypeDef  *hmsc = (USBD_MSC_BOT_HandleTypeDef *)pdev->pClassData;
 514              		.loc 1 183 1 is_stmt 0 view .LVU160
 515 0000 70B5     		push	{r4, r5, r6, lr}
 516              	.LCFI6:
 517              		.cfi_def_cfa_offset 16
 518              		.cfi_offset 4, -16
 519              		.cfi_offset 5, -12
 520              		.cfi_offset 6, -8
 521              		.cfi_offset 14, -4
 522 0002 0446     		mov	r4, r0
 184:Middlewares/ST/STM32_USB_Device_Library/Class/MSC/Src/usbd_msc_scsi.c **** 
 523              		.loc 1 184 3 is_stmt 1 view .LVU161
 184:Middlewares/ST/STM32_USB_Device_Library/Class/MSC/Src/usbd_msc_scsi.c **** 
 524              		.loc 1 184 32 is_stmt 0 view .LVU162
 525 0004 D0F8B862 		ldr	r6, [r0, #696]
 526              	.LVL50:
 187:Middlewares/ST/STM32_USB_Device_Library/Class/MSC/Src/usbd_msc_scsi.c ****   {
 527              		.loc 1 187 3 is_stmt 1 view .LVU163
 187:Middlewares/ST/STM32_USB_Device_Library/Class/MSC/Src/usbd_msc_scsi.c ****   {
 528              		.loc 1 187 16 is_stmt 0 view .LVU164
 529 0008 D6F81432 		ldr	r3, [r6, #532]
 187:Middlewares/ST/STM32_USB_Device_Library/Class/MSC/Src/usbd_msc_scsi.c ****   {
 530              		.loc 1 187 6 view .LVU165
 531 000c 4BB9     		cbnz	r3, .L38
 532 000e 0D46     		mov	r5, r1
 194:Middlewares/ST/STM32_USB_Device_Library/Class/MSC/Src/usbd_msc_scsi.c ****   {
 533              		.loc 1 194 3 is_stmt 1 view .LVU166
ARM GAS  C:\Users\Vento\AppData\Local\Temp\cclmUhoh.s 			page 19


 194:Middlewares/ST/STM32_USB_Device_Library/Class/MSC/Src/usbd_msc_scsi.c ****   {
 534              		.loc 1 194 35 is_stmt 0 view .LVU167
 535 0010 D0F8BC32 		ldr	r3, [r0, #700]
 194:Middlewares/ST/STM32_USB_Device_Library/Class/MSC/Src/usbd_msc_scsi.c ****   {
 536              		.loc 1 194 47 view .LVU168
 537 0014 9B68     		ldr	r3, [r3, #8]
 194:Middlewares/ST/STM32_USB_Device_Library/Class/MSC/Src/usbd_msc_scsi.c ****   {
 538              		.loc 1 194 8 view .LVU169
 539 0016 0846     		mov	r0, r1
 540              	.LVL51:
 194:Middlewares/ST/STM32_USB_Device_Library/Class/MSC/Src/usbd_msc_scsi.c ****   {
 541              		.loc 1 194 8 view .LVU170
 542 0018 9847     		blx	r3
 543              	.LVL52:
 194:Middlewares/ST/STM32_USB_Device_Library/Class/MSC/Src/usbd_msc_scsi.c ****   {
 544              		.loc 1 194 6 view .LVU171
 545 001a 58B9     		cbnz	r0, .L39
 201:Middlewares/ST/STM32_USB_Device_Library/Class/MSC/Src/usbd_msc_scsi.c **** 
 546              		.loc 1 201 3 is_stmt 1 view .LVU172
 201:Middlewares/ST/STM32_USB_Device_Library/Class/MSC/Src/usbd_msc_scsi.c **** 
 547              		.loc 1 201 25 is_stmt 0 view .LVU173
 548 001c 0023     		movs	r3, #0
 549 001e 7381     		strh	r3, [r6, #10]	@ movhi
 203:Middlewares/ST/STM32_USB_Device_Library/Class/MSC/Src/usbd_msc_scsi.c **** }
 550              		.loc 1 203 3 is_stmt 1 view .LVU174
 551              	.L35:
 204:Middlewares/ST/STM32_USB_Device_Library/Class/MSC/Src/usbd_msc_scsi.c **** 
 552              		.loc 1 204 1 is_stmt 0 view .LVU175
 553 0020 70BD     		pop	{r4, r5, r6, pc}
 554              	.LVL53:
 555              	.L38:
 189:Middlewares/ST/STM32_USB_Device_Library/Class/MSC/Src/usbd_msc_scsi.c **** 
 556              		.loc 1 189 5 is_stmt 1 view .LVU176
 557 0022 2023     		movs	r3, #32
 558 0024 0522     		movs	r2, #5
 559              	.LVL54:
 189:Middlewares/ST/STM32_USB_Device_Library/Class/MSC/Src/usbd_msc_scsi.c **** 
 560              		.loc 1 189 5 is_stmt 0 view .LVU177
 561 0026 96F81912 		ldrb	r1, [r6, #537]	@ zero_extendqisi2
 562              	.LVL55:
 189:Middlewares/ST/STM32_USB_Device_Library/Class/MSC/Src/usbd_msc_scsi.c **** 
 563              		.loc 1 189 5 view .LVU178
 564 002a FFF7FEFF 		bl	SCSI_SenseCode
 565              	.LVL56:
 191:Middlewares/ST/STM32_USB_Device_Library/Class/MSC/Src/usbd_msc_scsi.c ****   }
 566              		.loc 1 191 5 is_stmt 1 view .LVU179
 191:Middlewares/ST/STM32_USB_Device_Library/Class/MSC/Src/usbd_msc_scsi.c ****   }
 567              		.loc 1 191 12 is_stmt 0 view .LVU180
 568 002e 4FF0FF30 		mov	r0, #-1
 569 0032 F5E7     		b	.L35
 570              	.L39:
 196:Middlewares/ST/STM32_USB_Device_Library/Class/MSC/Src/usbd_msc_scsi.c ****     hmsc->bot_state = USBD_BOT_NO_DATA;
 571              		.loc 1 196 5 is_stmt 1 view .LVU181
 572 0034 3A23     		movs	r3, #58
 573 0036 0222     		movs	r2, #2
 574 0038 2946     		mov	r1, r5
 575 003a 2046     		mov	r0, r4
ARM GAS  C:\Users\Vento\AppData\Local\Temp\cclmUhoh.s 			page 20


 576 003c FFF7FEFF 		bl	SCSI_SenseCode
 577              	.LVL57:
 197:Middlewares/ST/STM32_USB_Device_Library/Class/MSC/Src/usbd_msc_scsi.c **** 
 578              		.loc 1 197 5 view .LVU182
 197:Middlewares/ST/STM32_USB_Device_Library/Class/MSC/Src/usbd_msc_scsi.c **** 
 579              		.loc 1 197 21 is_stmt 0 view .LVU183
 580 0040 0523     		movs	r3, #5
 581 0042 3372     		strb	r3, [r6, #8]
 199:Middlewares/ST/STM32_USB_Device_Library/Class/MSC/Src/usbd_msc_scsi.c ****   }
 582              		.loc 1 199 5 is_stmt 1 view .LVU184
 199:Middlewares/ST/STM32_USB_Device_Library/Class/MSC/Src/usbd_msc_scsi.c ****   }
 583              		.loc 1 199 12 is_stmt 0 view .LVU185
 584 0044 4FF0FF30 		mov	r0, #-1
 585 0048 EAE7     		b	.L35
 586              		.cfi_endproc
 587              	.LFE69:
 589              		.section	.text.SCSI_ReadFormatCapacity,"ax",%progbits
 590              		.align	1
 591              		.syntax unified
 592              		.thumb
 593              		.thumb_func
 594              		.fpu softvfp
 596              	SCSI_ReadFormatCapacity:
 597              	.LVL58:
 598              	.LFB72:
 292:Middlewares/ST/STM32_USB_Device_Library/Class/MSC/Src/usbd_msc_scsi.c ****   USBD_MSC_BOT_HandleTypeDef  *hmsc = (USBD_MSC_BOT_HandleTypeDef *)pdev->pClassData;
 599              		.loc 1 292 1 is_stmt 1 view -0
 600              		.cfi_startproc
 601              		@ args = 0, pretend = 0, frame = 8
 602              		@ frame_needed = 0, uses_anonymous_args = 0
 292:Middlewares/ST/STM32_USB_Device_Library/Class/MSC/Src/usbd_msc_scsi.c ****   USBD_MSC_BOT_HandleTypeDef  *hmsc = (USBD_MSC_BOT_HandleTypeDef *)pdev->pClassData;
 603              		.loc 1 292 1 is_stmt 0 view .LVU187
 604 0000 70B5     		push	{r4, r5, r6, lr}
 605              	.LCFI7:
 606              		.cfi_def_cfa_offset 16
 607              		.cfi_offset 4, -16
 608              		.cfi_offset 5, -12
 609              		.cfi_offset 6, -8
 610              		.cfi_offset 14, -4
 611 0002 82B0     		sub	sp, sp, #8
 612              	.LCFI8:
 613              		.cfi_def_cfa_offset 24
 614 0004 0546     		mov	r5, r0
 615 0006 0E46     		mov	r6, r1
 293:Middlewares/ST/STM32_USB_Device_Library/Class/MSC/Src/usbd_msc_scsi.c **** 
 616              		.loc 1 293 3 is_stmt 1 view .LVU188
 293:Middlewares/ST/STM32_USB_Device_Library/Class/MSC/Src/usbd_msc_scsi.c **** 
 617              		.loc 1 293 32 is_stmt 0 view .LVU189
 618 0008 D0F8B842 		ldr	r4, [r0, #696]
 619              	.LVL59:
 295:Middlewares/ST/STM32_USB_Device_Library/Class/MSC/Src/usbd_msc_scsi.c ****   uint32_t blk_nbr;
 620              		.loc 1 295 3 is_stmt 1 view .LVU190
 296:Middlewares/ST/STM32_USB_Device_Library/Class/MSC/Src/usbd_msc_scsi.c ****   uint16_t i;
 621              		.loc 1 296 3 view .LVU191
 297:Middlewares/ST/STM32_USB_Device_Library/Class/MSC/Src/usbd_msc_scsi.c **** 
 622              		.loc 1 297 3 view .LVU192
 299:Middlewares/ST/STM32_USB_Device_Library/Class/MSC/Src/usbd_msc_scsi.c ****   {
ARM GAS  C:\Users\Vento\AppData\Local\Temp\cclmUhoh.s 			page 21


 623              		.loc 1 299 3 view .LVU193
 299:Middlewares/ST/STM32_USB_Device_Library/Class/MSC/Src/usbd_msc_scsi.c ****   {
 624              		.loc 1 299 10 is_stmt 0 view .LVU194
 625 000c 0023     		movs	r3, #0
 299:Middlewares/ST/STM32_USB_Device_Library/Class/MSC/Src/usbd_msc_scsi.c ****   {
 626              		.loc 1 299 3 view .LVU195
 627 000e 06E0     		b	.L41
 628              	.LVL60:
 629              	.L42:
 301:Middlewares/ST/STM32_USB_Device_Library/Class/MSC/Src/usbd_msc_scsi.c ****   }
 630              		.loc 1 301 5 is_stmt 1 discriminator 3 view .LVU196
 301:Middlewares/ST/STM32_USB_Device_Library/Class/MSC/Src/usbd_msc_scsi.c ****   }
 631              		.loc 1 301 23 is_stmt 0 discriminator 3 view .LVU197
 632 0010 E218     		adds	r2, r4, r3
 633 0012 4FF0000C 		mov	ip, #0
 634 0016 82F80CC0 		strb	ip, [r2, #12]
 299:Middlewares/ST/STM32_USB_Device_Library/Class/MSC/Src/usbd_msc_scsi.c ****   {
 635              		.loc 1 299 26 is_stmt 1 discriminator 3 view .LVU198
 299:Middlewares/ST/STM32_USB_Device_Library/Class/MSC/Src/usbd_msc_scsi.c ****   {
 636              		.loc 1 299 27 is_stmt 0 discriminator 3 view .LVU199
 637 001a 0133     		adds	r3, r3, #1
 638              	.LVL61:
 299:Middlewares/ST/STM32_USB_Device_Library/Class/MSC/Src/usbd_msc_scsi.c ****   {
 639              		.loc 1 299 27 discriminator 3 view .LVU200
 640 001c 9BB2     		uxth	r3, r3
 641              	.LVL62:
 642              	.L41:
 299:Middlewares/ST/STM32_USB_Device_Library/Class/MSC/Src/usbd_msc_scsi.c ****   {
 643              		.loc 1 299 16 is_stmt 1 discriminator 1 view .LVU201
 299:Middlewares/ST/STM32_USB_Device_Library/Class/MSC/Src/usbd_msc_scsi.c ****   {
 644              		.loc 1 299 3 is_stmt 0 discriminator 1 view .LVU202
 645 001e 0B2B     		cmp	r3, #11
 646 0020 F6D9     		bls	.L42
 304:Middlewares/ST/STM32_USB_Device_Library/Class/MSC/Src/usbd_msc_scsi.c ****   {
 647              		.loc 1 304 3 is_stmt 1 view .LVU203
 304:Middlewares/ST/STM32_USB_Device_Library/Class/MSC/Src/usbd_msc_scsi.c ****   {
 648              		.loc 1 304 35 is_stmt 0 view .LVU204
 649 0022 D5F8BC32 		ldr	r3, [r5, #700]
 650              	.LVL63:
 304:Middlewares/ST/STM32_USB_Device_Library/Class/MSC/Src/usbd_msc_scsi.c ****   {
 651              		.loc 1 304 47 view .LVU205
 652 0026 5B68     		ldr	r3, [r3, #4]
 304:Middlewares/ST/STM32_USB_Device_Library/Class/MSC/Src/usbd_msc_scsi.c ****   {
 653              		.loc 1 304 8 view .LVU206
 654 0028 0DF10602 		add	r2, sp, #6
 655 002c 6946     		mov	r1, sp
 656              	.LVL64:
 304:Middlewares/ST/STM32_USB_Device_Library/Class/MSC/Src/usbd_msc_scsi.c ****   {
 657              		.loc 1 304 8 view .LVU207
 658 002e 3046     		mov	r0, r6
 659              	.LVL65:
 304:Middlewares/ST/STM32_USB_Device_Library/Class/MSC/Src/usbd_msc_scsi.c ****   {
 660              		.loc 1 304 8 view .LVU208
 661 0030 9847     		blx	r3
 662              	.LVL66:
 304:Middlewares/ST/STM32_USB_Device_Library/Class/MSC/Src/usbd_msc_scsi.c ****   {
 663              		.loc 1 304 6 view .LVU209
ARM GAS  C:\Users\Vento\AppData\Local\Temp\cclmUhoh.s 			page 22


 664 0032 D0B9     		cbnz	r0, .L46
 311:Middlewares/ST/STM32_USB_Device_Library/Class/MSC/Src/usbd_msc_scsi.c ****     hmsc->bot_data[4] = (uint8_t)((blk_nbr - 1U) >> 24);
 665              		.loc 1 311 5 is_stmt 1 view .LVU210
 311:Middlewares/ST/STM32_USB_Device_Library/Class/MSC/Src/usbd_msc_scsi.c ****     hmsc->bot_data[4] = (uint8_t)((blk_nbr - 1U) >> 24);
 666              		.loc 1 311 23 is_stmt 0 view .LVU211
 667 0034 0823     		movs	r3, #8
 668 0036 E373     		strb	r3, [r4, #15]
 312:Middlewares/ST/STM32_USB_Device_Library/Class/MSC/Src/usbd_msc_scsi.c ****     hmsc->bot_data[5] = (uint8_t)((blk_nbr - 1U) >> 16);
 669              		.loc 1 312 5 is_stmt 1 view .LVU212
 312:Middlewares/ST/STM32_USB_Device_Library/Class/MSC/Src/usbd_msc_scsi.c ****     hmsc->bot_data[5] = (uint8_t)((blk_nbr - 1U) >> 16);
 670              		.loc 1 312 44 is_stmt 0 view .LVU213
 671 0038 009A     		ldr	r2, [sp]
 672 003a 531E     		subs	r3, r2, #1
 312:Middlewares/ST/STM32_USB_Device_Library/Class/MSC/Src/usbd_msc_scsi.c ****     hmsc->bot_data[5] = (uint8_t)((blk_nbr - 1U) >> 16);
 673              		.loc 1 312 25 view .LVU214
 674 003c 190E     		lsrs	r1, r3, #24
 312:Middlewares/ST/STM32_USB_Device_Library/Class/MSC/Src/usbd_msc_scsi.c ****     hmsc->bot_data[5] = (uint8_t)((blk_nbr - 1U) >> 16);
 675              		.loc 1 312 23 view .LVU215
 676 003e 2174     		strb	r1, [r4, #16]
 313:Middlewares/ST/STM32_USB_Device_Library/Class/MSC/Src/usbd_msc_scsi.c ****     hmsc->bot_data[6] = (uint8_t)((blk_nbr - 1U) >>  8);
 677              		.loc 1 313 5 is_stmt 1 view .LVU216
 313:Middlewares/ST/STM32_USB_Device_Library/Class/MSC/Src/usbd_msc_scsi.c ****     hmsc->bot_data[6] = (uint8_t)((blk_nbr - 1U) >>  8);
 678              		.loc 1 313 25 is_stmt 0 view .LVU217
 679 0040 C3F30741 		ubfx	r1, r3, #16, #8
 313:Middlewares/ST/STM32_USB_Device_Library/Class/MSC/Src/usbd_msc_scsi.c ****     hmsc->bot_data[6] = (uint8_t)((blk_nbr - 1U) >>  8);
 680              		.loc 1 313 23 view .LVU218
 681 0044 6174     		strb	r1, [r4, #17]
 314:Middlewares/ST/STM32_USB_Device_Library/Class/MSC/Src/usbd_msc_scsi.c ****     hmsc->bot_data[7] = (uint8_t)(blk_nbr - 1U);
 682              		.loc 1 314 5 is_stmt 1 view .LVU219
 314:Middlewares/ST/STM32_USB_Device_Library/Class/MSC/Src/usbd_msc_scsi.c ****     hmsc->bot_data[7] = (uint8_t)(blk_nbr - 1U);
 683              		.loc 1 314 25 is_stmt 0 view .LVU220
 684 0046 C3F30723 		ubfx	r3, r3, #8, #8
 314:Middlewares/ST/STM32_USB_Device_Library/Class/MSC/Src/usbd_msc_scsi.c ****     hmsc->bot_data[7] = (uint8_t)(blk_nbr - 1U);
 685              		.loc 1 314 23 view .LVU221
 686 004a A374     		strb	r3, [r4, #18]
 315:Middlewares/ST/STM32_USB_Device_Library/Class/MSC/Src/usbd_msc_scsi.c **** 
 687              		.loc 1 315 5 is_stmt 1 view .LVU222
 315:Middlewares/ST/STM32_USB_Device_Library/Class/MSC/Src/usbd_msc_scsi.c **** 
 688              		.loc 1 315 25 is_stmt 0 view .LVU223
 689 004c 013A     		subs	r2, r2, #1
 315:Middlewares/ST/STM32_USB_Device_Library/Class/MSC/Src/usbd_msc_scsi.c **** 
 690              		.loc 1 315 23 view .LVU224
 691 004e E274     		strb	r2, [r4, #19]
 317:Middlewares/ST/STM32_USB_Device_Library/Class/MSC/Src/usbd_msc_scsi.c ****     hmsc->bot_data[9] = (uint8_t)(blk_size >>  16);
 692              		.loc 1 317 5 is_stmt 1 view .LVU225
 317:Middlewares/ST/STM32_USB_Device_Library/Class/MSC/Src/usbd_msc_scsi.c ****     hmsc->bot_data[9] = (uint8_t)(blk_size >>  16);
 693              		.loc 1 317 23 is_stmt 0 view .LVU226
 694 0050 0223     		movs	r3, #2
 695 0052 2375     		strb	r3, [r4, #20]
 318:Middlewares/ST/STM32_USB_Device_Library/Class/MSC/Src/usbd_msc_scsi.c ****     hmsc->bot_data[10] = (uint8_t)(blk_size >>  8);
 696              		.loc 1 318 5 is_stmt 1 view .LVU227
 318:Middlewares/ST/STM32_USB_Device_Library/Class/MSC/Src/usbd_msc_scsi.c ****     hmsc->bot_data[10] = (uint8_t)(blk_size >>  8);
 697              		.loc 1 318 44 is_stmt 0 view .LVU228
 698 0054 BDF80630 		ldrh	r3, [sp, #6]
 318:Middlewares/ST/STM32_USB_Device_Library/Class/MSC/Src/usbd_msc_scsi.c ****     hmsc->bot_data[10] = (uint8_t)(blk_size >>  8);
 699              		.loc 1 318 25 view .LVU229
 700 0058 0022     		movs	r2, #0
ARM GAS  C:\Users\Vento\AppData\Local\Temp\cclmUhoh.s 			page 23


 318:Middlewares/ST/STM32_USB_Device_Library/Class/MSC/Src/usbd_msc_scsi.c ****     hmsc->bot_data[10] = (uint8_t)(blk_size >>  8);
 701              		.loc 1 318 23 view .LVU230
 702 005a 6275     		strb	r2, [r4, #21]
 319:Middlewares/ST/STM32_USB_Device_Library/Class/MSC/Src/usbd_msc_scsi.c ****     hmsc->bot_data[11] = (uint8_t)(blk_size);
 703              		.loc 1 319 5 is_stmt 1 view .LVU231
 319:Middlewares/ST/STM32_USB_Device_Library/Class/MSC/Src/usbd_msc_scsi.c ****     hmsc->bot_data[11] = (uint8_t)(blk_size);
 704              		.loc 1 319 26 is_stmt 0 view .LVU232
 705 005c 1A0A     		lsrs	r2, r3, #8
 319:Middlewares/ST/STM32_USB_Device_Library/Class/MSC/Src/usbd_msc_scsi.c ****     hmsc->bot_data[11] = (uint8_t)(blk_size);
 706              		.loc 1 319 24 view .LVU233
 707 005e A275     		strb	r2, [r4, #22]
 320:Middlewares/ST/STM32_USB_Device_Library/Class/MSC/Src/usbd_msc_scsi.c **** 
 708              		.loc 1 320 5 is_stmt 1 view .LVU234
 320:Middlewares/ST/STM32_USB_Device_Library/Class/MSC/Src/usbd_msc_scsi.c **** 
 709              		.loc 1 320 24 is_stmt 0 view .LVU235
 710 0060 E375     		strb	r3, [r4, #23]
 322:Middlewares/ST/STM32_USB_Device_Library/Class/MSC/Src/usbd_msc_scsi.c ****     return 0;
 711              		.loc 1 322 5 is_stmt 1 view .LVU236
 322:Middlewares/ST/STM32_USB_Device_Library/Class/MSC/Src/usbd_msc_scsi.c ****     return 0;
 712              		.loc 1 322 27 is_stmt 0 view .LVU237
 713 0062 0C23     		movs	r3, #12
 714 0064 6381     		strh	r3, [r4, #10]	@ movhi
 323:Middlewares/ST/STM32_USB_Device_Library/Class/MSC/Src/usbd_msc_scsi.c ****   }
 715              		.loc 1 323 5 is_stmt 1 view .LVU238
 716              	.L44:
 325:Middlewares/ST/STM32_USB_Device_Library/Class/MSC/Src/usbd_msc_scsi.c **** /**
 717              		.loc 1 325 1 is_stmt 0 view .LVU239
 718 0066 02B0     		add	sp, sp, #8
 719              	.LCFI9:
 720              		.cfi_remember_state
 721              		.cfi_def_cfa_offset 16
 722              		@ sp needed
 723 0068 70BD     		pop	{r4, r5, r6, pc}
 724              	.LVL67:
 725              	.L46:
 726              	.LCFI10:
 727              		.cfi_restore_state
 306:Middlewares/ST/STM32_USB_Device_Library/Class/MSC/Src/usbd_msc_scsi.c ****     return -1;
 728              		.loc 1 306 5 is_stmt 1 view .LVU240
 729 006a 3A23     		movs	r3, #58
 730 006c 0222     		movs	r2, #2
 731 006e 3146     		mov	r1, r6
 732 0070 2846     		mov	r0, r5
 733 0072 FFF7FEFF 		bl	SCSI_SenseCode
 734              	.LVL68:
 307:Middlewares/ST/STM32_USB_Device_Library/Class/MSC/Src/usbd_msc_scsi.c ****   }
 735              		.loc 1 307 5 view .LVU241
 307:Middlewares/ST/STM32_USB_Device_Library/Class/MSC/Src/usbd_msc_scsi.c ****   }
 736              		.loc 1 307 12 is_stmt 0 view .LVU242
 737 0076 4FF0FF30 		mov	r0, #-1
 738 007a F4E7     		b	.L44
 739              		.cfi_endproc
 740              	.LFE72:
 742              		.section	.text.SCSI_ReadCapacity10,"ax",%progbits
 743              		.align	1
 744              		.syntax unified
 745              		.thumb
ARM GAS  C:\Users\Vento\AppData\Local\Temp\cclmUhoh.s 			page 24


 746              		.thumb_func
 747              		.fpu softvfp
 749              	SCSI_ReadCapacity10:
 750              	.LVL69:
 751              	.LFB71:
 259:Middlewares/ST/STM32_USB_Device_Library/Class/MSC/Src/usbd_msc_scsi.c ****   USBD_MSC_BOT_HandleTypeDef  *hmsc = (USBD_MSC_BOT_HandleTypeDef *)pdev->pClassData;
 752              		.loc 1 259 1 is_stmt 1 view -0
 753              		.cfi_startproc
 754              		@ args = 0, pretend = 0, frame = 0
 755              		@ frame_needed = 0, uses_anonymous_args = 0
 259:Middlewares/ST/STM32_USB_Device_Library/Class/MSC/Src/usbd_msc_scsi.c ****   USBD_MSC_BOT_HandleTypeDef  *hmsc = (USBD_MSC_BOT_HandleTypeDef *)pdev->pClassData;
 756              		.loc 1 259 1 is_stmt 0 view .LVU244
 757 0000 70B5     		push	{r4, r5, r6, lr}
 758              	.LCFI11:
 759              		.cfi_def_cfa_offset 16
 760              		.cfi_offset 4, -16
 761              		.cfi_offset 5, -12
 762              		.cfi_offset 6, -8
 763              		.cfi_offset 14, -4
 764 0002 0546     		mov	r5, r0
 765 0004 0E46     		mov	r6, r1
 260:Middlewares/ST/STM32_USB_Device_Library/Class/MSC/Src/usbd_msc_scsi.c **** 
 766              		.loc 1 260 3 is_stmt 1 view .LVU245
 260:Middlewares/ST/STM32_USB_Device_Library/Class/MSC/Src/usbd_msc_scsi.c **** 
 767              		.loc 1 260 32 is_stmt 0 view .LVU246
 768 0006 D0F8B842 		ldr	r4, [r0, #696]
 769              	.LVL70:
 262:Middlewares/ST/STM32_USB_Device_Library/Class/MSC/Src/usbd_msc_scsi.c ****   {
 770              		.loc 1 262 3 is_stmt 1 view .LVU247
 262:Middlewares/ST/STM32_USB_Device_Library/Class/MSC/Src/usbd_msc_scsi.c ****   {
 771              		.loc 1 262 35 is_stmt 0 view .LVU248
 772 000a D0F8BC32 		ldr	r3, [r0, #700]
 262:Middlewares/ST/STM32_USB_Device_Library/Class/MSC/Src/usbd_msc_scsi.c ****   {
 773              		.loc 1 262 47 view .LVU249
 774 000e 5B68     		ldr	r3, [r3, #4]
 262:Middlewares/ST/STM32_USB_Device_Library/Class/MSC/Src/usbd_msc_scsi.c ****   {
 775              		.loc 1 262 8 view .LVU250
 776 0010 04F25E22 		addw	r2, r4, #606
 777              	.LVL71:
 262:Middlewares/ST/STM32_USB_Device_Library/Class/MSC/Src/usbd_msc_scsi.c ****   {
 778              		.loc 1 262 8 view .LVU251
 779 0014 04F51871 		add	r1, r4, #608
 780              	.LVL72:
 262:Middlewares/ST/STM32_USB_Device_Library/Class/MSC/Src/usbd_msc_scsi.c ****   {
 781              		.loc 1 262 8 view .LVU252
 782 0018 3046     		mov	r0, r6
 783              	.LVL73:
 262:Middlewares/ST/STM32_USB_Device_Library/Class/MSC/Src/usbd_msc_scsi.c ****   {
 784              		.loc 1 262 8 view .LVU253
 785 001a 9847     		blx	r3
 786              	.LVL74:
 262:Middlewares/ST/STM32_USB_Device_Library/Class/MSC/Src/usbd_msc_scsi.c ****   {
 787              		.loc 1 262 6 view .LVU254
 788 001c B8B9     		cbnz	r0, .L51
 270:Middlewares/ST/STM32_USB_Device_Library/Class/MSC/Src/usbd_msc_scsi.c ****     hmsc->bot_data[1] = (uint8_t)((hmsc->scsi_blk_nbr - 1U) >> 16);
 789              		.loc 1 270 5 is_stmt 1 view .LVU255
 270:Middlewares/ST/STM32_USB_Device_Library/Class/MSC/Src/usbd_msc_scsi.c ****     hmsc->bot_data[1] = (uint8_t)((hmsc->scsi_blk_nbr - 1U) >> 16);
ARM GAS  C:\Users\Vento\AppData\Local\Temp\cclmUhoh.s 			page 25


 790              		.loc 1 270 40 is_stmt 0 view .LVU256
 791 001e D4F86022 		ldr	r2, [r4, #608]
 270:Middlewares/ST/STM32_USB_Device_Library/Class/MSC/Src/usbd_msc_scsi.c ****     hmsc->bot_data[1] = (uint8_t)((hmsc->scsi_blk_nbr - 1U) >> 16);
 792              		.loc 1 270 55 view .LVU257
 793 0022 531E     		subs	r3, r2, #1
 270:Middlewares/ST/STM32_USB_Device_Library/Class/MSC/Src/usbd_msc_scsi.c ****     hmsc->bot_data[1] = (uint8_t)((hmsc->scsi_blk_nbr - 1U) >> 16);
 794              		.loc 1 270 25 view .LVU258
 795 0024 190E     		lsrs	r1, r3, #24
 270:Middlewares/ST/STM32_USB_Device_Library/Class/MSC/Src/usbd_msc_scsi.c ****     hmsc->bot_data[1] = (uint8_t)((hmsc->scsi_blk_nbr - 1U) >> 16);
 796              		.loc 1 270 23 view .LVU259
 797 0026 2173     		strb	r1, [r4, #12]
 271:Middlewares/ST/STM32_USB_Device_Library/Class/MSC/Src/usbd_msc_scsi.c ****     hmsc->bot_data[2] = (uint8_t)((hmsc->scsi_blk_nbr - 1U) >>  8);
 798              		.loc 1 271 5 is_stmt 1 view .LVU260
 271:Middlewares/ST/STM32_USB_Device_Library/Class/MSC/Src/usbd_msc_scsi.c ****     hmsc->bot_data[2] = (uint8_t)((hmsc->scsi_blk_nbr - 1U) >>  8);
 799              		.loc 1 271 25 is_stmt 0 view .LVU261
 800 0028 C3F30741 		ubfx	r1, r3, #16, #8
 271:Middlewares/ST/STM32_USB_Device_Library/Class/MSC/Src/usbd_msc_scsi.c ****     hmsc->bot_data[2] = (uint8_t)((hmsc->scsi_blk_nbr - 1U) >>  8);
 801              		.loc 1 271 23 view .LVU262
 802 002c 6173     		strb	r1, [r4, #13]
 272:Middlewares/ST/STM32_USB_Device_Library/Class/MSC/Src/usbd_msc_scsi.c ****     hmsc->bot_data[3] = (uint8_t)(hmsc->scsi_blk_nbr - 1U);
 803              		.loc 1 272 5 is_stmt 1 view .LVU263
 272:Middlewares/ST/STM32_USB_Device_Library/Class/MSC/Src/usbd_msc_scsi.c ****     hmsc->bot_data[3] = (uint8_t)(hmsc->scsi_blk_nbr - 1U);
 804              		.loc 1 272 25 is_stmt 0 view .LVU264
 805 002e C3F30723 		ubfx	r3, r3, #8, #8
 272:Middlewares/ST/STM32_USB_Device_Library/Class/MSC/Src/usbd_msc_scsi.c ****     hmsc->bot_data[3] = (uint8_t)(hmsc->scsi_blk_nbr - 1U);
 806              		.loc 1 272 23 view .LVU265
 807 0032 A373     		strb	r3, [r4, #14]
 273:Middlewares/ST/STM32_USB_Device_Library/Class/MSC/Src/usbd_msc_scsi.c **** 
 808              		.loc 1 273 5 is_stmt 1 view .LVU266
 273:Middlewares/ST/STM32_USB_Device_Library/Class/MSC/Src/usbd_msc_scsi.c **** 
 809              		.loc 1 273 25 is_stmt 0 view .LVU267
 810 0034 013A     		subs	r2, r2, #1
 273:Middlewares/ST/STM32_USB_Device_Library/Class/MSC/Src/usbd_msc_scsi.c **** 
 811              		.loc 1 273 23 view .LVU268
 812 0036 E273     		strb	r2, [r4, #15]
 275:Middlewares/ST/STM32_USB_Device_Library/Class/MSC/Src/usbd_msc_scsi.c ****     hmsc->bot_data[5] = (uint8_t)(hmsc->scsi_blk_size >>  16);
 813              		.loc 1 275 5 is_stmt 1 view .LVU269
 275:Middlewares/ST/STM32_USB_Device_Library/Class/MSC/Src/usbd_msc_scsi.c ****     hmsc->bot_data[5] = (uint8_t)(hmsc->scsi_blk_size >>  16);
 814              		.loc 1 275 39 is_stmt 0 view .LVU270
 815 0038 B4F85E32 		ldrh	r3, [r4, #606]
 275:Middlewares/ST/STM32_USB_Device_Library/Class/MSC/Src/usbd_msc_scsi.c ****     hmsc->bot_data[5] = (uint8_t)(hmsc->scsi_blk_size >>  16);
 816              		.loc 1 275 25 view .LVU271
 817 003c 0022     		movs	r2, #0
 275:Middlewares/ST/STM32_USB_Device_Library/Class/MSC/Src/usbd_msc_scsi.c ****     hmsc->bot_data[5] = (uint8_t)(hmsc->scsi_blk_size >>  16);
 818              		.loc 1 275 23 view .LVU272
 819 003e 2274     		strb	r2, [r4, #16]
 276:Middlewares/ST/STM32_USB_Device_Library/Class/MSC/Src/usbd_msc_scsi.c ****     hmsc->bot_data[6] = (uint8_t)(hmsc->scsi_blk_size >>  8);
 820              		.loc 1 276 5 is_stmt 1 view .LVU273
 276:Middlewares/ST/STM32_USB_Device_Library/Class/MSC/Src/usbd_msc_scsi.c ****     hmsc->bot_data[6] = (uint8_t)(hmsc->scsi_blk_size >>  8);
 821              		.loc 1 276 23 is_stmt 0 view .LVU274
 822 0040 6274     		strb	r2, [r4, #17]
 277:Middlewares/ST/STM32_USB_Device_Library/Class/MSC/Src/usbd_msc_scsi.c ****     hmsc->bot_data[7] = (uint8_t)(hmsc->scsi_blk_size);
 823              		.loc 1 277 5 is_stmt 1 view .LVU275
 277:Middlewares/ST/STM32_USB_Device_Library/Class/MSC/Src/usbd_msc_scsi.c ****     hmsc->bot_data[7] = (uint8_t)(hmsc->scsi_blk_size);
 824              		.loc 1 277 25 is_stmt 0 view .LVU276
 825 0042 1A0A     		lsrs	r2, r3, #8
 277:Middlewares/ST/STM32_USB_Device_Library/Class/MSC/Src/usbd_msc_scsi.c ****     hmsc->bot_data[7] = (uint8_t)(hmsc->scsi_blk_size);
ARM GAS  C:\Users\Vento\AppData\Local\Temp\cclmUhoh.s 			page 26


 826              		.loc 1 277 23 view .LVU277
 827 0044 A274     		strb	r2, [r4, #18]
 278:Middlewares/ST/STM32_USB_Device_Library/Class/MSC/Src/usbd_msc_scsi.c **** 
 828              		.loc 1 278 5 is_stmt 1 view .LVU278
 278:Middlewares/ST/STM32_USB_Device_Library/Class/MSC/Src/usbd_msc_scsi.c **** 
 829              		.loc 1 278 23 is_stmt 0 view .LVU279
 830 0046 E374     		strb	r3, [r4, #19]
 280:Middlewares/ST/STM32_USB_Device_Library/Class/MSC/Src/usbd_msc_scsi.c ****     return 0;
 831              		.loc 1 280 5 is_stmt 1 view .LVU280
 280:Middlewares/ST/STM32_USB_Device_Library/Class/MSC/Src/usbd_msc_scsi.c ****     return 0;
 832              		.loc 1 280 27 is_stmt 0 view .LVU281
 833 0048 0823     		movs	r3, #8
 834 004a 6381     		strh	r3, [r4, #10]	@ movhi
 281:Middlewares/ST/STM32_USB_Device_Library/Class/MSC/Src/usbd_msc_scsi.c ****   }
 835              		.loc 1 281 5 is_stmt 1 view .LVU282
 836              	.L49:
 283:Middlewares/ST/STM32_USB_Device_Library/Class/MSC/Src/usbd_msc_scsi.c **** /**
 837              		.loc 1 283 1 is_stmt 0 view .LVU283
 838 004c 70BD     		pop	{r4, r5, r6, pc}
 839              	.LVL75:
 840              	.L51:
 264:Middlewares/ST/STM32_USB_Device_Library/Class/MSC/Src/usbd_msc_scsi.c ****     return -1;
 841              		.loc 1 264 5 is_stmt 1 view .LVU284
 842 004e 3A23     		movs	r3, #58
 843 0050 0222     		movs	r2, #2
 844 0052 3146     		mov	r1, r6
 845 0054 2846     		mov	r0, r5
 846 0056 FFF7FEFF 		bl	SCSI_SenseCode
 847              	.LVL76:
 265:Middlewares/ST/STM32_USB_Device_Library/Class/MSC/Src/usbd_msc_scsi.c ****   }
 848              		.loc 1 265 5 view .LVU285
 265:Middlewares/ST/STM32_USB_Device_Library/Class/MSC/Src/usbd_msc_scsi.c ****   }
 849              		.loc 1 265 12 is_stmt 0 view .LVU286
 850 005a 4FF0FF30 		mov	r0, #-1
 851 005e F5E7     		b	.L49
 852              		.cfi_endproc
 853              	.LFE71:
 855              		.section	.text.SCSI_CheckAddressRange,"ax",%progbits
 856              		.align	1
 857              		.syntax unified
 858              		.thumb
 859              		.thumb_func
 860              		.fpu softvfp
 862              	SCSI_CheckAddressRange:
 863              	.LVL77:
 864              	.LFB81:
 447:Middlewares/ST/STM32_USB_Device_Library/Class/MSC/Src/usbd_msc_scsi.c **** 
 448:Middlewares/ST/STM32_USB_Device_Library/Class/MSC/Src/usbd_msc_scsi.c **** /**
 449:Middlewares/ST/STM32_USB_Device_Library/Class/MSC/Src/usbd_msc_scsi.c **** * @brief  SCSI_Read10
 450:Middlewares/ST/STM32_USB_Device_Library/Class/MSC/Src/usbd_msc_scsi.c **** *         Process Read10 command
 451:Middlewares/ST/STM32_USB_Device_Library/Class/MSC/Src/usbd_msc_scsi.c **** * @param  lun: Logical unit number
 452:Middlewares/ST/STM32_USB_Device_Library/Class/MSC/Src/usbd_msc_scsi.c **** * @param  params: Command parameters
 453:Middlewares/ST/STM32_USB_Device_Library/Class/MSC/Src/usbd_msc_scsi.c **** * @retval status
 454:Middlewares/ST/STM32_USB_Device_Library/Class/MSC/Src/usbd_msc_scsi.c **** */
 455:Middlewares/ST/STM32_USB_Device_Library/Class/MSC/Src/usbd_msc_scsi.c **** static int8_t SCSI_Read10(USBD_HandleTypeDef *pdev, uint8_t lun, uint8_t *params)
 456:Middlewares/ST/STM32_USB_Device_Library/Class/MSC/Src/usbd_msc_scsi.c **** {
 457:Middlewares/ST/STM32_USB_Device_Library/Class/MSC/Src/usbd_msc_scsi.c ****   USBD_MSC_BOT_HandleTypeDef  *hmsc = (USBD_MSC_BOT_HandleTypeDef *) pdev->pClassData;
ARM GAS  C:\Users\Vento\AppData\Local\Temp\cclmUhoh.s 			page 27


 458:Middlewares/ST/STM32_USB_Device_Library/Class/MSC/Src/usbd_msc_scsi.c **** 
 459:Middlewares/ST/STM32_USB_Device_Library/Class/MSC/Src/usbd_msc_scsi.c ****   if (hmsc->bot_state == USBD_BOT_IDLE) /* Idle */
 460:Middlewares/ST/STM32_USB_Device_Library/Class/MSC/Src/usbd_msc_scsi.c ****   {
 461:Middlewares/ST/STM32_USB_Device_Library/Class/MSC/Src/usbd_msc_scsi.c ****     /* case 10 : Ho <> Di */
 462:Middlewares/ST/STM32_USB_Device_Library/Class/MSC/Src/usbd_msc_scsi.c ****     if ((hmsc->cbw.bmFlags & 0x80U) != 0x80U)
 463:Middlewares/ST/STM32_USB_Device_Library/Class/MSC/Src/usbd_msc_scsi.c ****     {
 464:Middlewares/ST/STM32_USB_Device_Library/Class/MSC/Src/usbd_msc_scsi.c ****       SCSI_SenseCode(pdev, hmsc->cbw.bLUN, ILLEGAL_REQUEST, INVALID_CDB);
 465:Middlewares/ST/STM32_USB_Device_Library/Class/MSC/Src/usbd_msc_scsi.c ****       return -1;
 466:Middlewares/ST/STM32_USB_Device_Library/Class/MSC/Src/usbd_msc_scsi.c ****     }
 467:Middlewares/ST/STM32_USB_Device_Library/Class/MSC/Src/usbd_msc_scsi.c **** 
 468:Middlewares/ST/STM32_USB_Device_Library/Class/MSC/Src/usbd_msc_scsi.c ****     if (((USBD_StorageTypeDef *)pdev->pUserData)->IsReady(lun) != 0)
 469:Middlewares/ST/STM32_USB_Device_Library/Class/MSC/Src/usbd_msc_scsi.c ****     {
 470:Middlewares/ST/STM32_USB_Device_Library/Class/MSC/Src/usbd_msc_scsi.c ****       SCSI_SenseCode(pdev, lun, NOT_READY, MEDIUM_NOT_PRESENT);
 471:Middlewares/ST/STM32_USB_Device_Library/Class/MSC/Src/usbd_msc_scsi.c ****       return -1;
 472:Middlewares/ST/STM32_USB_Device_Library/Class/MSC/Src/usbd_msc_scsi.c ****     }
 473:Middlewares/ST/STM32_USB_Device_Library/Class/MSC/Src/usbd_msc_scsi.c **** 
 474:Middlewares/ST/STM32_USB_Device_Library/Class/MSC/Src/usbd_msc_scsi.c ****     hmsc->scsi_blk_addr = ((uint32_t)params[2] << 24) |
 475:Middlewares/ST/STM32_USB_Device_Library/Class/MSC/Src/usbd_msc_scsi.c ****                           ((uint32_t)params[3] << 16) |
 476:Middlewares/ST/STM32_USB_Device_Library/Class/MSC/Src/usbd_msc_scsi.c ****                           ((uint32_t)params[4] <<  8) |
 477:Middlewares/ST/STM32_USB_Device_Library/Class/MSC/Src/usbd_msc_scsi.c ****                           (uint32_t)params[5];
 478:Middlewares/ST/STM32_USB_Device_Library/Class/MSC/Src/usbd_msc_scsi.c **** 
 479:Middlewares/ST/STM32_USB_Device_Library/Class/MSC/Src/usbd_msc_scsi.c ****     hmsc->scsi_blk_len = ((uint32_t)params[7] <<  8) | (uint32_t)params[8];
 480:Middlewares/ST/STM32_USB_Device_Library/Class/MSC/Src/usbd_msc_scsi.c **** 
 481:Middlewares/ST/STM32_USB_Device_Library/Class/MSC/Src/usbd_msc_scsi.c ****     if (SCSI_CheckAddressRange(pdev, lun, hmsc->scsi_blk_addr,
 482:Middlewares/ST/STM32_USB_Device_Library/Class/MSC/Src/usbd_msc_scsi.c ****                                hmsc->scsi_blk_len) < 0)
 483:Middlewares/ST/STM32_USB_Device_Library/Class/MSC/Src/usbd_msc_scsi.c ****     {
 484:Middlewares/ST/STM32_USB_Device_Library/Class/MSC/Src/usbd_msc_scsi.c ****       return -1; /* error */
 485:Middlewares/ST/STM32_USB_Device_Library/Class/MSC/Src/usbd_msc_scsi.c ****     }
 486:Middlewares/ST/STM32_USB_Device_Library/Class/MSC/Src/usbd_msc_scsi.c **** 
 487:Middlewares/ST/STM32_USB_Device_Library/Class/MSC/Src/usbd_msc_scsi.c ****     hmsc->bot_state = USBD_BOT_DATA_IN;
 488:Middlewares/ST/STM32_USB_Device_Library/Class/MSC/Src/usbd_msc_scsi.c **** 
 489:Middlewares/ST/STM32_USB_Device_Library/Class/MSC/Src/usbd_msc_scsi.c ****     /* cases 4,5 : Hi <> Dn */
 490:Middlewares/ST/STM32_USB_Device_Library/Class/MSC/Src/usbd_msc_scsi.c ****     if (hmsc->cbw.dDataLength != (hmsc->scsi_blk_len * hmsc->scsi_blk_size))
 491:Middlewares/ST/STM32_USB_Device_Library/Class/MSC/Src/usbd_msc_scsi.c ****     {
 492:Middlewares/ST/STM32_USB_Device_Library/Class/MSC/Src/usbd_msc_scsi.c ****       SCSI_SenseCode(pdev, hmsc->cbw.bLUN, ILLEGAL_REQUEST, INVALID_CDB);
 493:Middlewares/ST/STM32_USB_Device_Library/Class/MSC/Src/usbd_msc_scsi.c ****       return -1;
 494:Middlewares/ST/STM32_USB_Device_Library/Class/MSC/Src/usbd_msc_scsi.c ****     }
 495:Middlewares/ST/STM32_USB_Device_Library/Class/MSC/Src/usbd_msc_scsi.c ****   }
 496:Middlewares/ST/STM32_USB_Device_Library/Class/MSC/Src/usbd_msc_scsi.c ****   hmsc->bot_data_length = MSC_MEDIA_PACKET;
 497:Middlewares/ST/STM32_USB_Device_Library/Class/MSC/Src/usbd_msc_scsi.c **** 
 498:Middlewares/ST/STM32_USB_Device_Library/Class/MSC/Src/usbd_msc_scsi.c ****   return SCSI_ProcessRead(pdev, lun);
 499:Middlewares/ST/STM32_USB_Device_Library/Class/MSC/Src/usbd_msc_scsi.c **** }
 500:Middlewares/ST/STM32_USB_Device_Library/Class/MSC/Src/usbd_msc_scsi.c **** 
 501:Middlewares/ST/STM32_USB_Device_Library/Class/MSC/Src/usbd_msc_scsi.c **** /**
 502:Middlewares/ST/STM32_USB_Device_Library/Class/MSC/Src/usbd_msc_scsi.c **** * @brief  SCSI_Write10
 503:Middlewares/ST/STM32_USB_Device_Library/Class/MSC/Src/usbd_msc_scsi.c **** *         Process Write10 command
 504:Middlewares/ST/STM32_USB_Device_Library/Class/MSC/Src/usbd_msc_scsi.c **** * @param  lun: Logical unit number
 505:Middlewares/ST/STM32_USB_Device_Library/Class/MSC/Src/usbd_msc_scsi.c **** * @param  params: Command parameters
 506:Middlewares/ST/STM32_USB_Device_Library/Class/MSC/Src/usbd_msc_scsi.c **** * @retval status
 507:Middlewares/ST/STM32_USB_Device_Library/Class/MSC/Src/usbd_msc_scsi.c **** */
 508:Middlewares/ST/STM32_USB_Device_Library/Class/MSC/Src/usbd_msc_scsi.c **** 
 509:Middlewares/ST/STM32_USB_Device_Library/Class/MSC/Src/usbd_msc_scsi.c **** static int8_t SCSI_Write10(USBD_HandleTypeDef  *pdev, uint8_t lun, uint8_t *params)
 510:Middlewares/ST/STM32_USB_Device_Library/Class/MSC/Src/usbd_msc_scsi.c **** {
 511:Middlewares/ST/STM32_USB_Device_Library/Class/MSC/Src/usbd_msc_scsi.c ****   USBD_MSC_BOT_HandleTypeDef  *hmsc = (USBD_MSC_BOT_HandleTypeDef *) pdev->pClassData;
 512:Middlewares/ST/STM32_USB_Device_Library/Class/MSC/Src/usbd_msc_scsi.c ****   uint32_t len;
 513:Middlewares/ST/STM32_USB_Device_Library/Class/MSC/Src/usbd_msc_scsi.c **** 
 514:Middlewares/ST/STM32_USB_Device_Library/Class/MSC/Src/usbd_msc_scsi.c ****   if (hmsc->bot_state == USBD_BOT_IDLE) /* Idle */
ARM GAS  C:\Users\Vento\AppData\Local\Temp\cclmUhoh.s 			page 28


 515:Middlewares/ST/STM32_USB_Device_Library/Class/MSC/Src/usbd_msc_scsi.c ****   {
 516:Middlewares/ST/STM32_USB_Device_Library/Class/MSC/Src/usbd_msc_scsi.c ****     /* case 8 : Hi <> Do */
 517:Middlewares/ST/STM32_USB_Device_Library/Class/MSC/Src/usbd_msc_scsi.c ****     if ((hmsc->cbw.bmFlags & 0x80U) == 0x80U)
 518:Middlewares/ST/STM32_USB_Device_Library/Class/MSC/Src/usbd_msc_scsi.c ****     {
 519:Middlewares/ST/STM32_USB_Device_Library/Class/MSC/Src/usbd_msc_scsi.c ****       SCSI_SenseCode(pdev, hmsc->cbw.bLUN, ILLEGAL_REQUEST, INVALID_CDB);
 520:Middlewares/ST/STM32_USB_Device_Library/Class/MSC/Src/usbd_msc_scsi.c ****       return -1;
 521:Middlewares/ST/STM32_USB_Device_Library/Class/MSC/Src/usbd_msc_scsi.c ****     }
 522:Middlewares/ST/STM32_USB_Device_Library/Class/MSC/Src/usbd_msc_scsi.c **** 
 523:Middlewares/ST/STM32_USB_Device_Library/Class/MSC/Src/usbd_msc_scsi.c ****     /* Check whether Media is ready */
 524:Middlewares/ST/STM32_USB_Device_Library/Class/MSC/Src/usbd_msc_scsi.c ****     if (((USBD_StorageTypeDef *)pdev->pUserData)->IsReady(lun) != 0)
 525:Middlewares/ST/STM32_USB_Device_Library/Class/MSC/Src/usbd_msc_scsi.c ****     {
 526:Middlewares/ST/STM32_USB_Device_Library/Class/MSC/Src/usbd_msc_scsi.c ****       SCSI_SenseCode(pdev, lun, NOT_READY, MEDIUM_NOT_PRESENT);
 527:Middlewares/ST/STM32_USB_Device_Library/Class/MSC/Src/usbd_msc_scsi.c ****       return -1;
 528:Middlewares/ST/STM32_USB_Device_Library/Class/MSC/Src/usbd_msc_scsi.c ****     }
 529:Middlewares/ST/STM32_USB_Device_Library/Class/MSC/Src/usbd_msc_scsi.c **** 
 530:Middlewares/ST/STM32_USB_Device_Library/Class/MSC/Src/usbd_msc_scsi.c ****     /* Check If media is write-protected */
 531:Middlewares/ST/STM32_USB_Device_Library/Class/MSC/Src/usbd_msc_scsi.c ****     if (((USBD_StorageTypeDef *)pdev->pUserData)->IsWriteProtected(lun) != 0)
 532:Middlewares/ST/STM32_USB_Device_Library/Class/MSC/Src/usbd_msc_scsi.c ****     {
 533:Middlewares/ST/STM32_USB_Device_Library/Class/MSC/Src/usbd_msc_scsi.c ****       SCSI_SenseCode(pdev, lun, NOT_READY, WRITE_PROTECTED);
 534:Middlewares/ST/STM32_USB_Device_Library/Class/MSC/Src/usbd_msc_scsi.c ****       return -1;
 535:Middlewares/ST/STM32_USB_Device_Library/Class/MSC/Src/usbd_msc_scsi.c ****     }
 536:Middlewares/ST/STM32_USB_Device_Library/Class/MSC/Src/usbd_msc_scsi.c **** 
 537:Middlewares/ST/STM32_USB_Device_Library/Class/MSC/Src/usbd_msc_scsi.c ****     hmsc->scsi_blk_addr = ((uint32_t)params[2] << 24) |
 538:Middlewares/ST/STM32_USB_Device_Library/Class/MSC/Src/usbd_msc_scsi.c ****                           ((uint32_t)params[3] << 16) |
 539:Middlewares/ST/STM32_USB_Device_Library/Class/MSC/Src/usbd_msc_scsi.c ****                           ((uint32_t)params[4] << 8) |
 540:Middlewares/ST/STM32_USB_Device_Library/Class/MSC/Src/usbd_msc_scsi.c ****                           (uint32_t)params[5];
 541:Middlewares/ST/STM32_USB_Device_Library/Class/MSC/Src/usbd_msc_scsi.c **** 
 542:Middlewares/ST/STM32_USB_Device_Library/Class/MSC/Src/usbd_msc_scsi.c ****     hmsc->scsi_blk_len = ((uint32_t)params[7] << 8) |
 543:Middlewares/ST/STM32_USB_Device_Library/Class/MSC/Src/usbd_msc_scsi.c ****                          (uint32_t)params[8];
 544:Middlewares/ST/STM32_USB_Device_Library/Class/MSC/Src/usbd_msc_scsi.c **** 
 545:Middlewares/ST/STM32_USB_Device_Library/Class/MSC/Src/usbd_msc_scsi.c ****     /* check if LBA address is in the right range */
 546:Middlewares/ST/STM32_USB_Device_Library/Class/MSC/Src/usbd_msc_scsi.c ****     if (SCSI_CheckAddressRange(pdev, lun, hmsc->scsi_blk_addr,
 547:Middlewares/ST/STM32_USB_Device_Library/Class/MSC/Src/usbd_msc_scsi.c ****                                hmsc->scsi_blk_len) < 0)
 548:Middlewares/ST/STM32_USB_Device_Library/Class/MSC/Src/usbd_msc_scsi.c ****     {
 549:Middlewares/ST/STM32_USB_Device_Library/Class/MSC/Src/usbd_msc_scsi.c ****       return -1; /* error */
 550:Middlewares/ST/STM32_USB_Device_Library/Class/MSC/Src/usbd_msc_scsi.c ****     }
 551:Middlewares/ST/STM32_USB_Device_Library/Class/MSC/Src/usbd_msc_scsi.c **** 
 552:Middlewares/ST/STM32_USB_Device_Library/Class/MSC/Src/usbd_msc_scsi.c ****     len = hmsc->scsi_blk_len * hmsc->scsi_blk_size;
 553:Middlewares/ST/STM32_USB_Device_Library/Class/MSC/Src/usbd_msc_scsi.c **** 
 554:Middlewares/ST/STM32_USB_Device_Library/Class/MSC/Src/usbd_msc_scsi.c ****     /* cases 3,11,13 : Hn,Ho <> D0 */
 555:Middlewares/ST/STM32_USB_Device_Library/Class/MSC/Src/usbd_msc_scsi.c ****     if (hmsc->cbw.dDataLength != len)
 556:Middlewares/ST/STM32_USB_Device_Library/Class/MSC/Src/usbd_msc_scsi.c ****     {
 557:Middlewares/ST/STM32_USB_Device_Library/Class/MSC/Src/usbd_msc_scsi.c ****       SCSI_SenseCode(pdev, hmsc->cbw.bLUN, ILLEGAL_REQUEST, INVALID_CDB);
 558:Middlewares/ST/STM32_USB_Device_Library/Class/MSC/Src/usbd_msc_scsi.c ****       return -1;
 559:Middlewares/ST/STM32_USB_Device_Library/Class/MSC/Src/usbd_msc_scsi.c ****     }
 560:Middlewares/ST/STM32_USB_Device_Library/Class/MSC/Src/usbd_msc_scsi.c **** 
 561:Middlewares/ST/STM32_USB_Device_Library/Class/MSC/Src/usbd_msc_scsi.c ****     len = MIN(len, MSC_MEDIA_PACKET);
 562:Middlewares/ST/STM32_USB_Device_Library/Class/MSC/Src/usbd_msc_scsi.c **** 
 563:Middlewares/ST/STM32_USB_Device_Library/Class/MSC/Src/usbd_msc_scsi.c ****     /* Prepare EP to receive first data packet */
 564:Middlewares/ST/STM32_USB_Device_Library/Class/MSC/Src/usbd_msc_scsi.c ****     hmsc->bot_state = USBD_BOT_DATA_OUT;
 565:Middlewares/ST/STM32_USB_Device_Library/Class/MSC/Src/usbd_msc_scsi.c ****     USBD_LL_PrepareReceive(pdev, MSC_EPOUT_ADDR, hmsc->bot_data, len);
 566:Middlewares/ST/STM32_USB_Device_Library/Class/MSC/Src/usbd_msc_scsi.c ****   }
 567:Middlewares/ST/STM32_USB_Device_Library/Class/MSC/Src/usbd_msc_scsi.c ****   else /* Write Process ongoing */
 568:Middlewares/ST/STM32_USB_Device_Library/Class/MSC/Src/usbd_msc_scsi.c ****   {
 569:Middlewares/ST/STM32_USB_Device_Library/Class/MSC/Src/usbd_msc_scsi.c ****     return SCSI_ProcessWrite(pdev, lun);
 570:Middlewares/ST/STM32_USB_Device_Library/Class/MSC/Src/usbd_msc_scsi.c ****   }
 571:Middlewares/ST/STM32_USB_Device_Library/Class/MSC/Src/usbd_msc_scsi.c ****   return 0;
ARM GAS  C:\Users\Vento\AppData\Local\Temp\cclmUhoh.s 			page 29


 572:Middlewares/ST/STM32_USB_Device_Library/Class/MSC/Src/usbd_msc_scsi.c **** }
 573:Middlewares/ST/STM32_USB_Device_Library/Class/MSC/Src/usbd_msc_scsi.c **** 
 574:Middlewares/ST/STM32_USB_Device_Library/Class/MSC/Src/usbd_msc_scsi.c **** 
 575:Middlewares/ST/STM32_USB_Device_Library/Class/MSC/Src/usbd_msc_scsi.c **** /**
 576:Middlewares/ST/STM32_USB_Device_Library/Class/MSC/Src/usbd_msc_scsi.c **** * @brief  SCSI_Verify10
 577:Middlewares/ST/STM32_USB_Device_Library/Class/MSC/Src/usbd_msc_scsi.c **** *         Process Verify10 command
 578:Middlewares/ST/STM32_USB_Device_Library/Class/MSC/Src/usbd_msc_scsi.c **** * @param  lun: Logical unit number
 579:Middlewares/ST/STM32_USB_Device_Library/Class/MSC/Src/usbd_msc_scsi.c **** * @param  params: Command parameters
 580:Middlewares/ST/STM32_USB_Device_Library/Class/MSC/Src/usbd_msc_scsi.c **** * @retval status
 581:Middlewares/ST/STM32_USB_Device_Library/Class/MSC/Src/usbd_msc_scsi.c **** */
 582:Middlewares/ST/STM32_USB_Device_Library/Class/MSC/Src/usbd_msc_scsi.c **** 
 583:Middlewares/ST/STM32_USB_Device_Library/Class/MSC/Src/usbd_msc_scsi.c **** static int8_t SCSI_Verify10(USBD_HandleTypeDef  *pdev, uint8_t lun, uint8_t *params)
 584:Middlewares/ST/STM32_USB_Device_Library/Class/MSC/Src/usbd_msc_scsi.c **** {
 585:Middlewares/ST/STM32_USB_Device_Library/Class/MSC/Src/usbd_msc_scsi.c ****   USBD_MSC_BOT_HandleTypeDef  *hmsc = (USBD_MSC_BOT_HandleTypeDef *) pdev->pClassData;
 586:Middlewares/ST/STM32_USB_Device_Library/Class/MSC/Src/usbd_msc_scsi.c **** 
 587:Middlewares/ST/STM32_USB_Device_Library/Class/MSC/Src/usbd_msc_scsi.c ****   if ((params[1] & 0x02U) == 0x02U)
 588:Middlewares/ST/STM32_USB_Device_Library/Class/MSC/Src/usbd_msc_scsi.c ****   {
 589:Middlewares/ST/STM32_USB_Device_Library/Class/MSC/Src/usbd_msc_scsi.c ****     SCSI_SenseCode(pdev, lun, ILLEGAL_REQUEST, INVALID_FIELED_IN_COMMAND);
 590:Middlewares/ST/STM32_USB_Device_Library/Class/MSC/Src/usbd_msc_scsi.c ****     return -1; /* Error, Verify Mode Not supported*/
 591:Middlewares/ST/STM32_USB_Device_Library/Class/MSC/Src/usbd_msc_scsi.c ****   }
 592:Middlewares/ST/STM32_USB_Device_Library/Class/MSC/Src/usbd_msc_scsi.c **** 
 593:Middlewares/ST/STM32_USB_Device_Library/Class/MSC/Src/usbd_msc_scsi.c ****   if (SCSI_CheckAddressRange(pdev, lun, hmsc->scsi_blk_addr,
 594:Middlewares/ST/STM32_USB_Device_Library/Class/MSC/Src/usbd_msc_scsi.c ****                              hmsc->scsi_blk_len) < 0)
 595:Middlewares/ST/STM32_USB_Device_Library/Class/MSC/Src/usbd_msc_scsi.c ****   {
 596:Middlewares/ST/STM32_USB_Device_Library/Class/MSC/Src/usbd_msc_scsi.c ****     return -1; /* error */
 597:Middlewares/ST/STM32_USB_Device_Library/Class/MSC/Src/usbd_msc_scsi.c ****   }
 598:Middlewares/ST/STM32_USB_Device_Library/Class/MSC/Src/usbd_msc_scsi.c ****   hmsc->bot_data_length = 0U;
 599:Middlewares/ST/STM32_USB_Device_Library/Class/MSC/Src/usbd_msc_scsi.c ****   return 0;
 600:Middlewares/ST/STM32_USB_Device_Library/Class/MSC/Src/usbd_msc_scsi.c **** }
 601:Middlewares/ST/STM32_USB_Device_Library/Class/MSC/Src/usbd_msc_scsi.c **** 
 602:Middlewares/ST/STM32_USB_Device_Library/Class/MSC/Src/usbd_msc_scsi.c **** /**
 603:Middlewares/ST/STM32_USB_Device_Library/Class/MSC/Src/usbd_msc_scsi.c **** * @brief  SCSI_CheckAddressRange
 604:Middlewares/ST/STM32_USB_Device_Library/Class/MSC/Src/usbd_msc_scsi.c **** *         Check address range
 605:Middlewares/ST/STM32_USB_Device_Library/Class/MSC/Src/usbd_msc_scsi.c **** * @param  lun: Logical unit number
 606:Middlewares/ST/STM32_USB_Device_Library/Class/MSC/Src/usbd_msc_scsi.c **** * @param  blk_offset: first block address
 607:Middlewares/ST/STM32_USB_Device_Library/Class/MSC/Src/usbd_msc_scsi.c **** * @param  blk_nbr: number of block to be processed
 608:Middlewares/ST/STM32_USB_Device_Library/Class/MSC/Src/usbd_msc_scsi.c **** * @retval status
 609:Middlewares/ST/STM32_USB_Device_Library/Class/MSC/Src/usbd_msc_scsi.c **** */
 610:Middlewares/ST/STM32_USB_Device_Library/Class/MSC/Src/usbd_msc_scsi.c **** static int8_t SCSI_CheckAddressRange(USBD_HandleTypeDef *pdev, uint8_t lun,
 611:Middlewares/ST/STM32_USB_Device_Library/Class/MSC/Src/usbd_msc_scsi.c ****                                      uint32_t blk_offset, uint32_t blk_nbr)
 612:Middlewares/ST/STM32_USB_Device_Library/Class/MSC/Src/usbd_msc_scsi.c **** {
 865              		.loc 1 612 1 is_stmt 1 view -0
 866              		.cfi_startproc
 867              		@ args = 0, pretend = 0, frame = 0
 868              		@ frame_needed = 0, uses_anonymous_args = 0
 869              		.loc 1 612 1 is_stmt 0 view .LVU288
 870 0000 08B5     		push	{r3, lr}
 871              	.LCFI12:
 872              		.cfi_def_cfa_offset 8
 873              		.cfi_offset 3, -8
 874              		.cfi_offset 14, -4
 613:Middlewares/ST/STM32_USB_Device_Library/Class/MSC/Src/usbd_msc_scsi.c ****   USBD_MSC_BOT_HandleTypeDef  *hmsc = (USBD_MSC_BOT_HandleTypeDef *) pdev->pClassData;
 875              		.loc 1 613 3 is_stmt 1 view .LVU289
 876              	.LVL78:
 614:Middlewares/ST/STM32_USB_Device_Library/Class/MSC/Src/usbd_msc_scsi.c **** 
 615:Middlewares/ST/STM32_USB_Device_Library/Class/MSC/Src/usbd_msc_scsi.c ****   if ((blk_offset + blk_nbr) > hmsc->scsi_blk_nbr)
 877              		.loc 1 615 3 view .LVU290
ARM GAS  C:\Users\Vento\AppData\Local\Temp\cclmUhoh.s 			page 30


 878              		.loc 1 615 19 is_stmt 0 view .LVU291
 879 0002 1A44     		add	r2, r2, r3
 880              	.LVL79:
 881              		.loc 1 615 36 view .LVU292
 882 0004 D0F8B832 		ldr	r3, [r0, #696]
 883              	.LVL80:
 884              		.loc 1 615 36 view .LVU293
 885 0008 D3F86032 		ldr	r3, [r3, #608]
 886              		.loc 1 615 6 view .LVU294
 887 000c 9A42     		cmp	r2, r3
 888 000e 01D8     		bhi	.L56
 616:Middlewares/ST/STM32_USB_Device_Library/Class/MSC/Src/usbd_msc_scsi.c ****   {
 617:Middlewares/ST/STM32_USB_Device_Library/Class/MSC/Src/usbd_msc_scsi.c ****     SCSI_SenseCode(pdev, lun, ILLEGAL_REQUEST, ADDRESS_OUT_OF_RANGE);
 618:Middlewares/ST/STM32_USB_Device_Library/Class/MSC/Src/usbd_msc_scsi.c ****     return -1;
 619:Middlewares/ST/STM32_USB_Device_Library/Class/MSC/Src/usbd_msc_scsi.c ****   }
 620:Middlewares/ST/STM32_USB_Device_Library/Class/MSC/Src/usbd_msc_scsi.c ****   return 0;
 889              		.loc 1 620 10 view .LVU295
 890 0010 0020     		movs	r0, #0
 891              	.LVL81:
 892              	.L53:
 621:Middlewares/ST/STM32_USB_Device_Library/Class/MSC/Src/usbd_msc_scsi.c **** }
 893              		.loc 1 621 1 view .LVU296
 894 0012 08BD     		pop	{r3, pc}
 895              	.LVL82:
 896              	.L56:
 617:Middlewares/ST/STM32_USB_Device_Library/Class/MSC/Src/usbd_msc_scsi.c ****     return -1;
 897              		.loc 1 617 5 is_stmt 1 view .LVU297
 898 0014 2123     		movs	r3, #33
 899 0016 0522     		movs	r2, #5
 900 0018 FFF7FEFF 		bl	SCSI_SenseCode
 901              	.LVL83:
 618:Middlewares/ST/STM32_USB_Device_Library/Class/MSC/Src/usbd_msc_scsi.c ****   }
 902              		.loc 1 618 5 view .LVU298
 618:Middlewares/ST/STM32_USB_Device_Library/Class/MSC/Src/usbd_msc_scsi.c ****   }
 903              		.loc 1 618 12 is_stmt 0 view .LVU299
 904 001c 4FF0FF30 		mov	r0, #-1
 905 0020 F7E7     		b	.L53
 906              		.cfi_endproc
 907              	.LFE81:
 909              		.section	.text.SCSI_ProcessRead,"ax",%progbits
 910              		.align	1
 911              		.syntax unified
 912              		.thumb
 913              		.thumb_func
 914              		.fpu softvfp
 916              	SCSI_ProcessRead:
 917              	.LVL84:
 918              	.LFB82:
 622:Middlewares/ST/STM32_USB_Device_Library/Class/MSC/Src/usbd_msc_scsi.c **** 
 623:Middlewares/ST/STM32_USB_Device_Library/Class/MSC/Src/usbd_msc_scsi.c **** /**
 624:Middlewares/ST/STM32_USB_Device_Library/Class/MSC/Src/usbd_msc_scsi.c **** * @brief  SCSI_ProcessRead
 625:Middlewares/ST/STM32_USB_Device_Library/Class/MSC/Src/usbd_msc_scsi.c **** *         Handle Read Process
 626:Middlewares/ST/STM32_USB_Device_Library/Class/MSC/Src/usbd_msc_scsi.c **** * @param  lun: Logical unit number
 627:Middlewares/ST/STM32_USB_Device_Library/Class/MSC/Src/usbd_msc_scsi.c **** * @retval status
 628:Middlewares/ST/STM32_USB_Device_Library/Class/MSC/Src/usbd_msc_scsi.c **** */
 629:Middlewares/ST/STM32_USB_Device_Library/Class/MSC/Src/usbd_msc_scsi.c **** static int8_t SCSI_ProcessRead(USBD_HandleTypeDef  *pdev, uint8_t lun)
 630:Middlewares/ST/STM32_USB_Device_Library/Class/MSC/Src/usbd_msc_scsi.c **** {
ARM GAS  C:\Users\Vento\AppData\Local\Temp\cclmUhoh.s 			page 31


 919              		.loc 1 630 1 is_stmt 1 view -0
 920              		.cfi_startproc
 921              		@ args = 0, pretend = 0, frame = 0
 922              		@ frame_needed = 0, uses_anonymous_args = 0
 923              		.loc 1 630 1 is_stmt 0 view .LVU301
 924 0000 2DE9F843 		push	{r3, r4, r5, r6, r7, r8, r9, lr}
 925              	.LCFI13:
 926              		.cfi_def_cfa_offset 32
 927              		.cfi_offset 3, -32
 928              		.cfi_offset 4, -28
 929              		.cfi_offset 5, -24
 930              		.cfi_offset 6, -20
 931              		.cfi_offset 7, -16
 932              		.cfi_offset 8, -12
 933              		.cfi_offset 9, -8
 934              		.cfi_offset 14, -4
 935 0004 0646     		mov	r6, r0
 936 0006 0F46     		mov	r7, r1
 631:Middlewares/ST/STM32_USB_Device_Library/Class/MSC/Src/usbd_msc_scsi.c ****   USBD_MSC_BOT_HandleTypeDef *hmsc = (USBD_MSC_BOT_HandleTypeDef *)pdev->pClassData;
 937              		.loc 1 631 3 is_stmt 1 view .LVU302
 938              		.loc 1 631 31 is_stmt 0 view .LVU303
 939 0008 D0F8B842 		ldr	r4, [r0, #696]
 940              	.LVL85:
 632:Middlewares/ST/STM32_USB_Device_Library/Class/MSC/Src/usbd_msc_scsi.c ****   uint32_t len = hmsc->scsi_blk_len * hmsc->scsi_blk_size;
 941              		.loc 1 632 3 is_stmt 1 view .LVU304
 942              		.loc 1 632 22 is_stmt 0 view .LVU305
 943 000c D4F86852 		ldr	r5, [r4, #616]
 944              		.loc 1 632 43 view .LVU306
 945 0010 B4F85E32 		ldrh	r3, [r4, #606]
 946              		.loc 1 632 12 view .LVU307
 947 0014 03FB05F5 		mul	r5, r3, r5
 948              	.LVL86:
 633:Middlewares/ST/STM32_USB_Device_Library/Class/MSC/Src/usbd_msc_scsi.c **** 
 634:Middlewares/ST/STM32_USB_Device_Library/Class/MSC/Src/usbd_msc_scsi.c ****   len = MIN(len, MSC_MEDIA_PACKET);
 949              		.loc 1 634 3 is_stmt 1 view .LVU308
 950              		.loc 1 634 7 is_stmt 0 view .LVU309
 951 0018 B5F5007F 		cmp	r5, #512
 952 001c 28BF     		it	cs
 953 001e 4FF40075 		movcs	r5, #512
 954              	.LVL87:
 635:Middlewares/ST/STM32_USB_Device_Library/Class/MSC/Src/usbd_msc_scsi.c **** 
 636:Middlewares/ST/STM32_USB_Device_Library/Class/MSC/Src/usbd_msc_scsi.c ****   if (((USBD_StorageTypeDef *)pdev->pUserData)->Read(lun,
 955              		.loc 1 636 3 is_stmt 1 view .LVU310
 956              		.loc 1 636 35 is_stmt 0 view .LVU311
 957 0022 D0F8BC22 		ldr	r2, [r0, #700]
 958              		.loc 1 636 47 view .LVU312
 959 0026 D2F81090 		ldr	r9, [r2, #16]
 637:Middlewares/ST/STM32_USB_Device_Library/Class/MSC/Src/usbd_msc_scsi.c ****                                                      hmsc->bot_data,
 960              		.loc 1 637 58 view .LVU313
 961 002a 04F10C08 		add	r8, r4, #12
 638:Middlewares/ST/STM32_USB_Device_Library/Class/MSC/Src/usbd_msc_scsi.c ****                                                      hmsc->scsi_blk_addr,
 639:Middlewares/ST/STM32_USB_Device_Library/Class/MSC/Src/usbd_msc_scsi.c ****                                                      (len / hmsc->scsi_blk_size)) < 0)
 962              		.loc 1 639 59 view .LVU314
 963 002e B5FBF3F3 		udiv	r3, r5, r3
 636:Middlewares/ST/STM32_USB_Device_Library/Class/MSC/Src/usbd_msc_scsi.c ****                                                      hmsc->bot_data,
 964              		.loc 1 636 8 view .LVU315
 965 0032 9BB2     		uxth	r3, r3
ARM GAS  C:\Users\Vento\AppData\Local\Temp\cclmUhoh.s 			page 32


 966 0034 D4F86422 		ldr	r2, [r4, #612]
 967 0038 4146     		mov	r1, r8
 968              	.LVL88:
 636:Middlewares/ST/STM32_USB_Device_Library/Class/MSC/Src/usbd_msc_scsi.c ****                                                      hmsc->bot_data,
 969              		.loc 1 636 8 view .LVU316
 970 003a 3846     		mov	r0, r7
 971              	.LVL89:
 636:Middlewares/ST/STM32_USB_Device_Library/Class/MSC/Src/usbd_msc_scsi.c ****                                                      hmsc->bot_data,
 972              		.loc 1 636 8 view .LVU317
 973 003c C847     		blx	r9
 974              	.LVL90:
 636:Middlewares/ST/STM32_USB_Device_Library/Class/MSC/Src/usbd_msc_scsi.c ****                                                      hmsc->bot_data,
 975              		.loc 1 636 6 view .LVU318
 976 003e 0028     		cmp	r0, #0
 977 0040 1DDB     		blt	.L62
 640:Middlewares/ST/STM32_USB_Device_Library/Class/MSC/Src/usbd_msc_scsi.c ****   {
 641:Middlewares/ST/STM32_USB_Device_Library/Class/MSC/Src/usbd_msc_scsi.c ****     SCSI_SenseCode(pdev, lun, HARDWARE_ERROR, UNRECOVERED_READ_ERROR);
 642:Middlewares/ST/STM32_USB_Device_Library/Class/MSC/Src/usbd_msc_scsi.c ****     return -1;
 643:Middlewares/ST/STM32_USB_Device_Library/Class/MSC/Src/usbd_msc_scsi.c ****   }
 644:Middlewares/ST/STM32_USB_Device_Library/Class/MSC/Src/usbd_msc_scsi.c **** 
 645:Middlewares/ST/STM32_USB_Device_Library/Class/MSC/Src/usbd_msc_scsi.c ****   USBD_LL_Transmit(pdev, MSC_EPIN_ADDR, hmsc->bot_data, len);
 978              		.loc 1 645 3 is_stmt 1 view .LVU319
 979 0042 ABB2     		uxth	r3, r5
 980 0044 4246     		mov	r2, r8
 981 0046 8121     		movs	r1, #129
 982 0048 3046     		mov	r0, r6
 983 004a FFF7FEFF 		bl	USBD_LL_Transmit
 984              	.LVL91:
 646:Middlewares/ST/STM32_USB_Device_Library/Class/MSC/Src/usbd_msc_scsi.c **** 
 647:Middlewares/ST/STM32_USB_Device_Library/Class/MSC/Src/usbd_msc_scsi.c ****   hmsc->scsi_blk_addr += (len / hmsc->scsi_blk_size);
 985              		.loc 1 647 3 view .LVU320
 986              		.loc 1 647 37 is_stmt 0 view .LVU321
 987 004e B4F85E32 		ldrh	r3, [r4, #606]
 988              		.loc 1 647 31 view .LVU322
 989 0052 B5FBF3F2 		udiv	r2, r5, r3
 990              		.loc 1 647 23 view .LVU323
 991 0056 D4F86432 		ldr	r3, [r4, #612]
 992 005a 1344     		add	r3, r3, r2
 993 005c C4F86432 		str	r3, [r4, #612]
 648:Middlewares/ST/STM32_USB_Device_Library/Class/MSC/Src/usbd_msc_scsi.c ****   hmsc->scsi_blk_len -= (len / hmsc->scsi_blk_size);
 994              		.loc 1 648 3 is_stmt 1 view .LVU324
 995              		.loc 1 648 22 is_stmt 0 view .LVU325
 996 0060 D4F86832 		ldr	r3, [r4, #616]
 997 0064 9B1A     		subs	r3, r3, r2
 998 0066 C4F86832 		str	r3, [r4, #616]
 649:Middlewares/ST/STM32_USB_Device_Library/Class/MSC/Src/usbd_msc_scsi.c **** 
 650:Middlewares/ST/STM32_USB_Device_Library/Class/MSC/Src/usbd_msc_scsi.c ****   /* case 6 : Hi = Di */
 651:Middlewares/ST/STM32_USB_Device_Library/Class/MSC/Src/usbd_msc_scsi.c ****   hmsc->csw.dDataResidue -= len;
 999              		.loc 1 651 3 is_stmt 1 view .LVU326
 1000              		.loc 1 651 26 is_stmt 0 view .LVU327
 1001 006a D4F83422 		ldr	r2, [r4, #564]
 1002 006e 521B     		subs	r2, r2, r5
 1003 0070 C4F83422 		str	r2, [r4, #564]
 652:Middlewares/ST/STM32_USB_Device_Library/Class/MSC/Src/usbd_msc_scsi.c **** 
 653:Middlewares/ST/STM32_USB_Device_Library/Class/MSC/Src/usbd_msc_scsi.c ****   if (hmsc->scsi_blk_len == 0U)
 1004              		.loc 1 653 3 is_stmt 1 view .LVU328
 1005              		.loc 1 653 6 is_stmt 0 view .LVU329
ARM GAS  C:\Users\Vento\AppData\Local\Temp\cclmUhoh.s 			page 33


 1006 0074 63B9     		cbnz	r3, .L60
 654:Middlewares/ST/STM32_USB_Device_Library/Class/MSC/Src/usbd_msc_scsi.c ****   {
 655:Middlewares/ST/STM32_USB_Device_Library/Class/MSC/Src/usbd_msc_scsi.c ****     hmsc->bot_state = USBD_BOT_LAST_DATA_IN;
 1007              		.loc 1 655 5 is_stmt 1 view .LVU330
 1008              		.loc 1 655 21 is_stmt 0 view .LVU331
 1009 0076 0323     		movs	r3, #3
 1010 0078 2372     		strb	r3, [r4, #8]
 656:Middlewares/ST/STM32_USB_Device_Library/Class/MSC/Src/usbd_msc_scsi.c ****   }
 657:Middlewares/ST/STM32_USB_Device_Library/Class/MSC/Src/usbd_msc_scsi.c ****   return 0;
 1011              		.loc 1 657 10 view .LVU332
 1012 007a 0020     		movs	r0, #0
 1013 007c 09E0     		b	.L59
 1014              	.L62:
 641:Middlewares/ST/STM32_USB_Device_Library/Class/MSC/Src/usbd_msc_scsi.c ****     return -1;
 1015              		.loc 1 641 5 is_stmt 1 view .LVU333
 1016 007e 1123     		movs	r3, #17
 1017 0080 0422     		movs	r2, #4
 1018 0082 3946     		mov	r1, r7
 1019 0084 3046     		mov	r0, r6
 1020 0086 FFF7FEFF 		bl	SCSI_SenseCode
 1021              	.LVL92:
 642:Middlewares/ST/STM32_USB_Device_Library/Class/MSC/Src/usbd_msc_scsi.c ****   }
 1022              		.loc 1 642 5 view .LVU334
 642:Middlewares/ST/STM32_USB_Device_Library/Class/MSC/Src/usbd_msc_scsi.c ****   }
 1023              		.loc 1 642 12 is_stmt 0 view .LVU335
 1024 008a 4FF0FF30 		mov	r0, #-1
 1025 008e 00E0     		b	.L59
 1026              	.L60:
 1027              		.loc 1 657 10 view .LVU336
 1028 0090 0020     		movs	r0, #0
 1029              	.L59:
 658:Middlewares/ST/STM32_USB_Device_Library/Class/MSC/Src/usbd_msc_scsi.c **** }
 1030              		.loc 1 658 1 view .LVU337
 1031 0092 BDE8F883 		pop	{r3, r4, r5, r6, r7, r8, r9, pc}
 1032              		.loc 1 658 1 view .LVU338
 1033              		.cfi_endproc
 1034              	.LFE82:
 1036              		.section	.text.SCSI_Read10,"ax",%progbits
 1037              		.align	1
 1038              		.syntax unified
 1039              		.thumb
 1040              		.thumb_func
 1041              		.fpu softvfp
 1043              	SCSI_Read10:
 1044              	.LVL93:
 1045              	.LFB78:
 456:Middlewares/ST/STM32_USB_Device_Library/Class/MSC/Src/usbd_msc_scsi.c ****   USBD_MSC_BOT_HandleTypeDef  *hmsc = (USBD_MSC_BOT_HandleTypeDef *) pdev->pClassData;
 1046              		.loc 1 456 1 is_stmt 1 view -0
 1047              		.cfi_startproc
 1048              		@ args = 0, pretend = 0, frame = 0
 1049              		@ frame_needed = 0, uses_anonymous_args = 0
 456:Middlewares/ST/STM32_USB_Device_Library/Class/MSC/Src/usbd_msc_scsi.c ****   USBD_MSC_BOT_HandleTypeDef  *hmsc = (USBD_MSC_BOT_HandleTypeDef *) pdev->pClassData;
 1050              		.loc 1 456 1 is_stmt 0 view .LVU340
 1051 0000 F8B5     		push	{r3, r4, r5, r6, r7, lr}
 1052              	.LCFI14:
 1053              		.cfi_def_cfa_offset 24
 1054              		.cfi_offset 3, -24
ARM GAS  C:\Users\Vento\AppData\Local\Temp\cclmUhoh.s 			page 34


 1055              		.cfi_offset 4, -20
 1056              		.cfi_offset 5, -16
 1057              		.cfi_offset 6, -12
 1058              		.cfi_offset 7, -8
 1059              		.cfi_offset 14, -4
 1060 0002 0646     		mov	r6, r0
 1061 0004 0F46     		mov	r7, r1
 457:Middlewares/ST/STM32_USB_Device_Library/Class/MSC/Src/usbd_msc_scsi.c **** 
 1062              		.loc 1 457 3 is_stmt 1 view .LVU341
 457:Middlewares/ST/STM32_USB_Device_Library/Class/MSC/Src/usbd_msc_scsi.c **** 
 1063              		.loc 1 457 32 is_stmt 0 view .LVU342
 1064 0006 D0F8B842 		ldr	r4, [r0, #696]
 1065              	.LVL94:
 459:Middlewares/ST/STM32_USB_Device_Library/Class/MSC/Src/usbd_msc_scsi.c ****   {
 1066              		.loc 1 459 3 is_stmt 1 view .LVU343
 459:Middlewares/ST/STM32_USB_Device_Library/Class/MSC/Src/usbd_msc_scsi.c ****   {
 1067              		.loc 1 459 11 is_stmt 0 view .LVU344
 1068 000a 237A     		ldrb	r3, [r4, #8]	@ zero_extendqisi2
 459:Middlewares/ST/STM32_USB_Device_Library/Class/MSC/Src/usbd_msc_scsi.c ****   {
 1069              		.loc 1 459 6 view .LVU345
 1070 000c 73BB     		cbnz	r3, .L64
 1071 000e 1546     		mov	r5, r2
 462:Middlewares/ST/STM32_USB_Device_Library/Class/MSC/Src/usbd_msc_scsi.c ****     {
 1072              		.loc 1 462 5 is_stmt 1 view .LVU346
 462:Middlewares/ST/STM32_USB_Device_Library/Class/MSC/Src/usbd_msc_scsi.c ****     {
 1073              		.loc 1 462 37 is_stmt 0 view .LVU347
 1074 0010 94F91832 		ldrsb	r3, [r4, #536]
 462:Middlewares/ST/STM32_USB_Device_Library/Class/MSC/Src/usbd_msc_scsi.c ****     {
 1075              		.loc 1 462 8 view .LVU348
 1076 0014 002B     		cmp	r3, #0
 1077 0016 31DA     		bge	.L70
 468:Middlewares/ST/STM32_USB_Device_Library/Class/MSC/Src/usbd_msc_scsi.c ****     {
 1078              		.loc 1 468 5 is_stmt 1 view .LVU349
 468:Middlewares/ST/STM32_USB_Device_Library/Class/MSC/Src/usbd_msc_scsi.c ****     {
 1079              		.loc 1 468 37 is_stmt 0 view .LVU350
 1080 0018 D0F8BC32 		ldr	r3, [r0, #700]
 468:Middlewares/ST/STM32_USB_Device_Library/Class/MSC/Src/usbd_msc_scsi.c ****     {
 1081              		.loc 1 468 49 view .LVU351
 1082 001c 9B68     		ldr	r3, [r3, #8]
 468:Middlewares/ST/STM32_USB_Device_Library/Class/MSC/Src/usbd_msc_scsi.c ****     {
 1083              		.loc 1 468 10 view .LVU352
 1084 001e 0846     		mov	r0, r1
 1085              	.LVL95:
 468:Middlewares/ST/STM32_USB_Device_Library/Class/MSC/Src/usbd_msc_scsi.c ****     {
 1086              		.loc 1 468 10 view .LVU353
 1087 0020 9847     		blx	r3
 1088              	.LVL96:
 468:Middlewares/ST/STM32_USB_Device_Library/Class/MSC/Src/usbd_msc_scsi.c ****     {
 1089              		.loc 1 468 8 view .LVU354
 1090 0022 A0BB     		cbnz	r0, .L71
 474:Middlewares/ST/STM32_USB_Device_Library/Class/MSC/Src/usbd_msc_scsi.c ****                           ((uint32_t)params[3] << 16) |
 1091              		.loc 1 474 5 is_stmt 1 view .LVU355
 474:Middlewares/ST/STM32_USB_Device_Library/Class/MSC/Src/usbd_msc_scsi.c ****                           ((uint32_t)params[3] << 16) |
 1092              		.loc 1 474 44 is_stmt 0 view .LVU356
 1093 0024 AA78     		ldrb	r2, [r5, #2]	@ zero_extendqisi2
 475:Middlewares/ST/STM32_USB_Device_Library/Class/MSC/Src/usbd_msc_scsi.c ****                           ((uint32_t)params[4] <<  8) |
 1094              		.loc 1 475 44 view .LVU357
ARM GAS  C:\Users\Vento\AppData\Local\Temp\cclmUhoh.s 			page 35


 1095 0026 EB78     		ldrb	r3, [r5, #3]	@ zero_extendqisi2
 475:Middlewares/ST/STM32_USB_Device_Library/Class/MSC/Src/usbd_msc_scsi.c ****                           ((uint32_t)params[4] <<  8) |
 1096              		.loc 1 475 48 view .LVU358
 1097 0028 1B04     		lsls	r3, r3, #16
 474:Middlewares/ST/STM32_USB_Device_Library/Class/MSC/Src/usbd_msc_scsi.c ****                           ((uint32_t)params[3] << 16) |
 1098              		.loc 1 474 55 view .LVU359
 1099 002a 43EA0263 		orr	r3, r3, r2, lsl #24
 476:Middlewares/ST/STM32_USB_Device_Library/Class/MSC/Src/usbd_msc_scsi.c ****                           (uint32_t)params[5];
 1100              		.loc 1 476 44 view .LVU360
 1101 002e 2A79     		ldrb	r2, [r5, #4]	@ zero_extendqisi2
 475:Middlewares/ST/STM32_USB_Device_Library/Class/MSC/Src/usbd_msc_scsi.c ****                           ((uint32_t)params[4] <<  8) |
 1102              		.loc 1 475 55 view .LVU361
 1103 0030 43EA0223 		orr	r3, r3, r2, lsl #8
 477:Middlewares/ST/STM32_USB_Device_Library/Class/MSC/Src/usbd_msc_scsi.c **** 
 1104              		.loc 1 477 43 view .LVU362
 1105 0034 6A79     		ldrb	r2, [r5, #5]	@ zero_extendqisi2
 476:Middlewares/ST/STM32_USB_Device_Library/Class/MSC/Src/usbd_msc_scsi.c ****                           (uint32_t)params[5];
 1106              		.loc 1 476 55 view .LVU363
 1107 0036 1A43     		orrs	r2, r2, r3
 474:Middlewares/ST/STM32_USB_Device_Library/Class/MSC/Src/usbd_msc_scsi.c ****                           ((uint32_t)params[3] << 16) |
 1108              		.loc 1 474 25 view .LVU364
 1109 0038 C4F86422 		str	r2, [r4, #612]
 479:Middlewares/ST/STM32_USB_Device_Library/Class/MSC/Src/usbd_msc_scsi.c **** 
 1110              		.loc 1 479 5 is_stmt 1 view .LVU365
 479:Middlewares/ST/STM32_USB_Device_Library/Class/MSC/Src/usbd_msc_scsi.c **** 
 1111              		.loc 1 479 43 is_stmt 0 view .LVU366
 1112 003c E979     		ldrb	r1, [r5, #7]	@ zero_extendqisi2
 479:Middlewares/ST/STM32_USB_Device_Library/Class/MSC/Src/usbd_msc_scsi.c **** 
 1113              		.loc 1 479 72 view .LVU367
 1114 003e 2B7A     		ldrb	r3, [r5, #8]	@ zero_extendqisi2
 479:Middlewares/ST/STM32_USB_Device_Library/Class/MSC/Src/usbd_msc_scsi.c **** 
 1115              		.loc 1 479 54 view .LVU368
 1116 0040 43EA0123 		orr	r3, r3, r1, lsl #8
 479:Middlewares/ST/STM32_USB_Device_Library/Class/MSC/Src/usbd_msc_scsi.c **** 
 1117              		.loc 1 479 24 view .LVU369
 1118 0044 C4F86832 		str	r3, [r4, #616]
 481:Middlewares/ST/STM32_USB_Device_Library/Class/MSC/Src/usbd_msc_scsi.c ****                                hmsc->scsi_blk_len) < 0)
 1119              		.loc 1 481 5 is_stmt 1 view .LVU370
 481:Middlewares/ST/STM32_USB_Device_Library/Class/MSC/Src/usbd_msc_scsi.c ****                                hmsc->scsi_blk_len) < 0)
 1120              		.loc 1 481 9 is_stmt 0 view .LVU371
 1121 0048 3946     		mov	r1, r7
 1122 004a 3046     		mov	r0, r6
 1123 004c FFF7FEFF 		bl	SCSI_CheckAddressRange
 1124              	.LVL97:
 481:Middlewares/ST/STM32_USB_Device_Library/Class/MSC/Src/usbd_msc_scsi.c ****                                hmsc->scsi_blk_len) < 0)
 1125              		.loc 1 481 8 view .LVU372
 1126 0050 0028     		cmp	r0, #0
 1127 0052 2FDB     		blt	.L68
 487:Middlewares/ST/STM32_USB_Device_Library/Class/MSC/Src/usbd_msc_scsi.c **** 
 1128              		.loc 1 487 5 is_stmt 1 view .LVU373
 487:Middlewares/ST/STM32_USB_Device_Library/Class/MSC/Src/usbd_msc_scsi.c **** 
 1129              		.loc 1 487 21 is_stmt 0 view .LVU374
 1130 0054 0223     		movs	r3, #2
 1131 0056 2372     		strb	r3, [r4, #8]
 490:Middlewares/ST/STM32_USB_Device_Library/Class/MSC/Src/usbd_msc_scsi.c ****     {
 1132              		.loc 1 490 5 is_stmt 1 view .LVU375
 490:Middlewares/ST/STM32_USB_Device_Library/Class/MSC/Src/usbd_msc_scsi.c ****     {
ARM GAS  C:\Users\Vento\AppData\Local\Temp\cclmUhoh.s 			page 36


 1133              		.loc 1 490 18 is_stmt 0 view .LVU376
 1134 0058 D4F81422 		ldr	r2, [r4, #532]
 490:Middlewares/ST/STM32_USB_Device_Library/Class/MSC/Src/usbd_msc_scsi.c ****     {
 1135              		.loc 1 490 39 view .LVU377
 1136 005c D4F86832 		ldr	r3, [r4, #616]
 490:Middlewares/ST/STM32_USB_Device_Library/Class/MSC/Src/usbd_msc_scsi.c ****     {
 1137              		.loc 1 490 60 view .LVU378
 1138 0060 B4F85E12 		ldrh	r1, [r4, #606]
 490:Middlewares/ST/STM32_USB_Device_Library/Class/MSC/Src/usbd_msc_scsi.c ****     {
 1139              		.loc 1 490 54 view .LVU379
 1140 0064 01FB03F3 		mul	r3, r1, r3
 490:Middlewares/ST/STM32_USB_Device_Library/Class/MSC/Src/usbd_msc_scsi.c ****     {
 1141              		.loc 1 490 8 view .LVU380
 1142 0068 9A42     		cmp	r2, r3
 1143 006a 19D1     		bne	.L72
 1144              	.LVL98:
 1145              	.L64:
 496:Middlewares/ST/STM32_USB_Device_Library/Class/MSC/Src/usbd_msc_scsi.c **** 
 1146              		.loc 1 496 3 is_stmt 1 view .LVU381
 496:Middlewares/ST/STM32_USB_Device_Library/Class/MSC/Src/usbd_msc_scsi.c **** 
 1147              		.loc 1 496 25 is_stmt 0 view .LVU382
 1148 006c 4FF40073 		mov	r3, #512
 1149 0070 6381     		strh	r3, [r4, #10]	@ movhi
 498:Middlewares/ST/STM32_USB_Device_Library/Class/MSC/Src/usbd_msc_scsi.c **** }
 1150              		.loc 1 498 3 is_stmt 1 view .LVU383
 498:Middlewares/ST/STM32_USB_Device_Library/Class/MSC/Src/usbd_msc_scsi.c **** }
 1151              		.loc 1 498 10 is_stmt 0 view .LVU384
 1152 0072 3946     		mov	r1, r7
 1153 0074 3046     		mov	r0, r6
 1154 0076 FFF7FEFF 		bl	SCSI_ProcessRead
 1155              	.LVL99:
 1156              	.L66:
 499:Middlewares/ST/STM32_USB_Device_Library/Class/MSC/Src/usbd_msc_scsi.c **** 
 1157              		.loc 1 499 1 view .LVU385
 1158 007a F8BD     		pop	{r3, r4, r5, r6, r7, pc}
 1159              	.LVL100:
 1160              	.L70:
 464:Middlewares/ST/STM32_USB_Device_Library/Class/MSC/Src/usbd_msc_scsi.c ****       return -1;
 1161              		.loc 1 464 7 is_stmt 1 view .LVU386
 1162 007c 2023     		movs	r3, #32
 1163 007e 0522     		movs	r2, #5
 1164              	.LVL101:
 464:Middlewares/ST/STM32_USB_Device_Library/Class/MSC/Src/usbd_msc_scsi.c ****       return -1;
 1165              		.loc 1 464 7 is_stmt 0 view .LVU387
 1166 0080 94F81912 		ldrb	r1, [r4, #537]	@ zero_extendqisi2
 1167              	.LVL102:
 464:Middlewares/ST/STM32_USB_Device_Library/Class/MSC/Src/usbd_msc_scsi.c ****       return -1;
 1168              		.loc 1 464 7 view .LVU388
 1169 0084 FFF7FEFF 		bl	SCSI_SenseCode
 1170              	.LVL103:
 465:Middlewares/ST/STM32_USB_Device_Library/Class/MSC/Src/usbd_msc_scsi.c ****     }
 1171              		.loc 1 465 7 is_stmt 1 view .LVU389
 465:Middlewares/ST/STM32_USB_Device_Library/Class/MSC/Src/usbd_msc_scsi.c ****     }
 1172              		.loc 1 465 14 is_stmt 0 view .LVU390
 1173 0088 4FF0FF30 		mov	r0, #-1
 1174 008c F5E7     		b	.L66
 1175              	.L71:
ARM GAS  C:\Users\Vento\AppData\Local\Temp\cclmUhoh.s 			page 37


 470:Middlewares/ST/STM32_USB_Device_Library/Class/MSC/Src/usbd_msc_scsi.c ****       return -1;
 1176              		.loc 1 470 7 is_stmt 1 view .LVU391
 1177 008e 3A23     		movs	r3, #58
 1178 0090 0222     		movs	r2, #2
 1179 0092 3946     		mov	r1, r7
 1180 0094 3046     		mov	r0, r6
 1181 0096 FFF7FEFF 		bl	SCSI_SenseCode
 1182              	.LVL104:
 471:Middlewares/ST/STM32_USB_Device_Library/Class/MSC/Src/usbd_msc_scsi.c ****     }
 1183              		.loc 1 471 7 view .LVU392
 471:Middlewares/ST/STM32_USB_Device_Library/Class/MSC/Src/usbd_msc_scsi.c ****     }
 1184              		.loc 1 471 14 is_stmt 0 view .LVU393
 1185 009a 4FF0FF30 		mov	r0, #-1
 1186 009e ECE7     		b	.L66
 1187              	.L72:
 492:Middlewares/ST/STM32_USB_Device_Library/Class/MSC/Src/usbd_msc_scsi.c ****       return -1;
 1188              		.loc 1 492 7 is_stmt 1 view .LVU394
 1189 00a0 2023     		movs	r3, #32
 1190 00a2 0522     		movs	r2, #5
 1191 00a4 94F81912 		ldrb	r1, [r4, #537]	@ zero_extendqisi2
 1192 00a8 3046     		mov	r0, r6
 1193 00aa FFF7FEFF 		bl	SCSI_SenseCode
 1194              	.LVL105:
 493:Middlewares/ST/STM32_USB_Device_Library/Class/MSC/Src/usbd_msc_scsi.c ****     }
 1195              		.loc 1 493 7 view .LVU395
 493:Middlewares/ST/STM32_USB_Device_Library/Class/MSC/Src/usbd_msc_scsi.c ****     }
 1196              		.loc 1 493 14 is_stmt 0 view .LVU396
 1197 00ae 4FF0FF30 		mov	r0, #-1
 1198 00b2 E2E7     		b	.L66
 1199              	.L68:
 484:Middlewares/ST/STM32_USB_Device_Library/Class/MSC/Src/usbd_msc_scsi.c ****     }
 1200              		.loc 1 484 14 view .LVU397
 1201 00b4 4FF0FF30 		mov	r0, #-1
 1202 00b8 DFE7     		b	.L66
 1203              		.cfi_endproc
 1204              	.LFE78:
 1206              		.section	.text.SCSI_ProcessWrite,"ax",%progbits
 1207              		.align	1
 1208              		.syntax unified
 1209              		.thumb
 1210              		.thumb_func
 1211              		.fpu softvfp
 1213              	SCSI_ProcessWrite:
 1214              	.LVL106:
 1215              	.LFB83:
 659:Middlewares/ST/STM32_USB_Device_Library/Class/MSC/Src/usbd_msc_scsi.c **** 
 660:Middlewares/ST/STM32_USB_Device_Library/Class/MSC/Src/usbd_msc_scsi.c **** /**
 661:Middlewares/ST/STM32_USB_Device_Library/Class/MSC/Src/usbd_msc_scsi.c **** * @brief  SCSI_ProcessWrite
 662:Middlewares/ST/STM32_USB_Device_Library/Class/MSC/Src/usbd_msc_scsi.c **** *         Handle Write Process
 663:Middlewares/ST/STM32_USB_Device_Library/Class/MSC/Src/usbd_msc_scsi.c **** * @param  lun: Logical unit number
 664:Middlewares/ST/STM32_USB_Device_Library/Class/MSC/Src/usbd_msc_scsi.c **** * @retval status
 665:Middlewares/ST/STM32_USB_Device_Library/Class/MSC/Src/usbd_msc_scsi.c **** */
 666:Middlewares/ST/STM32_USB_Device_Library/Class/MSC/Src/usbd_msc_scsi.c **** 
 667:Middlewares/ST/STM32_USB_Device_Library/Class/MSC/Src/usbd_msc_scsi.c **** static int8_t SCSI_ProcessWrite(USBD_HandleTypeDef  *pdev, uint8_t lun)
 668:Middlewares/ST/STM32_USB_Device_Library/Class/MSC/Src/usbd_msc_scsi.c **** {
 1216              		.loc 1 668 1 is_stmt 1 view -0
 1217              		.cfi_startproc
ARM GAS  C:\Users\Vento\AppData\Local\Temp\cclmUhoh.s 			page 38


 1218              		@ args = 0, pretend = 0, frame = 0
 1219              		@ frame_needed = 0, uses_anonymous_args = 0
 1220              		.loc 1 668 1 is_stmt 0 view .LVU399
 1221 0000 2DE9F843 		push	{r3, r4, r5, r6, r7, r8, r9, lr}
 1222              	.LCFI15:
 1223              		.cfi_def_cfa_offset 32
 1224              		.cfi_offset 3, -32
 1225              		.cfi_offset 4, -28
 1226              		.cfi_offset 5, -24
 1227              		.cfi_offset 6, -20
 1228              		.cfi_offset 7, -16
 1229              		.cfi_offset 8, -12
 1230              		.cfi_offset 9, -8
 1231              		.cfi_offset 14, -4
 1232 0004 0646     		mov	r6, r0
 1233 0006 8846     		mov	r8, r1
 669:Middlewares/ST/STM32_USB_Device_Library/Class/MSC/Src/usbd_msc_scsi.c ****   USBD_MSC_BOT_HandleTypeDef *hmsc = (USBD_MSC_BOT_HandleTypeDef *) pdev->pClassData;
 1234              		.loc 1 669 3 is_stmt 1 view .LVU400
 1235              		.loc 1 669 31 is_stmt 0 view .LVU401
 1236 0008 D0F8B842 		ldr	r4, [r0, #696]
 1237              	.LVL107:
 670:Middlewares/ST/STM32_USB_Device_Library/Class/MSC/Src/usbd_msc_scsi.c ****   uint32_t len = hmsc->scsi_blk_len * hmsc->scsi_blk_size;
 1238              		.loc 1 670 3 is_stmt 1 view .LVU402
 1239              		.loc 1 670 22 is_stmt 0 view .LVU403
 1240 000c D4F86852 		ldr	r5, [r4, #616]
 1241              		.loc 1 670 43 view .LVU404
 1242 0010 B4F85E32 		ldrh	r3, [r4, #606]
 1243              		.loc 1 670 12 view .LVU405
 1244 0014 03FB05F5 		mul	r5, r3, r5
 1245              	.LVL108:
 671:Middlewares/ST/STM32_USB_Device_Library/Class/MSC/Src/usbd_msc_scsi.c **** 
 672:Middlewares/ST/STM32_USB_Device_Library/Class/MSC/Src/usbd_msc_scsi.c ****   len = MIN(len, MSC_MEDIA_PACKET);
 1246              		.loc 1 672 3 is_stmt 1 view .LVU406
 1247              		.loc 1 672 7 is_stmt 0 view .LVU407
 1248 0018 B5F5007F 		cmp	r5, #512
 1249 001c 28BF     		it	cs
 1250 001e 4FF40075 		movcs	r5, #512
 1251              	.LVL109:
 673:Middlewares/ST/STM32_USB_Device_Library/Class/MSC/Src/usbd_msc_scsi.c **** 
 674:Middlewares/ST/STM32_USB_Device_Library/Class/MSC/Src/usbd_msc_scsi.c ****   if (((USBD_StorageTypeDef *)pdev->pUserData)->Write(lun, hmsc->bot_data,
 1252              		.loc 1 674 3 is_stmt 1 view .LVU408
 1253              		.loc 1 674 35 is_stmt 0 view .LVU409
 1254 0022 D0F8BC22 		ldr	r2, [r0, #700]
 1255              		.loc 1 674 47 view .LVU410
 1256 0026 D2F81490 		ldr	r9, [r2, #20]
 1257              		.loc 1 674 64 view .LVU411
 1258 002a 04F10C07 		add	r7, r4, #12
 675:Middlewares/ST/STM32_USB_Device_Library/Class/MSC/Src/usbd_msc_scsi.c ****                                                       hmsc->scsi_blk_addr,
 676:Middlewares/ST/STM32_USB_Device_Library/Class/MSC/Src/usbd_msc_scsi.c ****                                                       (len / hmsc->scsi_blk_size)) < 0)
 1259              		.loc 1 676 60 view .LVU412
 1260 002e B5FBF3F3 		udiv	r3, r5, r3
 674:Middlewares/ST/STM32_USB_Device_Library/Class/MSC/Src/usbd_msc_scsi.c ****                                                       hmsc->scsi_blk_addr,
 1261              		.loc 1 674 8 view .LVU413
 1262 0032 9BB2     		uxth	r3, r3
 1263 0034 D4F86422 		ldr	r2, [r4, #612]
 1264 0038 3946     		mov	r1, r7
 1265              	.LVL110:
ARM GAS  C:\Users\Vento\AppData\Local\Temp\cclmUhoh.s 			page 39


 674:Middlewares/ST/STM32_USB_Device_Library/Class/MSC/Src/usbd_msc_scsi.c ****                                                       hmsc->scsi_blk_addr,
 1266              		.loc 1 674 8 view .LVU414
 1267 003a 4046     		mov	r0, r8
 1268              	.LVL111:
 674:Middlewares/ST/STM32_USB_Device_Library/Class/MSC/Src/usbd_msc_scsi.c ****                                                       hmsc->scsi_blk_addr,
 1269              		.loc 1 674 8 view .LVU415
 1270 003c C847     		blx	r9
 1271              	.LVL112:
 674:Middlewares/ST/STM32_USB_Device_Library/Class/MSC/Src/usbd_msc_scsi.c ****                                                       hmsc->scsi_blk_addr,
 1272              		.loc 1 674 6 view .LVU416
 1273 003e 0028     		cmp	r0, #0
 1274 0040 1ADB     		blt	.L78
 677:Middlewares/ST/STM32_USB_Device_Library/Class/MSC/Src/usbd_msc_scsi.c ****   {
 678:Middlewares/ST/STM32_USB_Device_Library/Class/MSC/Src/usbd_msc_scsi.c ****     SCSI_SenseCode(pdev, lun, HARDWARE_ERROR, WRITE_FAULT);
 679:Middlewares/ST/STM32_USB_Device_Library/Class/MSC/Src/usbd_msc_scsi.c **** 
 680:Middlewares/ST/STM32_USB_Device_Library/Class/MSC/Src/usbd_msc_scsi.c ****     return -1;
 681:Middlewares/ST/STM32_USB_Device_Library/Class/MSC/Src/usbd_msc_scsi.c ****   }
 682:Middlewares/ST/STM32_USB_Device_Library/Class/MSC/Src/usbd_msc_scsi.c **** 
 683:Middlewares/ST/STM32_USB_Device_Library/Class/MSC/Src/usbd_msc_scsi.c ****   hmsc->scsi_blk_addr += (len / hmsc->scsi_blk_size);
 1275              		.loc 1 683 3 is_stmt 1 view .LVU417
 1276              		.loc 1 683 37 is_stmt 0 view .LVU418
 1277 0042 B4F85E22 		ldrh	r2, [r4, #606]
 1278              		.loc 1 683 31 view .LVU419
 1279 0046 B5FBF2F0 		udiv	r0, r5, r2
 1280              		.loc 1 683 23 view .LVU420
 1281 004a D4F86412 		ldr	r1, [r4, #612]
 1282 004e 0144     		add	r1, r1, r0
 1283 0050 C4F86412 		str	r1, [r4, #612]
 684:Middlewares/ST/STM32_USB_Device_Library/Class/MSC/Src/usbd_msc_scsi.c ****   hmsc->scsi_blk_len -= (len / hmsc->scsi_blk_size);
 1284              		.loc 1 684 3 is_stmt 1 view .LVU421
 1285              		.loc 1 684 22 is_stmt 0 view .LVU422
 1286 0054 D4F86832 		ldr	r3, [r4, #616]
 1287 0058 1B1A     		subs	r3, r3, r0
 1288 005a C4F86832 		str	r3, [r4, #616]
 685:Middlewares/ST/STM32_USB_Device_Library/Class/MSC/Src/usbd_msc_scsi.c **** 
 686:Middlewares/ST/STM32_USB_Device_Library/Class/MSC/Src/usbd_msc_scsi.c ****   /* case 12 : Ho = Do */
 687:Middlewares/ST/STM32_USB_Device_Library/Class/MSC/Src/usbd_msc_scsi.c ****   hmsc->csw.dDataResidue -= len;
 1289              		.loc 1 687 3 is_stmt 1 view .LVU423
 1290              		.loc 1 687 26 is_stmt 0 view .LVU424
 1291 005e D4F83412 		ldr	r1, [r4, #564]
 1292 0062 491B     		subs	r1, r1, r5
 1293 0064 C4F83412 		str	r1, [r4, #564]
 688:Middlewares/ST/STM32_USB_Device_Library/Class/MSC/Src/usbd_msc_scsi.c **** 
 689:Middlewares/ST/STM32_USB_Device_Library/Class/MSC/Src/usbd_msc_scsi.c ****   if (hmsc->scsi_blk_len == 0U)
 1294              		.loc 1 689 3 is_stmt 1 view .LVU425
 1295              		.loc 1 689 6 is_stmt 0 view .LVU426
 1296 0068 7BB9     		cbnz	r3, .L76
 690:Middlewares/ST/STM32_USB_Device_Library/Class/MSC/Src/usbd_msc_scsi.c ****   {
 691:Middlewares/ST/STM32_USB_Device_Library/Class/MSC/Src/usbd_msc_scsi.c ****     MSC_BOT_SendCSW(pdev, USBD_CSW_CMD_PASSED);
 1297              		.loc 1 691 5 is_stmt 1 view .LVU427
 1298 006a 0021     		movs	r1, #0
 1299 006c 3046     		mov	r0, r6
 1300 006e FFF7FEFF 		bl	MSC_BOT_SendCSW
 1301              	.LVL113:
 692:Middlewares/ST/STM32_USB_Device_Library/Class/MSC/Src/usbd_msc_scsi.c ****   }
 693:Middlewares/ST/STM32_USB_Device_Library/Class/MSC/Src/usbd_msc_scsi.c ****   else
 694:Middlewares/ST/STM32_USB_Device_Library/Class/MSC/Src/usbd_msc_scsi.c ****   {
ARM GAS  C:\Users\Vento\AppData\Local\Temp\cclmUhoh.s 			page 40


 695:Middlewares/ST/STM32_USB_Device_Library/Class/MSC/Src/usbd_msc_scsi.c ****     len = MIN((hmsc->scsi_blk_len * hmsc->scsi_blk_size), MSC_MEDIA_PACKET);
 696:Middlewares/ST/STM32_USB_Device_Library/Class/MSC/Src/usbd_msc_scsi.c ****     /* Prepare EP to Receive next packet */
 697:Middlewares/ST/STM32_USB_Device_Library/Class/MSC/Src/usbd_msc_scsi.c ****     USBD_LL_PrepareReceive(pdev, MSC_EPOUT_ADDR, hmsc->bot_data, len);
 698:Middlewares/ST/STM32_USB_Device_Library/Class/MSC/Src/usbd_msc_scsi.c ****   }
 699:Middlewares/ST/STM32_USB_Device_Library/Class/MSC/Src/usbd_msc_scsi.c **** 
 700:Middlewares/ST/STM32_USB_Device_Library/Class/MSC/Src/usbd_msc_scsi.c ****   return 0;
 1302              		.loc 1 700 10 is_stmt 0 view .LVU428
 1303 0072 0020     		movs	r0, #0
 1304              	.LVL114:
 1305              	.L75:
 701:Middlewares/ST/STM32_USB_Device_Library/Class/MSC/Src/usbd_msc_scsi.c **** }
 1306              		.loc 1 701 1 view .LVU429
 1307 0074 BDE8F883 		pop	{r3, r4, r5, r6, r7, r8, r9, pc}
 1308              	.LVL115:
 1309              	.L78:
 678:Middlewares/ST/STM32_USB_Device_Library/Class/MSC/Src/usbd_msc_scsi.c **** 
 1310              		.loc 1 678 5 is_stmt 1 view .LVU430
 1311 0078 0323     		movs	r3, #3
 1312 007a 0422     		movs	r2, #4
 1313 007c 4146     		mov	r1, r8
 1314 007e 3046     		mov	r0, r6
 1315 0080 FFF7FEFF 		bl	SCSI_SenseCode
 1316              	.LVL116:
 680:Middlewares/ST/STM32_USB_Device_Library/Class/MSC/Src/usbd_msc_scsi.c ****   }
 1317              		.loc 1 680 5 view .LVU431
 680:Middlewares/ST/STM32_USB_Device_Library/Class/MSC/Src/usbd_msc_scsi.c ****   }
 1318              		.loc 1 680 12 is_stmt 0 view .LVU432
 1319 0084 4FF0FF30 		mov	r0, #-1
 1320 0088 F4E7     		b	.L75
 1321              	.L76:
 695:Middlewares/ST/STM32_USB_Device_Library/Class/MSC/Src/usbd_msc_scsi.c ****     /* Prepare EP to Receive next packet */
 1322              		.loc 1 695 5 is_stmt 1 view .LVU433
 695:Middlewares/ST/STM32_USB_Device_Library/Class/MSC/Src/usbd_msc_scsi.c ****     /* Prepare EP to Receive next packet */
 1323              		.loc 1 695 11 is_stmt 0 view .LVU434
 1324 008a 02FB03F3 		mul	r3, r2, r3
 695:Middlewares/ST/STM32_USB_Device_Library/Class/MSC/Src/usbd_msc_scsi.c ****     /* Prepare EP to Receive next packet */
 1325              		.loc 1 695 9 view .LVU435
 1326 008e B3F5007F 		cmp	r3, #512
 1327 0092 28BF     		it	cs
 1328 0094 4FF40073 		movcs	r3, #512
 1329              	.LVL117:
 697:Middlewares/ST/STM32_USB_Device_Library/Class/MSC/Src/usbd_msc_scsi.c ****   }
 1330              		.loc 1 697 5 is_stmt 1 view .LVU436
 1331 0098 9BB2     		uxth	r3, r3
 1332              	.LVL118:
 697:Middlewares/ST/STM32_USB_Device_Library/Class/MSC/Src/usbd_msc_scsi.c ****   }
 1333              		.loc 1 697 5 is_stmt 0 view .LVU437
 1334 009a 3A46     		mov	r2, r7
 1335              	.LVL119:
 697:Middlewares/ST/STM32_USB_Device_Library/Class/MSC/Src/usbd_msc_scsi.c ****   }
 1336              		.loc 1 697 5 view .LVU438
 1337 009c 0121     		movs	r1, #1
 1338 009e 3046     		mov	r0, r6
 1339 00a0 FFF7FEFF 		bl	USBD_LL_PrepareReceive
 1340              	.LVL120:
 700:Middlewares/ST/STM32_USB_Device_Library/Class/MSC/Src/usbd_msc_scsi.c **** }
 1341              		.loc 1 700 10 view .LVU439
ARM GAS  C:\Users\Vento\AppData\Local\Temp\cclmUhoh.s 			page 41


 1342 00a4 0020     		movs	r0, #0
 1343 00a6 E5E7     		b	.L75
 1344              		.cfi_endproc
 1345              	.LFE83:
 1347              		.section	.text.SCSI_Write10,"ax",%progbits
 1348              		.align	1
 1349              		.syntax unified
 1350              		.thumb
 1351              		.thumb_func
 1352              		.fpu softvfp
 1354              	SCSI_Write10:
 1355              	.LVL121:
 1356              	.LFB79:
 510:Middlewares/ST/STM32_USB_Device_Library/Class/MSC/Src/usbd_msc_scsi.c ****   USBD_MSC_BOT_HandleTypeDef  *hmsc = (USBD_MSC_BOT_HandleTypeDef *) pdev->pClassData;
 1357              		.loc 1 510 1 is_stmt 1 view -0
 1358              		.cfi_startproc
 1359              		@ args = 0, pretend = 0, frame = 0
 1360              		@ frame_needed = 0, uses_anonymous_args = 0
 510:Middlewares/ST/STM32_USB_Device_Library/Class/MSC/Src/usbd_msc_scsi.c ****   USBD_MSC_BOT_HandleTypeDef  *hmsc = (USBD_MSC_BOT_HandleTypeDef *) pdev->pClassData;
 1361              		.loc 1 510 1 is_stmt 0 view .LVU441
 1362 0000 2DE9F041 		push	{r4, r5, r6, r7, r8, lr}
 1363              	.LCFI16:
 1364              		.cfi_def_cfa_offset 24
 1365              		.cfi_offset 4, -24
 1366              		.cfi_offset 5, -20
 1367              		.cfi_offset 6, -16
 1368              		.cfi_offset 7, -12
 1369              		.cfi_offset 8, -8
 1370              		.cfi_offset 14, -4
 1371 0004 0646     		mov	r6, r0
 1372 0006 0F46     		mov	r7, r1
 511:Middlewares/ST/STM32_USB_Device_Library/Class/MSC/Src/usbd_msc_scsi.c ****   uint32_t len;
 1373              		.loc 1 511 3 is_stmt 1 view .LVU442
 511:Middlewares/ST/STM32_USB_Device_Library/Class/MSC/Src/usbd_msc_scsi.c ****   uint32_t len;
 1374              		.loc 1 511 32 is_stmt 0 view .LVU443
 1375 0008 D0F8B842 		ldr	r4, [r0, #696]
 1376              	.LVL122:
 512:Middlewares/ST/STM32_USB_Device_Library/Class/MSC/Src/usbd_msc_scsi.c **** 
 1377              		.loc 1 512 3 is_stmt 1 view .LVU444
 514:Middlewares/ST/STM32_USB_Device_Library/Class/MSC/Src/usbd_msc_scsi.c ****   {
 1378              		.loc 1 514 3 view .LVU445
 514:Middlewares/ST/STM32_USB_Device_Library/Class/MSC/Src/usbd_msc_scsi.c ****   {
 1379              		.loc 1 514 11 is_stmt 0 view .LVU446
 1380 000c 237A     		ldrb	r3, [r4, #8]	@ zero_extendqisi2
 514:Middlewares/ST/STM32_USB_Device_Library/Class/MSC/Src/usbd_msc_scsi.c ****   {
 1381              		.loc 1 514 6 view .LVU447
 1382 000e 002B     		cmp	r3, #0
 1383 0010 6AD1     		bne	.L80
 1384 0012 1546     		mov	r5, r2
 517:Middlewares/ST/STM32_USB_Device_Library/Class/MSC/Src/usbd_msc_scsi.c ****     {
 1385              		.loc 1 517 5 is_stmt 1 view .LVU448
 517:Middlewares/ST/STM32_USB_Device_Library/Class/MSC/Src/usbd_msc_scsi.c ****     {
 1386              		.loc 1 517 37 is_stmt 0 view .LVU449
 1387 0014 94F91832 		ldrsb	r3, [r4, #536]
 517:Middlewares/ST/STM32_USB_Device_Library/Class/MSC/Src/usbd_msc_scsi.c ****     {
 1388              		.loc 1 517 8 view .LVU450
 1389 0018 002B     		cmp	r3, #0
ARM GAS  C:\Users\Vento\AppData\Local\Temp\cclmUhoh.s 			page 42


 1390 001a 40DB     		blt	.L88
 524:Middlewares/ST/STM32_USB_Device_Library/Class/MSC/Src/usbd_msc_scsi.c ****     {
 1391              		.loc 1 524 5 is_stmt 1 view .LVU451
 524:Middlewares/ST/STM32_USB_Device_Library/Class/MSC/Src/usbd_msc_scsi.c ****     {
 1392              		.loc 1 524 37 is_stmt 0 view .LVU452
 1393 001c D0F8BC32 		ldr	r3, [r0, #700]
 524:Middlewares/ST/STM32_USB_Device_Library/Class/MSC/Src/usbd_msc_scsi.c ****     {
 1394              		.loc 1 524 49 view .LVU453
 1395 0020 9B68     		ldr	r3, [r3, #8]
 524:Middlewares/ST/STM32_USB_Device_Library/Class/MSC/Src/usbd_msc_scsi.c ****     {
 1396              		.loc 1 524 10 view .LVU454
 1397 0022 0846     		mov	r0, r1
 1398              	.LVL123:
 524:Middlewares/ST/STM32_USB_Device_Library/Class/MSC/Src/usbd_msc_scsi.c ****     {
 1399              		.loc 1 524 10 view .LVU455
 1400 0024 9847     		blx	r3
 1401              	.LVL124:
 524:Middlewares/ST/STM32_USB_Device_Library/Class/MSC/Src/usbd_msc_scsi.c ****     {
 1402              		.loc 1 524 8 view .LVU456
 1403 0026 0028     		cmp	r0, #0
 1404 0028 42D1     		bne	.L89
 531:Middlewares/ST/STM32_USB_Device_Library/Class/MSC/Src/usbd_msc_scsi.c ****     {
 1405              		.loc 1 531 5 is_stmt 1 view .LVU457
 531:Middlewares/ST/STM32_USB_Device_Library/Class/MSC/Src/usbd_msc_scsi.c ****     {
 1406              		.loc 1 531 37 is_stmt 0 view .LVU458
 1407 002a D6F8BC32 		ldr	r3, [r6, #700]
 531:Middlewares/ST/STM32_USB_Device_Library/Class/MSC/Src/usbd_msc_scsi.c ****     {
 1408              		.loc 1 531 49 view .LVU459
 1409 002e DB68     		ldr	r3, [r3, #12]
 531:Middlewares/ST/STM32_USB_Device_Library/Class/MSC/Src/usbd_msc_scsi.c ****     {
 1410              		.loc 1 531 10 view .LVU460
 1411 0030 3846     		mov	r0, r7
 1412 0032 9847     		blx	r3
 1413              	.LVL125:
 531:Middlewares/ST/STM32_USB_Device_Library/Class/MSC/Src/usbd_msc_scsi.c ****     {
 1414              		.loc 1 531 8 view .LVU461
 1415 0034 8046     		mov	r8, r0
 1416 0036 0028     		cmp	r0, #0
 1417 0038 43D1     		bne	.L90
 537:Middlewares/ST/STM32_USB_Device_Library/Class/MSC/Src/usbd_msc_scsi.c ****                           ((uint32_t)params[3] << 16) |
 1418              		.loc 1 537 5 is_stmt 1 view .LVU462
 537:Middlewares/ST/STM32_USB_Device_Library/Class/MSC/Src/usbd_msc_scsi.c ****                           ((uint32_t)params[3] << 16) |
 1419              		.loc 1 537 44 is_stmt 0 view .LVU463
 1420 003a AA78     		ldrb	r2, [r5, #2]	@ zero_extendqisi2
 538:Middlewares/ST/STM32_USB_Device_Library/Class/MSC/Src/usbd_msc_scsi.c ****                           ((uint32_t)params[4] << 8) |
 1421              		.loc 1 538 44 view .LVU464
 1422 003c EB78     		ldrb	r3, [r5, #3]	@ zero_extendqisi2
 538:Middlewares/ST/STM32_USB_Device_Library/Class/MSC/Src/usbd_msc_scsi.c ****                           ((uint32_t)params[4] << 8) |
 1423              		.loc 1 538 48 view .LVU465
 1424 003e 1B04     		lsls	r3, r3, #16
 537:Middlewares/ST/STM32_USB_Device_Library/Class/MSC/Src/usbd_msc_scsi.c ****                           ((uint32_t)params[3] << 16) |
 1425              		.loc 1 537 55 view .LVU466
 1426 0040 43EA0263 		orr	r3, r3, r2, lsl #24
 539:Middlewares/ST/STM32_USB_Device_Library/Class/MSC/Src/usbd_msc_scsi.c ****                           (uint32_t)params[5];
 1427              		.loc 1 539 44 view .LVU467
 1428 0044 2A79     		ldrb	r2, [r5, #4]	@ zero_extendqisi2
 538:Middlewares/ST/STM32_USB_Device_Library/Class/MSC/Src/usbd_msc_scsi.c ****                           ((uint32_t)params[4] << 8) |
ARM GAS  C:\Users\Vento\AppData\Local\Temp\cclmUhoh.s 			page 43


 1429              		.loc 1 538 55 view .LVU468
 1430 0046 43EA0223 		orr	r3, r3, r2, lsl #8
 540:Middlewares/ST/STM32_USB_Device_Library/Class/MSC/Src/usbd_msc_scsi.c **** 
 1431              		.loc 1 540 43 view .LVU469
 1432 004a 6A79     		ldrb	r2, [r5, #5]	@ zero_extendqisi2
 539:Middlewares/ST/STM32_USB_Device_Library/Class/MSC/Src/usbd_msc_scsi.c ****                           (uint32_t)params[5];
 1433              		.loc 1 539 54 view .LVU470
 1434 004c 1A43     		orrs	r2, r2, r3
 537:Middlewares/ST/STM32_USB_Device_Library/Class/MSC/Src/usbd_msc_scsi.c ****                           ((uint32_t)params[3] << 16) |
 1435              		.loc 1 537 25 view .LVU471
 1436 004e C4F86422 		str	r2, [r4, #612]
 542:Middlewares/ST/STM32_USB_Device_Library/Class/MSC/Src/usbd_msc_scsi.c ****                          (uint32_t)params[8];
 1437              		.loc 1 542 5 is_stmt 1 view .LVU472
 542:Middlewares/ST/STM32_USB_Device_Library/Class/MSC/Src/usbd_msc_scsi.c ****                          (uint32_t)params[8];
 1438              		.loc 1 542 43 is_stmt 0 view .LVU473
 1439 0052 E979     		ldrb	r1, [r5, #7]	@ zero_extendqisi2
 543:Middlewares/ST/STM32_USB_Device_Library/Class/MSC/Src/usbd_msc_scsi.c **** 
 1440              		.loc 1 543 42 view .LVU474
 1441 0054 2B7A     		ldrb	r3, [r5, #8]	@ zero_extendqisi2
 542:Middlewares/ST/STM32_USB_Device_Library/Class/MSC/Src/usbd_msc_scsi.c ****                          (uint32_t)params[8];
 1442              		.loc 1 542 53 view .LVU475
 1443 0056 43EA0123 		orr	r3, r3, r1, lsl #8
 542:Middlewares/ST/STM32_USB_Device_Library/Class/MSC/Src/usbd_msc_scsi.c ****                          (uint32_t)params[8];
 1444              		.loc 1 542 24 view .LVU476
 1445 005a C4F86832 		str	r3, [r4, #616]
 546:Middlewares/ST/STM32_USB_Device_Library/Class/MSC/Src/usbd_msc_scsi.c ****                                hmsc->scsi_blk_len) < 0)
 1446              		.loc 1 546 5 is_stmt 1 view .LVU477
 546:Middlewares/ST/STM32_USB_Device_Library/Class/MSC/Src/usbd_msc_scsi.c ****                                hmsc->scsi_blk_len) < 0)
 1447              		.loc 1 546 9 is_stmt 0 view .LVU478
 1448 005e 3946     		mov	r1, r7
 1449 0060 3046     		mov	r0, r6
 1450 0062 FFF7FEFF 		bl	SCSI_CheckAddressRange
 1451              	.LVL126:
 546:Middlewares/ST/STM32_USB_Device_Library/Class/MSC/Src/usbd_msc_scsi.c ****                                hmsc->scsi_blk_len) < 0)
 1452              		.loc 1 546 8 view .LVU479
 1453 0066 0028     		cmp	r0, #0
 1454 0068 42DB     		blt	.L86
 552:Middlewares/ST/STM32_USB_Device_Library/Class/MSC/Src/usbd_msc_scsi.c **** 
 1455              		.loc 1 552 5 is_stmt 1 view .LVU480
 552:Middlewares/ST/STM32_USB_Device_Library/Class/MSC/Src/usbd_msc_scsi.c **** 
 1456              		.loc 1 552 15 is_stmt 0 view .LVU481
 1457 006a D4F86832 		ldr	r3, [r4, #616]
 552:Middlewares/ST/STM32_USB_Device_Library/Class/MSC/Src/usbd_msc_scsi.c **** 
 1458              		.loc 1 552 36 view .LVU482
 1459 006e B4F85E22 		ldrh	r2, [r4, #606]
 552:Middlewares/ST/STM32_USB_Device_Library/Class/MSC/Src/usbd_msc_scsi.c **** 
 1460              		.loc 1 552 9 view .LVU483
 1461 0072 02FB03F3 		mul	r3, r2, r3
 1462              	.LVL127:
 555:Middlewares/ST/STM32_USB_Device_Library/Class/MSC/Src/usbd_msc_scsi.c ****     {
 1463              		.loc 1 555 5 is_stmt 1 view .LVU484
 555:Middlewares/ST/STM32_USB_Device_Library/Class/MSC/Src/usbd_msc_scsi.c ****     {
 1464              		.loc 1 555 18 is_stmt 0 view .LVU485
 1465 0076 D4F81422 		ldr	r2, [r4, #532]
 555:Middlewares/ST/STM32_USB_Device_Library/Class/MSC/Src/usbd_msc_scsi.c ****     {
 1466              		.loc 1 555 8 view .LVU486
 1467 007a 9A42     		cmp	r2, r3
ARM GAS  C:\Users\Vento\AppData\Local\Temp\cclmUhoh.s 			page 44


 1468 007c 2AD1     		bne	.L91
 561:Middlewares/ST/STM32_USB_Device_Library/Class/MSC/Src/usbd_msc_scsi.c **** 
 1469              		.loc 1 561 5 is_stmt 1 view .LVU487
 561:Middlewares/ST/STM32_USB_Device_Library/Class/MSC/Src/usbd_msc_scsi.c **** 
 1470              		.loc 1 561 9 is_stmt 0 view .LVU488
 1471 007e B3F5007F 		cmp	r3, #512
 1472 0082 28BF     		it	cs
 1473 0084 4FF40073 		movcs	r3, #512
 1474              	.LVL128:
 564:Middlewares/ST/STM32_USB_Device_Library/Class/MSC/Src/usbd_msc_scsi.c ****     USBD_LL_PrepareReceive(pdev, MSC_EPOUT_ADDR, hmsc->bot_data, len);
 1475              		.loc 1 564 5 is_stmt 1 view .LVU489
 564:Middlewares/ST/STM32_USB_Device_Library/Class/MSC/Src/usbd_msc_scsi.c ****     USBD_LL_PrepareReceive(pdev, MSC_EPOUT_ADDR, hmsc->bot_data, len);
 1476              		.loc 1 564 21 is_stmt 0 view .LVU490
 1477 0088 0121     		movs	r1, #1
 1478 008a 2172     		strb	r1, [r4, #8]
 565:Middlewares/ST/STM32_USB_Device_Library/Class/MSC/Src/usbd_msc_scsi.c ****   }
 1479              		.loc 1 565 5 is_stmt 1 view .LVU491
 1480 008c 9BB2     		uxth	r3, r3
 1481              	.LVL129:
 565:Middlewares/ST/STM32_USB_Device_Library/Class/MSC/Src/usbd_msc_scsi.c ****   }
 1482              		.loc 1 565 5 is_stmt 0 view .LVU492
 1483 008e 04F10C02 		add	r2, r4, #12
 1484 0092 3046     		mov	r0, r6
 1485 0094 FFF7FEFF 		bl	USBD_LL_PrepareReceive
 1486              	.LVL130:
 571:Middlewares/ST/STM32_USB_Device_Library/Class/MSC/Src/usbd_msc_scsi.c **** }
 1487              		.loc 1 571 3 is_stmt 1 view .LVU493
 1488              	.L82:
 572:Middlewares/ST/STM32_USB_Device_Library/Class/MSC/Src/usbd_msc_scsi.c **** 
 1489              		.loc 1 572 1 is_stmt 0 view .LVU494
 1490 0098 4046     		mov	r0, r8
 1491 009a BDE8F081 		pop	{r4, r5, r6, r7, r8, pc}
 1492              	.LVL131:
 1493              	.L88:
 519:Middlewares/ST/STM32_USB_Device_Library/Class/MSC/Src/usbd_msc_scsi.c ****       return -1;
 1494              		.loc 1 519 7 is_stmt 1 view .LVU495
 1495 009e 2023     		movs	r3, #32
 1496 00a0 0522     		movs	r2, #5
 1497              	.LVL132:
 519:Middlewares/ST/STM32_USB_Device_Library/Class/MSC/Src/usbd_msc_scsi.c ****       return -1;
 1498              		.loc 1 519 7 is_stmt 0 view .LVU496
 1499 00a2 94F81912 		ldrb	r1, [r4, #537]	@ zero_extendqisi2
 1500              	.LVL133:
 519:Middlewares/ST/STM32_USB_Device_Library/Class/MSC/Src/usbd_msc_scsi.c ****       return -1;
 1501              		.loc 1 519 7 view .LVU497
 1502 00a6 FFF7FEFF 		bl	SCSI_SenseCode
 1503              	.LVL134:
 520:Middlewares/ST/STM32_USB_Device_Library/Class/MSC/Src/usbd_msc_scsi.c ****     }
 1504              		.loc 1 520 7 is_stmt 1 view .LVU498
 520:Middlewares/ST/STM32_USB_Device_Library/Class/MSC/Src/usbd_msc_scsi.c ****     }
 1505              		.loc 1 520 14 is_stmt 0 view .LVU499
 1506 00aa 4FF0FF38 		mov	r8, #-1
 1507 00ae F3E7     		b	.L82
 1508              	.L89:
 526:Middlewares/ST/STM32_USB_Device_Library/Class/MSC/Src/usbd_msc_scsi.c ****       return -1;
 1509              		.loc 1 526 7 is_stmt 1 view .LVU500
 1510 00b0 3A23     		movs	r3, #58
ARM GAS  C:\Users\Vento\AppData\Local\Temp\cclmUhoh.s 			page 45


 1511 00b2 0222     		movs	r2, #2
 1512 00b4 3946     		mov	r1, r7
 1513 00b6 3046     		mov	r0, r6
 1514 00b8 FFF7FEFF 		bl	SCSI_SenseCode
 1515              	.LVL135:
 527:Middlewares/ST/STM32_USB_Device_Library/Class/MSC/Src/usbd_msc_scsi.c ****     }
 1516              		.loc 1 527 7 view .LVU501
 527:Middlewares/ST/STM32_USB_Device_Library/Class/MSC/Src/usbd_msc_scsi.c ****     }
 1517              		.loc 1 527 14 is_stmt 0 view .LVU502
 1518 00bc 4FF0FF38 		mov	r8, #-1
 1519 00c0 EAE7     		b	.L82
 1520              	.L90:
 533:Middlewares/ST/STM32_USB_Device_Library/Class/MSC/Src/usbd_msc_scsi.c ****       return -1;
 1521              		.loc 1 533 7 is_stmt 1 view .LVU503
 1522 00c2 2723     		movs	r3, #39
 1523 00c4 0222     		movs	r2, #2
 1524 00c6 3946     		mov	r1, r7
 1525 00c8 3046     		mov	r0, r6
 1526 00ca FFF7FEFF 		bl	SCSI_SenseCode
 1527              	.LVL136:
 534:Middlewares/ST/STM32_USB_Device_Library/Class/MSC/Src/usbd_msc_scsi.c ****     }
 1528              		.loc 1 534 7 view .LVU504
 534:Middlewares/ST/STM32_USB_Device_Library/Class/MSC/Src/usbd_msc_scsi.c ****     }
 1529              		.loc 1 534 14 is_stmt 0 view .LVU505
 1530 00ce 4FF0FF38 		mov	r8, #-1
 1531 00d2 E1E7     		b	.L82
 1532              	.LVL137:
 1533              	.L91:
 557:Middlewares/ST/STM32_USB_Device_Library/Class/MSC/Src/usbd_msc_scsi.c ****       return -1;
 1534              		.loc 1 557 7 is_stmt 1 view .LVU506
 1535 00d4 2023     		movs	r3, #32
 1536              	.LVL138:
 557:Middlewares/ST/STM32_USB_Device_Library/Class/MSC/Src/usbd_msc_scsi.c ****       return -1;
 1537              		.loc 1 557 7 is_stmt 0 view .LVU507
 1538 00d6 0522     		movs	r2, #5
 1539 00d8 94F81912 		ldrb	r1, [r4, #537]	@ zero_extendqisi2
 1540 00dc 3046     		mov	r0, r6
 1541 00de FFF7FEFF 		bl	SCSI_SenseCode
 1542              	.LVL139:
 558:Middlewares/ST/STM32_USB_Device_Library/Class/MSC/Src/usbd_msc_scsi.c ****     }
 1543              		.loc 1 558 7 is_stmt 1 view .LVU508
 558:Middlewares/ST/STM32_USB_Device_Library/Class/MSC/Src/usbd_msc_scsi.c ****     }
 1544              		.loc 1 558 14 is_stmt 0 view .LVU509
 1545 00e2 4FF0FF38 		mov	r8, #-1
 1546 00e6 D7E7     		b	.L82
 1547              	.LVL140:
 1548              	.L80:
 569:Middlewares/ST/STM32_USB_Device_Library/Class/MSC/Src/usbd_msc_scsi.c ****   }
 1549              		.loc 1 569 5 is_stmt 1 view .LVU510
 569:Middlewares/ST/STM32_USB_Device_Library/Class/MSC/Src/usbd_msc_scsi.c ****   }
 1550              		.loc 1 569 12 is_stmt 0 view .LVU511
 1551 00e8 FFF7FEFF 		bl	SCSI_ProcessWrite
 1552              	.LVL141:
 569:Middlewares/ST/STM32_USB_Device_Library/Class/MSC/Src/usbd_msc_scsi.c ****   }
 1553              		.loc 1 569 12 view .LVU512
 1554 00ec 8046     		mov	r8, r0
 1555 00ee D3E7     		b	.L82
ARM GAS  C:\Users\Vento\AppData\Local\Temp\cclmUhoh.s 			page 46


 1556              	.LVL142:
 1557              	.L86:
 549:Middlewares/ST/STM32_USB_Device_Library/Class/MSC/Src/usbd_msc_scsi.c ****     }
 1558              		.loc 1 549 14 view .LVU513
 1559 00f0 4FF0FF38 		mov	r8, #-1
 1560 00f4 D0E7     		b	.L82
 1561              		.cfi_endproc
 1562              	.LFE79:
 1564              		.section	.text.SCSI_Verify10,"ax",%progbits
 1565              		.align	1
 1566              		.syntax unified
 1567              		.thumb
 1568              		.thumb_func
 1569              		.fpu softvfp
 1571              	SCSI_Verify10:
 1572              	.LVL143:
 1573              	.LFB80:
 584:Middlewares/ST/STM32_USB_Device_Library/Class/MSC/Src/usbd_msc_scsi.c ****   USBD_MSC_BOT_HandleTypeDef  *hmsc = (USBD_MSC_BOT_HandleTypeDef *) pdev->pClassData;
 1574              		.loc 1 584 1 is_stmt 1 view -0
 1575              		.cfi_startproc
 1576              		@ args = 0, pretend = 0, frame = 0
 1577              		@ frame_needed = 0, uses_anonymous_args = 0
 584:Middlewares/ST/STM32_USB_Device_Library/Class/MSC/Src/usbd_msc_scsi.c ****   USBD_MSC_BOT_HandleTypeDef  *hmsc = (USBD_MSC_BOT_HandleTypeDef *) pdev->pClassData;
 1578              		.loc 1 584 1 is_stmt 0 view .LVU515
 1579 0000 10B5     		push	{r4, lr}
 1580              	.LCFI17:
 1581              		.cfi_def_cfa_offset 8
 1582              		.cfi_offset 4, -8
 1583              		.cfi_offset 14, -4
 585:Middlewares/ST/STM32_USB_Device_Library/Class/MSC/Src/usbd_msc_scsi.c **** 
 1584              		.loc 1 585 3 is_stmt 1 view .LVU516
 585:Middlewares/ST/STM32_USB_Device_Library/Class/MSC/Src/usbd_msc_scsi.c **** 
 1585              		.loc 1 585 32 is_stmt 0 view .LVU517
 1586 0002 D0F8B842 		ldr	r4, [r0, #696]
 1587              	.LVL144:
 587:Middlewares/ST/STM32_USB_Device_Library/Class/MSC/Src/usbd_msc_scsi.c ****   {
 1588              		.loc 1 587 3 is_stmt 1 view .LVU518
 587:Middlewares/ST/STM32_USB_Device_Library/Class/MSC/Src/usbd_msc_scsi.c ****   {
 1589              		.loc 1 587 14 is_stmt 0 view .LVU519
 1590 0006 5378     		ldrb	r3, [r2, #1]	@ zero_extendqisi2
 587:Middlewares/ST/STM32_USB_Device_Library/Class/MSC/Src/usbd_msc_scsi.c ****   {
 1591              		.loc 1 587 6 view .LVU520
 1592 0008 13F0020F 		tst	r3, #2
 1593 000c 0AD1     		bne	.L97
 593:Middlewares/ST/STM32_USB_Device_Library/Class/MSC/Src/usbd_msc_scsi.c ****                              hmsc->scsi_blk_len) < 0)
 1594              		.loc 1 593 3 is_stmt 1 view .LVU521
 593:Middlewares/ST/STM32_USB_Device_Library/Class/MSC/Src/usbd_msc_scsi.c ****                              hmsc->scsi_blk_len) < 0)
 1595              		.loc 1 593 7 is_stmt 0 view .LVU522
 1596 000e D4F86832 		ldr	r3, [r4, #616]
 1597 0012 D4F86422 		ldr	r2, [r4, #612]
 1598              	.LVL145:
 593:Middlewares/ST/STM32_USB_Device_Library/Class/MSC/Src/usbd_msc_scsi.c ****                              hmsc->scsi_blk_len) < 0)
 1599              		.loc 1 593 7 view .LVU523
 1600 0016 FFF7FEFF 		bl	SCSI_CheckAddressRange
 1601              	.LVL146:
 593:Middlewares/ST/STM32_USB_Device_Library/Class/MSC/Src/usbd_msc_scsi.c ****                              hmsc->scsi_blk_len) < 0)
 1602              		.loc 1 593 6 view .LVU524
ARM GAS  C:\Users\Vento\AppData\Local\Temp\cclmUhoh.s 			page 47


 1603 001a 0028     		cmp	r0, #0
 1604 001c 09DB     		blt	.L95
 598:Middlewares/ST/STM32_USB_Device_Library/Class/MSC/Src/usbd_msc_scsi.c ****   return 0;
 1605              		.loc 1 598 3 is_stmt 1 view .LVU525
 598:Middlewares/ST/STM32_USB_Device_Library/Class/MSC/Src/usbd_msc_scsi.c ****   return 0;
 1606              		.loc 1 598 25 is_stmt 0 view .LVU526
 1607 001e 0020     		movs	r0, #0
 1608 0020 6081     		strh	r0, [r4, #10]	@ movhi
 599:Middlewares/ST/STM32_USB_Device_Library/Class/MSC/Src/usbd_msc_scsi.c **** }
 1609              		.loc 1 599 3 is_stmt 1 view .LVU527
 1610              	.L94:
 600:Middlewares/ST/STM32_USB_Device_Library/Class/MSC/Src/usbd_msc_scsi.c **** 
 1611              		.loc 1 600 1 is_stmt 0 view .LVU528
 1612 0022 10BD     		pop	{r4, pc}
 1613              	.LVL147:
 1614              	.L97:
 589:Middlewares/ST/STM32_USB_Device_Library/Class/MSC/Src/usbd_msc_scsi.c ****     return -1; /* Error, Verify Mode Not supported*/
 1615              		.loc 1 589 5 is_stmt 1 view .LVU529
 1616 0024 2423     		movs	r3, #36
 1617 0026 0522     		movs	r2, #5
 1618              	.LVL148:
 589:Middlewares/ST/STM32_USB_Device_Library/Class/MSC/Src/usbd_msc_scsi.c ****     return -1; /* Error, Verify Mode Not supported*/
 1619              		.loc 1 589 5 is_stmt 0 view .LVU530
 1620 0028 FFF7FEFF 		bl	SCSI_SenseCode
 1621              	.LVL149:
 590:Middlewares/ST/STM32_USB_Device_Library/Class/MSC/Src/usbd_msc_scsi.c ****   }
 1622              		.loc 1 590 5 is_stmt 1 view .LVU531
 590:Middlewares/ST/STM32_USB_Device_Library/Class/MSC/Src/usbd_msc_scsi.c ****   }
 1623              		.loc 1 590 12 is_stmt 0 view .LVU532
 1624 002c 4FF0FF30 		mov	r0, #-1
 1625 0030 F7E7     		b	.L94
 1626              	.L95:
 596:Middlewares/ST/STM32_USB_Device_Library/Class/MSC/Src/usbd_msc_scsi.c ****   }
 1627              		.loc 1 596 12 view .LVU533
 1628 0032 4FF0FF30 		mov	r0, #-1
 1629 0036 F4E7     		b	.L94
 1630              		.cfi_endproc
 1631              	.LFE80:
 1633              		.section	.text.SCSI_ProcessCmd,"ax",%progbits
 1634              		.align	1
 1635              		.global	SCSI_ProcessCmd
 1636              		.syntax unified
 1637              		.thumb
 1638              		.thumb_func
 1639              		.fpu softvfp
 1641              	SCSI_ProcessCmd:
 1642              	.LVL150:
 1643              	.LFB68:
 116:Middlewares/ST/STM32_USB_Device_Library/Class/MSC/Src/usbd_msc_scsi.c ****   switch (cmd[0])
 1644              		.loc 1 116 1 is_stmt 1 view -0
 1645              		.cfi_startproc
 1646              		@ args = 0, pretend = 0, frame = 0
 1647              		@ frame_needed = 0, uses_anonymous_args = 0
 116:Middlewares/ST/STM32_USB_Device_Library/Class/MSC/Src/usbd_msc_scsi.c ****   switch (cmd[0])
 1648              		.loc 1 116 1 is_stmt 0 view .LVU535
 1649 0000 08B5     		push	{r3, lr}
 1650              	.LCFI18:
ARM GAS  C:\Users\Vento\AppData\Local\Temp\cclmUhoh.s 			page 48


 1651              		.cfi_def_cfa_offset 8
 1652              		.cfi_offset 3, -8
 1653              		.cfi_offset 14, -4
 117:Middlewares/ST/STM32_USB_Device_Library/Class/MSC/Src/usbd_msc_scsi.c ****   {
 1654              		.loc 1 117 3 is_stmt 1 view .LVU536
 117:Middlewares/ST/STM32_USB_Device_Library/Class/MSC/Src/usbd_msc_scsi.c ****   {
 1655              		.loc 1 117 14 is_stmt 0 view .LVU537
 1656 0002 1378     		ldrb	r3, [r2]	@ zero_extendqisi2
 117:Middlewares/ST/STM32_USB_Device_Library/Class/MSC/Src/usbd_msc_scsi.c ****   {
 1657              		.loc 1 117 3 view .LVU538
 1658 0004 5A2B     		cmp	r3, #90
 1659 0006 5FD8     		bhi	.L99
 1660 0008 DFE803F0 		tbb	[pc, r3]
 1661              	.L101:
 1662 000c 2E       		.byte	(.L112-.L101)/2
 1663 000d 5E       		.byte	(.L99-.L101)/2
 1664 000e 5E       		.byte	(.L99-.L101)/2
 1665 000f 32       		.byte	(.L111-.L101)/2
 1666 0010 5E       		.byte	(.L99-.L101)/2
 1667 0011 5E       		.byte	(.L99-.L101)/2
 1668 0012 5E       		.byte	(.L99-.L101)/2
 1669 0013 5E       		.byte	(.L99-.L101)/2
 1670 0014 5E       		.byte	(.L99-.L101)/2
 1671 0015 5E       		.byte	(.L99-.L101)/2
 1672 0016 5E       		.byte	(.L99-.L101)/2
 1673 0017 5E       		.byte	(.L99-.L101)/2
 1674 0018 5E       		.byte	(.L99-.L101)/2
 1675 0019 5E       		.byte	(.L99-.L101)/2
 1676 001a 5E       		.byte	(.L99-.L101)/2
 1677 001b 5E       		.byte	(.L99-.L101)/2
 1678 001c 5E       		.byte	(.L99-.L101)/2
 1679 001d 5E       		.byte	(.L99-.L101)/2
 1680 001e 36       		.byte	(.L110-.L101)/2
 1681 001f 5E       		.byte	(.L99-.L101)/2
 1682 0020 5E       		.byte	(.L99-.L101)/2
 1683 0021 5E       		.byte	(.L99-.L101)/2
 1684 0022 5E       		.byte	(.L99-.L101)/2
 1685 0023 5E       		.byte	(.L99-.L101)/2
 1686 0024 5E       		.byte	(.L99-.L101)/2
 1687 0025 5E       		.byte	(.L99-.L101)/2
 1688 0026 42       		.byte	(.L109-.L101)/2
 1689 0027 3A       		.byte	(.L108-.L101)/2
 1690 0028 5E       		.byte	(.L99-.L101)/2
 1691 0029 5E       		.byte	(.L99-.L101)/2
 1692 002a 3E       		.byte	(.L107-.L101)/2
 1693 002b 5E       		.byte	(.L99-.L101)/2
 1694 002c 5E       		.byte	(.L99-.L101)/2
 1695 002d 5E       		.byte	(.L99-.L101)/2
 1696 002e 5E       		.byte	(.L99-.L101)/2
 1697 002f 4A       		.byte	(.L106-.L101)/2
 1698 0030 5E       		.byte	(.L99-.L101)/2
 1699 0031 4E       		.byte	(.L105-.L101)/2
 1700 0032 5E       		.byte	(.L99-.L101)/2
 1701 0033 5E       		.byte	(.L99-.L101)/2
 1702 0034 52       		.byte	(.L104-.L101)/2
 1703 0035 5E       		.byte	(.L99-.L101)/2
 1704 0036 56       		.byte	(.L103-.L101)/2
ARM GAS  C:\Users\Vento\AppData\Local\Temp\cclmUhoh.s 			page 49


 1705 0037 5E       		.byte	(.L99-.L101)/2
 1706 0038 5E       		.byte	(.L99-.L101)/2
 1707 0039 5E       		.byte	(.L99-.L101)/2
 1708 003a 5E       		.byte	(.L99-.L101)/2
 1709 003b 5A       		.byte	(.L102-.L101)/2
 1710 003c 5E       		.byte	(.L99-.L101)/2
 1711 003d 5E       		.byte	(.L99-.L101)/2
 1712 003e 5E       		.byte	(.L99-.L101)/2
 1713 003f 5E       		.byte	(.L99-.L101)/2
 1714 0040 5E       		.byte	(.L99-.L101)/2
 1715 0041 5E       		.byte	(.L99-.L101)/2
 1716 0042 5E       		.byte	(.L99-.L101)/2
 1717 0043 5E       		.byte	(.L99-.L101)/2
 1718 0044 5E       		.byte	(.L99-.L101)/2
 1719 0045 5E       		.byte	(.L99-.L101)/2
 1720 0046 5E       		.byte	(.L99-.L101)/2
 1721 0047 5E       		.byte	(.L99-.L101)/2
 1722 0048 5E       		.byte	(.L99-.L101)/2
 1723 0049 5E       		.byte	(.L99-.L101)/2
 1724 004a 5E       		.byte	(.L99-.L101)/2
 1725 004b 5E       		.byte	(.L99-.L101)/2
 1726 004c 5E       		.byte	(.L99-.L101)/2
 1727 004d 5E       		.byte	(.L99-.L101)/2
 1728 004e 5E       		.byte	(.L99-.L101)/2
 1729 004f 5E       		.byte	(.L99-.L101)/2
 1730 0050 5E       		.byte	(.L99-.L101)/2
 1731 0051 5E       		.byte	(.L99-.L101)/2
 1732 0052 5E       		.byte	(.L99-.L101)/2
 1733 0053 5E       		.byte	(.L99-.L101)/2
 1734 0054 5E       		.byte	(.L99-.L101)/2
 1735 0055 5E       		.byte	(.L99-.L101)/2
 1736 0056 5E       		.byte	(.L99-.L101)/2
 1737 0057 5E       		.byte	(.L99-.L101)/2
 1738 0058 5E       		.byte	(.L99-.L101)/2
 1739 0059 5E       		.byte	(.L99-.L101)/2
 1740 005a 5E       		.byte	(.L99-.L101)/2
 1741 005b 5E       		.byte	(.L99-.L101)/2
 1742 005c 5E       		.byte	(.L99-.L101)/2
 1743 005d 5E       		.byte	(.L99-.L101)/2
 1744 005e 5E       		.byte	(.L99-.L101)/2
 1745 005f 5E       		.byte	(.L99-.L101)/2
 1746 0060 5E       		.byte	(.L99-.L101)/2
 1747 0061 5E       		.byte	(.L99-.L101)/2
 1748 0062 5E       		.byte	(.L99-.L101)/2
 1749 0063 5E       		.byte	(.L99-.L101)/2
 1750 0064 5E       		.byte	(.L99-.L101)/2
 1751 0065 5E       		.byte	(.L99-.L101)/2
 1752 0066 46       		.byte	(.L100-.L101)/2
 1753 0067 00       		.p2align 1
 1754              	.L112:
 120:Middlewares/ST/STM32_USB_Device_Library/Class/MSC/Src/usbd_msc_scsi.c ****       break;
 1755              		.loc 1 120 7 is_stmt 1 view .LVU539
 1756 0068 FFF7FEFF 		bl	SCSI_TestUnitReady
 1757              	.LVL151:
 121:Middlewares/ST/STM32_USB_Device_Library/Class/MSC/Src/usbd_msc_scsi.c **** 
 1758              		.loc 1 121 7 view .LVU540
 171:Middlewares/ST/STM32_USB_Device_Library/Class/MSC/Src/usbd_msc_scsi.c **** }
ARM GAS  C:\Users\Vento\AppData\Local\Temp\cclmUhoh.s 			page 50


 1759              		.loc 1 171 10 is_stmt 0 view .LVU541
 1760 006c 0020     		movs	r0, #0
 1761              	.L113:
 172:Middlewares/ST/STM32_USB_Device_Library/Class/MSC/Src/usbd_msc_scsi.c **** 
 1762              		.loc 1 172 1 view .LVU542
 1763 006e 08BD     		pop	{r3, pc}
 1764              	.LVL152:
 1765              	.L111:
 124:Middlewares/ST/STM32_USB_Device_Library/Class/MSC/Src/usbd_msc_scsi.c ****       break;
 1766              		.loc 1 124 7 is_stmt 1 view .LVU543
 1767 0070 FFF7FEFF 		bl	SCSI_RequestSense
 1768              	.LVL153:
 125:Middlewares/ST/STM32_USB_Device_Library/Class/MSC/Src/usbd_msc_scsi.c ****     case SCSI_INQUIRY:
 1769              		.loc 1 125 7 view .LVU544
 171:Middlewares/ST/STM32_USB_Device_Library/Class/MSC/Src/usbd_msc_scsi.c **** }
 1770              		.loc 1 171 10 is_stmt 0 view .LVU545
 1771 0074 0020     		movs	r0, #0
 125:Middlewares/ST/STM32_USB_Device_Library/Class/MSC/Src/usbd_msc_scsi.c ****     case SCSI_INQUIRY:
 1772              		.loc 1 125 7 view .LVU546
 1773 0076 FAE7     		b	.L113
 1774              	.LVL154:
 1775              	.L110:
 127:Middlewares/ST/STM32_USB_Device_Library/Class/MSC/Src/usbd_msc_scsi.c ****       break;
 1776              		.loc 1 127 7 is_stmt 1 view .LVU547
 1777 0078 FFF7FEFF 		bl	SCSI_Inquiry
 1778              	.LVL155:
 128:Middlewares/ST/STM32_USB_Device_Library/Class/MSC/Src/usbd_msc_scsi.c **** 
 1779              		.loc 1 128 7 view .LVU548
 171:Middlewares/ST/STM32_USB_Device_Library/Class/MSC/Src/usbd_msc_scsi.c **** }
 1780              		.loc 1 171 10 is_stmt 0 view .LVU549
 1781 007c 0020     		movs	r0, #0
 128:Middlewares/ST/STM32_USB_Device_Library/Class/MSC/Src/usbd_msc_scsi.c **** 
 1782              		.loc 1 128 7 view .LVU550
 1783 007e F6E7     		b	.L113
 1784              	.LVL156:
 1785              	.L108:
 131:Middlewares/ST/STM32_USB_Device_Library/Class/MSC/Src/usbd_msc_scsi.c ****       break;
 1786              		.loc 1 131 7 is_stmt 1 view .LVU551
 1787 0080 FFF7FEFF 		bl	SCSI_StartStopUnit
 1788              	.LVL157:
 132:Middlewares/ST/STM32_USB_Device_Library/Class/MSC/Src/usbd_msc_scsi.c **** 
 1789              		.loc 1 132 7 view .LVU552
 171:Middlewares/ST/STM32_USB_Device_Library/Class/MSC/Src/usbd_msc_scsi.c **** }
 1790              		.loc 1 171 10 is_stmt 0 view .LVU553
 1791 0084 0020     		movs	r0, #0
 132:Middlewares/ST/STM32_USB_Device_Library/Class/MSC/Src/usbd_msc_scsi.c **** 
 1792              		.loc 1 132 7 view .LVU554
 1793 0086 F2E7     		b	.L113
 1794              	.LVL158:
 1795              	.L107:
 135:Middlewares/ST/STM32_USB_Device_Library/Class/MSC/Src/usbd_msc_scsi.c ****       break;
 1796              		.loc 1 135 7 is_stmt 1 view .LVU555
 1797 0088 FFF7FEFF 		bl	SCSI_StartStopUnit
 1798              	.LVL159:
 136:Middlewares/ST/STM32_USB_Device_Library/Class/MSC/Src/usbd_msc_scsi.c **** 
 1799              		.loc 1 136 7 view .LVU556
 171:Middlewares/ST/STM32_USB_Device_Library/Class/MSC/Src/usbd_msc_scsi.c **** }
ARM GAS  C:\Users\Vento\AppData\Local\Temp\cclmUhoh.s 			page 51


 1800              		.loc 1 171 10 is_stmt 0 view .LVU557
 1801 008c 0020     		movs	r0, #0
 136:Middlewares/ST/STM32_USB_Device_Library/Class/MSC/Src/usbd_msc_scsi.c **** 
 1802              		.loc 1 136 7 view .LVU558
 1803 008e EEE7     		b	.L113
 1804              	.LVL160:
 1805              	.L109:
 139:Middlewares/ST/STM32_USB_Device_Library/Class/MSC/Src/usbd_msc_scsi.c ****       break;
 1806              		.loc 1 139 7 is_stmt 1 view .LVU559
 1807 0090 FFF7FEFF 		bl	SCSI_ModeSense6
 1808              	.LVL161:
 140:Middlewares/ST/STM32_USB_Device_Library/Class/MSC/Src/usbd_msc_scsi.c **** 
 1809              		.loc 1 140 7 view .LVU560
 171:Middlewares/ST/STM32_USB_Device_Library/Class/MSC/Src/usbd_msc_scsi.c **** }
 1810              		.loc 1 171 10 is_stmt 0 view .LVU561
 1811 0094 0020     		movs	r0, #0
 140:Middlewares/ST/STM32_USB_Device_Library/Class/MSC/Src/usbd_msc_scsi.c **** 
 1812              		.loc 1 140 7 view .LVU562
 1813 0096 EAE7     		b	.L113
 1814              	.LVL162:
 1815              	.L100:
 143:Middlewares/ST/STM32_USB_Device_Library/Class/MSC/Src/usbd_msc_scsi.c ****       break;
 1816              		.loc 1 143 7 is_stmt 1 view .LVU563
 1817 0098 FFF7FEFF 		bl	SCSI_ModeSense10
 1818              	.LVL163:
 144:Middlewares/ST/STM32_USB_Device_Library/Class/MSC/Src/usbd_msc_scsi.c **** 
 1819              		.loc 1 144 7 view .LVU564
 171:Middlewares/ST/STM32_USB_Device_Library/Class/MSC/Src/usbd_msc_scsi.c **** }
 1820              		.loc 1 171 10 is_stmt 0 view .LVU565
 1821 009c 0020     		movs	r0, #0
 144:Middlewares/ST/STM32_USB_Device_Library/Class/MSC/Src/usbd_msc_scsi.c **** 
 1822              		.loc 1 144 7 view .LVU566
 1823 009e E6E7     		b	.L113
 1824              	.LVL164:
 1825              	.L106:
 147:Middlewares/ST/STM32_USB_Device_Library/Class/MSC/Src/usbd_msc_scsi.c ****       break;
 1826              		.loc 1 147 7 is_stmt 1 view .LVU567
 1827 00a0 FFF7FEFF 		bl	SCSI_ReadFormatCapacity
 1828              	.LVL165:
 148:Middlewares/ST/STM32_USB_Device_Library/Class/MSC/Src/usbd_msc_scsi.c **** 
 1829              		.loc 1 148 7 view .LVU568
 171:Middlewares/ST/STM32_USB_Device_Library/Class/MSC/Src/usbd_msc_scsi.c **** }
 1830              		.loc 1 171 10 is_stmt 0 view .LVU569
 1831 00a4 0020     		movs	r0, #0
 148:Middlewares/ST/STM32_USB_Device_Library/Class/MSC/Src/usbd_msc_scsi.c **** 
 1832              		.loc 1 148 7 view .LVU570
 1833 00a6 E2E7     		b	.L113
 1834              	.LVL166:
 1835              	.L105:
 151:Middlewares/ST/STM32_USB_Device_Library/Class/MSC/Src/usbd_msc_scsi.c ****       break;
 1836              		.loc 1 151 7 is_stmt 1 view .LVU571
 1837 00a8 FFF7FEFF 		bl	SCSI_ReadCapacity10
 1838              	.LVL167:
 152:Middlewares/ST/STM32_USB_Device_Library/Class/MSC/Src/usbd_msc_scsi.c **** 
 1839              		.loc 1 152 7 view .LVU572
 171:Middlewares/ST/STM32_USB_Device_Library/Class/MSC/Src/usbd_msc_scsi.c **** }
 1840              		.loc 1 171 10 is_stmt 0 view .LVU573
ARM GAS  C:\Users\Vento\AppData\Local\Temp\cclmUhoh.s 			page 52


 1841 00ac 0020     		movs	r0, #0
 152:Middlewares/ST/STM32_USB_Device_Library/Class/MSC/Src/usbd_msc_scsi.c **** 
 1842              		.loc 1 152 7 view .LVU574
 1843 00ae DEE7     		b	.L113
 1844              	.LVL168:
 1845              	.L104:
 155:Middlewares/ST/STM32_USB_Device_Library/Class/MSC/Src/usbd_msc_scsi.c ****       break;
 1846              		.loc 1 155 7 is_stmt 1 view .LVU575
 1847 00b0 FFF7FEFF 		bl	SCSI_Read10
 1848              	.LVL169:
 156:Middlewares/ST/STM32_USB_Device_Library/Class/MSC/Src/usbd_msc_scsi.c **** 
 1849              		.loc 1 156 7 view .LVU576
 171:Middlewares/ST/STM32_USB_Device_Library/Class/MSC/Src/usbd_msc_scsi.c **** }
 1850              		.loc 1 171 10 is_stmt 0 view .LVU577
 1851 00b4 0020     		movs	r0, #0
 156:Middlewares/ST/STM32_USB_Device_Library/Class/MSC/Src/usbd_msc_scsi.c **** 
 1852              		.loc 1 156 7 view .LVU578
 1853 00b6 DAE7     		b	.L113
 1854              	.LVL170:
 1855              	.L103:
 159:Middlewares/ST/STM32_USB_Device_Library/Class/MSC/Src/usbd_msc_scsi.c ****       break;
 1856              		.loc 1 159 7 is_stmt 1 view .LVU579
 1857 00b8 FFF7FEFF 		bl	SCSI_Write10
 1858              	.LVL171:
 160:Middlewares/ST/STM32_USB_Device_Library/Class/MSC/Src/usbd_msc_scsi.c **** 
 1859              		.loc 1 160 7 view .LVU580
 171:Middlewares/ST/STM32_USB_Device_Library/Class/MSC/Src/usbd_msc_scsi.c **** }
 1860              		.loc 1 171 10 is_stmt 0 view .LVU581
 1861 00bc 0020     		movs	r0, #0
 160:Middlewares/ST/STM32_USB_Device_Library/Class/MSC/Src/usbd_msc_scsi.c **** 
 1862              		.loc 1 160 7 view .LVU582
 1863 00be D6E7     		b	.L113
 1864              	.LVL172:
 1865              	.L102:
 163:Middlewares/ST/STM32_USB_Device_Library/Class/MSC/Src/usbd_msc_scsi.c ****       break;
 1866              		.loc 1 163 7 is_stmt 1 view .LVU583
 1867 00c0 FFF7FEFF 		bl	SCSI_Verify10
 1868              	.LVL173:
 164:Middlewares/ST/STM32_USB_Device_Library/Class/MSC/Src/usbd_msc_scsi.c **** 
 1869              		.loc 1 164 7 view .LVU584
 171:Middlewares/ST/STM32_USB_Device_Library/Class/MSC/Src/usbd_msc_scsi.c **** }
 1870              		.loc 1 171 10 is_stmt 0 view .LVU585
 1871 00c4 0020     		movs	r0, #0
 164:Middlewares/ST/STM32_USB_Device_Library/Class/MSC/Src/usbd_msc_scsi.c **** 
 1872              		.loc 1 164 7 view .LVU586
 1873 00c6 D2E7     		b	.L113
 1874              	.LVL174:
 1875              	.L99:
 167:Middlewares/ST/STM32_USB_Device_Library/Class/MSC/Src/usbd_msc_scsi.c ****       return -1;
 1876              		.loc 1 167 7 is_stmt 1 view .LVU587
 1877 00c8 2023     		movs	r3, #32
 1878 00ca 0522     		movs	r2, #5
 1879              	.LVL175:
 167:Middlewares/ST/STM32_USB_Device_Library/Class/MSC/Src/usbd_msc_scsi.c ****       return -1;
 1880              		.loc 1 167 7 is_stmt 0 view .LVU588
 1881 00cc FFF7FEFF 		bl	SCSI_SenseCode
 1882              	.LVL176:
ARM GAS  C:\Users\Vento\AppData\Local\Temp\cclmUhoh.s 			page 53


 168:Middlewares/ST/STM32_USB_Device_Library/Class/MSC/Src/usbd_msc_scsi.c ****   }
 1883              		.loc 1 168 7 is_stmt 1 view .LVU589
 168:Middlewares/ST/STM32_USB_Device_Library/Class/MSC/Src/usbd_msc_scsi.c ****   }
 1884              		.loc 1 168 14 is_stmt 0 view .LVU590
 1885 00d0 4FF0FF30 		mov	r0, #-1
 1886 00d4 CBE7     		b	.L113
 1887              		.cfi_endproc
 1888              	.LFE68:
 1890              		.text
 1891              	.Letext0:
 1892              		.file 2 "d:\\tools\\gcc-arm-none-eabi-10.3-2021.07\\arm-none-eabi\\include\\machine\\_default_type
 1893              		.file 3 "d:\\tools\\gcc-arm-none-eabi-10.3-2021.07\\arm-none-eabi\\include\\sys\\_stdint.h"
 1894              		.file 4 "Middlewares/ST/STM32_USB_Device_Library/Core/Inc/usbd_def.h"
 1895              		.file 5 "Middlewares/ST/STM32_USB_Device_Library/Class/MSC/Inc/usbd_msc_bot.h"
 1896              		.file 6 "Middlewares/ST/STM32_USB_Device_Library/Class/MSC/Inc/usbd_msc_scsi.h"
 1897              		.file 7 "Middlewares/ST/STM32_USB_Device_Library/Class/MSC/Inc/usbd_msc.h"
 1898              		.file 8 "Middlewares/ST/STM32_USB_Device_Library/Class/MSC/Inc/usbd_msc_data.h"
 1899              		.file 9 "Middlewares/ST/STM32_USB_Device_Library/Core/Inc/usbd_core.h"
ARM GAS  C:\Users\Vento\AppData\Local\Temp\cclmUhoh.s 			page 54

