ARM GAS  C:\Users\Acer\AppData\Local\Temp\ccDLT0aZ.s 			page 1


   1              		.cpu cortex-m3
   2              		.arch armv7-m
   3              		.fpu softvfp
   4              		.eabi_attribute 20, 1
   5              		.eabi_attribute 21, 1
   6              		.eabi_attribute 23, 3
   7              		.eabi_attribute 24, 1
   8              		.eabi_attribute 25, 1
   9              		.eabi_attribute 26, 1
  10              		.eabi_attribute 30, 1
  11              		.eabi_attribute 34, 1
  12              		.eabi_attribute 18, 4
  13              		.file	"freertos.c"
  14              		.text
  15              	.Ltext0:
  16              		.cfi_sections	.debug_frame
  17              		.section	.text.Task0Func,"ax",%progbits
  18              		.align	1
  19              		.global	Task0Func
  20              		.syntax unified
  21              		.thumb
  22              		.thumb_func
  24              	Task0Func:
  25              	.LVL0:
  26              	.LFB75:
  27              		.file 1 "Core/Src/freertos.c"
   1:Core/Src/freertos.c **** /* USER CODE BEGIN Header */
   2:Core/Src/freertos.c **** /**
   3:Core/Src/freertos.c ****   ******************************************************************************
   4:Core/Src/freertos.c ****   * File Name          : freertos.c
   5:Core/Src/freertos.c ****   * Description        : Code for freertos applications
   6:Core/Src/freertos.c ****   ******************************************************************************
   7:Core/Src/freertos.c ****   * @attention
   8:Core/Src/freertos.c ****   *
   9:Core/Src/freertos.c ****   * Copyright (c) 2023 STMicroelectronics.
  10:Core/Src/freertos.c ****   * All rights reserved.
  11:Core/Src/freertos.c ****   *
  12:Core/Src/freertos.c ****   * This software is licensed under terms that can be found in the LICENSE file
  13:Core/Src/freertos.c ****   * in the root directory of this software component.
  14:Core/Src/freertos.c ****   * If no LICENSE file comes with this software, it is provided AS-IS.
  15:Core/Src/freertos.c ****   *
  16:Core/Src/freertos.c ****   ******************************************************************************
  17:Core/Src/freertos.c ****   */
  18:Core/Src/freertos.c **** /* USER CODE END Header */
  19:Core/Src/freertos.c **** 
  20:Core/Src/freertos.c **** /* Includes ------------------------------------------------------------------*/
  21:Core/Src/freertos.c **** #include "FreeRTOS.h"
  22:Core/Src/freertos.c **** #include "task.h"
  23:Core/Src/freertos.c **** #include "main.h"
  24:Core/Src/freertos.c **** #include "cmsis_os.h"
  25:Core/Src/freertos.c **** 
  26:Core/Src/freertos.c **** /* Private includes ----------------------------------------------------------*/
  27:Core/Src/freertos.c **** /* USER CODE BEGIN Includes */
  28:Core/Src/freertos.c **** #include <stdio.h>
  29:Core/Src/freertos.c **** #include <stdint.h>
  30:Core/Src/freertos.c **** #include <string.h>
  31:Core/Src/freertos.c **** #include <stdlib.h>
ARM GAS  C:\Users\Acer\AppData\Local\Temp\ccDLT0aZ.s 			page 2


  32:Core/Src/freertos.c **** #include <math.h>
  33:Core/Src/freertos.c **** #include <stdbool.h>
  34:Core/Src/freertos.c **** #include <time.h>
  35:Core/Src/freertos.c **** #include "sx1278.h"
  36:Core/Src/freertos.c **** #include "timers.h"
  37:Core/Src/freertos.c **** #include "event_groups.h"
  38:Core/Src/freertos.c **** #include "common.h"
  39:Core/Src/freertos.c **** /* USER CODE END Includes */
  40:Core/Src/freertos.c **** 
  41:Core/Src/freertos.c **** /* Private typedef -----------------------------------------------------------*/
  42:Core/Src/freertos.c **** /* USER CODE BEGIN PTD */
  43:Core/Src/freertos.c **** 
  44:Core/Src/freertos.c **** /* USER CODE END PTD */
  45:Core/Src/freertos.c **** 
  46:Core/Src/freertos.c **** /* Private define ------------------------------------------------------------*/
  47:Core/Src/freertos.c **** /* USER CODE BEGIN PD */
  48:Core/Src/freertos.c **** 
  49:Core/Src/freertos.c **** /* USER CODE END PD */
  50:Core/Src/freertos.c **** 
  51:Core/Src/freertos.c **** /* Private macro -------------------------------------------------------------*/
  52:Core/Src/freertos.c **** /* USER CODE BEGIN PM */
  53:Core/Src/freertos.c **** 
  54:Core/Src/freertos.c **** /* USER CODE END PM */
  55:Core/Src/freertos.c **** 
  56:Core/Src/freertos.c **** /* Private variables ---------------------------------------------------------*/
  57:Core/Src/freertos.c **** /* USER CODE BEGIN Variables */
  58:Core/Src/freertos.c **** static const char *TAG = "FREERTOS";
  59:Core/Src/freertos.c **** EventGroupHandle_t sx1278_evt_group;
  60:Core/Src/freertos.c **** 
  61:Core/Src/freertos.c **** /* USER CODE END Variables */
  62:Core/Src/freertos.c **** /* Definitions for Task0 */
  63:Core/Src/freertos.c **** osThreadId_t Task0Handle;
  64:Core/Src/freertos.c **** const osThreadAttr_t Task0_attributes = {
  65:Core/Src/freertos.c ****   .name = "Task0",
  66:Core/Src/freertos.c ****   .stack_size = 128 * 4,
  67:Core/Src/freertos.c ****   .priority = (osPriority_t) osPriorityNormal,
  68:Core/Src/freertos.c **** };
  69:Core/Src/freertos.c **** 
  70:Core/Src/freertos.c **** /* Private function prototypes -----------------------------------------------*/
  71:Core/Src/freertos.c **** /* USER CODE BEGIN FunctionPrototypes */
  72:Core/Src/freertos.c **** void HAL_GPIO_EXTI_Callback(uint16_t GPIO_Pin)
  73:Core/Src/freertos.c **** {
  74:Core/Src/freertos.c **** 	BaseType_t xHigherPriorityTaskWoken = pdFALSE;
  75:Core/Src/freertos.c **** 	if(GPIO_Pin == GPIO_PIN_5)//PC5
  76:Core/Src/freertos.c **** 	{
  77:Core/Src/freertos.c **** 		xEventGroupSetBitsFromISR(sx1278_evt_group, SX1278_DIO0_BIT, &xHigherPriorityTaskWoken);
  78:Core/Src/freertos.c **** 	}
  79:Core/Src/freertos.c **** }
  80:Core/Src/freertos.c **** 
  81:Core/Src/freertos.c **** //void sx1278_task(void *param)
  82:Core/Src/freertos.c **** //{
  83:Core/Src/freertos.c **** //	uint8_t data_send[128] = {0};
  84:Core/Src/freertos.c **** //	uint8_t data_recv[128] = {0};
  85:Core/Src/freertos.c **** //	float snr;//signal to noise ratio
  86:Core/Src/freertos.c **** //	int rssi; //received signal strength indication
  87:Core/Src/freertos.c **** //	EventBits_t evt_bits;
  88:Core/Src/freertos.c **** //	sx1278_init();
ARM GAS  C:\Users\Acer\AppData\Local\Temp\ccDLT0aZ.s 			page 3


  89:Core/Src/freertos.c **** //	sx1278_evt_group = xEventGroupCreate();
  90:Core/Src/freertos.c **** //	float temp_test = 16.8;
  91:Core/Src/freertos.c **** //	float battery_test = 3.58;
  92:Core/Src/freertos.c **** //	float humid_test = 0.7;
  93:Core/Src/freertos.c **** //	float soil_test = 0.8;
  94:Core/Src/freertos.c **** //	float PH_test = 6.5;
  95:Core/Src/freertos.c **** //	while(1)
  96:Core/Src/freertos.c **** //	{
  97:Core/Src/freertos.c **** //		sx1278_start_recv_data();
  98:Core/Src/freertos.c **** //		evt_bits = xEventGroupWaitBits(sx1278_evt_group,SX1278_DIO0_BIT, pdTRUE, pdFALSE, portMAX_DELAY
  99:Core/Src/freertos.c **** //		if(evt_bits & SX1278_DIO0_BIT)
 100:Core/Src/freertos.c **** //		{
 101:Core/Src/freertos.c **** //			if(sx1278_recv_data(data_recv, &rssi, &snr, &sx1278_node) == SX1278_OK)
 102:Core/Src/freertos.c **** //			{
 103:Core/Src/freertos.c **** //				char data_log[100];
 104:Core/Src/freertos.c **** //				char snr_arr[10];
 105:Core/Src/freertos.c **** //				ftoa((double)snr, snr_arr, 2);
 106:Core/Src/freertos.c **** //				sprintf(data_log, "Packet rssi: %d, snr: %s", rssi, snr_arr);
 107:Core/Src/freertos.c **** //				LOG(TAG, data_log);
 108:Core/Src/freertos.c **** //				ftoa((double)temp_test, sx1278_node.temp, 2);
 109:Core/Src/freertos.c **** //				ftoa((double)battery_test, sx1278_node.battery, 2);
 110:Core/Src/freertos.c **** //				ftoa((double)humid_test, sx1278_node.humid, 2);
 111:Core/Src/freertos.c **** //				ftoa((double)soil_test, sx1278_node.soil, 2);
 112:Core/Src/freertos.c **** //				ftoa((double)PH_test, sx1278_node.PH, 2);
 113:Core/Src/freertos.c **** //				listen_before_talk();
 114:Core/Src/freertos.c **** //				send_respond(UPLINK_TX_RESPOND_OPCODE, sx1278_node, data_send);
 115:Core/Src/freertos.c **** //			}
 116:Core/Src/freertos.c **** //			else
 117:Core/Src/freertos.c **** //			{
 118:Core/Src/freertos.c **** //
 119:Core/Src/freertos.c **** //			}
 120:Core/Src/freertos.c **** //		}
 121:Core/Src/freertos.c **** //	}
 122:Core/Src/freertos.c **** //}
 123:Core/Src/freertos.c **** 
 124:Core/Src/freertos.c **** void peripheral_task(void *param)
 125:Core/Src/freertos.c **** {
 126:Core/Src/freertos.c **** 	while(1)
 127:Core/Src/freertos.c **** 	{
 128:Core/Src/freertos.c **** 		vTaskDelay(100 / portTICK_RATE_MS);
 129:Core/Src/freertos.c **** 	}
 130:Core/Src/freertos.c **** }
 131:Core/Src/freertos.c **** /* USER CODE END FunctionPrototypes */
 132:Core/Src/freertos.c **** 
 133:Core/Src/freertos.c **** void Task0Func(void *argument);
 134:Core/Src/freertos.c **** 
 135:Core/Src/freertos.c **** extern void MX_USB_DEVICE_Init(void);
 136:Core/Src/freertos.c **** void MX_FREERTOS_Init(void); /* (MISRA C 2004 rule 8.1) */
 137:Core/Src/freertos.c **** 
 138:Core/Src/freertos.c **** /**
 139:Core/Src/freertos.c ****   * @brief  FreeRTOS initialization
 140:Core/Src/freertos.c ****   * @param  None
 141:Core/Src/freertos.c ****   * @retval None
 142:Core/Src/freertos.c ****   */
 143:Core/Src/freertos.c **** void MX_FREERTOS_Init(void) {
 144:Core/Src/freertos.c ****   /* USER CODE BEGIN Init */
 145:Core/Src/freertos.c **** 
ARM GAS  C:\Users\Acer\AppData\Local\Temp\ccDLT0aZ.s 			page 4


 146:Core/Src/freertos.c ****   /* USER CODE END Init */
 147:Core/Src/freertos.c **** 
 148:Core/Src/freertos.c ****   /* USER CODE BEGIN RTOS_MUTEX */
 149:Core/Src/freertos.c ****   /* add mutexes, ... */
 150:Core/Src/freertos.c ****   /* USER CODE END RTOS_MUTEX */
 151:Core/Src/freertos.c **** 
 152:Core/Src/freertos.c ****   /* USER CODE BEGIN RTOS_SEMAPHORES */
 153:Core/Src/freertos.c ****   /* add semaphores, ... */
 154:Core/Src/freertos.c ****   /* USER CODE END RTOS_SEMAPHORES */
 155:Core/Src/freertos.c **** 
 156:Core/Src/freertos.c ****   /* USER CODE BEGIN RTOS_TIMERS */
 157:Core/Src/freertos.c ****   /* start timers, add new ones, ... */
 158:Core/Src/freertos.c ****   /* USER CODE END RTOS_TIMERS */
 159:Core/Src/freertos.c **** 
 160:Core/Src/freertos.c ****   /* USER CODE BEGIN RTOS_QUEUES */
 161:Core/Src/freertos.c ****   /* add queues, ... */
 162:Core/Src/freertos.c ****   /* USER CODE END RTOS_QUEUES */
 163:Core/Src/freertos.c **** 
 164:Core/Src/freertos.c ****   /* Create the thread(s) */
 165:Core/Src/freertos.c ****   /* creation of Task0 */
 166:Core/Src/freertos.c ****   Task0Handle = osThreadNew(Task0Func, NULL, &Task0_attributes);
 167:Core/Src/freertos.c **** 
 168:Core/Src/freertos.c ****   /* USER CODE BEGIN RTOS_THREADS */
 169:Core/Src/freertos.c ****   /* add threads, ... */
 170:Core/Src/freertos.c ****   /* USER CODE END RTOS_THREADS */
 171:Core/Src/freertos.c **** 
 172:Core/Src/freertos.c ****   /* USER CODE BEGIN RTOS_EVENTS */
 173:Core/Src/freertos.c ****   /* add events, ... */
 174:Core/Src/freertos.c ****   /* USER CODE END RTOS_EVENTS */
 175:Core/Src/freertos.c **** 
 176:Core/Src/freertos.c **** }
 177:Core/Src/freertos.c **** 
 178:Core/Src/freertos.c **** /* USER CODE BEGIN Header_Task0Func */
 179:Core/Src/freertos.c **** /**
 180:Core/Src/freertos.c ****   * @brief  Function implementing the Task0 thread.
 181:Core/Src/freertos.c ****   * @param  argument: Not used
 182:Core/Src/freertos.c ****   * @retval None
 183:Core/Src/freertos.c ****   */
 184:Core/Src/freertos.c **** /* USER CODE END Header_Task0Func */
 185:Core/Src/freertos.c **** void Task0Func(void *argument)
 186:Core/Src/freertos.c **** {
  28              		.loc 1 186 1 view -0
  29              		.cfi_startproc
  30              		@ Volatile: function does not return.
  31              		@ args = 0, pretend = 0, frame = 0
  32              		@ frame_needed = 0, uses_anonymous_args = 0
  33              		.loc 1 186 1 is_stmt 0 view .LVU1
  34 0000 08B5     		push	{r3, lr}
  35              	.LCFI0:
  36              		.cfi_def_cfa_offset 8
  37              		.cfi_offset 3, -8
  38              		.cfi_offset 14, -4
 187:Core/Src/freertos.c ****   /* init code for USB_DEVICE */
 188:Core/Src/freertos.c ****   MX_USB_DEVICE_Init();
  39              		.loc 1 188 3 is_stmt 1 view .LVU2
  40 0002 FFF7FEFF 		bl	MX_USB_DEVICE_Init
  41              	.LVL1:
ARM GAS  C:\Users\Acer\AppData\Local\Temp\ccDLT0aZ.s 			page 5


  42              	.L2:
 189:Core/Src/freertos.c ****   /* USER CODE BEGIN Task0Func */
 190:Core/Src/freertos.c ****   /* Infinite loop */
 191:Core/Src/freertos.c ****   for(;;)
  43              		.loc 1 191 3 discriminator 1 view .LVU3
 192:Core/Src/freertos.c ****   {
 193:Core/Src/freertos.c ****     osDelay(1);
  44              		.loc 1 193 5 discriminator 1 view .LVU4
  45 0006 0120     		movs	r0, #1
  46 0008 FFF7FEFF 		bl	osDelay
  47              	.LVL2:
 191:Core/Src/freertos.c ****   {
  48              		.loc 1 191 8 discriminator 1 view .LVU5
  49 000c FBE7     		b	.L2
  50              		.cfi_endproc
  51              	.LFE75:
  53              		.section	.text.HAL_GPIO_EXTI_Callback,"ax",%progbits
  54              		.align	1
  55              		.global	HAL_GPIO_EXTI_Callback
  56              		.syntax unified
  57              		.thumb
  58              		.thumb_func
  60              	HAL_GPIO_EXTI_Callback:
  61              	.LVL3:
  62              	.LFB72:
  73:Core/Src/freertos.c **** 	BaseType_t xHigherPriorityTaskWoken = pdFALSE;
  63              		.loc 1 73 1 view -0
  64              		.cfi_startproc
  65              		@ args = 0, pretend = 0, frame = 8
  66              		@ frame_needed = 0, uses_anonymous_args = 0
  73:Core/Src/freertos.c **** 	BaseType_t xHigherPriorityTaskWoken = pdFALSE;
  67              		.loc 1 73 1 is_stmt 0 view .LVU7
  68 0000 00B5     		push	{lr}
  69              	.LCFI1:
  70              		.cfi_def_cfa_offset 4
  71              		.cfi_offset 14, -4
  72 0002 83B0     		sub	sp, sp, #12
  73              	.LCFI2:
  74              		.cfi_def_cfa_offset 16
  74:Core/Src/freertos.c **** 	if(GPIO_Pin == GPIO_PIN_5)//PC5
  75              		.loc 1 74 2 is_stmt 1 view .LVU8
  74:Core/Src/freertos.c **** 	if(GPIO_Pin == GPIO_PIN_5)//PC5
  76              		.loc 1 74 13 is_stmt 0 view .LVU9
  77 0004 0023     		movs	r3, #0
  78 0006 0193     		str	r3, [sp, #4]
  75:Core/Src/freertos.c **** 	{
  79              		.loc 1 75 2 is_stmt 1 view .LVU10
  75:Core/Src/freertos.c **** 	{
  80              		.loc 1 75 4 is_stmt 0 view .LVU11
  81 0008 2028     		cmp	r0, #32
  82 000a 02D0     		beq	.L7
  83              	.LVL4:
  84              	.L4:
  79:Core/Src/freertos.c **** 
  85              		.loc 1 79 1 view .LVU12
  86 000c 03B0     		add	sp, sp, #12
  87              	.LCFI3:
ARM GAS  C:\Users\Acer\AppData\Local\Temp\ccDLT0aZ.s 			page 6


  88              		.cfi_remember_state
  89              		.cfi_def_cfa_offset 4
  90              		@ sp needed
  91 000e 5DF804FB 		ldr	pc, [sp], #4
  92              	.LVL5:
  93              	.L7:
  94              	.LCFI4:
  95              		.cfi_restore_state
  77:Core/Src/freertos.c **** 	}
  96              		.loc 1 77 3 is_stmt 1 view .LVU13
  97 0012 01AA     		add	r2, sp, #4
  98 0014 0121     		movs	r1, #1
  99 0016 024B     		ldr	r3, .L8
 100 0018 1868     		ldr	r0, [r3]
 101              	.LVL6:
  77:Core/Src/freertos.c **** 	}
 102              		.loc 1 77 3 is_stmt 0 view .LVU14
 103 001a FFF7FEFF 		bl	xEventGroupSetBitsFromISR
 104              	.LVL7:
  79:Core/Src/freertos.c **** 
 105              		.loc 1 79 1 view .LVU15
 106 001e F5E7     		b	.L4
 107              	.L9:
 108              		.align	2
 109              	.L8:
 110 0020 00000000 		.word	.LANCHOR0
 111              		.cfi_endproc
 112              	.LFE72:
 114              		.section	.text.peripheral_task,"ax",%progbits
 115              		.align	1
 116              		.global	peripheral_task
 117              		.syntax unified
 118              		.thumb
 119              		.thumb_func
 121              	peripheral_task:
 122              	.LFB73:
 125:Core/Src/freertos.c **** 	while(1)
 123              		.loc 1 125 1 is_stmt 1 view -0
 124              		.cfi_startproc
 125              		@ Volatile: function does not return.
 126              		@ args = 0, pretend = 0, frame = 0
 127              		@ frame_needed = 0, uses_anonymous_args = 0
 128              	.LVL8:
 125:Core/Src/freertos.c **** 	while(1)
 129              		.loc 1 125 1 is_stmt 0 view .LVU17
 130 0000 08B5     		push	{r3, lr}
 131              	.LCFI5:
 132              		.cfi_def_cfa_offset 8
 133              		.cfi_offset 3, -8
 134              		.cfi_offset 14, -4
 135              	.LVL9:
 136              	.L11:
 126:Core/Src/freertos.c **** 	{
 137              		.loc 1 126 2 is_stmt 1 discriminator 1 view .LVU18
 128:Core/Src/freertos.c **** 	}
 138              		.loc 1 128 3 discriminator 1 view .LVU19
 139 0002 6420     		movs	r0, #100
ARM GAS  C:\Users\Acer\AppData\Local\Temp\ccDLT0aZ.s 			page 7


 140 0004 FFF7FEFF 		bl	vTaskDelay
 141              	.LVL10:
 126:Core/Src/freertos.c **** 	{
 142              		.loc 1 126 7 discriminator 1 view .LVU20
 143 0008 FBE7     		b	.L11
 144              		.cfi_endproc
 145              	.LFE73:
 147              		.section	.text.MX_FREERTOS_Init,"ax",%progbits
 148              		.align	1
 149              		.global	MX_FREERTOS_Init
 150              		.syntax unified
 151              		.thumb
 152              		.thumb_func
 154              	MX_FREERTOS_Init:
 155              	.LFB74:
 143:Core/Src/freertos.c ****   /* USER CODE BEGIN Init */
 156              		.loc 1 143 29 view -0
 157              		.cfi_startproc
 158              		@ args = 0, pretend = 0, frame = 0
 159              		@ frame_needed = 0, uses_anonymous_args = 0
 160 0000 08B5     		push	{r3, lr}
 161              	.LCFI6:
 162              		.cfi_def_cfa_offset 8
 163              		.cfi_offset 3, -8
 164              		.cfi_offset 14, -4
 166:Core/Src/freertos.c **** 
 165              		.loc 1 166 3 view .LVU22
 166:Core/Src/freertos.c **** 
 166              		.loc 1 166 17 is_stmt 0 view .LVU23
 167 0002 044A     		ldr	r2, .L15
 168 0004 0021     		movs	r1, #0
 169 0006 0448     		ldr	r0, .L15+4
 170 0008 FFF7FEFF 		bl	osThreadNew
 171              	.LVL11:
 166:Core/Src/freertos.c **** 
 172              		.loc 1 166 15 view .LVU24
 173 000c 034B     		ldr	r3, .L15+8
 174 000e 1860     		str	r0, [r3]
 176:Core/Src/freertos.c **** 
 175              		.loc 1 176 1 view .LVU25
 176 0010 08BD     		pop	{r3, pc}
 177              	.L16:
 178 0012 00BF     		.align	2
 179              	.L15:
 180 0014 00000000 		.word	.LANCHOR1
 181 0018 00000000 		.word	Task0Func
 182 001c 00000000 		.word	.LANCHOR2
 183              		.cfi_endproc
 184              	.LFE74:
 186              		.global	Task0_attributes
 187              		.section	.rodata.str1.4,"aMS",%progbits,1
 188              		.align	2
 189              	.LC0:
 190 0000 5461736B 		.ascii	"Task0\000"
 190      3000
 191              		.global	Task0Handle
 192              		.global	sx1278_evt_group
ARM GAS  C:\Users\Acer\AppData\Local\Temp\ccDLT0aZ.s 			page 8


 193              		.section	.bss.Task0Handle,"aw",%nobits
 194              		.align	2
 195              		.set	.LANCHOR2,. + 0
 198              	Task0Handle:
 199 0000 00000000 		.space	4
 200              		.section	.bss.sx1278_evt_group,"aw",%nobits
 201              		.align	2
 202              		.set	.LANCHOR0,. + 0
 205              	sx1278_evt_group:
 206 0000 00000000 		.space	4
 207              		.section	.rodata.Task0_attributes,"a"
 208              		.align	2
 209              		.set	.LANCHOR1,. + 0
 212              	Task0_attributes:
 213 0000 00000000 		.word	.LC0
 214 0004 00000000 		.space	16
 214      00000000 
 214      00000000 
 214      00000000 
 215 0014 00020000 		.word	512
 216 0018 18000000 		.word	24
 217 001c 00000000 		.space	8
 217      00000000 
 218              		.text
 219              	.Letext0:
 220              		.file 2 "c:\\makefile\\gcc-arm-none-eabi-10.3-2021.10-win32\\gcc-arm-none-eabi-10.3-2021.10\\arm-n
 221              		.file 3 "c:\\makefile\\gcc-arm-none-eabi-10.3-2021.10-win32\\gcc-arm-none-eabi-10.3-2021.10\\arm-n
 222              		.file 4 "Middlewares/Third_Party/FreeRTOS/Source/portable/GCC/ARM_CM3/portmacro.h"
 223              		.file 5 "Middlewares/Third_Party/FreeRTOS/Source/CMSIS_RTOS_V2/cmsis_os2.h"
 224              		.file 6 "Middlewares/Third_Party/FreeRTOS/Source/include/event_groups.h"
 225              		.file 7 "Middlewares/Third_Party/FreeRTOS/Source/include/task.h"
ARM GAS  C:\Users\Acer\AppData\Local\Temp\ccDLT0aZ.s 			page 9

