ARM GAS  C:\Users\Acer\AppData\Local\Temp\ccgV18Zq.s 			page 1


   1              		.cpu cortex-m3
   2              		.arch armv7-m
   3              		.fpu softvfp
   4              		.eabi_attribute 20, 1
   5              		.eabi_attribute 21, 1
   6              		.eabi_attribute 23, 3
   7              		.eabi_attribute 24, 1
   8              		.eabi_attribute 25, 1
   9              		.eabi_attribute 26, 1
  10              		.eabi_attribute 30, 1
  11              		.eabi_attribute 34, 1
  12              		.eabi_attribute 18, 4
  13              		.file	"gpio.c"
  14              		.text
  15              	.Ltext0:
  16              		.cfi_sections	.debug_frame
  17              		.section	.text.MX_GPIO_Init,"ax",%progbits
  18              		.align	1
  19              		.global	MX_GPIO_Init
  20              		.syntax unified
  21              		.thumb
  22              		.thumb_func
  24              	MX_GPIO_Init:
  25              	.LFB65:
  26              		.file 1 "Core/Src/gpio.c"
   1:Core/Src/gpio.c **** /* USER CODE BEGIN Header */
   2:Core/Src/gpio.c **** /**
   3:Core/Src/gpio.c ****   ******************************************************************************
   4:Core/Src/gpio.c ****   * @file    gpio.c
   5:Core/Src/gpio.c ****   * @brief   This file provides code for the configuration
   6:Core/Src/gpio.c ****   *          of all used GPIO pins.
   7:Core/Src/gpio.c ****   ******************************************************************************
   8:Core/Src/gpio.c ****   * @attention
   9:Core/Src/gpio.c ****   *
  10:Core/Src/gpio.c ****   * Copyright (c) 2023 STMicroelectronics.
  11:Core/Src/gpio.c ****   * All rights reserved.
  12:Core/Src/gpio.c ****   *
  13:Core/Src/gpio.c ****   * This software is licensed under terms that can be found in the LICENSE file
  14:Core/Src/gpio.c ****   * in the root directory of this software component.
  15:Core/Src/gpio.c ****   * If no LICENSE file comes with this software, it is provided AS-IS.
  16:Core/Src/gpio.c ****   *
  17:Core/Src/gpio.c ****   ******************************************************************************
  18:Core/Src/gpio.c ****   */
  19:Core/Src/gpio.c **** /* USER CODE END Header */
  20:Core/Src/gpio.c **** 
  21:Core/Src/gpio.c **** /* Includes ------------------------------------------------------------------*/
  22:Core/Src/gpio.c **** #include "gpio.h"
  23:Core/Src/gpio.c **** 
  24:Core/Src/gpio.c **** /* USER CODE BEGIN 0 */
  25:Core/Src/gpio.c **** 
  26:Core/Src/gpio.c **** /* USER CODE END 0 */
  27:Core/Src/gpio.c **** 
  28:Core/Src/gpio.c **** /*----------------------------------------------------------------------------*/
  29:Core/Src/gpio.c **** /* Configure GPIO                                                             */
  30:Core/Src/gpio.c **** /*----------------------------------------------------------------------------*/
  31:Core/Src/gpio.c **** /* USER CODE BEGIN 1 */
  32:Core/Src/gpio.c **** 
ARM GAS  C:\Users\Acer\AppData\Local\Temp\ccgV18Zq.s 			page 2


  33:Core/Src/gpio.c **** /* USER CODE END 1 */
  34:Core/Src/gpio.c **** 
  35:Core/Src/gpio.c **** /** Configure pins as
  36:Core/Src/gpio.c ****         * Analog
  37:Core/Src/gpio.c ****         * Input
  38:Core/Src/gpio.c ****         * Output
  39:Core/Src/gpio.c ****         * EVENT_OUT
  40:Core/Src/gpio.c ****         * EXTI
  41:Core/Src/gpio.c **** */
  42:Core/Src/gpio.c **** void MX_GPIO_Init(void)
  43:Core/Src/gpio.c **** {
  27              		.loc 1 43 1 view -0
  28              		.cfi_startproc
  29              		@ args = 0, pretend = 0, frame = 32
  30              		@ frame_needed = 0, uses_anonymous_args = 0
  31 0000 2DE9F04F 		push	{r4, r5, r6, r7, r8, r9, r10, fp, lr}
  32              	.LCFI0:
  33              		.cfi_def_cfa_offset 36
  34              		.cfi_offset 4, -36
  35              		.cfi_offset 5, -32
  36              		.cfi_offset 6, -28
  37              		.cfi_offset 7, -24
  38              		.cfi_offset 8, -20
  39              		.cfi_offset 9, -16
  40              		.cfi_offset 10, -12
  41              		.cfi_offset 11, -8
  42              		.cfi_offset 14, -4
  43 0004 89B0     		sub	sp, sp, #36
  44              	.LCFI1:
  45              		.cfi_def_cfa_offset 72
  44:Core/Src/gpio.c **** 
  45:Core/Src/gpio.c ****   GPIO_InitTypeDef GPIO_InitStruct = {0};
  46              		.loc 1 45 3 view .LVU1
  47              		.loc 1 45 20 is_stmt 0 view .LVU2
  48 0006 0024     		movs	r4, #0
  49 0008 0494     		str	r4, [sp, #16]
  50 000a 0594     		str	r4, [sp, #20]
  51 000c 0694     		str	r4, [sp, #24]
  52 000e 0794     		str	r4, [sp, #28]
  46:Core/Src/gpio.c **** 
  47:Core/Src/gpio.c ****   /* GPIO Ports Clock Enable */
  48:Core/Src/gpio.c ****   __HAL_RCC_GPIOC_CLK_ENABLE();
  53              		.loc 1 48 3 is_stmt 1 view .LVU3
  54              	.LBB2:
  55              		.loc 1 48 3 view .LVU4
  56              		.loc 1 48 3 view .LVU5
  57 0010 4C4B     		ldr	r3, .L3
  58 0012 9A69     		ldr	r2, [r3, #24]
  59 0014 42F01002 		orr	r2, r2, #16
  60 0018 9A61     		str	r2, [r3, #24]
  61              		.loc 1 48 3 view .LVU6
  62 001a 9A69     		ldr	r2, [r3, #24]
  63 001c 02F01002 		and	r2, r2, #16
  64 0020 0092     		str	r2, [sp]
  65              		.loc 1 48 3 view .LVU7
  66 0022 009A     		ldr	r2, [sp]
  67              	.LBE2:
ARM GAS  C:\Users\Acer\AppData\Local\Temp\ccgV18Zq.s 			page 3


  68              		.loc 1 48 3 view .LVU8
  49:Core/Src/gpio.c ****   __HAL_RCC_GPIOD_CLK_ENABLE();
  69              		.loc 1 49 3 view .LVU9
  70              	.LBB3:
  71              		.loc 1 49 3 view .LVU10
  72              		.loc 1 49 3 view .LVU11
  73 0024 9A69     		ldr	r2, [r3, #24]
  74 0026 42F02002 		orr	r2, r2, #32
  75 002a 9A61     		str	r2, [r3, #24]
  76              		.loc 1 49 3 view .LVU12
  77 002c 9A69     		ldr	r2, [r3, #24]
  78 002e 02F02002 		and	r2, r2, #32
  79 0032 0192     		str	r2, [sp, #4]
  80              		.loc 1 49 3 view .LVU13
  81 0034 019A     		ldr	r2, [sp, #4]
  82              	.LBE3:
  83              		.loc 1 49 3 view .LVU14
  50:Core/Src/gpio.c ****   __HAL_RCC_GPIOA_CLK_ENABLE();
  84              		.loc 1 50 3 view .LVU15
  85              	.LBB4:
  86              		.loc 1 50 3 view .LVU16
  87              		.loc 1 50 3 view .LVU17
  88 0036 9A69     		ldr	r2, [r3, #24]
  89 0038 42F00402 		orr	r2, r2, #4
  90 003c 9A61     		str	r2, [r3, #24]
  91              		.loc 1 50 3 view .LVU18
  92 003e 9A69     		ldr	r2, [r3, #24]
  93 0040 02F00402 		and	r2, r2, #4
  94 0044 0292     		str	r2, [sp, #8]
  95              		.loc 1 50 3 view .LVU19
  96 0046 029A     		ldr	r2, [sp, #8]
  97              	.LBE4:
  98              		.loc 1 50 3 view .LVU20
  51:Core/Src/gpio.c ****   __HAL_RCC_GPIOB_CLK_ENABLE();
  99              		.loc 1 51 3 view .LVU21
 100              	.LBB5:
 101              		.loc 1 51 3 view .LVU22
 102              		.loc 1 51 3 view .LVU23
 103 0048 9A69     		ldr	r2, [r3, #24]
 104 004a 42F00802 		orr	r2, r2, #8
 105 004e 9A61     		str	r2, [r3, #24]
 106              		.loc 1 51 3 view .LVU24
 107 0050 9B69     		ldr	r3, [r3, #24]
 108 0052 03F00803 		and	r3, r3, #8
 109 0056 0393     		str	r3, [sp, #12]
 110              		.loc 1 51 3 view .LVU25
 111 0058 039B     		ldr	r3, [sp, #12]
 112              	.LBE5:
 113              		.loc 1 51 3 view .LVU26
  52:Core/Src/gpio.c **** 
  53:Core/Src/gpio.c ****   /*Configure GPIO pin Output Level */
  54:Core/Src/gpio.c ****   HAL_GPIO_WritePin(GPIOC, LED0_Pin|LED1_Pin|LED2_Pin|RL0_Pin
 114              		.loc 1 54 3 view .LVU27
 115 005a 3B4F     		ldr	r7, .L3+4
 116 005c 2246     		mov	r2, r4
 117 005e 4FF69F71 		movw	r1, #65439
 118 0062 3846     		mov	r0, r7
ARM GAS  C:\Users\Acer\AppData\Local\Temp\ccgV18Zq.s 			page 4


 119 0064 FFF7FEFF 		bl	HAL_GPIO_WritePin
 120              	.LVL0:
  55:Core/Src/gpio.c ****                           |RL1_Pin|RL2_Pin|RL3_Pin|LoRa_RST_Pin
  56:Core/Src/gpio.c ****                           |S3_Pin|S2_Pin|S1_Pin|DB14_Pin
  57:Core/Src/gpio.c ****                           |DB13_Pin|DB12_Pin, GPIO_PIN_RESET);
  58:Core/Src/gpio.c **** 
  59:Core/Src/gpio.c ****   /*Configure GPIO pin Output Level */
  60:Core/Src/gpio.c ****   HAL_GPIO_WritePin(GPIOA, SPI1_CS_Pin|S0_Pin|BL_Pin|RST_Pin
 121              		.loc 1 60 3 view .LVU28
 122 0068 DFF8E080 		ldr	r8, .L3+8
 123 006c 2246     		mov	r2, r4
 124 006e 48F21071 		movw	r1, #34576
 125 0072 4046     		mov	r0, r8
 126 0074 FFF7FEFF 		bl	HAL_GPIO_WritePin
 127              	.LVL1:
  61:Core/Src/gpio.c ****                           |DB15_Pin, GPIO_PIN_RESET);
  62:Core/Src/gpio.c **** 
  63:Core/Src/gpio.c ****   /*Configure GPIO pin Output Level */
  64:Core/Src/gpio.c ****   HAL_GPIO_WritePin(GPIOB, SPI2_CS_Pin|PD10_Pin|PD9_Pin|PD8_Pin
 128              		.loc 1 64 3 view .LVU29
 129 0078 DFF8D4B0 		ldr	fp, .L3+12
 130 007c 2246     		mov	r2, r4
 131 007e 41F2F831 		movw	r1, #5112
 132 0082 5846     		mov	r0, fp
 133 0084 FFF7FEFF 		bl	HAL_GPIO_WritePin
 134              	.LVL2:
  65:Core/Src/gpio.c ****                           |RS_Pin|RD_Pin|WS_Pin|CS_Pin, GPIO_PIN_RESET);
  66:Core/Src/gpio.c **** 
  67:Core/Src/gpio.c ****   /*Configure GPIO pin Output Level */
  68:Core/Src/gpio.c ****   HAL_GPIO_WritePin(DB11_GPIO_Port, DB11_Pin, GPIO_PIN_RESET);
 135              		.loc 1 68 3 view .LVU30
 136 0088 DFF8C8A0 		ldr	r10, .L3+16
 137 008c 2246     		mov	r2, r4
 138 008e 0421     		movs	r1, #4
 139 0090 5046     		mov	r0, r10
 140 0092 FFF7FEFF 		bl	HAL_GPIO_WritePin
 141              	.LVL3:
  69:Core/Src/gpio.c **** 
  70:Core/Src/gpio.c ****   /*Configure GPIO pins : PCPin PCPin PCPin PCPin
  71:Core/Src/gpio.c ****                            PCPin PCPin PCPin PCPin
  72:Core/Src/gpio.c ****                            PCPin PCPin */
  73:Core/Src/gpio.c ****   GPIO_InitStruct.Pin = LED0_Pin|LED1_Pin|LED2_Pin|RL0_Pin
 142              		.loc 1 73 3 view .LVU31
 143              		.loc 1 73 23 is_stmt 0 view .LVU32
 144 0096 4EF28F33 		movw	r3, #58255
 145 009a 0493     		str	r3, [sp, #16]
  74:Core/Src/gpio.c ****                           |RL1_Pin|RL2_Pin|RL3_Pin|S3_Pin
  75:Core/Src/gpio.c ****                           |S2_Pin|S1_Pin;
  76:Core/Src/gpio.c ****   GPIO_InitStruct.Mode = GPIO_MODE_OUTPUT_PP;
 146              		.loc 1 76 3 is_stmt 1 view .LVU33
 147              		.loc 1 76 24 is_stmt 0 view .LVU34
 148 009c 0125     		movs	r5, #1
 149 009e 0595     		str	r5, [sp, #20]
  77:Core/Src/gpio.c ****   GPIO_InitStruct.Pull = GPIO_NOPULL;
 150              		.loc 1 77 3 is_stmt 1 view .LVU35
 151              		.loc 1 77 24 is_stmt 0 view .LVU36
 152 00a0 0694     		str	r4, [sp, #24]
ARM GAS  C:\Users\Acer\AppData\Local\Temp\ccgV18Zq.s 			page 5


  78:Core/Src/gpio.c ****   GPIO_InitStruct.Speed = GPIO_SPEED_FREQ_LOW;
 153              		.loc 1 78 3 is_stmt 1 view .LVU37
 154              		.loc 1 78 25 is_stmt 0 view .LVU38
 155 00a2 4FF00209 		mov	r9, #2
 156 00a6 CDF81C90 		str	r9, [sp, #28]
  79:Core/Src/gpio.c ****   HAL_GPIO_Init(GPIOC, &GPIO_InitStruct);
 157              		.loc 1 79 3 is_stmt 1 view .LVU39
 158 00aa 04A9     		add	r1, sp, #16
 159 00ac 3846     		mov	r0, r7
 160 00ae FFF7FEFF 		bl	HAL_GPIO_Init
 161              	.LVL4:
  80:Core/Src/gpio.c **** 
  81:Core/Src/gpio.c ****   /*Configure GPIO pins : PAPin PAPin PAPin PAPin */
  82:Core/Src/gpio.c ****   GPIO_InitStruct.Pin = SPI1_CS_Pin|BL_Pin|RST_Pin|DB15_Pin;
 162              		.loc 1 82 3 view .LVU40
 163              		.loc 1 82 23 is_stmt 0 view .LVU41
 164 00b2 48F21063 		movw	r3, #34320
 165 00b6 0493     		str	r3, [sp, #16]
  83:Core/Src/gpio.c ****   GPIO_InitStruct.Mode = GPIO_MODE_OUTPUT_PP;
 166              		.loc 1 83 3 is_stmt 1 view .LVU42
 167              		.loc 1 83 24 is_stmt 0 view .LVU43
 168 00b8 0595     		str	r5, [sp, #20]
  84:Core/Src/gpio.c ****   GPIO_InitStruct.Pull = GPIO_NOPULL;
 169              		.loc 1 84 3 is_stmt 1 view .LVU44
 170              		.loc 1 84 24 is_stmt 0 view .LVU45
 171 00ba 0694     		str	r4, [sp, #24]
  85:Core/Src/gpio.c ****   GPIO_InitStruct.Speed = GPIO_SPEED_FREQ_HIGH;
 172              		.loc 1 85 3 is_stmt 1 view .LVU46
 173              		.loc 1 85 25 is_stmt 0 view .LVU47
 174 00bc 0326     		movs	r6, #3
 175 00be 0796     		str	r6, [sp, #28]
  86:Core/Src/gpio.c ****   HAL_GPIO_Init(GPIOA, &GPIO_InitStruct);
 176              		.loc 1 86 3 is_stmt 1 view .LVU48
 177 00c0 04A9     		add	r1, sp, #16
 178 00c2 4046     		mov	r0, r8
 179 00c4 FFF7FEFF 		bl	HAL_GPIO_Init
 180              	.LVL5:
  87:Core/Src/gpio.c **** 
  88:Core/Src/gpio.c ****   /*Configure GPIO pins : PCPin PCPin PCPin PCPin */
  89:Core/Src/gpio.c ****   GPIO_InitStruct.Pin = LoRa_RST_Pin|DB14_Pin|DB13_Pin|DB12_Pin;
 181              		.loc 1 89 3 view .LVU49
 182              		.loc 1 89 23 is_stmt 0 view .LVU50
 183 00c8 41F61043 		movw	r3, #7184
 184 00cc 0493     		str	r3, [sp, #16]
  90:Core/Src/gpio.c ****   GPIO_InitStruct.Mode = GPIO_MODE_OUTPUT_PP;
 185              		.loc 1 90 3 is_stmt 1 view .LVU51
 186              		.loc 1 90 24 is_stmt 0 view .LVU52
 187 00ce 0595     		str	r5, [sp, #20]
  91:Core/Src/gpio.c ****   GPIO_InitStruct.Pull = GPIO_NOPULL;
 188              		.loc 1 91 3 is_stmt 1 view .LVU53
 189              		.loc 1 91 24 is_stmt 0 view .LVU54
 190 00d0 0694     		str	r4, [sp, #24]
  92:Core/Src/gpio.c ****   GPIO_InitStruct.Speed = GPIO_SPEED_FREQ_HIGH;
 191              		.loc 1 92 3 is_stmt 1 view .LVU55
 192              		.loc 1 92 25 is_stmt 0 view .LVU56
 193 00d2 0796     		str	r6, [sp, #28]
  93:Core/Src/gpio.c ****   HAL_GPIO_Init(GPIOC, &GPIO_InitStruct);
ARM GAS  C:\Users\Acer\AppData\Local\Temp\ccgV18Zq.s 			page 6


 194              		.loc 1 93 3 is_stmt 1 view .LVU57
 195 00d4 04A9     		add	r1, sp, #16
 196 00d6 3846     		mov	r0, r7
 197 00d8 FFF7FEFF 		bl	HAL_GPIO_Init
 198              	.LVL6:
  94:Core/Src/gpio.c **** 
  95:Core/Src/gpio.c ****   /*Configure GPIO pins : PCPin PCPin */
  96:Core/Src/gpio.c ****   GPIO_InitStruct.Pin = LoRa_EXT_Pin|Touch_EXT_Pin;
 199              		.loc 1 96 3 view .LVU58
 200              		.loc 1 96 23 is_stmt 0 view .LVU59
 201 00dc 6023     		movs	r3, #96
 202 00de 0493     		str	r3, [sp, #16]
  97:Core/Src/gpio.c ****   GPIO_InitStruct.Mode = GPIO_MODE_IT_RISING;
 203              		.loc 1 97 3 is_stmt 1 view .LVU60
 204              		.loc 1 97 24 is_stmt 0 view .LVU61
 205 00e0 1D4B     		ldr	r3, .L3+20
 206 00e2 0593     		str	r3, [sp, #20]
  98:Core/Src/gpio.c ****   GPIO_InitStruct.Pull = GPIO_PULLDOWN;
 207              		.loc 1 98 3 is_stmt 1 view .LVU62
 208              		.loc 1 98 24 is_stmt 0 view .LVU63
 209 00e4 CDF81890 		str	r9, [sp, #24]
  99:Core/Src/gpio.c ****   HAL_GPIO_Init(GPIOC, &GPIO_InitStruct);
 210              		.loc 1 99 3 is_stmt 1 view .LVU64
 211 00e8 04A9     		add	r1, sp, #16
 212 00ea 3846     		mov	r0, r7
 213 00ec FFF7FEFF 		bl	HAL_GPIO_Init
 214              	.LVL7:
 100:Core/Src/gpio.c **** 
 101:Core/Src/gpio.c ****   /*Configure GPIO pins : PBPin PBPin PBPin PBPin
 102:Core/Src/gpio.c ****                            PBPin PBPin PBPin PBPin */
 103:Core/Src/gpio.c ****   GPIO_InitStruct.Pin = SPI2_CS_Pin|PD10_Pin|PD9_Pin|PD8_Pin
 215              		.loc 1 103 3 view .LVU65
 216              		.loc 1 103 23 is_stmt 0 view .LVU66
 217 00f0 41F2F833 		movw	r3, #5112
 218 00f4 0493     		str	r3, [sp, #16]
 104:Core/Src/gpio.c ****                           |RS_Pin|RD_Pin|WS_Pin|CS_Pin;
 105:Core/Src/gpio.c ****   GPIO_InitStruct.Mode = GPIO_MODE_OUTPUT_PP;
 219              		.loc 1 105 3 is_stmt 1 view .LVU67
 220              		.loc 1 105 24 is_stmt 0 view .LVU68
 221 00f6 0595     		str	r5, [sp, #20]
 106:Core/Src/gpio.c ****   GPIO_InitStruct.Pull = GPIO_NOPULL;
 222              		.loc 1 106 3 is_stmt 1 view .LVU69
 223              		.loc 1 106 24 is_stmt 0 view .LVU70
 224 00f8 0694     		str	r4, [sp, #24]
 107:Core/Src/gpio.c ****   GPIO_InitStruct.Speed = GPIO_SPEED_FREQ_HIGH;
 225              		.loc 1 107 3 is_stmt 1 view .LVU71
 226              		.loc 1 107 25 is_stmt 0 view .LVU72
 227 00fa 0796     		str	r6, [sp, #28]
 108:Core/Src/gpio.c ****   HAL_GPIO_Init(GPIOB, &GPIO_InitStruct);
 228              		.loc 1 108 3 is_stmt 1 view .LVU73
 229 00fc 04A9     		add	r1, sp, #16
 230 00fe 5846     		mov	r0, fp
 231 0100 FFF7FEFF 		bl	HAL_GPIO_Init
 232              	.LVL8:
 109:Core/Src/gpio.c **** 
 110:Core/Src/gpio.c ****   /*Configure GPIO pin : PtPin */
 111:Core/Src/gpio.c ****   GPIO_InitStruct.Pin = S0_Pin;
ARM GAS  C:\Users\Acer\AppData\Local\Temp\ccgV18Zq.s 			page 7


 233              		.loc 1 111 3 view .LVU74
 234              		.loc 1 111 23 is_stmt 0 view .LVU75
 235 0104 4FF48073 		mov	r3, #256
 236 0108 0493     		str	r3, [sp, #16]
 112:Core/Src/gpio.c ****   GPIO_InitStruct.Mode = GPIO_MODE_OUTPUT_PP;
 237              		.loc 1 112 3 is_stmt 1 view .LVU76
 238              		.loc 1 112 24 is_stmt 0 view .LVU77
 239 010a 0595     		str	r5, [sp, #20]
 113:Core/Src/gpio.c ****   GPIO_InitStruct.Pull = GPIO_NOPULL;
 240              		.loc 1 113 3 is_stmt 1 view .LVU78
 241              		.loc 1 113 24 is_stmt 0 view .LVU79
 242 010c 0694     		str	r4, [sp, #24]
 114:Core/Src/gpio.c ****   GPIO_InitStruct.Speed = GPIO_SPEED_FREQ_LOW;
 243              		.loc 1 114 3 is_stmt 1 view .LVU80
 244              		.loc 1 114 25 is_stmt 0 view .LVU81
 245 010e CDF81C90 		str	r9, [sp, #28]
 115:Core/Src/gpio.c ****   HAL_GPIO_Init(S0_GPIO_Port, &GPIO_InitStruct);
 246              		.loc 1 115 3 is_stmt 1 view .LVU82
 247 0112 04A9     		add	r1, sp, #16
 248 0114 4046     		mov	r0, r8
 249 0116 FFF7FEFF 		bl	HAL_GPIO_Init
 250              	.LVL9:
 116:Core/Src/gpio.c **** 
 117:Core/Src/gpio.c ****   /*Configure GPIO pin : PtPin */
 118:Core/Src/gpio.c ****   GPIO_InitStruct.Pin = DB11_Pin;
 251              		.loc 1 118 3 view .LVU83
 252              		.loc 1 118 23 is_stmt 0 view .LVU84
 253 011a 0423     		movs	r3, #4
 254 011c 0493     		str	r3, [sp, #16]
 119:Core/Src/gpio.c ****   GPIO_InitStruct.Mode = GPIO_MODE_OUTPUT_PP;
 255              		.loc 1 119 3 is_stmt 1 view .LVU85
 256              		.loc 1 119 24 is_stmt 0 view .LVU86
 257 011e 0595     		str	r5, [sp, #20]
 120:Core/Src/gpio.c ****   GPIO_InitStruct.Pull = GPIO_NOPULL;
 258              		.loc 1 120 3 is_stmt 1 view .LVU87
 259              		.loc 1 120 24 is_stmt 0 view .LVU88
 260 0120 0694     		str	r4, [sp, #24]
 121:Core/Src/gpio.c ****   GPIO_InitStruct.Speed = GPIO_SPEED_FREQ_HIGH;
 261              		.loc 1 121 3 is_stmt 1 view .LVU89
 262              		.loc 1 121 25 is_stmt 0 view .LVU90
 263 0122 0796     		str	r6, [sp, #28]
 122:Core/Src/gpio.c ****   HAL_GPIO_Init(DB11_GPIO_Port, &GPIO_InitStruct);
 264              		.loc 1 122 3 is_stmt 1 view .LVU91
 265 0124 04A9     		add	r1, sp, #16
 266 0126 5046     		mov	r0, r10
 267 0128 FFF7FEFF 		bl	HAL_GPIO_Init
 268              	.LVL10:
 123:Core/Src/gpio.c **** 
 124:Core/Src/gpio.c ****   /* EXTI interrupt init*/
 125:Core/Src/gpio.c ****   HAL_NVIC_SetPriority(EXTI9_5_IRQn, 5, 0);
 269              		.loc 1 125 3 view .LVU92
 270 012c 2246     		mov	r2, r4
 271 012e 0521     		movs	r1, #5
 272 0130 1720     		movs	r0, #23
 273 0132 FFF7FEFF 		bl	HAL_NVIC_SetPriority
 274              	.LVL11:
 126:Core/Src/gpio.c ****   HAL_NVIC_EnableIRQ(EXTI9_5_IRQn);
ARM GAS  C:\Users\Acer\AppData\Local\Temp\ccgV18Zq.s 			page 8


 275              		.loc 1 126 3 view .LVU93
 276 0136 1720     		movs	r0, #23
 277 0138 FFF7FEFF 		bl	HAL_NVIC_EnableIRQ
 278              	.LVL12:
 127:Core/Src/gpio.c **** 
 128:Core/Src/gpio.c **** }
 279              		.loc 1 128 1 is_stmt 0 view .LVU94
 280 013c 09B0     		add	sp, sp, #36
 281              	.LCFI2:
 282              		.cfi_def_cfa_offset 36
 283              		@ sp needed
 284 013e BDE8F08F 		pop	{r4, r5, r6, r7, r8, r9, r10, fp, pc}
 285              	.L4:
 286 0142 00BF     		.align	2
 287              	.L3:
 288 0144 00100240 		.word	1073876992
 289 0148 00100140 		.word	1073811456
 290 014c 00080140 		.word	1073809408
 291 0150 000C0140 		.word	1073810432
 292 0154 00140140 		.word	1073812480
 293 0158 00001110 		.word	269549568
 294              		.cfi_endproc
 295              	.LFE65:
 297              		.text
 298              	.Letext0:
 299              		.file 2 "c:\\makefile\\gcc-arm-none-eabi-10.3-2021.10-win32\\gcc-arm-none-eabi-10.3-2021.10\\arm-n
 300              		.file 3 "c:\\makefile\\gcc-arm-none-eabi-10.3-2021.10-win32\\gcc-arm-none-eabi-10.3-2021.10\\arm-n
 301              		.file 4 "Drivers/CMSIS/Device/ST/STM32F1xx/Include/stm32f103xe.h"
 302              		.file 5 "Drivers/STM32F1xx_HAL_Driver/Inc/stm32f1xx_hal_gpio.h"
 303              		.file 6 "Drivers/STM32F1xx_HAL_Driver/Inc/stm32f1xx_hal_cortex.h"
ARM GAS  C:\Users\Acer\AppData\Local\Temp\ccgV18Zq.s 			page 9

